ARM GAS  /tmp/cce2EF8y.s 			page 1


   1              		.syntax unified
   2              		.cpu cortex-m4
   3              		.fpu softvfp
   4              		.eabi_attribute 20, 1
   5              		.eabi_attribute 21, 1
   6              		.eabi_attribute 23, 3
   7              		.eabi_attribute 24, 1
   8              		.eabi_attribute 25, 1
   9              		.eabi_attribute 26, 1
  10              		.eabi_attribute 30, 2
  11              		.eabi_attribute 34, 1
  12              		.eabi_attribute 18, 4
  13              		.thumb
  14              		.syntax unified
  15              		.file	"chcore_v7m.c"
  16              		.text
  17              	.Ltext0:
  18              		.cfi_sections	.debug_frame
  19              		.section	.text._port_switch_from_isr,"ax",%progbits
  20              		.align	2
  21              		.p2align 4,,15
  22              		.global	_port_switch_from_isr
  23              		.thumb
  24              		.thumb_func
  25              		.type	_port_switch_from_isr, %function
  26              	_port_switch_from_isr:
  27              	.LFB6:
  28              		.file 1 "../../../os/ports/GCC/ARMCMx/chcore_v7m.c"
  29              		.loc 1 207 0
  30              		.cfi_startproc
  31              		@ Naked Function: prologue and epilogue provided by programmer.
  32              		@ args = 0, pretend = 0, frame = 0
  33              		@ frame_needed = 0, uses_anonymous_args = 0
  34              		.loc 1 209 0
  35 0000 FFF7FEFF 		bl	dbg_check_lock
  36              	.LVL0:
  37              		.loc 1 210 0
  38 0004 FFF7FEFF 		bl	chSchDoReschedule
  39              	.LVL1:
  40              		.loc 1 211 0
  41 0008 FFF7FEFF 		bl	dbg_check_unlock
  42              	.LVL2:
  43              		.loc 1 212 0
  44              		.syntax unified
  45              	@ 212 "../../../os/ports/GCC/ARMCMx/chcore_v7m.c" 1
  46              		_port_exit_from_isr:
  47              	@ 0 "" 2
  48              		.loc 1 214 0
  49              	@ 214 "../../../os/ports/GCC/ARMCMx/chcore_v7m.c" 1
  50 000c 00DF     		svc     #0
  51              	@ 0 "" 2
  52              		.loc 1 221 0
  53              		.thumb
  54              		.syntax unified
  55              		.cfi_endproc
  56              	.LFE6:
  57              		.size	_port_switch_from_isr, .-_port_switch_from_isr
ARM GAS  /tmp/cce2EF8y.s 			page 2


  58 000e 00BF     		.section	.text._port_irq_epilogue.part.0,"ax",%progbits
  59              		.align	2
  60              		.p2align 4,,15
  61              		.thumb
  62              		.thumb_func
  63              		.type	_port_irq_epilogue.part.0, %function
  64              	_port_irq_epilogue.part.0:
  65              	.LFB9:
  66              		.loc 1 148 0
  67              		.cfi_startproc
  68              		@ args = 0, pretend = 0, frame = 0
  69              		@ frame_needed = 0, uses_anonymous_args = 0
  70              		@ link register save eliminated.
  71              	.LBB5:
  72              		.loc 1 155 0
  73              		.syntax unified
  74              	@ 155 "../../../os/ports/GCC/ARMCMx/chcore_v7m.c" 1
  75 0000 EFF30983 		mrs     r3, PSP
  76              	@ 0 "" 2
  77              	.LVL3:
  78              		.loc 1 160 0
  79              		.thumb
  80              		.syntax unified
  81 0004 A3F12002 		sub	r2, r3, #32
  82              	.LVL4:
  83              		.syntax unified
  84              	@ 160 "../../../os/ports/GCC/ARMCMx/chcore_v7m.c" 1
  85 0008 82F30988 		msr     PSP, r2
  86              	@ 0 "" 2
  87              		.loc 1 165 0
  88              		.thumb
  89              		.syntax unified
  90 000c 074A     		ldr	r2, .L6
  91              	.LVL5:
  92 000e 1168     		ldr	r1, [r2]
  93 0010 9269     		ldr	r2, [r2, #24]
  94 0012 8968     		ldr	r1, [r1, #8]
  95 0014 9268     		ldr	r2, [r2, #8]
  96 0016 9142     		cmp	r1, r2
  97              		.loc 1 161 0
  98 0018 4FF08070 		mov	r0, #16777216
  99              		.loc 1 167 0
 100 001c 8CBF     		ite	hi
 101 001e 044A     		ldrhi	r2, .L6+4
 102              		.loc 1 176 0
 103 0020 044A     		ldrls	r2, .L6+8
 104              		.loc 1 161 0
 105 0022 43F8040C 		str	r0, [r3, #-4]
 106              		.loc 1 176 0
 107 0026 43F8082C 		str	r2, [r3, #-8]
 108 002a 7047     		bx	lr
 109              	.L7:
 110              		.align	2
 111              	.L6:
 112 002c 00000000 		.word	rlist
 113 0030 00000000 		.word	_port_switch_from_isr
 114 0034 0C000000 		.word	_port_exit_from_isr
ARM GAS  /tmp/cce2EF8y.s 			page 3


 115              	.LBE5:
 116              		.cfi_endproc
 117              	.LFE9:
 118              		.size	_port_irq_epilogue.part.0, .-_port_irq_epilogue.part.0
 119              		.section	.text.SysTickVector,"ax",%progbits
 120              		.align	2
 121              		.p2align 4,,15
 122              		.global	SysTickVector
 123              		.thumb
 124              		.thumb_func
 125              		.type	SysTickVector, %function
 126              	SysTickVector:
 127              	.LFB0:
 128              		.loc 1 47 0
 129              		.cfi_startproc
 130              		@ args = 0, pretend = 0, frame = 0
 131              		@ frame_needed = 0, uses_anonymous_args = 0
 132 0000 08B5     		push	{r3, lr}
 133              		.cfi_def_cfa_offset 8
 134              		.cfi_offset 3, -8
 135              		.cfi_offset 14, -4
 136              		.loc 1 49 0
 137 0002 FFF7FEFF 		bl	dbg_check_enter_isr
 138              	.LVL6:
 139              		.loc 1 51 0
 140              		.syntax unified
 141              	@ 51 "../../../os/ports/GCC/ARMCMx/chcore_v7m.c" 1
 142 0006 FFF7FEFF 		bl      _port_lock
 143              	@ 0 "" 2
 144              		.thumb
 145              		.syntax unified
 146 000a FFF7FEFF 		bl	dbg_check_lock_from_isr
 147              	.LVL7:
 148              		.loc 1 52 0
 149 000e FFF7FEFF 		bl	chSysTimerHandlerI
 150              	.LVL8:
 151              		.loc 1 53 0
 152 0012 FFF7FEFF 		bl	dbg_check_unlock_from_isr
 153              	.LVL9:
 154              		.syntax unified
 155              	@ 53 "../../../os/ports/GCC/ARMCMx/chcore_v7m.c" 1
 156 0016 FFF7FEFF 		bl      _port_unlock
 157              	@ 0 "" 2
 158              		.loc 1 55 0
 159              		.thumb
 160              		.syntax unified
 161 001a FFF7FEFF 		bl	dbg_check_leave_isr
 162              	.LVL10:
 163              	.LBB6:
 164              	.LBB7:
 165              		.loc 1 150 0
 166              		.syntax unified
 167              	@ 150 "../../../os/ports/GCC/ARMCMx/chcore_v7m.c" 1
 168 001e FFF7FEFF 		bl      _port_lock
 169              	@ 0 "" 2
 170              		.loc 1 151 0
 171              		.thumb
ARM GAS  /tmp/cce2EF8y.s 			page 4


 172              		.syntax unified
 173 0022 054B     		ldr	r3, .L12
 174 0024 5B68     		ldr	r3, [r3, #4]
 175 0026 1B05     		lsls	r3, r3, #20
 176 0028 02D4     		bmi	.L11
 177              		.loc 1 197 0
 178              		.syntax unified
 179              	@ 197 "../../../os/ports/GCC/ARMCMx/chcore_v7m.c" 1
 180 002a FFF7FEFF 		bl      _port_unlock
 181              	@ 0 "" 2
 182              		.thumb
 183              		.syntax unified
 184 002e 08BD     		pop	{r3, pc}
 185              	.L11:
 186              	.LBE7:
 187              	.LBE6:
 188              		.loc 1 56 0
 189 0030 BDE80840 		pop	{r3, lr}
 190              		.cfi_restore 14
 191              		.cfi_restore 3
 192              		.cfi_def_cfa_offset 0
 193              	.LBB9:
 194              	.LBB8:
 195 0034 FFF7FEBF 		b	_port_irq_epilogue.part.0
 196              	.LVL11:
 197              	.L13:
 198              		.align	2
 199              	.L12:
 200 0038 00ED00E0 		.word	-536810240
 201              	.LBE8:
 202              	.LBE9:
 203              		.cfi_endproc
 204              	.LFE0:
 205              		.size	SysTickVector, .-SysTickVector
 206              		.section	.text.SVCallVector,"ax",%progbits
 207              		.align	2
 208              		.p2align 4,,15
 209              		.global	SVCallVector
 210              		.thumb
 211              		.thumb_func
 212              		.type	SVCallVector, %function
 213              	SVCallVector:
 214              	.LFB1:
 215              		.loc 1 65 0
 216              		.cfi_startproc
 217              		@ args = 0, pretend = 0, frame = 0
 218              		@ frame_needed = 0, uses_anonymous_args = 0
 219 0000 00B5     		push	{lr}
 220              		.cfi_def_cfa_offset 4
 221              		.cfi_offset 14, -4
 222              		.loc 1 69 0
 223              		.syntax unified
 224              	@ 69 "../../../os/ports/GCC/ARMCMx/chcore_v7m.c" 1
 225 0002 EFF30983 		mrs     r3, PSP
 226              	@ 0 "" 2
 227              	.LVL12:
 228              		.loc 1 80 0
ARM GAS  /tmp/cce2EF8y.s 			page 5


 229              		.thumb
 230              		.syntax unified
 231 0006 2033     		adds	r3, r3, #32
 232              	.LVL13:
 233              		.syntax unified
 234              	@ 80 "../../../os/ports/GCC/ARMCMx/chcore_v7m.c" 1
 235 0008 83F30988 		msr     PSP, r3
 236              	@ 0 "" 2
 237              		.loc 1 81 0
 238              	@ 81 "../../../os/ports/GCC/ARMCMx/chcore_v7m.c" 1
 239 000c FFF7FEFF 		bl      _port_unlock
 240              	@ 0 "" 2
 241              	.LVL14:
 242              		.thumb
 243              		.syntax unified
 244 0010 5DF804FB 		ldr	pc, [sp], #4
 245              		.cfi_endproc
 246              	.LFE1:
 247              		.size	SVCallVector, .-SVCallVector
 248              		.section	.text._port_init,"ax",%progbits
 249              		.align	2
 250              		.p2align 4,,15
 251              		.global	_port_init
 252              		.thumb
 253              		.thumb_func
 254              		.type	_port_init, %function
 255              	_port_init:
 256              	.LFB2:
 257              		.loc 1 118 0
 258              		.cfi_startproc
 259              		@ args = 0, pretend = 0, frame = 0
 260              		@ frame_needed = 0, uses_anonymous_args = 0
 261 0000 08B5     		push	{r3, lr}
 262              		.cfi_def_cfa_offset 8
 263              		.cfi_offset 3, -8
 264              		.cfi_offset 14, -4
 265              		.loc 1 121 0
 266 0002 094B     		ldr	r3, .L18
 267              		.loc 1 122 0
 268 0004 094A     		ldr	r2, .L18+4
 269              		.loc 1 121 0
 270 0006 0021     		movs	r1, #0
 271 0008 9960     		str	r1, [r3, #8]
 272              		.loc 1 125 0
 273 000a 0720     		movs	r0, #7
 274              		.loc 1 122 0
 275 000c DA60     		str	r2, [r3, #12]
 276              		.loc 1 125 0
 277 000e 1021     		movs	r1, #16
 278 0010 FFF7FEFF 		bl	nvicSetSystemHandlerPriority
 279              	.LVL15:
 280              		.loc 1 127 0
 281 0014 2021     		movs	r1, #32
 282 0016 0A20     		movs	r0, #10
 283 0018 FFF7FEFF 		bl	nvicSetSystemHandlerPriority
 284              	.LVL16:
 285              		.loc 1 129 0
ARM GAS  /tmp/cce2EF8y.s 			page 6


 286 001c 8021     		movs	r1, #128
 287 001e 0B20     		movs	r0, #11
 288              		.loc 1 131 0
 289 0020 BDE80840 		pop	{r3, lr}
 290              		.cfi_restore 14
 291              		.cfi_restore 3
 292              		.cfi_def_cfa_offset 0
 293              		.loc 1 129 0
 294 0024 FFF7FEBF 		b	nvicSetSystemHandlerPriority
 295              	.LVL17:
 296              	.L19:
 297              		.align	2
 298              	.L18:
 299 0028 00ED00E0 		.word	-536810240
 300 002c 0003FA05 		.word	100270848
 301              		.cfi_endproc
 302              	.LFE2:
 303              		.size	_port_init, .-_port_init
 304              		.section	.text._port_lock,"ax",%progbits
 305              		.align	2
 306              		.p2align 4,,15
 307              		.global	_port_lock
 308              		.thumb
 309              		.thumb_func
 310              		.type	_port_lock, %function
 311              	_port_lock:
 312              	.LFB3:
 313              		.loc 1 134 0
 314              		.cfi_startproc
 315              		@ args = 0, pretend = 0, frame = 0
 316              		@ frame_needed = 0, uses_anonymous_args = 0
 317              		@ link register save eliminated.
 318              		.loc 1 135 0
 319 0000 2023     		movs	r3, #32
 320              		.loc 1 136 0
 321              		.syntax unified
 322              	@ 136 "../../../os/ports/GCC/ARMCMx/chcore_v7m.c" 1
 323 0002 83F31188 		msr     BASEPRI, r3
 324              	@ 0 "" 2
 325              		.thumb
 326              		.syntax unified
 327 0006 7047     		bx	lr
 328              		.cfi_endproc
 329              	.LFE3:
 330              		.size	_port_lock, .-_port_lock
 331              		.section	.text._port_unlock,"ax",%progbits
 332              		.align	2
 333              		.p2align 4,,15
 334              		.global	_port_unlock
 335              		.thumb
 336              		.thumb_func
 337              		.type	_port_unlock, %function
 338              	_port_unlock:
 339              	.LFB4:
 340              		.loc 1 139 0
 341              		.cfi_startproc
 342              		@ args = 0, pretend = 0, frame = 0
ARM GAS  /tmp/cce2EF8y.s 			page 7


 343              		@ frame_needed = 0, uses_anonymous_args = 0
 344              		@ link register save eliminated.
 345              		.loc 1 140 0
 346 0000 0023     		movs	r3, #0
 347              		.loc 1 141 0
 348              		.syntax unified
 349              	@ 141 "../../../os/ports/GCC/ARMCMx/chcore_v7m.c" 1
 350 0002 83F31188 		msr     BASEPRI, r3
 351              	@ 0 "" 2
 352              		.thumb
 353              		.syntax unified
 354 0006 7047     		bx	lr
 355              		.cfi_endproc
 356              	.LFE4:
 357              		.size	_port_unlock, .-_port_unlock
 358              		.section	.text._port_irq_epilogue,"ax",%progbits
 359              		.align	2
 360              		.p2align 4,,15
 361              		.global	_port_irq_epilogue
 362              		.thumb
 363              		.thumb_func
 364              		.type	_port_irq_epilogue, %function
 365              	_port_irq_epilogue:
 366              	.LFB5:
 367              		.loc 1 148 0
 368              		.cfi_startproc
 369              		@ args = 0, pretend = 0, frame = 0
 370              		@ frame_needed = 0, uses_anonymous_args = 0
 371 0000 00B5     		push	{lr}
 372              		.cfi_def_cfa_offset 4
 373              		.cfi_offset 14, -4
 374              		.loc 1 150 0
 375              		.syntax unified
 376              	@ 150 "../../../os/ports/GCC/ARMCMx/chcore_v7m.c" 1
 377 0002 FFF7FEFF 		bl      _port_lock
 378              	@ 0 "" 2
 379              		.loc 1 151 0
 380              		.thumb
 381              		.syntax unified
 382 0006 064B     		ldr	r3, .L25
 383 0008 5B68     		ldr	r3, [r3, #4]
 384 000a 1B05     		lsls	r3, r3, #20
 385 000c 03D5     		bpl	.L23
 386              		.loc 1 198 0
 387 000e 5DF804EB 		ldr	lr, [sp], #4
 388              		.cfi_remember_state
 389              		.cfi_restore 14
 390              		.cfi_def_cfa_offset 0
 391 0012 FFF7FEBF 		b	_port_irq_epilogue.part.0
 392              	.LVL18:
 393              	.L23:
 394              		.cfi_restore_state
 395              		.loc 1 197 0
 396              		.syntax unified
 397              	@ 197 "../../../os/ports/GCC/ARMCMx/chcore_v7m.c" 1
 398 0016 FFF7FEFF 		bl      _port_unlock
 399              	@ 0 "" 2
ARM GAS  /tmp/cce2EF8y.s 			page 8


 400              		.thumb
 401              		.syntax unified
 402 001a 5DF804FB 		ldr	pc, [sp], #4
 403              	.L26:
 404 001e 00BF     		.align	2
 405              	.L25:
 406 0020 00ED00E0 		.word	-536810240
 407              		.cfi_endproc
 408              	.LFE5:
 409              		.size	_port_irq_epilogue, .-_port_irq_epilogue
 410              		.section	.text._port_switch,"ax",%progbits
 411              		.align	2
 412              		.p2align 4,,15
 413              		.global	_port_switch
 414              		.thumb
 415              		.thumb_func
 416              		.type	_port_switch, %function
 417              	_port_switch:
 418              	.LFB7:
 419              		.loc 1 236 0
 420              		.cfi_startproc
 421              		@ Naked Function: prologue and epilogue provided by programmer.
 422              		@ args = 0, pretend = 0, frame = 0
 423              		@ frame_needed = 0, uses_anonymous_args = 0
 424              	.LVL19:
 425              		.loc 1 238 0
 426              		.syntax unified
 427              	@ 238 "../../../os/ports/GCC/ARMCMx/chcore_v7m.c" 1
 428 0000 2DE9F04F 		push    {r4, r5, r6, r7, r8, r9, r10, r11, lr}
 429              	@ 0 "" 2
 430              		.loc 1 244 0
 431              	@ 244 "../../../os/ports/GCC/ARMCMx/chcore_v7m.c" 1
 432 0004 C1F80CD0 		str     sp, [r1, #12]                          
 433 0008 D0F80CD0 		ldr     sp, [r0, #12]
 434              	@ 0 "" 2
 435              		.loc 1 250 0
 436              	@ 250 "../../../os/ports/GCC/ARMCMx/chcore_v7m.c" 1
 437 000c BDE8F08F 		pop     {r4, r5, r6, r7, r8, r9, r10, r11, pc}
 438              	@ 0 "" 2
 439              		.loc 1 252 0
 440              		.thumb
 441              		.syntax unified
 442              		.cfi_endproc
 443              	.LFE7:
 444              		.size	_port_switch, .-_port_switch
 445              		.section	.text._port_thread_start,"ax",%progbits
 446              		.align	2
 447              		.p2align 4,,15
 448              		.global	_port_thread_start
 449              		.thumb
 450              		.thumb_func
 451              		.type	_port_thread_start, %function
 452              	_port_thread_start:
 453              	.LFB8:
 454              		.loc 1 259 0
 455              		.cfi_startproc
 456              		@ args = 0, pretend = 0, frame = 0
ARM GAS  /tmp/cce2EF8y.s 			page 9


 457              		@ frame_needed = 0, uses_anonymous_args = 0
 458 0000 08B5     		push	{r3, lr}
 459              		.cfi_def_cfa_offset 8
 460              		.cfi_offset 3, -8
 461              		.cfi_offset 14, -4
 462              		.loc 1 261 0
 463 0002 FFF7FEFF 		bl	dbg_check_unlock
 464              	.LVL20:
 465              		.syntax unified
 466              	@ 261 "../../../os/ports/GCC/ARMCMx/chcore_v7m.c" 1
 467 0006 FFF7FEFF 		bl      _port_unlock
 468              	@ 0 "" 2
 469              		.loc 1 262 0
 470              	@ 262 "../../../os/ports/GCC/ARMCMx/chcore_v7m.c" 1
 471 000a 2846     		mov     r0, r5                                 
 472 000c A047     		blx     r4                                     
 473 000e FFF7FEFF 		bl      chThdExit
 474              	@ 0 "" 2
 475              		.thumb
 476              		.syntax unified
 477 0012 08BD     		pop	{r3, pc}
 478              		.cfi_endproc
 479              	.LFE8:
 480              		.size	_port_thread_start, .-_port_thread_start
 481              		.text
 482              	.Letext0:
 483              		.file 2 "/home/z80/programs/sw4stm32/plugins/fr.ac6.mcu.externaltools.arm-none.linux32_1.7.0.20160
 484              		.file 3 "/home/z80/programs/sw4stm32/plugins/fr.ac6.mcu.externaltools.arm-none.linux32_1.7.0.20160
 485              		.file 4 "../../../os/ports/GCC/ARMCMx/chtypes.h"
 486              		.file 5 "../../../os/kernel/include/chlists.h"
 487              		.file 6 "../../../os/kernel/include/chthreads.h"
 488              		.file 7 "../../../os/ports/GCC/ARMCMx/chcore_v7m.h"
 489              		.file 8 "../../../os/ports/common/ARMCMx/nvic.h"
 490              		.file 9 "../../../os/kernel/include/chschd.h"
 491              		.file 10 "../../../os/kernel/include/chmtx.h"
 492              		.file 11 "../../../os/kernel/include/chdebug.h"
 493              		.file 12 "../../../os/kernel/include/chsys.h"