ARM GAS  /tmp/cce2EF8y.s 			page 1


   1              		.syntax unified
   2              		.cpu cortex-m4
   3              		.fpu softvfp
   4              		.eabi_attribute 20, 1
   5              		.eabi_attribute 21, 1
   6              		.eabi_attribute 23, 3
   7              		.eabi_attribute 24, 1
   8              		.eabi_attribute 25, 1
   9              		.eabi_attribute 26, 1
  10              		.eabi_attribute 30, 2
  11              		.eabi_attribute 34, 1
  12              		.eabi_attribute 18, 4
  13              		.thumb
  14              		.syntax unified
  15              		.file	"chcore_v7m.c"
  16              		.text
  17              	.Ltext0:
  18              		.cfi_sections	.debug_frame
  19              		.section	.text._port_switch_from_isr,"ax",%progbits
  20              		.align	2
  21              		.p2align 4,,15
  22              		.global	_port_switch_from_isr
  23              		.thumb
  24              		.thumb_func
  25              		.type	_port_switch_from_isr, %function
  26              	_port_switch_from_isr:
  27              	.LFB6:
  28              		.file 1 "../../../os/ports/GCC/ARMCMx/chcore_v7m.c"
  29              		.loc 1 207 0
  30              		.cfi_startproc
  31              		@ Naked Function: prologue and epilogue provided by programmer.
  32              		@ args = 0, pretend = 0, frame = 0
  33              		@ frame_needed = 0, uses_anonymous_args = 0
  34              		.loc 1 209 0
  35 0000 FFF7FEFF 		bl	dbg_check_lock
  36              	.LVL0:
  37              		.loc 1 210 0
  38 0004 FFF7FEFF 		bl	chSchDoReschedule
  39              	.LVL1:
  40              		.loc 1 211 0
  41 0008 FFF7FEFF 		bl	dbg_check_unlock
  42              	.LVL2:
  43              		.loc 1 212 0
  44              		.syntax unified
  45              	@ 212 "../../../os/ports/GCC/ARMCMx/chcore_v7m.c" 1
  46              		_port_exit_from_isr:
  47              	@ 0 "" 2
  48              		.loc 1 214 0
  49              	@ 214 "../../../os/ports/GCC/ARMCMx/chcore_v7m.c" 1
  50 000c 00DF     		svc     #0
  51              	@ 0 "" 2
  52              		.loc 1 221 0
  53              		.thumb
  54              		.syntax unified
  55              		.cfi_endproc
  56              	.LFE6:
  57              		.size	_port_switch_from_isr, .-_port_switch_from_isr
ARM GAS  /tmp/cce2EF8y.s 			page 2


  58 000e 00BF     		.section	.text._port_irq_epilogue.part.0,"ax",%progbits
  59              		.align	2
  60              		.p2align 4,,15
  61              		.thumb
  62              		.thumb_func
  63              		.type	_port_irq_epilogue.part.0, %function
  64              	_port_irq_epilogue.part.0:
  65              	.LFB9:
  66              		.loc 1 148 0
  67              		.cfi_startproc
  68              		@ args = 0, pretend = 0, frame = 0
  69              		@ frame_needed = 0, uses_anonymous_args = 0
  70              		@ link register save eliminated.
  71              	.LBB5:
  72              		.loc 1 155 0
  73              		.syntax unified
  74              	@ 155 "../../../os/ports/GCC/ARMCMx/chcore_v7m.c" 1
  75 0000 EFF30983 		mrs     r3, PSP
  76              	@ 0 "" 2
  77              	.LVL3:
  78              		.loc 1 160 0
  79              		.thumb
  80              		.syntax unified
  81 0004 A3F12002 		sub	r2, r3, #32
  82              	.LVL4:
  83              		.syntax unified
  84              	@ 160 "../../../os/ports/GCC/ARMCMx/chcore_v7m.c" 1
  85 0008 82F30988 		msr     PSP, r2
  86              	@ 0 "" 2
  87              		.loc 1 165 0
  88              		.thumb
  89              		.syntax unified
  90 000c 074A     		ldr	r2, .L6
  91              	.LVL5:
  92 000e 1168     		ldr	r1, [r2]
  93 0010 9269     		ldr	r2, [r2, #24]
  94 0012 8968     		ldr	r1, [r1, #8]
  95 0014 9268     		ldr	r2, [r2, #8]
  96 0016 9142     		cmp	r1, r2
  97              		.loc 1 161 0
  98 0018 4FF08070 		mov	r0, #16777216
  99              		.loc 1 167 0
 100 001c 8CBF     		ite	hi
 101 001e 044A     		ldrhi	r2, .L6+4
 102              		.loc 1 176 0
 103 0020 044A     		ldrls	r2, .L6+8
 104              		.loc 1 161 0
 105 0022 43F8040C 		str	r0, [r3, #-4]
 106              		.loc 1 176 0
 107 0026 43F8082C 		str	r2, [r3, #-8]
 108 002a 7047     		bx	lr
 109              	.L7:
 110              		.align	2
 111              	.L6:
 112 002c 00000000 		.word	rlist
 113 0030 00000000 		.word	_port_switch_from_isr
 114 0034 0C000000 		.word	_port_exit_from_isr
ARM GAS  /tmp/cce2EF8y.s 			page 3


 115              	.LBE5:
 116              		.cfi_endproc
 117              	.LFE9:
 118              		.size	_port_irq_epilogue.part.0, .-_port_irq_epilogue.part.0
 119              		.section	.text.SysTickVector,"ax",%progbits
 120              		.align	2
 121              		.p2align 4,,15
 122              		.global	SysTickVector
 123              		.thumb
 124              		.thumb_func
 125              		.type	SysTickVector, %function
 126              	SysTickVector:
 127              	.LFB0:
 128              		.loc 1 47 0
 129              		.cfi_startproc
 130              		@ args = 0, pretend = 0, frame = 0
 131              		@ frame_needed = 0, uses_anonymous_args = 0
 132 0000 08B5     		push	{r3, lr}
 133              		.cfi_def_cfa_offset 8
 134              		.cfi_offset 3, -8
 135              		.cfi_offset 14, -4
 136              		.loc 1 49 0
 137 0002 FFF7FEFF 		bl	dbg_check_enter_isr
 138              	.LVL6:
 139              		.loc 1 51 0
 140              		.syntax unified
 141              	@ 51 "../../../os/ports/GCC/ARMCMx/chcore_v7m.c" 1
 142 0006 FFF7FEFF 		bl      _port_lock
 143              	@ 0 "" 2
 144              		.thumb
 145              		.syntax unified
 146 000a FFF7FEFF 		bl	dbg_check_lock_from_isr
 147              	.LVL7:
 148              		.loc 1 52 0
 149 000e FFF7FEFF 		bl	chSysTimerHandlerI
 150              	.LVL8:
 151              		.loc 1 53 0
 152 0012 FFF7FEFF 		bl	dbg_check_unlock_from_isr
 153              	.LVL9:
 154              		.syntax unified
 155              	@ 53 "../../../os/ports/GCC/ARMCMx/chcore_v7m.c" 1
 156 0016 FFF7FEFF 		bl      _port_unlock
 157              	@ 0 "" 2
 158              		.loc 1 55 0
 159              		.thumb
 160              		.syntax unified
 161 001a FFF7FEFF 		bl	dbg_check_leave_isr
 162              	.LVL10:
 163              	.LBB6:
 164              	.LBB7:
 165              		.loc 1 150 0
 166              		.syntax unified
 167              	@ 150 "../../../os/ports/GCC/ARMCMx/chcore_v7m.c" 1
 168 001e FFF7FEFF 		bl      _port_lock
 169              	@ 0 "" 2
 170              		.loc 1 151 0
 171              		.thumb
ARM GAS  /tmp/cce2EF8y.s 			page 4


 172              		.syntax unified
 173 0022 054B     		ldr	r3, .L12
 174 0024 5B68     		ldr	r3, [r3, #4]
 175 0026 1B05     		lsls	r3, r3, #20
 176 0028 02D4     		bmi	.L11
 177              		.loc 1 197 0
 178              		.syntax unified
 179              	@ 197 "../../../os/ports/GCC/ARMCMx/chcore_v7m.c" 1
 180 002a FFF7FEFF 		bl      _port_unlock
 181              	@ 0 "" 2
 182              		.thumb
 183              		.syntax unified
 184 002e 08BD     		pop	{r3, pc}
 185              	.L11:
 186              	.LBE7:
 187              	.LBE6:
 188              		.loc 1 56 0
 189 0030 BDE80840 		pop	{r3, lr}
 190              		.cfi_restore 14
 191              		.cfi_restore 3
 192              		.cfi_def_cfa_offset 0
 193              	.LBB9:
 194              	.LBB8:
 195 0034 FFF7FEBF 		b	_port_irq_epilogue.part.0
 196              	.LVL11:
 197              	.L13:
 198              		.align	2
 199              	.L12:
 200 0038 00ED00E0 		.word	-536810240
 201              	.LBE8:
 202              	.LBE9:
 203              		.cfi_endproc
 204              	.LFE0:
 205              		.size	SysTickVector, .-SysTickVector
 206              		.section	.text.SVCallVector,"ax",%progbits
 207              		.align	2
 208              		.p2align 4,,15
 209              		.global	SVCallVector
 210              		.thumb
 211              		.thumb_func
 212              		.type	SVCallVector, %function
 213              	SVCallVector:
 214              	.LFB1:
 215              		.loc 1 65 0
 216              		.cfi_startproc
 217              		@ args = 0, pretend = 0, frame = 0
 218              		@ frame_needed = 0, uses_anonymous_args = 0
 219 0000 00B5     		push	{lr}
 220              		.cfi_def_cfa_offset 4
 221              		.cfi_offset 14, -4
 222              		.loc 1 69 0
 223              		.syntax unified
 224              	@ 69 "../../../os/ports/GCC/ARMCMx/chcore_v7m.c" 1
 225 0002 EFF30983 		mrs     r3, PSP
 226              	@ 0 "" 2
 227              	.LVL12:
 228              		.loc 1 80 0
ARM GAS  /tmp/cce2EF8y.s 			page 5


 229              		.thumb
 230              		.syntax unified
 231 0006 2033     		adds	r3, r3, #32
 232              	.LVL13:
 233              		.syntax unified
 234              	@ 80 "../../../os/ports/GCC/ARMCMx/chcore_v7m.c" 1
 235 0008 83F30988 		msr     PSP, r3
 236              	@ 0 "" 2
 237              		.loc 1 81 0
 238              	@ 81 "../../../os/ports/GCC/ARMCMx/chcore_v7m.c" 1
 239 000c FFF7FEFF 		bl      _port_unlock
 240              	@ 0 "" 2
 241              	.LVL14:
 242              		.thumb
 243              		.syntax unified
 244 0010 5DF804FB 		ldr	pc, [sp], #4
 245              		.cfi_endproc
 246              	.LFE1:
 247              		.size	SVCallVector, .-SVCallVector
 248              		.section	.text._port_init,"ax",%progbits
 249              		.align	2
 250              		.p2align 4,,15
 251              		.global	_port_init
 252              		.thumb
 253              		.thumb_func
 254              		.type	_port_init, %function
 255              	_port_init:
 256              	.LFB2:
 257              		.loc 1 118 0
 258              		.cfi_startproc
 259              		@ args = 0, pretend = 0, frame = 0
 260              		@ frame_needed = 0, uses_anonymous_args = 0
 261 0000 08B5     		push	{r3, lr}
 262              		.cfi_def_cfa_offset 8
 263              		.cfi_offset 3, -8
 264              		.cfi_offset 14, -4
 265              		.loc 1 121 0
 266 0002 094B     		ldr	r3, .L18
 267              		.loc 1 122 0
 268 0004 094A     		ldr	r2, .L18+4
 269              		.loc 1 121 0
 270 0006 0021     		movs	r1, #0
 271 0008 9960     		str	r1, [r3, #8]
 272              		.loc 1 125 0
 273 000a 0720     		movs	r0, #7
 274              		.loc 1 122 0
 275 000c DA60     		str	r2, [r3, #12]
 276              		.loc 1 125 0
 277 000e 1021     		movs	r1, #16
 278 0010 FFF7FEFF 		bl	nvicSetSystemHandlerPriority
 279              	.LVL15:
 280              		.loc 1 127 0
 281 0014 2021     		movs	r1, #32
 282 0016 0A20     		movs	r0, #10
 283 0018 FFF7FEFF 		bl	nvicSetSystemHandlerPriority
 284              	.LVL16:
 285              		.loc 1 129 0
ARM GAS  /tmp/cce2EF8y.s 			page 6


 286 001c 8021     		movs	r1, #128
 287 001e 0B20     		movs	r0, #11
 288              		.loc 1 131 0
 289 0020 BDE80840 		pop	{r3, lr}
 290              		.cfi_restore 14
 291              		.cfi_restore 3
 292              		.cfi_def_cfa_offset 0
 293              		.loc 1 129 0
 294 0024 FFF7FEBF 		b	nvicSetSystemHandlerPriority
 295              	.LVL17:
 296              	.L19:
 297              		.align	2
 298              	.L18:
 299 0028 00ED00E0 		.word	-536810240
 300 002c 0003FA05 		.word	100270848
 301              		.cfi_endproc
 302              	.LFE2:
 303              		.size	_port_init, .-_port_init
 304              		.section	.text._port_lock,"ax",%progbits
 305              		.align	2
 306              		.p2align 4,,15
 307              		.global	_port_lock
 308              		.thumb
 309              		.thumb_func
 310              		.type	_port_lock, %function
 311              	_port_lock:
 312              	.LFB3:
 313              		.loc 1 134 0
 314              		.cfi_startproc
 315              		@ args = 0, pretend = 0, frame = 0
 316              		@ frame_needed = 0, uses_anonymous_args = 0
 317              		@ link register save eliminated.
 318              		.loc 1 135 0
 319 0000 2023     		movs	r3, #32
 320              		.loc 1 136 0
 321              		.syntax unified
 322              	@ 136 "../../../os/ports/GCC/ARMCMx/chcore_v7m.c" 1
 323 0002 83F31188 		msr     BASEPRI, r3
 324              	@ 0 "" 2
 325              		.thumb
 326              		.syntax unified
 327 0006 7047     		bx	lr
 328              		.cfi_endproc
 329              	.LFE3:
 330              		.size	_port_lock, .-_port_lock
 331              		.section	.text._port_unlock,"ax",%progbits
 332              		.align	2
 333              		.p2align 4,,15
 334              		.global	_port_unlock
 335              		.thumb
 336              		.thumb_func
 337              		.type	_port_unlock, %function
 338              	_port_unlock:
 339              	.LFB4:
 340              		.loc 1 139 0
 341              		.cfi_startproc
 342              		@ args = 0, pretend = 0, frame = 0
ARM GAS  /tmp/cce2EF8y.s 			page 7


 343              		@ frame_needed = 0, uses_anonymous_args = 0
 344              		@ link register save eliminated.
 345              		.loc 1 140 0
 346 0000 0023     		movs	r3, #0
 347              		.loc 1 141 0
 348              		.syntax unified
 349              	@ 141 "../../../os/ports/GCC/ARMCMx/chcore_v7m.c" 1
 350 0002 83F31188 		msr     BASEPRI, r3
 351              	@ 0 "" 2
 352              		.thumb
 353              		.syntax unified
 354 0006 7047     		bx	lr
 355              		.cfi_endproc
 356              	.LFE4:
 357              		.size	_port_unlock, .-_port_unlock
 358              		.section	.text._port_irq_epilogue,"ax",%progbits
 359              		.align	2
 360              		.p2align 4,,15
 361              		.global	_port_irq_epilogue
 362              		.thumb
 363              		.thumb_func
 364              		.type	_port_irq_epilogue, %function
 365              	_port_irq_epilogue:
 366              	.LFB5:
 367              		.loc 1 148 0
 368              		.cfi_startproc
 369              		@ args = 0, pretend = 0, frame = 0
 370              		@ frame_needed = 0, uses_anonymous_args = 0
 371 0000 00B5     		push	{lr}
 372              		.cfi_def_cfa_offset 4
 373              		.cfi_offset 14, -4
 374              		.loc 1 150 0
 375              		.syntax unified
 376              	@ 150 "../../../os/ports/GCC/ARMCMx/chcore_v7m.c" 1
 377 0002 FFF7FEFF 		bl      _port_lock
 378              	@ 0 "" 2
 379              		.loc 1 151 0
 380              		.thumb
 381              		.syntax unified
 382 0006 064B     		ldr	r3, .L25
 383 0008 5B68     		ldr	r3, [r3, #4]
 384 000a 1B05     		lsls	r3, r3, #20
 385 000c 03D5     		bpl	.L23
 386              		.loc 1 198 0
 387 000e 5DF804EB 		ldr	lr, [sp], #4
 388              		.cfi_remember_state
 389              		.cfi_restore 14
 390              		.cfi_def_cfa_offset 0
 391 0012 FFF7FEBF 		b	_port_irq_epilogue.part.0
 392              	.LVL18:
 393              	.L23:
 394              		.cfi_restore_state
 395              		.loc 1 197 0
 396              		.syntax unified
 397              	@ 197 "../../../os/ports/GCC/ARMCMx/chcore_v7m.c" 1
 398 0016 FFF7FEFF 		bl      _port_unlock
 399              	@ 0 "" 2
ARM GAS  /tmp/cce2EF8y.s 			page 8


 400              		.thumb
 401              		.syntax unified
 402 001a 5DF804FB 		ldr	pc, [sp], #4
 403              	.L26:
 404 001e 00BF     		.align	2
 405              	.L25:
 406 0020 00ED00E0 		.word	-536810240
 407              		.cfi_endproc
 408              	.LFE5:
 409              		.size	_port_irq_epilogue, .-_port_irq_epilogue
 410              		.section	.text._port_switch,"ax",%progbits
 411              		.align	2
 412              		.p2align 4,,15
 413              		.global	_port_switch
 414              		.thumb
 415              		.thumb_func
 416              		.type	_port_switch, %function
 417              	_port_switch:
 418              	.LFB7:
 419              		.loc 1 236 0
 420              		.cfi_startproc
 421              		@ Naked Function: prologue and epilogue provided by programmer.
 422              		@ args = 0, pretend = 0, frame = 0
 423              		@ frame_needed = 0, uses_anonymous_args = 0
 424              	.LVL19:
 425              		.loc 1 238 0
 426              		.syntax unified
 427              	@ 238 "../../../os/ports/GCC/ARMCMx/chcore_v7m.c" 1
 428 0000 2DE9F04F 		push    {r4, r5, r6, r7, r8, r9, r10, r11, lr}
 429              	@ 0 "" 2
 430              		.loc 1 244 0
 431              	@ 244 "../../../os/ports/GCC/ARMCMx/chcore_v7m.c" 1
 432 0004 C1F80CD0 		str     sp, [r1, #12]                          
 433 0008 D0F80CD0 		ldr     sp, [r0, #12]
 434              	@ 0 "" 2
 435              		.loc 1 250 0
 436              	@ 250 "../../../os/ports/GCC/ARMCMx/chcore_v7m.c" 1
 437 000c BDE8F08F 		pop     {r4, r5, r6, r7, r8, r9, r10, r11, pc}
 438              	@ 0 "" 2
 439              		.loc 1 252 0
 440              		.thumb
 441              		.syntax unified
 442              		.cfi_endproc
 443              	.LFE7:
 444              		.size	_port_switch, .-_port_switch
 445              		.section	.text._port_thread_start,"ax",%progbits
 446              		.align	2
 447              		.p2align 4,,15
 448              		.global	_port_thread_start
 449              		.thumb
 450              		.thumb_func
 451              		.type	_port_thread_start, %function
 452              	_port_thread_start:
 453              	.LFB8:
 454              		.loc 1 259 0
 455              		.cfi_startproc
 456              		@ args = 0, pretend = 0, frame = 0
ARM GAS  /tmp/cce2EF8y.s 			page 9


 457              		@ frame_needed = 0, uses_anonymous_args = 0
 458 0000 08B5     		push	{r3, lr}
 459              		.cfi_def_cfa_offset 8
 460              		.cfi_offset 3, -8
 461              		.cfi_offset 14, -4
 462              		.loc 1 261 0
 463 0002 FFF7FEFF 		bl	dbg_check_unlock
 464              	.LVL20:
 465              		.syntax unified
 466              	@ 261 "../../../os/ports/GCC/ARMCMx/chcore_v7m.c" 1
 467 0006 FFF7FEFF 		bl      _port_unlock
 468              	@ 0 "" 2
 469              		.loc 1 262 0
 470              	@ 262 "../../../os/ports/GCC/ARMCMx/chcore_v7m.c" 1
 471 000a 2846     		mov     r0, r5                                 
 472 000c A047     		blx     r4                                     
 473 000e FFF7FEFF 		bl      chThdExit
 474              	@ 0 "" 2
 475              		.thumb
 476              		.syntax unified
 477 0012 08BD     		pop	{r3, pc}
 478              		.cfi_endproc
 479              	.LFE8:
 480              		.size	_port_thread_start, .-_port_thread_start
 481              		.text
 482              	.Letext0:
 483              		.file 2 "/home/z80/programs/sw4stm32/plugins/fr.ac6.mcu.externaltools.arm-none.linux32_1.7.0.20160
 484              		.file 3 "/home/z80/programs/sw4stm32/plugins/fr.ac6.mcu.externaltools.arm-none.linux32_1.7.0.20160
 485              		.file 4 "../../../os/ports/GCC/ARMCMx/chtypes.h"
 486              		.file 5 "../../../os/kernel/include/chlists.h"
 487              		.file 6 "../../../os/kernel/include/chthreads.h"
 488              		.file 7 "../../../os/ports/GCC/ARMCMx/chcore_v7m.h"
 489              		.file 8 "../../../os/ports/common/ARMCMx/nvic.h"
 490              		.file 9 "../../../os/kernel/include/chschd.h"
 491              		.file 10 "../../../os/kernel/include/chmtx.h"
 492              		.file 11 "../../../os/kernel/include/chdebug.h"
 493              		.file 12 "../../../os/kernel/include/chsys.h"
 494              		.section	.debug_info,"",%progbits
 495              	.Ldebug_info0:
 496 0000 60080000 		.4byte	0x860
 497 0004 0400     		.2byte	0x4
 498 0006 00000000 		.4byte	.Ldebug_abbrev0
 499 000a 04       		.byte	0x4
 500 000b 01       		.uleb128 0x1
 501 000c 58030000 		.4byte	.LASF104
 502 0010 0C       		.byte	0xc
 503 0011 D9010000 		.4byte	.LASF105
 504 0015 5D040000 		.4byte	.LASF106
 505 0019 18000000 		.4byte	.Ldebug_ranges0+0x18
 506 001d 00000000 		.4byte	0
 507 0021 00000000 		.4byte	.Ldebug_line0
 508 0025 02       		.uleb128 0x2
 509 0026 04       		.byte	0x4
 510 0027 05       		.byte	0x5
 511 0028 696E7400 		.ascii	"int\000"
 512 002c 03       		.uleb128 0x3
 513 002d 04       		.byte	0x4
ARM GAS  /tmp/cce2EF8y.s 			page 10


 514 002e 07       		.byte	0x7
 515 002f 5E010000 		.4byte	.LASF0
 516 0033 03       		.uleb128 0x3
 517 0034 08       		.byte	0x8
 518 0035 05       		.byte	0x5
 519 0036 76000000 		.4byte	.LASF1
 520 003a 03       		.uleb128 0x3
 521 003b 08       		.byte	0x8
 522 003c 04       		.byte	0x4
 523 003d 64020000 		.4byte	.LASF2
 524 0041 03       		.uleb128 0x3
 525 0042 01       		.byte	0x1
 526 0043 06       		.byte	0x6
 527 0044 84000000 		.4byte	.LASF3
 528 0048 04       		.uleb128 0x4
 529 0049 16000000 		.4byte	.LASF7
 530 004d 02       		.byte	0x2
 531 004e 1D       		.byte	0x1d
 532 004f 53000000 		.4byte	0x53
 533 0053 03       		.uleb128 0x3
 534 0054 01       		.byte	0x1
 535 0055 08       		.byte	0x8
 536 0056 F4020000 		.4byte	.LASF4
 537 005a 03       		.uleb128 0x3
 538 005b 02       		.byte	0x2
 539 005c 05       		.byte	0x5
 540 005d 12030000 		.4byte	.LASF5
 541 0061 03       		.uleb128 0x3
 542 0062 02       		.byte	0x2
 543 0063 07       		.byte	0x7
 544 0064 BB010000 		.4byte	.LASF6
 545 0068 04       		.uleb128 0x4
 546 0069 BD040000 		.4byte	.LASF8
 547 006d 02       		.byte	0x2
 548 006e 3F       		.byte	0x3f
 549 006f 73000000 		.4byte	0x73
 550 0073 03       		.uleb128 0x3
 551 0074 04       		.byte	0x4
 552 0075 05       		.byte	0x5
 553 0076 B2000000 		.4byte	.LASF9
 554 007a 04       		.uleb128 0x4
 555 007b F1000000 		.4byte	.LASF10
 556 007f 02       		.byte	0x2
 557 0080 41       		.byte	0x41
 558 0081 85000000 		.4byte	0x85
 559 0085 03       		.uleb128 0x3
 560 0086 04       		.byte	0x4
 561 0087 07       		.byte	0x7
 562 0088 86010000 		.4byte	.LASF11
 563 008c 04       		.uleb128 0x4
 564 008d C2020000 		.4byte	.LASF12
 565 0091 02       		.byte	0x2
 566 0092 5B       		.byte	0x5b
 567 0093 97000000 		.4byte	0x97
 568 0097 03       		.uleb128 0x3
 569 0098 08       		.byte	0x8
 570 0099 07       		.byte	0x7
ARM GAS  /tmp/cce2EF8y.s 			page 11


 571 009a 49000000 		.4byte	.LASF13
 572 009e 04       		.uleb128 0x4
 573 009f 1B050000 		.4byte	.LASF14
 574 00a3 03       		.byte	0x3
 575 00a4 14       		.byte	0x14
 576 00a5 48000000 		.4byte	0x48
 577 00a9 04       		.uleb128 0x4
 578 00aa EC020000 		.4byte	.LASF15
 579 00ae 03       		.byte	0x3
 580 00af 1F       		.byte	0x1f
 581 00b0 68000000 		.4byte	0x68
 582 00b4 04       		.uleb128 0x4
 583 00b5 32040000 		.4byte	.LASF16
 584 00b9 03       		.byte	0x3
 585 00ba 20       		.byte	0x20
 586 00bb 7A000000 		.4byte	0x7a
 587 00bf 04       		.uleb128 0x4
 588 00c0 0D000000 		.4byte	.LASF17
 589 00c4 03       		.byte	0x3
 590 00c5 26       		.byte	0x26
 591 00c6 8C000000 		.4byte	0x8c
 592 00ca 03       		.uleb128 0x3
 593 00cb 01       		.byte	0x1
 594 00cc 02       		.byte	0x2
 595 00cd E6020000 		.4byte	.LASF18
 596 00d1 04       		.uleb128 0x4
 597 00d2 2A020000 		.4byte	.LASF19
 598 00d6 04       		.byte	0x4
 599 00d7 2C       		.byte	0x2c
 600 00d8 9E000000 		.4byte	0x9e
 601 00dc 04       		.uleb128 0x4
 602 00dd C8000000 		.4byte	.LASF20
 603 00e1 04       		.byte	0x4
 604 00e2 2D       		.byte	0x2d
 605 00e3 9E000000 		.4byte	0x9e
 606 00e7 04       		.uleb128 0x4
 607 00e8 DE020000 		.4byte	.LASF21
 608 00ec 04       		.byte	0x4
 609 00ed 30       		.byte	0x30
 610 00ee B4000000 		.4byte	0xb4
 611 00f2 04       		.uleb128 0x4
 612 00f3 D3010000 		.4byte	.LASF22
 613 00f7 04       		.byte	0x4
 614 00f8 31       		.byte	0x31
 615 00f9 A9000000 		.4byte	0xa9
 616 00fd 04       		.uleb128 0x4
 617 00fe 3E020000 		.4byte	.LASF23
 618 0102 04       		.byte	0x4
 619 0103 33       		.byte	0x33
 620 0104 B4000000 		.4byte	0xb4
 621 0108 04       		.uleb128 0x4
 622 0109 A8040000 		.4byte	.LASF24
 623 010d 04       		.byte	0x4
 624 010e 35       		.byte	0x35
 625 010f B4000000 		.4byte	0xb4
 626 0113 04       		.uleb128 0x4
 627 0114 46030000 		.4byte	.LASF25
ARM GAS  /tmp/cce2EF8y.s 			page 12


 628 0118 05       		.byte	0x5
 629 0119 2A       		.byte	0x2a
 630 011a 1E010000 		.4byte	0x11e
 631 011e 05       		.uleb128 0x5
 632 011f 46030000 		.4byte	.LASF25
 633 0123 48       		.byte	0x48
 634 0124 06       		.byte	0x6
 635 0125 5E       		.byte	0x5e
 636 0126 03020000 		.4byte	0x203
 637 012a 06       		.uleb128 0x6
 638 012b 37030000 		.4byte	.LASF26
 639 012f 06       		.byte	0x6
 640 0130 5F       		.byte	0x5f
 641 0131 24020000 		.4byte	0x224
 642 0135 00       		.byte	0
 643 0136 06       		.uleb128 0x6
 644 0137 D7020000 		.4byte	.LASF27
 645 013b 06       		.byte	0x6
 646 013c 61       		.byte	0x61
 647 013d 24020000 		.4byte	0x224
 648 0141 04       		.byte	0x4
 649 0142 06       		.uleb128 0x6
 650 0143 6F000000 		.4byte	.LASF28
 651 0147 06       		.byte	0x6
 652 0148 63       		.byte	0x63
 653 0149 E7000000 		.4byte	0xe7
 654 014d 08       		.byte	0x8
 655 014e 06       		.uleb128 0x6
 656 014f 67050000 		.4byte	.LASF29
 657 0153 06       		.byte	0x6
 658 0154 64       		.byte	0x64
 659 0155 51030000 		.4byte	0x351
 660 0159 0C       		.byte	0xc
 661 015a 06       		.uleb128 0x6
 662 015b E4000000 		.4byte	.LASF30
 663 015f 06       		.byte	0x6
 664 0160 66       		.byte	0x66
 665 0161 24020000 		.4byte	0x224
 666 0165 10       		.byte	0x10
 667 0166 06       		.uleb128 0x6
 668 0167 84020000 		.4byte	.LASF31
 669 016b 06       		.byte	0x6
 670 016c 67       		.byte	0x67
 671 016d 24020000 		.4byte	0x224
 672 0171 14       		.byte	0x14
 673 0172 06       		.uleb128 0x6
 674 0173 4D050000 		.4byte	.LASF32
 675 0177 06       		.byte	0x6
 676 0178 6E       		.byte	0x6e
 677 0179 CA050000 		.4byte	0x5ca
 678 017d 18       		.byte	0x18
 679 017e 06       		.uleb128 0x6
 680 017f 53010000 		.4byte	.LASF33
 681 0183 06       		.byte	0x6
 682 0184 74       		.byte	0x74
 683 0185 DC050000 		.4byte	0x5dc
 684 0189 1C       		.byte	0x1c
ARM GAS  /tmp/cce2EF8y.s 			page 13


 685 018a 06       		.uleb128 0x6
 686 018b 1C030000 		.4byte	.LASF34
 687 018f 06       		.byte	0x6
 688 0190 79       		.byte	0x79
 689 0191 DC000000 		.4byte	0xdc
 690 0195 20       		.byte	0x20
 691 0196 06       		.uleb128 0x6
 692 0197 3E030000 		.4byte	.LASF35
 693 019b 06       		.byte	0x6
 694 019c 7D       		.byte	0x7d
 695 019d D1000000 		.4byte	0xd1
 696 01a1 21       		.byte	0x21
 697 01a2 06       		.uleb128 0x6
 698 01a3 D4040000 		.4byte	.LASF36
 699 01a7 06       		.byte	0x6
 700 01a8 8F       		.byte	0x8f
 701 01a9 F2040000 		.4byte	0x4f2
 702 01ad 24       		.byte	0x24
 703 01ae 07       		.uleb128 0x7
 704 01af 705F7500 		.ascii	"p_u\000"
 705 01b3 06       		.byte	0x6
 706 01b4 B4       		.byte	0xb4
 707 01b5 95050000 		.4byte	0x595
 708 01b9 28       		.byte	0x28
 709 01ba 06       		.uleb128 0x6
 710 01bb 6D050000 		.4byte	.LASF37
 711 01bf 06       		.byte	0x6
 712 01c0 B9       		.byte	0xb9
 713 01c1 4A020000 		.4byte	0x24a
 714 01c5 2C       		.byte	0x2c
 715 01c6 06       		.uleb128 0x6
 716 01c7 FB040000 		.4byte	.LASF38
 717 01cb 06       		.byte	0x6
 718 01cc BF       		.byte	0xbf
 719 01cd 2A020000 		.4byte	0x22a
 720 01d1 30       		.byte	0x30
 721 01d2 06       		.uleb128 0x6
 722 01d3 00000000 		.4byte	.LASF39
 723 01d7 06       		.byte	0x6
 724 01d8 C3       		.byte	0xc3
 725 01d9 F2000000 		.4byte	0xf2
 726 01dd 38       		.byte	0x38
 727 01de 06       		.uleb128 0x6
 728 01df 4D030000 		.4byte	.LASF40
 729 01e3 06       		.byte	0x6
 730 01e4 C9       		.byte	0xc9
 731 01e5 FD000000 		.4byte	0xfd
 732 01e9 3C       		.byte	0x3c
 733 01ea 06       		.uleb128 0x6
 734 01eb 08030000 		.4byte	.LASF41
 735 01ef 06       		.byte	0x6
 736 01f0 D0       		.byte	0xd0
 737 01f1 E2050000 		.4byte	0x5e2
 738 01f5 40       		.byte	0x40
 739 01f6 06       		.uleb128 0x6
 740 01f7 B2040000 		.4byte	.LASF42
 741 01fb 06       		.byte	0x6
ARM GAS  /tmp/cce2EF8y.s 			page 14


 742 01fc D4       		.byte	0xd4
 743 01fd E7000000 		.4byte	0xe7
 744 0201 44       		.byte	0x44
 745 0202 00       		.byte	0
 746 0203 08       		.uleb128 0x8
 747 0204 08       		.byte	0x8
 748 0205 05       		.byte	0x5
 749 0206 61       		.byte	0x61
 750 0207 24020000 		.4byte	0x224
 751 020b 06       		.uleb128 0x6
 752 020c 37030000 		.4byte	.LASF26
 753 0210 05       		.byte	0x5
 754 0211 62       		.byte	0x62
 755 0212 24020000 		.4byte	0x224
 756 0216 00       		.byte	0
 757 0217 06       		.uleb128 0x6
 758 0218 D7020000 		.4byte	.LASF27
 759 021c 05       		.byte	0x5
 760 021d 64       		.byte	0x64
 761 021e 24020000 		.4byte	0x224
 762 0222 04       		.byte	0x4
 763 0223 00       		.byte	0
 764 0224 09       		.uleb128 0x9
 765 0225 04       		.byte	0x4
 766 0226 13010000 		.4byte	0x113
 767 022a 04       		.uleb128 0x4
 768 022b 92020000 		.4byte	.LASF43
 769 022f 05       		.byte	0x5
 770 0230 66       		.byte	0x66
 771 0231 03020000 		.4byte	0x203
 772 0235 08       		.uleb128 0x8
 773 0236 04       		.byte	0x4
 774 0237 05       		.byte	0x5
 775 0238 6B       		.byte	0x6b
 776 0239 4A020000 		.4byte	0x24a
 777 023d 06       		.uleb128 0x6
 778 023e 37030000 		.4byte	.LASF26
 779 0242 05       		.byte	0x5
 780 0243 6D       		.byte	0x6d
 781 0244 24020000 		.4byte	0x224
 782 0248 00       		.byte	0
 783 0249 00       		.byte	0
 784 024a 04       		.uleb128 0x4
 785 024b 32020000 		.4byte	.LASF44
 786 024f 05       		.byte	0x5
 787 0250 70       		.byte	0x70
 788 0251 35020000 		.4byte	0x235
 789 0255 04       		.uleb128 0x4
 790 0256 19010000 		.4byte	.LASF45
 791 025a 07       		.byte	0x7
 792 025b E5       		.byte	0xe5
 793 025c 60020000 		.4byte	0x260
 794 0260 0A       		.uleb128 0xa
 795 0261 04       		.byte	0x4
 796 0262 04       		.uleb128 0x4
 797 0263 50020000 		.4byte	.LASF46
 798 0267 07       		.byte	0x7
ARM GAS  /tmp/cce2EF8y.s 			page 15


 799 0268 EB       		.byte	0xeb
 800 0269 BF000000 		.4byte	0xbf
 801 026d 05       		.uleb128 0x5
 802 026e 72010000 		.4byte	.LASF47
 803 0272 20       		.byte	0x20
 804 0273 07       		.byte	0x7
 805 0274 ED       		.byte	0xed
 806 0275 D5020000 		.4byte	0x2d5
 807 0279 07       		.uleb128 0x7
 808 027a 723000   		.ascii	"r0\000"
 809 027d 07       		.byte	0x7
 810 027e EE       		.byte	0xee
 811 027f 55020000 		.4byte	0x255
 812 0283 00       		.byte	0
 813 0284 07       		.uleb128 0x7
 814 0285 723100   		.ascii	"r1\000"
 815 0288 07       		.byte	0x7
 816 0289 EF       		.byte	0xef
 817 028a 55020000 		.4byte	0x255
 818 028e 04       		.byte	0x4
 819 028f 07       		.uleb128 0x7
 820 0290 723200   		.ascii	"r2\000"
 821 0293 07       		.byte	0x7
 822 0294 F0       		.byte	0xf0
 823 0295 55020000 		.4byte	0x255
 824 0299 08       		.byte	0x8
 825 029a 07       		.uleb128 0x7
 826 029b 723300   		.ascii	"r3\000"
 827 029e 07       		.byte	0x7
 828 029f F1       		.byte	0xf1
 829 02a0 55020000 		.4byte	0x255
 830 02a4 0C       		.byte	0xc
 831 02a5 07       		.uleb128 0x7
 832 02a6 72313200 		.ascii	"r12\000"
 833 02aa 07       		.byte	0x7
 834 02ab F2       		.byte	0xf2
 835 02ac 55020000 		.4byte	0x255
 836 02b0 10       		.byte	0x10
 837 02b1 06       		.uleb128 0x6
 838 02b2 6B010000 		.4byte	.LASF48
 839 02b6 07       		.byte	0x7
 840 02b7 F3       		.byte	0xf3
 841 02b8 55020000 		.4byte	0x255
 842 02bc 14       		.byte	0x14
 843 02bd 07       		.uleb128 0x7
 844 02be 706300   		.ascii	"pc\000"
 845 02c1 07       		.byte	0x7
 846 02c2 F4       		.byte	0xf4
 847 02c3 55020000 		.4byte	0x255
 848 02c7 18       		.byte	0x18
 849 02c8 06       		.uleb128 0x6
 850 02c9 24030000 		.4byte	.LASF49
 851 02cd 07       		.byte	0x7
 852 02ce F5       		.byte	0xf5
 853 02cf 55020000 		.4byte	0x255
 854 02d3 1C       		.byte	0x1c
 855 02d4 00       		.byte	0
ARM GAS  /tmp/cce2EF8y.s 			page 16


 856 02d5 0B       		.uleb128 0xb
 857 02d6 F4040000 		.4byte	.LASF50
 858 02da 24       		.byte	0x24
 859 02db 07       		.byte	0x7
 860 02dc 0C01     		.2byte	0x10c
 861 02de 51030000 		.4byte	0x351
 862 02e2 0C       		.uleb128 0xc
 863 02e3 723400   		.ascii	"r4\000"
 864 02e6 07       		.byte	0x7
 865 02e7 1F01     		.2byte	0x11f
 866 02e9 55020000 		.4byte	0x255
 867 02ed 00       		.byte	0
 868 02ee 0C       		.uleb128 0xc
 869 02ef 723500   		.ascii	"r5\000"
 870 02f2 07       		.byte	0x7
 871 02f3 2001     		.2byte	0x120
 872 02f5 55020000 		.4byte	0x255
 873 02f9 04       		.byte	0x4
 874 02fa 0C       		.uleb128 0xc
 875 02fb 723600   		.ascii	"r6\000"
 876 02fe 07       		.byte	0x7
 877 02ff 2101     		.2byte	0x121
 878 0301 55020000 		.4byte	0x255
 879 0305 08       		.byte	0x8
 880 0306 0C       		.uleb128 0xc
 881 0307 723700   		.ascii	"r7\000"
 882 030a 07       		.byte	0x7
 883 030b 2201     		.2byte	0x122
 884 030d 55020000 		.4byte	0x255
 885 0311 0C       		.byte	0xc
 886 0312 0C       		.uleb128 0xc
 887 0313 723800   		.ascii	"r8\000"
 888 0316 07       		.byte	0x7
 889 0317 2301     		.2byte	0x123
 890 0319 55020000 		.4byte	0x255
 891 031d 10       		.byte	0x10
 892 031e 0C       		.uleb128 0xc
 893 031f 723900   		.ascii	"r9\000"
 894 0322 07       		.byte	0x7
 895 0323 2401     		.2byte	0x124
 896 0325 55020000 		.4byte	0x255
 897 0329 14       		.byte	0x14
 898 032a 0C       		.uleb128 0xc
 899 032b 72313000 		.ascii	"r10\000"
 900 032f 07       		.byte	0x7
 901 0330 2501     		.2byte	0x125
 902 0332 55020000 		.4byte	0x255
 903 0336 18       		.byte	0x18
 904 0337 0C       		.uleb128 0xc
 905 0338 72313100 		.ascii	"r11\000"
 906 033c 07       		.byte	0x7
 907 033d 2601     		.2byte	0x126
 908 033f 55020000 		.4byte	0x255
 909 0343 1C       		.byte	0x1c
 910 0344 0C       		.uleb128 0xc
 911 0345 6C7200   		.ascii	"lr\000"
 912 0348 07       		.byte	0x7
ARM GAS  /tmp/cce2EF8y.s 			page 17


 913 0349 2701     		.2byte	0x127
 914 034b 55020000 		.4byte	0x255
 915 034f 20       		.byte	0x20
 916 0350 00       		.byte	0
 917 0351 0B       		.uleb128 0xb
 918 0352 B3010000 		.4byte	.LASF51
 919 0356 04       		.byte	0x4
 920 0357 07       		.byte	0x7
 921 0358 3101     		.2byte	0x131
 922 035a 6C030000 		.4byte	0x36c
 923 035e 0C       		.uleb128 0xc
 924 035f 72313300 		.ascii	"r13\000"
 925 0363 07       		.byte	0x7
 926 0364 3201     		.2byte	0x132
 927 0366 6C030000 		.4byte	0x36c
 928 036a 00       		.byte	0
 929 036b 00       		.byte	0
 930 036c 09       		.uleb128 0x9
 931 036d 04       		.byte	0x4
 932 036e D5020000 		.4byte	0x2d5
 933 0372 04       		.uleb128 0x4
 934 0373 55040000 		.4byte	.LASF52
 935 0377 08       		.byte	0x8
 936 0378 3A       		.byte	0x3a
 937 0379 7D030000 		.4byte	0x37d
 938 037d 0D       		.uleb128 0xd
 939 037e B4000000 		.4byte	0xb4
 940 0382 03       		.uleb128 0x3
 941 0383 04       		.byte	0x4
 942 0384 07       		.byte	0x7
 943 0385 5B020000 		.4byte	.LASF53
 944 0389 08       		.uleb128 0x8
 945 038a 8C       		.byte	0x8c
 946 038b 08       		.byte	0x8
 947 038c 89       		.byte	0x89
 948 038d 8E040000 		.4byte	0x48e
 949 0391 06       		.uleb128 0x6
 950 0392 69000000 		.4byte	.LASF54
 951 0396 08       		.byte	0x8
 952 0397 8A       		.byte	0x8a
 953 0398 72030000 		.4byte	0x372
 954 039c 00       		.byte	0
 955 039d 06       		.uleb128 0x6
 956 039e CE010000 		.4byte	.LASF55
 957 03a2 08       		.byte	0x8
 958 03a3 8B       		.byte	0x8b
 959 03a4 72030000 		.4byte	0x372
 960 03a8 04       		.byte	0x4
 961 03a9 06       		.uleb128 0x6
 962 03aa 98010000 		.4byte	.LASF56
 963 03ae 08       		.byte	0x8
 964 03af 8C       		.byte	0x8c
 965 03b0 72030000 		.4byte	0x372
 966 03b4 08       		.byte	0x8
 967 03b5 06       		.uleb128 0x6
 968 03b6 03020000 		.4byte	.LASF57
 969 03ba 08       		.byte	0x8
ARM GAS  /tmp/cce2EF8y.s 			page 18


 970 03bb 8D       		.byte	0x8d
 971 03bc 72030000 		.4byte	0x372
 972 03c0 0C       		.byte	0xc
 973 03c1 07       		.uleb128 0x7
 974 03c2 53435200 		.ascii	"SCR\000"
 975 03c6 08       		.byte	0x8
 976 03c7 8E       		.byte	0x8e
 977 03c8 72030000 		.4byte	0x372
 978 03cc 10       		.byte	0x10
 979 03cd 07       		.uleb128 0x7
 980 03ce 43435200 		.ascii	"CCR\000"
 981 03d2 08       		.byte	0x8
 982 03d3 8F       		.byte	0x8f
 983 03d4 72030000 		.4byte	0x372
 984 03d8 14       		.byte	0x14
 985 03d9 06       		.uleb128 0x6
 986 03da DB040000 		.4byte	.LASF58
 987 03de 08       		.byte	0x8
 988 03df 90       		.byte	0x90
 989 03e0 9E040000 		.4byte	0x49e
 990 03e4 18       		.byte	0x18
 991 03e5 06       		.uleb128 0x6
 992 03e6 02030000 		.4byte	.LASF59
 993 03ea 08       		.byte	0x8
 994 03eb 91       		.byte	0x91
 995 03ec 72030000 		.4byte	0x372
 996 03f0 24       		.byte	0x24
 997 03f1 06       		.uleb128 0x6
 998 03f2 7F020000 		.4byte	.LASF60
 999 03f6 08       		.byte	0x8
 1000 03f7 92       		.byte	0x92
 1001 03f8 72030000 		.4byte	0x372
 1002 03fc 28       		.byte	0x28
 1003 03fd 06       		.uleb128 0x6
 1004 03fe 5A050000 		.4byte	.LASF61
 1005 0402 08       		.byte	0x8
 1006 0403 93       		.byte	0x93
 1007 0404 72030000 		.4byte	0x372
 1008 0408 2C       		.byte	0x2c
 1009 0409 06       		.uleb128 0x6
 1010 040a CD020000 		.4byte	.LASF62
 1011 040e 08       		.byte	0x8
 1012 040f 94       		.byte	0x94
 1013 0410 72030000 		.4byte	0x372
 1014 0414 30       		.byte	0x30
 1015 0415 06       		.uleb128 0x6
 1016 0416 11020000 		.4byte	.LASF63
 1017 041a 08       		.byte	0x8
 1018 041b 95       		.byte	0x95
 1019 041c 72030000 		.4byte	0x372
 1020 0420 34       		.byte	0x34
 1021 0421 06       		.uleb128 0x6
 1022 0422 EC000000 		.4byte	.LASF64
 1023 0426 08       		.byte	0x8
 1024 0427 96       		.byte	0x96
 1025 0428 72030000 		.4byte	0x372
 1026 042c 38       		.byte	0x38
ARM GAS  /tmp/cce2EF8y.s 			page 19


 1027 042d 06       		.uleb128 0x6
 1028 042e 43040000 		.4byte	.LASF65
 1029 0432 08       		.byte	0x8
 1030 0433 97       		.byte	0x97
 1031 0434 72030000 		.4byte	0x372
 1032 0438 3C       		.byte	0x3c
 1033 0439 07       		.uleb128 0x7
 1034 043a 50465200 		.ascii	"PFR\000"
 1035 043e 08       		.byte	0x8
 1036 043f 98       		.byte	0x98
 1037 0440 B3040000 		.4byte	0x4b3
 1038 0444 40       		.byte	0x40
 1039 0445 07       		.uleb128 0x7
 1040 0446 44465200 		.ascii	"DFR\000"
 1041 044a 08       		.byte	0x8
 1042 044b 99       		.byte	0x99
 1043 044c 72030000 		.4byte	0x372
 1044 0450 48       		.byte	0x48
 1045 0451 07       		.uleb128 0x7
 1046 0452 41445200 		.ascii	"ADR\000"
 1047 0456 08       		.byte	0x8
 1048 0457 9A       		.byte	0x9a
 1049 0458 72030000 		.4byte	0x372
 1050 045c 4C       		.byte	0x4c
 1051 045d 06       		.uleb128 0x6
 1052 045e 10050000 		.4byte	.LASF66
 1053 0462 08       		.byte	0x8
 1054 0463 9B       		.byte	0x9b
 1055 0464 C8040000 		.4byte	0x4c8
 1056 0468 50       		.byte	0x50
 1057 0469 07       		.uleb128 0x7
 1058 046a 53415200 		.ascii	"SAR\000"
 1059 046e 08       		.byte	0x8
 1060 046f 9C       		.byte	0x9c
 1061 0470 DD040000 		.4byte	0x4dd
 1062 0474 60       		.byte	0x60
 1063 0475 06       		.uleb128 0x6
 1064 0476 48040000 		.4byte	.LASF67
 1065 047a 08       		.byte	0x8
 1066 047b 9D       		.byte	0x9d
 1067 047c E2040000 		.4byte	0x4e2
 1068 0480 74       		.byte	0x74
 1069 0481 06       		.uleb128 0x6
 1070 0482 54050000 		.4byte	.LASF68
 1071 0486 08       		.byte	0x8
 1072 0487 9E       		.byte	0x9e
 1073 0488 72030000 		.4byte	0x372
 1074 048c 88       		.byte	0x88
 1075 048d 00       		.byte	0
 1076 048e 0E       		.uleb128 0xe
 1077 048f 72030000 		.4byte	0x372
 1078 0493 9E040000 		.4byte	0x49e
 1079 0497 0F       		.uleb128 0xf
 1080 0498 82030000 		.4byte	0x382
 1081 049c 02       		.byte	0x2
 1082 049d 00       		.byte	0
 1083 049e 0D       		.uleb128 0xd
ARM GAS  /tmp/cce2EF8y.s 			page 20


 1084 049f 8E040000 		.4byte	0x48e
 1085 04a3 0E       		.uleb128 0xe
 1086 04a4 72030000 		.4byte	0x372
 1087 04a8 B3040000 		.4byte	0x4b3
 1088 04ac 0F       		.uleb128 0xf
 1089 04ad 82030000 		.4byte	0x382
 1090 04b1 01       		.byte	0x1
 1091 04b2 00       		.byte	0
 1092 04b3 0D       		.uleb128 0xd
 1093 04b4 A3040000 		.4byte	0x4a3
 1094 04b8 0E       		.uleb128 0xe
 1095 04b9 72030000 		.4byte	0x372
 1096 04bd C8040000 		.4byte	0x4c8
 1097 04c1 0F       		.uleb128 0xf
 1098 04c2 82030000 		.4byte	0x382
 1099 04c6 03       		.byte	0x3
 1100 04c7 00       		.byte	0
 1101 04c8 0D       		.uleb128 0xd
 1102 04c9 B8040000 		.4byte	0x4b8
 1103 04cd 0E       		.uleb128 0xe
 1104 04ce 72030000 		.4byte	0x372
 1105 04d2 DD040000 		.4byte	0x4dd
 1106 04d6 0F       		.uleb128 0xf
 1107 04d7 82030000 		.4byte	0x382
 1108 04db 04       		.byte	0x4
 1109 04dc 00       		.byte	0
 1110 04dd 0D       		.uleb128 0xd
 1111 04de CD040000 		.4byte	0x4cd
 1112 04e2 0D       		.uleb128 0xd
 1113 04e3 CD040000 		.4byte	0x4cd
 1114 04e7 04       		.uleb128 0x4
 1115 04e8 20000000 		.4byte	.LASF69
 1116 04ec 08       		.byte	0x8
 1117 04ed 9F       		.byte	0x9f
 1118 04ee 89030000 		.4byte	0x389
 1119 04f2 0D       		.uleb128 0xd
 1120 04f3 08010000 		.4byte	0x108
 1121 04f7 08       		.uleb128 0x8
 1122 04f8 1C       		.byte	0x1c
 1123 04f9 09       		.byte	0x9
 1124 04fa 5E       		.byte	0x5e
 1125 04fb 48050000 		.4byte	0x548
 1126 04ff 06       		.uleb128 0x6
 1127 0500 3B040000 		.4byte	.LASF70
 1128 0504 09       		.byte	0x9
 1129 0505 5F       		.byte	0x5f
 1130 0506 2A020000 		.4byte	0x22a
 1131 050a 00       		.byte	0
 1132 050b 06       		.uleb128 0x6
 1133 050c 29030000 		.4byte	.LASF71
 1134 0510 09       		.byte	0x9
 1135 0511 60       		.byte	0x60
 1136 0512 E7000000 		.4byte	0xe7
 1137 0516 08       		.byte	0x8
 1138 0517 06       		.uleb128 0x6
 1139 0518 8C020000 		.4byte	.LASF72
 1140 051c 09       		.byte	0x9
ARM GAS  /tmp/cce2EF8y.s 			page 21


 1141 051d 62       		.byte	0x62
 1142 051e 51030000 		.4byte	0x351
 1143 0522 0C       		.byte	0xc
 1144 0523 06       		.uleb128 0x6
 1145 0524 09020000 		.4byte	.LASF73
 1146 0528 09       		.byte	0x9
 1147 0529 65       		.byte	0x65
 1148 052a 24020000 		.4byte	0x224
 1149 052e 10       		.byte	0x10
 1150 052f 06       		.uleb128 0x6
 1151 0530 A9020000 		.4byte	.LASF74
 1152 0534 09       		.byte	0x9
 1153 0535 66       		.byte	0x66
 1154 0536 24020000 		.4byte	0x224
 1155 053a 14       		.byte	0x14
 1156 053b 06       		.uleb128 0x6
 1157 053c 9F020000 		.4byte	.LASF75
 1158 0540 09       		.byte	0x9
 1159 0541 69       		.byte	0x69
 1160 0542 24020000 		.4byte	0x224
 1161 0546 18       		.byte	0x18
 1162 0547 00       		.byte	0
 1163 0548 04       		.uleb128 0x4
 1164 0549 06050000 		.4byte	.LASF76
 1165 054d 09       		.byte	0x9
 1166 054e 6B       		.byte	0x6b
 1167 054f F7040000 		.4byte	0x4f7
 1168 0553 05       		.uleb128 0x5
 1169 0554 4A020000 		.4byte	.LASF77
 1170 0558 10       		.byte	0x10
 1171 0559 0A       		.byte	0xa
 1172 055a 2C       		.byte	0x2c
 1173 055b 84050000 		.4byte	0x584
 1174 055f 06       		.uleb128 0x6
 1175 0560 AA000000 		.4byte	.LASF78
 1176 0564 0A       		.byte	0xa
 1177 0565 2D       		.byte	0x2d
 1178 0566 2A020000 		.4byte	0x22a
 1179 056a 00       		.byte	0
 1180 056b 06       		.uleb128 0x6
 1181 056c 5F050000 		.4byte	.LASF79
 1182 0570 0A       		.byte	0xa
 1183 0571 2F       		.byte	0x2f
 1184 0572 24020000 		.4byte	0x224
 1185 0576 08       		.byte	0x8
 1186 0577 06       		.uleb128 0x6
 1187 0578 A1040000 		.4byte	.LASF80
 1188 057c 0A       		.byte	0xa
 1189 057d 31       		.byte	0x31
 1190 057e 84050000 		.4byte	0x584
 1191 0582 0C       		.byte	0xc
 1192 0583 00       		.byte	0
 1193 0584 09       		.uleb128 0x9
 1194 0585 04       		.byte	0x4
 1195 0586 53050000 		.4byte	0x553
 1196 058a 04       		.uleb128 0x4
 1197 058b 4A020000 		.4byte	.LASF77
ARM GAS  /tmp/cce2EF8y.s 			page 22


 1198 058f 0A       		.byte	0xa
 1199 0590 33       		.byte	0x33
 1200 0591 53050000 		.4byte	0x553
 1201 0595 10       		.uleb128 0x10
 1202 0596 04       		.byte	0x4
 1203 0597 06       		.byte	0x6
 1204 0598 96       		.byte	0x96
 1205 0599 CA050000 		.4byte	0x5ca
 1206 059d 11       		.uleb128 0x11
 1207 059e 06000000 		.4byte	.LASF81
 1208 05a2 06       		.byte	0x6
 1209 05a3 9D       		.byte	0x9d
 1210 05a4 F2000000 		.4byte	0xf2
 1211 05a8 11       		.uleb128 0x11
 1212 05a9 60000000 		.4byte	.LASF82
 1213 05ad 06       		.byte	0x6
 1214 05ae A4       		.byte	0xa4
 1215 05af F2000000 		.4byte	0xf2
 1216 05b3 11       		.uleb128 0x11
 1217 05b4 3B050000 		.4byte	.LASF83
 1218 05b8 06       		.byte	0x6
 1219 05b9 AB       		.byte	0xab
 1220 05ba 60020000 		.4byte	0x260
 1221 05be 11       		.uleb128 0x11
 1222 05bf 30030000 		.4byte	.LASF84
 1223 05c3 06       		.byte	0x6
 1224 05c4 B2       		.byte	0xb2
 1225 05c5 FD000000 		.4byte	0xfd
 1226 05c9 00       		.byte	0
 1227 05ca 09       		.uleb128 0x9
 1228 05cb 04       		.byte	0x4
 1229 05cc D7050000 		.4byte	0x5d7
 1230 05d0 03       		.uleb128 0x3
 1231 05d1 01       		.byte	0x1
 1232 05d2 08       		.byte	0x8
 1233 05d3 50040000 		.4byte	.LASF85
 1234 05d7 12       		.uleb128 0x12
 1235 05d8 D0050000 		.4byte	0x5d0
 1236 05dc 09       		.uleb128 0x9
 1237 05dd 04       		.byte	0x4
 1238 05de 62020000 		.4byte	0x262
 1239 05e2 09       		.uleb128 0x9
 1240 05e3 04       		.byte	0x4
 1241 05e4 8A050000 		.4byte	0x58a
 1242 05e8 13       		.uleb128 0x13
 1243 05e9 17020000 		.4byte	.LASF107
 1244 05ed 01       		.byte	0x1
 1245 05ee 94       		.byte	0x94
 1246 05ef 01       		.byte	0x1
 1247 05f0 02060000 		.4byte	0x602
 1248 05f4 14       		.uleb128 0x14
 1249 05f5 15       		.uleb128 0x15
 1250 05f6 D2020000 		.4byte	.LASF91
 1251 05fa 01       		.byte	0x1
 1252 05fb 98       		.byte	0x98
 1253 05fc 02060000 		.4byte	0x602
 1254 0600 00       		.byte	0
ARM GAS  /tmp/cce2EF8y.s 			page 23


 1255 0601 00       		.byte	0
 1256 0602 09       		.uleb128 0x9
 1257 0603 04       		.byte	0x4
 1258 0604 6D020000 		.4byte	0x26d
 1259 0608 16       		.uleb128 0x16
 1260 0609 9D010000 		.4byte	.LASF86
 1261 060d 01       		.byte	0x1
 1262 060e CF       		.byte	0xcf
 1263 060f 00000000 		.4byte	.LFB6
 1264 0613 0E000000 		.4byte	.LFE6-.LFB6
 1265 0617 01       		.uleb128 0x1
 1266 0618 9C       		.byte	0x9c
 1267 0619 39060000 		.4byte	0x639
 1268 061d 17       		.uleb128 0x17
 1269 061e 04000000 		.4byte	.LVL0
 1270 0622 FF070000 		.4byte	0x7ff
 1271 0626 17       		.uleb128 0x17
 1272 0627 08000000 		.4byte	.LVL1
 1273 062b 0A080000 		.4byte	0x80a
 1274 062f 17       		.uleb128 0x17
 1275 0630 0C000000 		.4byte	.LVL2
 1276 0634 15080000 		.4byte	0x815
 1277 0638 00       		.byte	0
 1278 0639 18       		.uleb128 0x18
 1279 063a E8050000 		.4byte	0x5e8
 1280 063e 00000000 		.4byte	.LFB9
 1281 0642 38000000 		.4byte	.LFE9-.LFB9
 1282 0646 01       		.uleb128 0x1
 1283 0647 9C       		.byte	0x9c
 1284 0648 60060000 		.4byte	0x660
 1285 064c 19       		.uleb128 0x19
 1286 064d 00000000 		.4byte	.LBB5
 1287 0651 38000000 		.4byte	.LBE5-.LBB5
 1288 0655 1A       		.uleb128 0x1a
 1289 0656 F5050000 		.4byte	0x5f5
 1290 065a 00000000 		.4byte	.LLST0
 1291 065e 00       		.byte	0
 1292 065f 00       		.byte	0
 1293 0660 16       		.uleb128 0x16
 1294 0661 3B000000 		.4byte	.LASF87
 1295 0665 01       		.byte	0x1
 1296 0666 2F       		.byte	0x2f
 1297 0667 00000000 		.4byte	.LFB0
 1298 066b 3C000000 		.4byte	.LFE0-.LFB0
 1299 066f 01       		.uleb128 0x1
 1300 0670 9C       		.byte	0x9c
 1301 0671 C0060000 		.4byte	0x6c0
 1302 0675 1B       		.uleb128 0x1b
 1303 0676 E8050000 		.4byte	0x5e8
 1304 067a 1E000000 		.4byte	.LBB6
 1305 067e 00000000 		.4byte	.Ldebug_ranges0+0
 1306 0682 01       		.byte	0x1
 1307 0683 37       		.byte	0x37
 1308 0684 92060000 		.4byte	0x692
 1309 0688 1C       		.uleb128 0x1c
 1310 0689 38000000 		.4byte	.LVL11
 1311 068d 39060000 		.4byte	0x639
ARM GAS  /tmp/cce2EF8y.s 			page 24


 1312 0691 00       		.byte	0
 1313 0692 17       		.uleb128 0x17
 1314 0693 06000000 		.4byte	.LVL6
 1315 0697 20080000 		.4byte	0x820
 1316 069b 17       		.uleb128 0x17
 1317 069c 0E000000 		.4byte	.LVL7
 1318 06a0 2B080000 		.4byte	0x82b
 1319 06a4 17       		.uleb128 0x17
 1320 06a5 12000000 		.4byte	.LVL8
 1321 06a9 36080000 		.4byte	0x836
 1322 06ad 17       		.uleb128 0x17
 1323 06ae 16000000 		.4byte	.LVL9
 1324 06b2 41080000 		.4byte	0x841
 1325 06b6 17       		.uleb128 0x17
 1326 06b7 1E000000 		.4byte	.LVL10
 1327 06bb 4C080000 		.4byte	0x84c
 1328 06bf 00       		.byte	0
 1329 06c0 16       		.uleb128 0x16
 1330 06c1 BB000000 		.4byte	.LASF88
 1331 06c5 01       		.byte	0x1
 1332 06c6 41       		.byte	0x41
 1333 06c7 00000000 		.4byte	.LFB1
 1334 06cb 14000000 		.4byte	.LFE1-.LFB1
 1335 06cf 01       		.uleb128 0x1
 1336 06d0 9C       		.byte	0x9c
 1337 06d1 E5060000 		.4byte	0x6e5
 1338 06d5 1D       		.uleb128 0x1d
 1339 06d6 D2020000 		.4byte	.LASF91
 1340 06da 01       		.byte	0x1
 1341 06db 42       		.byte	0x42
 1342 06dc 02060000 		.4byte	0x602
 1343 06e0 2D000000 		.4byte	.LLST1
 1344 06e4 00       		.byte	0
 1345 06e5 16       		.uleb128 0x16
 1346 06e6 42050000 		.4byte	.LASF89
 1347 06ea 01       		.byte	0x1
 1348 06eb 76       		.byte	0x76
 1349 06ec 00000000 		.4byte	.LFB2
 1350 06f0 30000000 		.4byte	.LFE2-.LFB2
 1351 06f4 01       		.uleb128 0x1
 1352 06f5 9C       		.byte	0x9c
 1353 06f6 41070000 		.4byte	0x741
 1354 06fa 1E       		.uleb128 0x1e
 1355 06fb 14000000 		.4byte	.LVL15
 1356 06ff 57080000 		.4byte	0x857
 1357 0703 12070000 		.4byte	0x712
 1358 0707 1F       		.uleb128 0x1f
 1359 0708 01       		.uleb128 0x1
 1360 0709 50       		.byte	0x50
 1361 070a 01       		.uleb128 0x1
 1362 070b 37       		.byte	0x37
 1363 070c 1F       		.uleb128 0x1f
 1364 070d 01       		.uleb128 0x1
 1365 070e 51       		.byte	0x51
 1366 070f 01       		.uleb128 0x1
 1367 0710 40       		.byte	0x40
 1368 0711 00       		.byte	0
ARM GAS  /tmp/cce2EF8y.s 			page 25


 1369 0712 1E       		.uleb128 0x1e
 1370 0713 1C000000 		.4byte	.LVL16
 1371 0717 57080000 		.4byte	0x857
 1372 071b 2B070000 		.4byte	0x72b
 1373 071f 1F       		.uleb128 0x1f
 1374 0720 01       		.uleb128 0x1
 1375 0721 50       		.byte	0x50
 1376 0722 01       		.uleb128 0x1
 1377 0723 3A       		.byte	0x3a
 1378 0724 1F       		.uleb128 0x1f
 1379 0725 01       		.uleb128 0x1
 1380 0726 51       		.byte	0x51
 1381 0727 02       		.uleb128 0x2
 1382 0728 08       		.byte	0x8
 1383 0729 20       		.byte	0x20
 1384 072a 00       		.byte	0
 1385 072b 20       		.uleb128 0x20
 1386 072c 28000000 		.4byte	.LVL17
 1387 0730 57080000 		.4byte	0x857
 1388 0734 1F       		.uleb128 0x1f
 1389 0735 01       		.uleb128 0x1
 1390 0736 50       		.byte	0x50
 1391 0737 01       		.uleb128 0x1
 1392 0738 3B       		.byte	0x3b
 1393 0739 1F       		.uleb128 0x1f
 1394 073a 01       		.uleb128 0x1
 1395 073b 51       		.byte	0x51
 1396 073c 02       		.uleb128 0x2
 1397 073d 08       		.byte	0x8
 1398 073e 80       		.byte	0x80
 1399 073f 00       		.byte	0
 1400 0740 00       		.byte	0
 1401 0741 16       		.uleb128 0x16
 1402 0742 34010000 		.4byte	.LASF90
 1403 0746 01       		.byte	0x1
 1404 0747 86       		.byte	0x86
 1405 0748 00000000 		.4byte	.LFB3
 1406 074c 08000000 		.4byte	.LFE3-.LFB3
 1407 0750 01       		.uleb128 0x1
 1408 0751 9C       		.byte	0x9c
 1409 0752 64070000 		.4byte	0x764
 1410 0756 21       		.uleb128 0x21
 1411 0757 746D7000 		.ascii	"tmp\000"
 1412 075b 01       		.byte	0x1
 1413 075c 87       		.byte	0x87
 1414 075d B4000000 		.4byte	0xb4
 1415 0761 01       		.uleb128 0x1
 1416 0762 53       		.byte	0x53
 1417 0763 00       		.byte	0
 1418 0764 16       		.uleb128 0x16
 1419 0765 C7040000 		.4byte	.LASF92
 1420 0769 01       		.byte	0x1
 1421 076a 8B       		.byte	0x8b
 1422 076b 00000000 		.4byte	.LFB4
 1423 076f 08000000 		.4byte	.LFE4-.LFB4
 1424 0773 01       		.uleb128 0x1
 1425 0774 9C       		.byte	0x9c
ARM GAS  /tmp/cce2EF8y.s 			page 26


 1426 0775 87070000 		.4byte	0x787
 1427 0779 21       		.uleb128 0x21
 1428 077a 746D7000 		.ascii	"tmp\000"
 1429 077e 01       		.byte	0x1
 1430 077f 8C       		.byte	0x8c
 1431 0780 B4000000 		.4byte	0xb4
 1432 0784 01       		.uleb128 0x1
 1433 0785 53       		.byte	0x53
 1434 0786 00       		.byte	0
 1435 0787 18       		.uleb128 0x18
 1436 0788 E8050000 		.4byte	0x5e8
 1437 078c 00000000 		.4byte	.LFB5
 1438 0790 24000000 		.4byte	.LFE5-.LFB5
 1439 0794 01       		.uleb128 0x1
 1440 0795 9C       		.byte	0x9c
 1441 0796 A4070000 		.4byte	0x7a4
 1442 079a 1C       		.uleb128 0x1c
 1443 079b 16000000 		.4byte	.LVL18
 1444 079f 39060000 		.4byte	0x639
 1445 07a3 00       		.byte	0
 1446 07a4 16       		.uleb128 0x16
 1447 07a5 79010000 		.4byte	.LASF93
 1448 07a9 01       		.byte	0x1
 1449 07aa EC       		.byte	0xec
 1450 07ab 00000000 		.4byte	.LFB7
 1451 07af 10000000 		.4byte	.LFE7-.LFB7
 1452 07b3 01       		.uleb128 0x1
 1453 07b4 9C       		.byte	0x9c
 1454 07b5 D4070000 		.4byte	0x7d4
 1455 07b9 22       		.uleb128 0x22
 1456 07ba 6E747000 		.ascii	"ntp\000"
 1457 07be 01       		.byte	0x1
 1458 07bf EC       		.byte	0xec
 1459 07c0 24020000 		.4byte	0x224
 1460 07c4 01       		.uleb128 0x1
 1461 07c5 50       		.byte	0x50
 1462 07c6 22       		.uleb128 0x22
 1463 07c7 6F747000 		.ascii	"otp\000"
 1464 07cb 01       		.byte	0x1
 1465 07cc EC       		.byte	0xec
 1466 07cd 24020000 		.4byte	0x224
 1467 07d1 01       		.uleb128 0x1
 1468 07d2 51       		.byte	0x51
 1469 07d3 00       		.byte	0
 1470 07d4 23       		.uleb128 0x23
 1471 07d5 D1000000 		.4byte	.LASF94
 1472 07d9 01       		.byte	0x1
 1473 07da 0301     		.2byte	0x103
 1474 07dc 00000000 		.4byte	.LFB8
 1475 07e0 14000000 		.4byte	.LFE8-.LFB8
 1476 07e4 01       		.uleb128 0x1
 1477 07e5 9C       		.byte	0x9c
 1478 07e6 F4070000 		.4byte	0x7f4
 1479 07ea 17       		.uleb128 0x17
 1480 07eb 06000000 		.4byte	.LVL20
 1481 07ef 15080000 		.4byte	0x815
 1482 07f3 00       		.byte	0
ARM GAS  /tmp/cce2EF8y.s 			page 27


 1483 07f4 24       		.uleb128 0x24
 1484 07f5 15050000 		.4byte	.LASF108
 1485 07f9 09       		.byte	0x9
 1486 07fa 6F       		.byte	0x6f
 1487 07fb 48050000 		.4byte	0x548
 1488 07ff 25       		.uleb128 0x25
 1489 0800 70020000 		.4byte	.LASF95
 1490 0804 70020000 		.4byte	.LASF95
 1491 0808 0B       		.byte	0xb
 1492 0809 E7       		.byte	0xe7
 1493 080a 25       		.uleb128 0x25
 1494 080b 22010000 		.4byte	.LASF96
 1495 080f 22010000 		.4byte	.LASF96
 1496 0813 09       		.byte	0x9
 1497 0814 A8       		.byte	0xa8
 1498 0815 25       		.uleb128 0x25
 1499 0816 B1020000 		.4byte	.LASF97
 1500 081a B1020000 		.4byte	.LASF97
 1501 081e 0B       		.byte	0xb
 1502 081f E8       		.byte	0xe8
 1503 0820 25       		.uleb128 0x25
 1504 0821 3F010000 		.4byte	.LASF98
 1505 0825 3F010000 		.4byte	.LASF98
 1506 0829 0B       		.byte	0xb
 1507 082a EB       		.byte	0xeb
 1508 082b 25       		.uleb128 0x25
 1509 082c 23050000 		.4byte	.LASF99
 1510 0830 23050000 		.4byte	.LASF99
 1511 0834 0B       		.byte	0xb
 1512 0835 E9       		.byte	0xe9
 1513 0836 25       		.uleb128 0x25
 1514 0837 28000000 		.4byte	.LASF100
 1515 083b 28000000 		.4byte	.LASF100
 1516 083f 0C       		.byte	0xc
 1517 0840 F7       		.byte	0xf7
 1518 0841 25       		.uleb128 0x25
 1519 0842 90000000 		.4byte	.LASF101
 1520 0846 90000000 		.4byte	.LASF101
 1521 084a 0B       		.byte	0xb
 1522 084b EA       		.byte	0xea
 1523 084c 25       		.uleb128 0x25
 1524 084d E0040000 		.4byte	.LASF102
 1525 0851 E0040000 		.4byte	.LASF102
 1526 0855 0B       		.byte	0xb
 1527 0856 EC       		.byte	0xec
 1528 0857 26       		.uleb128 0x26
 1529 0858 FC000000 		.4byte	.LASF103
 1530 085c FC000000 		.4byte	.LASF103
 1531 0860 08       		.byte	0x8
 1532 0861 2501     		.2byte	0x125
 1533 0863 00       		.byte	0
 1534              		.section	.debug_abbrev,"",%progbits
 1535              	.Ldebug_abbrev0:
 1536 0000 01       		.uleb128 0x1
 1537 0001 11       		.uleb128 0x11
 1538 0002 01       		.byte	0x1
 1539 0003 25       		.uleb128 0x25
ARM GAS  /tmp/cce2EF8y.s 			page 28


 1540 0004 0E       		.uleb128 0xe
 1541 0005 13       		.uleb128 0x13
 1542 0006 0B       		.uleb128 0xb
 1543 0007 03       		.uleb128 0x3
 1544 0008 0E       		.uleb128 0xe
 1545 0009 1B       		.uleb128 0x1b
 1546 000a 0E       		.uleb128 0xe
 1547 000b 55       		.uleb128 0x55
 1548 000c 17       		.uleb128 0x17
 1549 000d 11       		.uleb128 0x11
 1550 000e 01       		.uleb128 0x1
 1551 000f 10       		.uleb128 0x10
 1552 0010 17       		.uleb128 0x17
 1553 0011 00       		.byte	0
 1554 0012 00       		.byte	0
 1555 0013 02       		.uleb128 0x2
 1556 0014 24       		.uleb128 0x24
 1557 0015 00       		.byte	0
 1558 0016 0B       		.uleb128 0xb
 1559 0017 0B       		.uleb128 0xb
 1560 0018 3E       		.uleb128 0x3e
 1561 0019 0B       		.uleb128 0xb
 1562 001a 03       		.uleb128 0x3
 1563 001b 08       		.uleb128 0x8
 1564 001c 00       		.byte	0
 1565 001d 00       		.byte	0
 1566 001e 03       		.uleb128 0x3
 1567 001f 24       		.uleb128 0x24
 1568 0020 00       		.byte	0
 1569 0021 0B       		.uleb128 0xb
 1570 0022 0B       		.uleb128 0xb
 1571 0023 3E       		.uleb128 0x3e
 1572 0024 0B       		.uleb128 0xb
 1573 0025 03       		.uleb128 0x3
 1574 0026 0E       		.uleb128 0xe
 1575 0027 00       		.byte	0
 1576 0028 00       		.byte	0
 1577 0029 04       		.uleb128 0x4
 1578 002a 16       		.uleb128 0x16
 1579 002b 00       		.byte	0
 1580 002c 03       		.uleb128 0x3
 1581 002d 0E       		.uleb128 0xe
 1582 002e 3A       		.uleb128 0x3a
 1583 002f 0B       		.uleb128 0xb
 1584 0030 3B       		.uleb128 0x3b
 1585 0031 0B       		.uleb128 0xb
 1586 0032 49       		.uleb128 0x49
 1587 0033 13       		.uleb128 0x13
 1588 0034 00       		.byte	0
 1589 0035 00       		.byte	0
 1590 0036 05       		.uleb128 0x5
 1591 0037 13       		.uleb128 0x13
 1592 0038 01       		.byte	0x1
 1593 0039 03       		.uleb128 0x3
 1594 003a 0E       		.uleb128 0xe
 1595 003b 0B       		.uleb128 0xb
 1596 003c 0B       		.uleb128 0xb
ARM GAS  /tmp/cce2EF8y.s 			page 29


 1597 003d 3A       		.uleb128 0x3a
 1598 003e 0B       		.uleb128 0xb
 1599 003f 3B       		.uleb128 0x3b
 1600 0040 0B       		.uleb128 0xb
 1601 0041 01       		.uleb128 0x1
 1602 0042 13       		.uleb128 0x13
 1603 0043 00       		.byte	0
 1604 0044 00       		.byte	0
 1605 0045 06       		.uleb128 0x6
 1606 0046 0D       		.uleb128 0xd
 1607 0047 00       		.byte	0
 1608 0048 03       		.uleb128 0x3
 1609 0049 0E       		.uleb128 0xe
 1610 004a 3A       		.uleb128 0x3a
 1611 004b 0B       		.uleb128 0xb
 1612 004c 3B       		.uleb128 0x3b
 1613 004d 0B       		.uleb128 0xb
 1614 004e 49       		.uleb128 0x49
 1615 004f 13       		.uleb128 0x13
 1616 0050 38       		.uleb128 0x38
 1617 0051 0B       		.uleb128 0xb
 1618 0052 00       		.byte	0
 1619 0053 00       		.byte	0
 1620 0054 07       		.uleb128 0x7
 1621 0055 0D       		.uleb128 0xd
 1622 0056 00       		.byte	0
 1623 0057 03       		.uleb128 0x3
 1624 0058 08       		.uleb128 0x8
 1625 0059 3A       		.uleb128 0x3a
 1626 005a 0B       		.uleb128 0xb
 1627 005b 3B       		.uleb128 0x3b
 1628 005c 0B       		.uleb128 0xb
 1629 005d 49       		.uleb128 0x49
 1630 005e 13       		.uleb128 0x13
 1631 005f 38       		.uleb128 0x38
 1632 0060 0B       		.uleb128 0xb
 1633 0061 00       		.byte	0
 1634 0062 00       		.byte	0
 1635 0063 08       		.uleb128 0x8
 1636 0064 13       		.uleb128 0x13
 1637 0065 01       		.byte	0x1
 1638 0066 0B       		.uleb128 0xb
 1639 0067 0B       		.uleb128 0xb
 1640 0068 3A       		.uleb128 0x3a
 1641 0069 0B       		.uleb128 0xb
 1642 006a 3B       		.uleb128 0x3b
 1643 006b 0B       		.uleb128 0xb
 1644 006c 01       		.uleb128 0x1
 1645 006d 13       		.uleb128 0x13
 1646 006e 00       		.byte	0
 1647 006f 00       		.byte	0
 1648 0070 09       		.uleb128 0x9
 1649 0071 0F       		.uleb128 0xf
 1650 0072 00       		.byte	0
 1651 0073 0B       		.uleb128 0xb
 1652 0074 0B       		.uleb128 0xb
 1653 0075 49       		.uleb128 0x49
ARM GAS  /tmp/cce2EF8y.s 			page 30


 1654 0076 13       		.uleb128 0x13
 1655 0077 00       		.byte	0
 1656 0078 00       		.byte	0
 1657 0079 0A       		.uleb128 0xa
 1658 007a 0F       		.uleb128 0xf
 1659 007b 00       		.byte	0
 1660 007c 0B       		.uleb128 0xb
 1661 007d 0B       		.uleb128 0xb
 1662 007e 00       		.byte	0
 1663 007f 00       		.byte	0
 1664 0080 0B       		.uleb128 0xb
 1665 0081 13       		.uleb128 0x13
 1666 0082 01       		.byte	0x1
 1667 0083 03       		.uleb128 0x3
 1668 0084 0E       		.uleb128 0xe
 1669 0085 0B       		.uleb128 0xb
 1670 0086 0B       		.uleb128 0xb
 1671 0087 3A       		.uleb128 0x3a
 1672 0088 0B       		.uleb128 0xb
 1673 0089 3B       		.uleb128 0x3b
 1674 008a 05       		.uleb128 0x5
 1675 008b 01       		.uleb128 0x1
 1676 008c 13       		.uleb128 0x13
 1677 008d 00       		.byte	0
 1678 008e 00       		.byte	0
 1679 008f 0C       		.uleb128 0xc
 1680 0090 0D       		.uleb128 0xd
 1681 0091 00       		.byte	0
 1682 0092 03       		.uleb128 0x3
 1683 0093 08       		.uleb128 0x8
 1684 0094 3A       		.uleb128 0x3a
 1685 0095 0B       		.uleb128 0xb
 1686 0096 3B       		.uleb128 0x3b
 1687 0097 05       		.uleb128 0x5
 1688 0098 49       		.uleb128 0x49
 1689 0099 13       		.uleb128 0x13
 1690 009a 38       		.uleb128 0x38
 1691 009b 0B       		.uleb128 0xb
 1692 009c 00       		.byte	0
 1693 009d 00       		.byte	0
 1694 009e 0D       		.uleb128 0xd
 1695 009f 35       		.uleb128 0x35
 1696 00a0 00       		.byte	0
 1697 00a1 49       		.uleb128 0x49
 1698 00a2 13       		.uleb128 0x13
 1699 00a3 00       		.byte	0
 1700 00a4 00       		.byte	0
 1701 00a5 0E       		.uleb128 0xe
 1702 00a6 01       		.uleb128 0x1
 1703 00a7 01       		.byte	0x1
 1704 00a8 49       		.uleb128 0x49
 1705 00a9 13       		.uleb128 0x13
 1706 00aa 01       		.uleb128 0x1
 1707 00ab 13       		.uleb128 0x13
 1708 00ac 00       		.byte	0
 1709 00ad 00       		.byte	0
 1710 00ae 0F       		.uleb128 0xf
ARM GAS  /tmp/cce2EF8y.s 			page 31


 1711 00af 21       		.uleb128 0x21
 1712 00b0 00       		.byte	0
 1713 00b1 49       		.uleb128 0x49
 1714 00b2 13       		.uleb128 0x13
 1715 00b3 2F       		.uleb128 0x2f
 1716 00b4 0B       		.uleb128 0xb
 1717 00b5 00       		.byte	0
 1718 00b6 00       		.byte	0
 1719 00b7 10       		.uleb128 0x10
 1720 00b8 17       		.uleb128 0x17
 1721 00b9 01       		.byte	0x1
 1722 00ba 0B       		.uleb128 0xb
 1723 00bb 0B       		.uleb128 0xb
 1724 00bc 3A       		.uleb128 0x3a
 1725 00bd 0B       		.uleb128 0xb
 1726 00be 3B       		.uleb128 0x3b
 1727 00bf 0B       		.uleb128 0xb
 1728 00c0 01       		.uleb128 0x1
 1729 00c1 13       		.uleb128 0x13
 1730 00c2 00       		.byte	0
 1731 00c3 00       		.byte	0
 1732 00c4 11       		.uleb128 0x11
 1733 00c5 0D       		.uleb128 0xd
 1734 00c6 00       		.byte	0
 1735 00c7 03       		.uleb128 0x3
 1736 00c8 0E       		.uleb128 0xe
 1737 00c9 3A       		.uleb128 0x3a
 1738 00ca 0B       		.uleb128 0xb
 1739 00cb 3B       		.uleb128 0x3b
 1740 00cc 0B       		.uleb128 0xb
 1741 00cd 49       		.uleb128 0x49
 1742 00ce 13       		.uleb128 0x13
 1743 00cf 00       		.byte	0
 1744 00d0 00       		.byte	0
 1745 00d1 12       		.uleb128 0x12
 1746 00d2 26       		.uleb128 0x26
 1747 00d3 00       		.byte	0
 1748 00d4 49       		.uleb128 0x49
 1749 00d5 13       		.uleb128 0x13
 1750 00d6 00       		.byte	0
 1751 00d7 00       		.byte	0
 1752 00d8 13       		.uleb128 0x13
 1753 00d9 2E       		.uleb128 0x2e
 1754 00da 01       		.byte	0x1
 1755 00db 3F       		.uleb128 0x3f
 1756 00dc 19       		.uleb128 0x19
 1757 00dd 03       		.uleb128 0x3
 1758 00de 0E       		.uleb128 0xe
 1759 00df 3A       		.uleb128 0x3a
 1760 00e0 0B       		.uleb128 0xb
 1761 00e1 3B       		.uleb128 0x3b
 1762 00e2 0B       		.uleb128 0xb
 1763 00e3 27       		.uleb128 0x27
 1764 00e4 19       		.uleb128 0x19
 1765 00e5 20       		.uleb128 0x20
 1766 00e6 0B       		.uleb128 0xb
 1767 00e7 01       		.uleb128 0x1
ARM GAS  /tmp/cce2EF8y.s 			page 32


 1768 00e8 13       		.uleb128 0x13
 1769 00e9 00       		.byte	0
 1770 00ea 00       		.byte	0
 1771 00eb 14       		.uleb128 0x14
 1772 00ec 0B       		.uleb128 0xb
 1773 00ed 01       		.byte	0x1
 1774 00ee 00       		.byte	0
 1775 00ef 00       		.byte	0
 1776 00f0 15       		.uleb128 0x15
 1777 00f1 34       		.uleb128 0x34
 1778 00f2 00       		.byte	0
 1779 00f3 03       		.uleb128 0x3
 1780 00f4 0E       		.uleb128 0xe
 1781 00f5 3A       		.uleb128 0x3a
 1782 00f6 0B       		.uleb128 0xb
 1783 00f7 3B       		.uleb128 0x3b
 1784 00f8 0B       		.uleb128 0xb
 1785 00f9 49       		.uleb128 0x49
 1786 00fa 13       		.uleb128 0x13
 1787 00fb 00       		.byte	0
 1788 00fc 00       		.byte	0
 1789 00fd 16       		.uleb128 0x16
 1790 00fe 2E       		.uleb128 0x2e
 1791 00ff 01       		.byte	0x1
 1792 0100 3F       		.uleb128 0x3f
 1793 0101 19       		.uleb128 0x19
 1794 0102 03       		.uleb128 0x3
 1795 0103 0E       		.uleb128 0xe
 1796 0104 3A       		.uleb128 0x3a
 1797 0105 0B       		.uleb128 0xb
 1798 0106 3B       		.uleb128 0x3b
 1799 0107 0B       		.uleb128 0xb
 1800 0108 27       		.uleb128 0x27
 1801 0109 19       		.uleb128 0x19
 1802 010a 11       		.uleb128 0x11
 1803 010b 01       		.uleb128 0x1
 1804 010c 12       		.uleb128 0x12
 1805 010d 06       		.uleb128 0x6
 1806 010e 40       		.uleb128 0x40
 1807 010f 18       		.uleb128 0x18
 1808 0110 9742     		.uleb128 0x2117
 1809 0112 19       		.uleb128 0x19
 1810 0113 01       		.uleb128 0x1
 1811 0114 13       		.uleb128 0x13
 1812 0115 00       		.byte	0
 1813 0116 00       		.byte	0
 1814 0117 17       		.uleb128 0x17
 1815 0118 898201   		.uleb128 0x4109
 1816 011b 00       		.byte	0
 1817 011c 11       		.uleb128 0x11
 1818 011d 01       		.uleb128 0x1
 1819 011e 31       		.uleb128 0x31
 1820 011f 13       		.uleb128 0x13
 1821 0120 00       		.byte	0
 1822 0121 00       		.byte	0
 1823 0122 18       		.uleb128 0x18
 1824 0123 2E       		.uleb128 0x2e
ARM GAS  /tmp/cce2EF8y.s 			page 33


 1825 0124 01       		.byte	0x1
 1826 0125 31       		.uleb128 0x31
 1827 0126 13       		.uleb128 0x13
 1828 0127 11       		.uleb128 0x11
 1829 0128 01       		.uleb128 0x1
 1830 0129 12       		.uleb128 0x12
 1831 012a 06       		.uleb128 0x6
 1832 012b 40       		.uleb128 0x40
 1833 012c 18       		.uleb128 0x18
 1834 012d 9742     		.uleb128 0x2117
 1835 012f 19       		.uleb128 0x19
 1836 0130 01       		.uleb128 0x1
 1837 0131 13       		.uleb128 0x13
 1838 0132 00       		.byte	0
 1839 0133 00       		.byte	0
 1840 0134 19       		.uleb128 0x19
 1841 0135 0B       		.uleb128 0xb
 1842 0136 01       		.byte	0x1
 1843 0137 11       		.uleb128 0x11
 1844 0138 01       		.uleb128 0x1
 1845 0139 12       		.uleb128 0x12
 1846 013a 06       		.uleb128 0x6
 1847 013b 00       		.byte	0
 1848 013c 00       		.byte	0
 1849 013d 1A       		.uleb128 0x1a
 1850 013e 34       		.uleb128 0x34
 1851 013f 00       		.byte	0
 1852 0140 31       		.uleb128 0x31
 1853 0141 13       		.uleb128 0x13
 1854 0142 02       		.uleb128 0x2
 1855 0143 17       		.uleb128 0x17
 1856 0144 00       		.byte	0
 1857 0145 00       		.byte	0
 1858 0146 1B       		.uleb128 0x1b
 1859 0147 1D       		.uleb128 0x1d
 1860 0148 01       		.byte	0x1
 1861 0149 31       		.uleb128 0x31
 1862 014a 13       		.uleb128 0x13
 1863 014b 52       		.uleb128 0x52
 1864 014c 01       		.uleb128 0x1
 1865 014d 55       		.uleb128 0x55
 1866 014e 17       		.uleb128 0x17
 1867 014f 58       		.uleb128 0x58
 1868 0150 0B       		.uleb128 0xb
 1869 0151 59       		.uleb128 0x59
 1870 0152 0B       		.uleb128 0xb
 1871 0153 01       		.uleb128 0x1
 1872 0154 13       		.uleb128 0x13
 1873 0155 00       		.byte	0
 1874 0156 00       		.byte	0
 1875 0157 1C       		.uleb128 0x1c
 1876 0158 898201   		.uleb128 0x4109
 1877 015b 00       		.byte	0
 1878 015c 11       		.uleb128 0x11
 1879 015d 01       		.uleb128 0x1
 1880 015e 9542     		.uleb128 0x2115
 1881 0160 19       		.uleb128 0x19
ARM GAS  /tmp/cce2EF8y.s 			page 34


 1882 0161 31       		.uleb128 0x31
 1883 0162 13       		.uleb128 0x13
 1884 0163 00       		.byte	0
 1885 0164 00       		.byte	0
 1886 0165 1D       		.uleb128 0x1d
 1887 0166 34       		.uleb128 0x34
 1888 0167 00       		.byte	0
 1889 0168 03       		.uleb128 0x3
 1890 0169 0E       		.uleb128 0xe
 1891 016a 3A       		.uleb128 0x3a
 1892 016b 0B       		.uleb128 0xb
 1893 016c 3B       		.uleb128 0x3b
 1894 016d 0B       		.uleb128 0xb
 1895 016e 49       		.uleb128 0x49
 1896 016f 13       		.uleb128 0x13
 1897 0170 02       		.uleb128 0x2
 1898 0171 17       		.uleb128 0x17
 1899 0172 00       		.byte	0
 1900 0173 00       		.byte	0
 1901 0174 1E       		.uleb128 0x1e
 1902 0175 898201   		.uleb128 0x4109
 1903 0178 01       		.byte	0x1
 1904 0179 11       		.uleb128 0x11
 1905 017a 01       		.uleb128 0x1
 1906 017b 31       		.uleb128 0x31
 1907 017c 13       		.uleb128 0x13
 1908 017d 01       		.uleb128 0x1
 1909 017e 13       		.uleb128 0x13
 1910 017f 00       		.byte	0
 1911 0180 00       		.byte	0
 1912 0181 1F       		.uleb128 0x1f
 1913 0182 8A8201   		.uleb128 0x410a
 1914 0185 00       		.byte	0
 1915 0186 02       		.uleb128 0x2
 1916 0187 18       		.uleb128 0x18
 1917 0188 9142     		.uleb128 0x2111
 1918 018a 18       		.uleb128 0x18
 1919 018b 00       		.byte	0
 1920 018c 00       		.byte	0
 1921 018d 20       		.uleb128 0x20
 1922 018e 898201   		.uleb128 0x4109
 1923 0191 01       		.byte	0x1
 1924 0192 11       		.uleb128 0x11
 1925 0193 01       		.uleb128 0x1
 1926 0194 9542     		.uleb128 0x2115
 1927 0196 19       		.uleb128 0x19
 1928 0197 31       		.uleb128 0x31
 1929 0198 13       		.uleb128 0x13
 1930 0199 00       		.byte	0
 1931 019a 00       		.byte	0
 1932 019b 21       		.uleb128 0x21
 1933 019c 34       		.uleb128 0x34
 1934 019d 00       		.byte	0
 1935 019e 03       		.uleb128 0x3
 1936 019f 08       		.uleb128 0x8
 1937 01a0 3A       		.uleb128 0x3a
 1938 01a1 0B       		.uleb128 0xb
ARM GAS  /tmp/cce2EF8y.s 			page 35


 1939 01a2 3B       		.uleb128 0x3b
 1940 01a3 0B       		.uleb128 0xb
 1941 01a4 49       		.uleb128 0x49
 1942 01a5 13       		.uleb128 0x13
 1943 01a6 02       		.uleb128 0x2
 1944 01a7 18       		.uleb128 0x18
 1945 01a8 00       		.byte	0
 1946 01a9 00       		.byte	0
 1947 01aa 22       		.uleb128 0x22
 1948 01ab 05       		.uleb128 0x5
 1949 01ac 00       		.byte	0
 1950 01ad 03       		.uleb128 0x3
 1951 01ae 08       		.uleb128 0x8
 1952 01af 3A       		.uleb128 0x3a
 1953 01b0 0B       		.uleb128 0xb
 1954 01b1 3B       		.uleb128 0x3b
 1955 01b2 0B       		.uleb128 0xb
 1956 01b3 49       		.uleb128 0x49
 1957 01b4 13       		.uleb128 0x13
 1958 01b5 02       		.uleb128 0x2
 1959 01b6 18       		.uleb128 0x18
 1960 01b7 00       		.byte	0
 1961 01b8 00       		.byte	0
 1962 01b9 23       		.uleb128 0x23
 1963 01ba 2E       		.uleb128 0x2e
 1964 01bb 01       		.byte	0x1
 1965 01bc 3F       		.uleb128 0x3f
 1966 01bd 19       		.uleb128 0x19
 1967 01be 03       		.uleb128 0x3
 1968 01bf 0E       		.uleb128 0xe
 1969 01c0 3A       		.uleb128 0x3a
 1970 01c1 0B       		.uleb128 0xb
 1971 01c2 3B       		.uleb128 0x3b
 1972 01c3 05       		.uleb128 0x5
 1973 01c4 27       		.uleb128 0x27
 1974 01c5 19       		.uleb128 0x19
 1975 01c6 11       		.uleb128 0x11
 1976 01c7 01       		.uleb128 0x1
 1977 01c8 12       		.uleb128 0x12
 1978 01c9 06       		.uleb128 0x6
 1979 01ca 40       		.uleb128 0x40
 1980 01cb 18       		.uleb128 0x18
 1981 01cc 9742     		.uleb128 0x2117
 1982 01ce 19       		.uleb128 0x19
 1983 01cf 01       		.uleb128 0x1
 1984 01d0 13       		.uleb128 0x13
 1985 01d1 00       		.byte	0
 1986 01d2 00       		.byte	0
 1987 01d3 24       		.uleb128 0x24
 1988 01d4 34       		.uleb128 0x34
 1989 01d5 00       		.byte	0
 1990 01d6 03       		.uleb128 0x3
 1991 01d7 0E       		.uleb128 0xe
 1992 01d8 3A       		.uleb128 0x3a
 1993 01d9 0B       		.uleb128 0xb
 1994 01da 3B       		.uleb128 0x3b
 1995 01db 0B       		.uleb128 0xb
ARM GAS  /tmp/cce2EF8y.s 			page 36


 1996 01dc 49       		.uleb128 0x49
 1997 01dd 13       		.uleb128 0x13
 1998 01de 3F       		.uleb128 0x3f
 1999 01df 19       		.uleb128 0x19
 2000 01e0 3C       		.uleb128 0x3c
 2001 01e1 19       		.uleb128 0x19
 2002 01e2 00       		.byte	0
 2003 01e3 00       		.byte	0
 2004 01e4 25       		.uleb128 0x25
 2005 01e5 2E       		.uleb128 0x2e
 2006 01e6 00       		.byte	0
 2007 01e7 3F       		.uleb128 0x3f
 2008 01e8 19       		.uleb128 0x19
 2009 01e9 3C       		.uleb128 0x3c
 2010 01ea 19       		.uleb128 0x19
 2011 01eb 6E       		.uleb128 0x6e
 2012 01ec 0E       		.uleb128 0xe
 2013 01ed 03       		.uleb128 0x3
 2014 01ee 0E       		.uleb128 0xe
 2015 01ef 3A       		.uleb128 0x3a
 2016 01f0 0B       		.uleb128 0xb
 2017 01f1 3B       		.uleb128 0x3b
 2018 01f2 0B       		.uleb128 0xb
 2019 01f3 00       		.byte	0
 2020 01f4 00       		.byte	0
 2021 01f5 26       		.uleb128 0x26
 2022 01f6 2E       		.uleb128 0x2e
 2023 01f7 00       		.byte	0
 2024 01f8 3F       		.uleb128 0x3f
 2025 01f9 19       		.uleb128 0x19
 2026 01fa 3C       		.uleb128 0x3c
 2027 01fb 19       		.uleb128 0x19
 2028 01fc 6E       		.uleb128 0x6e
 2029 01fd 0E       		.uleb128 0xe
 2030 01fe 03       		.uleb128 0x3
 2031 01ff 0E       		.uleb128 0xe
 2032 0200 3A       		.uleb128 0x3a
 2033 0201 0B       		.uleb128 0xb
 2034 0202 3B       		.uleb128 0x3b
 2035 0203 05       		.uleb128 0x5
 2036 0204 00       		.byte	0
 2037 0205 00       		.byte	0
 2038 0206 00       		.byte	0
 2039              		.section	.debug_loc,"",%progbits
 2040              	.Ldebug_loc0:
 2041              	.LLST0:
 2042 0000 04000000 		.4byte	.LVL3
 2043 0004 08000000 		.4byte	.LVL4
 2044 0008 0300     		.2byte	0x3
 2045 000a 73       		.byte	0x73
 2046 000b 60       		.sleb128 -32
 2047 000c 9F       		.byte	0x9f
 2048 000d 08000000 		.4byte	.LVL4
 2049 0011 0E000000 		.4byte	.LVL5
 2050 0015 0100     		.2byte	0x1
 2051 0017 52       		.byte	0x52
 2052 0018 0E000000 		.4byte	.LVL5
ARM GAS  /tmp/cce2EF8y.s 			page 37


 2053 001c 38000000 		.4byte	.LFE9
 2054 0020 0300     		.2byte	0x3
 2055 0022 73       		.byte	0x73
 2056 0023 60       		.sleb128 -32
 2057 0024 9F       		.byte	0x9f
 2058 0025 00000000 		.4byte	0
 2059 0029 00000000 		.4byte	0
 2060              	.LLST1:
 2061 002d 06000000 		.4byte	.LVL12
 2062 0031 08000000 		.4byte	.LVL13
 2063 0035 0300     		.2byte	0x3
 2064 0037 73       		.byte	0x73
 2065 0038 20       		.sleb128 32
 2066 0039 9F       		.byte	0x9f
 2067 003a 08000000 		.4byte	.LVL13
 2068 003e 10000000 		.4byte	.LVL14
 2069 0042 0100     		.2byte	0x1
 2070 0044 53       		.byte	0x53
 2071 0045 00000000 		.4byte	0
 2072 0049 00000000 		.4byte	0
 2073              		.section	.debug_aranges,"",%progbits
 2074 0000 64000000 		.4byte	0x64
 2075 0004 0200     		.2byte	0x2
 2076 0006 00000000 		.4byte	.Ldebug_info0
 2077 000a 04       		.byte	0x4
 2078 000b 00       		.byte	0
 2079 000c 0000     		.2byte	0
 2080 000e 0000     		.2byte	0
 2081 0010 00000000 		.4byte	.LFB6
 2082 0014 0E000000 		.4byte	.LFE6-.LFB6
 2083 0018 00000000 		.4byte	.LFB9
 2084 001c 38000000 		.4byte	.LFE9-.LFB9
 2085 0020 00000000 		.4byte	.LFB0
 2086 0024 3C000000 		.4byte	.LFE0-.LFB0
 2087 0028 00000000 		.4byte	.LFB1
 2088 002c 14000000 		.4byte	.LFE1-.LFB1
 2089 0030 00000000 		.4byte	.LFB2
 2090 0034 30000000 		.4byte	.LFE2-.LFB2
 2091 0038 00000000 		.4byte	.LFB3
 2092 003c 08000000 		.4byte	.LFE3-.LFB3
 2093 0040 00000000 		.4byte	.LFB4
 2094 0044 08000000 		.4byte	.LFE4-.LFB4
 2095 0048 00000000 		.4byte	.LFB5
 2096 004c 24000000 		.4byte	.LFE5-.LFB5
 2097 0050 00000000 		.4byte	.LFB7
 2098 0054 10000000 		.4byte	.LFE7-.LFB7
 2099 0058 00000000 		.4byte	.LFB8
 2100 005c 14000000 		.4byte	.LFE8-.LFB8
 2101 0060 00000000 		.4byte	0
 2102 0064 00000000 		.4byte	0
 2103              		.section	.debug_ranges,"",%progbits
 2104              	.Ldebug_ranges0:
 2105 0000 1E000000 		.4byte	.LBB6
 2106 0004 30000000 		.4byte	.LBE6
 2107 0008 34000000 		.4byte	.LBB9
 2108 000c 3C000000 		.4byte	.LBE9
 2109 0010 00000000 		.4byte	0
ARM GAS  /tmp/cce2EF8y.s 			page 38


 2110 0014 00000000 		.4byte	0
 2111 0018 00000000 		.4byte	.LFB6
 2112 001c 0E000000 		.4byte	.LFE6
 2113 0020 00000000 		.4byte	.LFB9
 2114 0024 38000000 		.4byte	.LFE9
 2115 0028 00000000 		.4byte	.LFB0
 2116 002c 3C000000 		.4byte	.LFE0
 2117 0030 00000000 		.4byte	.LFB1
 2118 0034 14000000 		.4byte	.LFE1
 2119 0038 00000000 		.4byte	.LFB2
 2120 003c 30000000 		.4byte	.LFE2
 2121 0040 00000000 		.4byte	.LFB3
 2122 0044 08000000 		.4byte	.LFE3
 2123 0048 00000000 		.4byte	.LFB4
 2124 004c 08000000 		.4byte	.LFE4
 2125 0050 00000000 		.4byte	.LFB5
 2126 0054 24000000 		.4byte	.LFE5
 2127 0058 00000000 		.4byte	.LFB7
 2128 005c 10000000 		.4byte	.LFE7
 2129 0060 00000000 		.4byte	.LFB8
 2130 0064 14000000 		.4byte	.LFE8
 2131 0068 00000000 		.4byte	0
 2132 006c 00000000 		.4byte	0
 2133              		.section	.debug_line,"",%progbits
 2134              	.Ldebug_line0:
 2135 0000 12030000 		.section	.debug_str,"MS",%progbits,1
 2135      02002602 
 2135      00000201 
 2135      FB0E0D00 
 2135      01010101 
 2136              	.LASF39:
 2137 0000 705F6D73 		.ascii	"p_msg\000"
 2137      6700
 2138              	.LASF81:
 2139 0006 7264796D 		.ascii	"rdymsg\000"
 2139      736700
 2140              	.LASF17:
 2141 000d 75696E74 		.ascii	"uint64_t\000"
 2141      36345F74 
 2141      00
 2142              	.LASF7:
 2143 0016 5F5F7569 		.ascii	"__uint8_t\000"
 2143      6E74385F 
 2143      7400
 2144              	.LASF69:
 2145 0020 434D785F 		.ascii	"CMx_SCB\000"
 2145      53434200 
 2146              	.LASF100:
 2147 0028 63685379 		.ascii	"chSysTimerHandlerI\000"
 2147      7354696D 
 2147      65724861 
 2147      6E646C65 
 2147      724900
 2148              	.LASF87:
 2149 003b 53797354 		.ascii	"SysTickVector\000"
 2149      69636B56 
 2149      6563746F 
ARM GAS  /tmp/cce2EF8y.s 			page 39


 2149      7200
 2150              	.LASF13:
 2151 0049 6C6F6E67 		.ascii	"long long unsigned int\000"
 2151      206C6F6E 
 2151      6720756E 
 2151      7369676E 
 2151      65642069 
 2152              	.LASF82:
 2153 0060 65786974 		.ascii	"exitcode\000"
 2153      636F6465 
 2153      00
 2154              	.LASF54:
 2155 0069 43505549 		.ascii	"CPUID\000"
 2155      4400
 2156              	.LASF28:
 2157 006f 705F7072 		.ascii	"p_prio\000"
 2157      696F00
 2158              	.LASF1:
 2159 0076 6C6F6E67 		.ascii	"long long int\000"
 2159      206C6F6E 
 2159      6720696E 
 2159      7400
 2160              	.LASF3:
 2161 0084 7369676E 		.ascii	"signed char\000"
 2161      65642063 
 2161      68617200 
 2162              	.LASF101:
 2163 0090 6462675F 		.ascii	"dbg_check_unlock_from_isr\000"
 2163      63686563 
 2163      6B5F756E 
 2163      6C6F636B 
 2163      5F66726F 
 2164              	.LASF78:
 2165 00aa 6D5F7175 		.ascii	"m_queue\000"
 2165      65756500 
 2166              	.LASF9:
 2167 00b2 6C6F6E67 		.ascii	"long int\000"
 2167      20696E74 
 2167      00
 2168              	.LASF88:
 2169 00bb 53564361 		.ascii	"SVCallVector\000"
 2169      6C6C5665 
 2169      63746F72 
 2169      00
 2170              	.LASF20:
 2171 00c8 74737461 		.ascii	"tstate_t\000"
 2171      74655F74 
 2171      00
 2172              	.LASF94:
 2173 00d1 5F706F72 		.ascii	"_port_thread_start\000"
 2173      745F7468 
 2173      72656164 
 2173      5F737461 
 2173      727400
 2174              	.LASF30:
 2175 00e4 705F6E65 		.ascii	"p_newer\000"
 2175      77657200 
ARM GAS  /tmp/cce2EF8y.s 			page 40


 2176              	.LASF64:
 2177 00ec 42464152 		.ascii	"BFAR\000"
 2177      00
 2178              	.LASF10:
 2179 00f1 5F5F7569 		.ascii	"__uint32_t\000"
 2179      6E743332 
 2179      5F7400
 2180              	.LASF103:
 2181 00fc 6E766963 		.ascii	"nvicSetSystemHandlerPriority\000"
 2181      53657453 
 2181      79737465 
 2181      6D48616E 
 2181      646C6572 
 2182              	.LASF45:
 2183 0119 72656761 		.ascii	"regarm_t\000"
 2183      726D5F74 
 2183      00
 2184              	.LASF96:
 2185 0122 63685363 		.ascii	"chSchDoReschedule\000"
 2185      68446F52 
 2185      65736368 
 2185      6564756C 
 2185      6500
 2186              	.LASF90:
 2187 0134 5F706F72 		.ascii	"_port_lock\000"
 2187      745F6C6F 
 2187      636B00
 2188              	.LASF98:
 2189 013f 6462675F 		.ascii	"dbg_check_enter_isr\000"
 2189      63686563 
 2189      6B5F656E 
 2189      7465725F 
 2189      69737200 
 2190              	.LASF33:
 2191 0153 705F7374 		.ascii	"p_stklimit\000"
 2191      6B6C696D 
 2191      697400
 2192              	.LASF0:
 2193 015e 756E7369 		.ascii	"unsigned int\000"
 2193      676E6564 
 2193      20696E74 
 2193      00
 2194              	.LASF48:
 2195 016b 6C725F74 		.ascii	"lr_thd\000"
 2195      686400
 2196              	.LASF47:
 2197 0172 65787463 		.ascii	"extctx\000"
 2197      747800
 2198              	.LASF93:
 2199 0179 5F706F72 		.ascii	"_port_switch\000"
 2199      745F7377 
 2199      69746368 
 2199      00
 2200              	.LASF11:
 2201 0186 6C6F6E67 		.ascii	"long unsigned int\000"
 2201      20756E73 
 2201      69676E65 
ARM GAS  /tmp/cce2EF8y.s 			page 41


 2201      6420696E 
 2201      7400
 2202              	.LASF56:
 2203 0198 56544F52 		.ascii	"VTOR\000"
 2203      00
 2204              	.LASF86:
 2205 019d 5F706F72 		.ascii	"_port_switch_from_isr\000"
 2205      745F7377 
 2205      69746368 
 2205      5F66726F 
 2205      6D5F6973 
 2206              	.LASF51:
 2207 01b3 636F6E74 		.ascii	"context\000"
 2207      65787400 
 2208              	.LASF6:
 2209 01bb 73686F72 		.ascii	"short unsigned int\000"
 2209      7420756E 
 2209      7369676E 
 2209      65642069 
 2209      6E7400
 2210              	.LASF55:
 2211 01ce 49435352 		.ascii	"ICSR\000"
 2211      00
 2212              	.LASF22:
 2213 01d3 6D73675F 		.ascii	"msg_t\000"
 2213      7400
 2214              	.LASF105:
 2215 01d9 2E2E2F2E 		.ascii	"../../../os/ports/GCC/ARMCMx/chcore_v7m.c\000"
 2215      2E2F2E2E 
 2215      2F6F732F 
 2215      706F7274 
 2215      732F4743 
 2216              	.LASF57:
 2217 0203 41495243 		.ascii	"AIRCR\000"
 2217      5200
 2218              	.LASF73:
 2219 0209 725F6E65 		.ascii	"r_newer\000"
 2219      77657200 
 2220              	.LASF63:
 2221 0211 4D4D4641 		.ascii	"MMFAR\000"
 2221      5200
 2222              	.LASF107:
 2223 0217 5F706F72 		.ascii	"_port_irq_epilogue\000"
 2223      745F6972 
 2223      715F6570 
 2223      696C6F67 
 2223      756500
 2224              	.LASF19:
 2225 022a 746D6F64 		.ascii	"tmode_t\000"
 2225      655F7400 
 2226              	.LASF44:
 2227 0232 54687265 		.ascii	"ThreadsList\000"
 2227      6164734C 
 2227      69737400 
 2228              	.LASF23:
 2229 023e 6576656E 		.ascii	"eventmask_t\000"
 2229      746D6173 
ARM GAS  /tmp/cce2EF8y.s 			page 42


 2229      6B5F7400 
 2230              	.LASF77:
 2231 024a 4D757465 		.ascii	"Mutex\000"
 2231      7800
 2232              	.LASF46:
 2233 0250 73746B61 		.ascii	"stkalign_t\000"
 2233      6C69676E 
 2233      5F7400
 2234              	.LASF53:
 2235 025b 73697A65 		.ascii	"sizetype\000"
 2235      74797065 
 2235      00
 2236              	.LASF2:
 2237 0264 6C6F6E67 		.ascii	"long double\000"
 2237      20646F75 
 2237      626C6500 
 2238              	.LASF95:
 2239 0270 6462675F 		.ascii	"dbg_check_lock\000"
 2239      63686563 
 2239      6B5F6C6F 
 2239      636B00
 2240              	.LASF60:
 2241 027f 43465352 		.ascii	"CFSR\000"
 2241      00
 2242              	.LASF31:
 2243 0284 705F6F6C 		.ascii	"p_older\000"
 2243      64657200 
 2244              	.LASF72:
 2245 028c 725F6374 		.ascii	"r_ctx\000"
 2245      7800
 2246              	.LASF43:
 2247 0292 54687265 		.ascii	"ThreadsQueue\000"
 2247      61647351 
 2247      75657565 
 2247      00
 2248              	.LASF75:
 2249 029f 725F6375 		.ascii	"r_current\000"
 2249      7272656E 
 2249      7400
 2250              	.LASF74:
 2251 02a9 725F6F6C 		.ascii	"r_older\000"
 2251      64657200 
 2252              	.LASF97:
 2253 02b1 6462675F 		.ascii	"dbg_check_unlock\000"
 2253      63686563 
 2253      6B5F756E 
 2253      6C6F636B 
 2253      00
 2254              	.LASF12:
 2255 02c2 5F5F7569 		.ascii	"__uint64_t\000"
 2255      6E743634 
 2255      5F7400
 2256              	.LASF62:
 2257 02cd 44465352 		.ascii	"DFSR\000"
 2257      00
 2258              	.LASF91:
 2259 02d2 63747870 		.ascii	"ctxp\000"
ARM GAS  /tmp/cce2EF8y.s 			page 43


 2259      00
 2260              	.LASF27:
 2261 02d7 705F7072 		.ascii	"p_prev\000"
 2261      657600
 2262              	.LASF21:
 2263 02de 74707269 		.ascii	"tprio_t\000"
 2263      6F5F7400 
 2264              	.LASF18:
 2265 02e6 5F426F6F 		.ascii	"_Bool\000"
 2265      6C00
 2266              	.LASF15:
 2267 02ec 696E7433 		.ascii	"int32_t\000"
 2267      325F7400 
 2268              	.LASF4:
 2269 02f4 756E7369 		.ascii	"unsigned char\000"
 2269      676E6564 
 2269      20636861 
 2269      7200
 2270              	.LASF59:
 2271 0302 53484353 		.ascii	"SHCSR\000"
 2271      5200
 2272              	.LASF41:
 2273 0308 705F6D74 		.ascii	"p_mtxlist\000"
 2273      786C6973 
 2273      7400
 2274              	.LASF5:
 2275 0312 73686F72 		.ascii	"short int\000"
 2275      7420696E 
 2275      7400
 2276              	.LASF34:
 2277 031c 705F7374 		.ascii	"p_state\000"
 2277      61746500 
 2278              	.LASF49:
 2279 0324 78707372 		.ascii	"xpsr\000"
 2279      00
 2280              	.LASF71:
 2281 0329 725F7072 		.ascii	"r_prio\000"
 2281      696F00
 2282              	.LASF84:
 2283 0330 65776D61 		.ascii	"ewmask\000"
 2283      736B00
 2284              	.LASF26:
 2285 0337 705F6E65 		.ascii	"p_next\000"
 2285      787400
 2286              	.LASF35:
 2287 033e 705F666C 		.ascii	"p_flags\000"
 2287      61677300 
 2288              	.LASF25:
 2289 0346 54687265 		.ascii	"Thread\000"
 2289      616400
 2290              	.LASF40:
 2291 034d 705F6570 		.ascii	"p_epending\000"
 2291      656E6469 
 2291      6E6700
 2292              	.LASF104:
 2293 0358 474E5520 		.ascii	"GNU C11 5.2.1 20151202 (release) [ARM/embedded-5-br"
 2293      43313120 
ARM GAS  /tmp/cce2EF8y.s 			page 44


 2293      352E322E 
 2293      31203230 
 2293      31353132 
 2294 038b 616E6368 		.ascii	"anch revision 231848] -mcpu=cortex-m4 -mno-thumb-in"
 2294      20726576 
 2294      6973696F 
 2294      6E203233 
 2294      31383438 
 2295 03be 74657277 		.ascii	"terwork -mthumb -ggdb -O2 -fomit-frame-pointer -fal"
 2295      6F726B20 
 2295      2D6D7468 
 2295      756D6220 
 2295      2D676764 
 2296 03f1 69676E2D 		.ascii	"ign-functions=16 -ffunction-sections -fdata-section"
 2296      66756E63 
 2296      74696F6E 
 2296      733D3136 
 2296      202D6666 
 2297 0424 73202D66 		.ascii	"s -fno-common\000"
 2297      6E6F2D63 
 2297      6F6D6D6F 
 2297      6E00
 2298              	.LASF16:
 2299 0432 75696E74 		.ascii	"uint32_t\000"
 2299      33325F74 
 2299      00
 2300              	.LASF70:
 2301 043b 725F7175 		.ascii	"r_queue\000"
 2301      65756500 
 2302              	.LASF65:
 2303 0443 41465352 		.ascii	"AFSR\000"
 2303      00
 2304              	.LASF67:
 2305 0448 756E7573 		.ascii	"unused1\000"
 2305      65643100 
 2306              	.LASF85:
 2307 0450 63686172 		.ascii	"char\000"
 2307      00
 2308              	.LASF52:
 2309 0455 494F5245 		.ascii	"IOREG32\000"
 2309      47333200 
 2310              	.LASF106:
 2311 045d 2F686F6D 		.ascii	"/home/z80/projects/stm32f238.git/firmware/testhal/S"
 2311      652F7A38 
 2311      302F7072 
 2311      6F6A6563 
 2311      74732F73 
 2312 0490 544D3332 		.ascii	"TM32F4xx/_serial\000"
 2312      46347878 
 2312      2F5F7365 
 2312      7269616C 
 2312      00
 2313              	.LASF80:
 2314 04a1 6D5F6E65 		.ascii	"m_next\000"
 2314      787400
 2315              	.LASF24:
 2316 04a8 73797374 		.ascii	"systime_t\000"
ARM GAS  /tmp/cce2EF8y.s 			page 45


 2316      696D655F 
 2316      7400
 2317              	.LASF42:
 2318 04b2 705F7265 		.ascii	"p_realprio\000"
 2318      616C7072 
 2318      696F00
 2319              	.LASF8:
 2320 04bd 5F5F696E 		.ascii	"__int32_t\000"
 2320      7433325F 
 2320      7400
 2321              	.LASF92:
 2322 04c7 5F706F72 		.ascii	"_port_unlock\000"
 2322      745F756E 
 2322      6C6F636B 
 2322      00
 2323              	.LASF36:
 2324 04d4 705F7469 		.ascii	"p_time\000"
 2324      6D6500
 2325              	.LASF58:
 2326 04db 53485052 		.ascii	"SHPR\000"
 2326      00
 2327              	.LASF102:
 2328 04e0 6462675F 		.ascii	"dbg_check_leave_isr\000"
 2328      63686563 
 2328      6B5F6C65 
 2328      6176655F 
 2328      69737200 
 2329              	.LASF50:
 2330 04f4 696E7463 		.ascii	"intctx\000"
 2330      747800
 2331              	.LASF38:
 2332 04fb 705F6D73 		.ascii	"p_msgqueue\000"
 2332      67717565 
 2332      756500
 2333              	.LASF76:
 2334 0506 52656164 		.ascii	"ReadyList\000"
 2334      794C6973 
 2334      7400
 2335              	.LASF66:
 2336 0510 4D4D4652 		.ascii	"MMFR\000"
 2336      00
 2337              	.LASF108:
 2338 0515 726C6973 		.ascii	"rlist\000"
 2338      7400
 2339              	.LASF14:
 2340 051b 75696E74 		.ascii	"uint8_t\000"
 2340      385F7400 
 2341              	.LASF99:
 2342 0523 6462675F 		.ascii	"dbg_check_lock_from_isr\000"
 2342      63686563 
 2342      6B5F6C6F 
 2342      636B5F66 
 2342      726F6D5F 
 2343              	.LASF83:
 2344 053b 77746F62 		.ascii	"wtobjp\000"
 2344      6A7000
 2345              	.LASF89:
ARM GAS  /tmp/cce2EF8y.s 			page 46


 2346 0542 5F706F72 		.ascii	"_port_init\000"
 2346      745F696E 
 2346      697400
 2347              	.LASF32:
 2348 054d 705F6E61 		.ascii	"p_name\000"
 2348      6D6500
 2349              	.LASF68:
 2350 0554 43504143 		.ascii	"CPACR\000"
 2350      5200
 2351              	.LASF61:
 2352 055a 48465352 		.ascii	"HFSR\000"
 2352      00
 2353              	.LASF79:
 2354 055f 6D5F6F77 		.ascii	"m_owner\000"
 2354      6E657200 
 2355              	.LASF29:
 2356 0567 705F6374 		.ascii	"p_ctx\000"
 2356      7800
 2357              	.LASF37:
 2358 056d 705F7761 		.ascii	"p_waiting\000"
 2358      6974696E 
 2358      6700
 2359              		.ident	"GCC: (GNU Tools for ARM Embedded Processors) 5.2.1 20151202 (release) [ARM/embedded-5-bran
ARM GAS  /tmp/cce2EF8y.s 			page 47


DEFINED SYMBOLS
                            *ABS*:00000000 chcore_v7m.c
     /tmp/cce2EF8y.s:20     .text._port_switch_from_isr:00000000 $t
     /tmp/cce2EF8y.s:26     .text._port_switch_from_isr:00000000 _port_switch_from_isr
     /tmp/cce2EF8y.s:46     .text._port_switch_from_isr:0000000c _port_exit_from_isr
     /tmp/cce2EF8y.s:59     .text._port_irq_epilogue.part.0:00000000 $t
     /tmp/cce2EF8y.s:64     .text._port_irq_epilogue.part.0:00000000 _port_irq_epilogue.part.0
     /tmp/cce2EF8y.s:112    .text._port_irq_epilogue.part.0:0000002c $d
     /tmp/cce2EF8y.s:120    .text.SysTickVector:00000000 $t
     /tmp/cce2EF8y.s:126    .text.SysTickVector:00000000 SysTickVector
     /tmp/cce2EF8y.s:311    .text._port_lock:00000000 _port_lock
     /tmp/cce2EF8y.s:338    .text._port_unlock:00000000 _port_unlock
     /tmp/cce2EF8y.s:200    .text.SysTickVector:00000038 $d
     /tmp/cce2EF8y.s:207    .text.SVCallVector:00000000 $t
     /tmp/cce2EF8y.s:213    .text.SVCallVector:00000000 SVCallVector
     /tmp/cce2EF8y.s:249    .text._port_init:00000000 $t
     /tmp/cce2EF8y.s:255    .text._port_init:00000000 _port_init
     /tmp/cce2EF8y.s:299    .text._port_init:00000028 $d
     /tmp/cce2EF8y.s:305    .text._port_lock:00000000 $t
     /tmp/cce2EF8y.s:332    .text._port_unlock:00000000 $t
     /tmp/cce2EF8y.s:359    .text._port_irq_epilogue:00000000 $t
     /tmp/cce2EF8y.s:365    .text._port_irq_epilogue:00000000 _port_irq_epilogue
     /tmp/cce2EF8y.s:406    .text._port_irq_epilogue:00000020 $d
     /tmp/cce2EF8y.s:411    .text._port_switch:00000000 $t
     /tmp/cce2EF8y.s:417    .text._port_switch:00000000 _port_switch
     /tmp/cce2EF8y.s:446    .text._port_thread_start:00000000 $t
     /tmp/cce2EF8y.s:452    .text._port_thread_start:00000000 _port_thread_start
                     .debug_frame:00000010 $d

UNDEFINED SYMBOLS
dbg_check_lock
chSchDoReschedule
dbg_check_unlock
rlist
dbg_check_enter_isr
dbg_check_lock_from_isr
chSysTimerHandlerI
dbg_check_unlock_from_isr
dbg_check_leave_isr
nvicSetSystemHandlerPriority
chThdExit
