ARM GAS  /tmp/cc5jmVAF.s 			page 1


   1              		.syntax unified
   2              		.cpu cortex-m4
   3              		.fpu softvfp
   4              		.eabi_attribute 20, 1
   5              		.eabi_attribute 21, 1
   6              		.eabi_attribute 23, 3
   7              		.eabi_attribute 24, 1
   8              		.eabi_attribute 25, 1
   9              		.eabi_attribute 26, 1
  10              		.eabi_attribute 30, 2
  11              		.eabi_attribute 34, 1
  12              		.eabi_attribute 18, 4
  13              		.thumb
  14              		.syntax unified
  15              		.file	"chevents.c"
  16              		.text
  17              	.Ltext0:
  18              		.cfi_sections	.debug_frame
  19              		.section	.text.chEvtRegisterMask,"ax",%progbits
  20              		.align	2
  21              		.p2align 4,,15
  22              		.global	chEvtRegisterMask
  23              		.thumb
  24              		.thumb_func
  25              		.type	chEvtRegisterMask, %function
  26              	chEvtRegisterMask:
  27              	.LFB0:
  28              		.file 1 "../../../os/kernel/src/chevents.c"
  29              		.loc 1 85 0
  30              		.cfi_startproc
  31              		@ args = 0, pretend = 0, frame = 0
  32              		@ frame_needed = 0, uses_anonymous_args = 0
  33              	.LVL0:
  34 0000 70B5     		push	{r4, r5, r6, lr}
  35              		.cfi_def_cfa_offset 16
  36              		.cfi_offset 4, -16
  37              		.cfi_offset 5, -12
  38              		.cfi_offset 6, -8
  39              		.cfi_offset 14, -4
  40              		.loc 1 85 0
  41 0002 0C46     		mov	r4, r1
  42 0004 1646     		mov	r6, r2
  43              		.loc 1 87 0
  44 0006 0546     		mov	r5, r0
  45 0008 90B1     		cbz	r0, .L2
  46              		.loc 1 87 0 is_stmt 0 discriminator 2
  47 000a 89B1     		cbz	r1, .L2
  48              	.LVL1:
  49              	.L3:
  50              		.loc 1 89 0 is_stmt 1
  51              		.syntax unified
  52              	@ 89 "../../../os/kernel/src/chevents.c" 1
  53 000c FFF7FEFF 		bl      _port_lock
  54              	@ 0 "" 2
  55              		.thumb
  56              		.syntax unified
  57 0010 FFF7FEFF 		bl	dbg_check_lock
ARM GAS  /tmp/cc5jmVAF.s 			page 2


  58              	.LVL2:
  59              		.loc 1 92 0
  60 0014 084A     		ldr	r2, .L9
  61              		.loc 1 90 0
  62 0016 2B68     		ldr	r3, [r5]
  63              		.loc 1 92 0
  64 0018 9269     		ldr	r2, [r2, #24]
  65              		.loc 1 90 0
  66 001a 2360     		str	r3, [r4]
  67              		.loc 1 94 0
  68 001c 0023     		movs	r3, #0
  69              		.loc 1 91 0
  70 001e 2C60     		str	r4, [r5]
  71              		.loc 1 92 0
  72 0020 6260     		str	r2, [r4, #4]
  73              		.loc 1 93 0
  74 0022 A660     		str	r6, [r4, #8]
  75              		.loc 1 94 0
  76 0024 E360     		str	r3, [r4, #12]
  77              		.loc 1 95 0
  78 0026 FFF7FEFF 		bl	dbg_check_unlock
  79              	.LVL3:
  80              		.syntax unified
  81              	@ 95 "../../../os/kernel/src/chevents.c" 1
  82 002a FFF7FEFF 		bl      _port_unlock
  83              	@ 0 "" 2
  84              		.thumb
  85              		.syntax unified
  86 002e 70BD     		pop	{r4, r5, r6, pc}
  87              	.LVL4:
  88              	.L2:
  89              		.loc 1 87 0 discriminator 3
  90 0030 0248     		ldr	r0, .L9+4
  91              	.LVL5:
  92 0032 FFF7FEFF 		bl	chDbgPanic
  93              	.LVL6:
  94 0036 E9E7     		b	.L3
  95              	.L10:
  96              		.align	2
  97              	.L9:
  98 0038 00000000 		.word	rlist
  99 003c 00000000 		.word	.LC0
 100              		.cfi_endproc
 101              	.LFE0:
 102              		.size	chEvtRegisterMask, .-chEvtRegisterMask
 103              		.section	.text.chEvtUnregister,"ax",%progbits
 104              		.align	2
 105              		.p2align 4,,15
 106              		.global	chEvtUnregister
 107              		.thumb
 108              		.thumb_func
 109              		.type	chEvtUnregister, %function
 110              	chEvtUnregister:
 111              	.LFB1:
 112              		.loc 1 111 0
 113              		.cfi_startproc
 114              		@ args = 0, pretend = 0, frame = 0
ARM GAS  /tmp/cc5jmVAF.s 			page 3


 115              		@ frame_needed = 0, uses_anonymous_args = 0
 116              	.LVL7:
 117 0000 38B5     		push	{r3, r4, r5, lr}
 118              		.cfi_def_cfa_offset 16
 119              		.cfi_offset 3, -16
 120              		.cfi_offset 4, -12
 121              		.cfi_offset 5, -8
 122              		.cfi_offset 14, -4
 123              		.loc 1 111 0
 124 0002 0D46     		mov	r5, r1
 125              		.loc 1 114 0
 126 0004 0446     		mov	r4, r0
 127 0006 C0B1     		cbz	r0, .L12
 128              		.loc 1 114 0 is_stmt 0 discriminator 2
 129 0008 B9B1     		cbz	r1, .L12
 130              	.LVL8:
 131              	.L13:
 132              		.loc 1 117 0 is_stmt 1
 133              		.syntax unified
 134              	@ 117 "../../../os/kernel/src/chevents.c" 1
 135 000a FFF7FEFF 		bl      _port_lock
 136              	@ 0 "" 2
 137              		.thumb
 138              		.syntax unified
 139 000e FFF7FEFF 		bl	dbg_check_lock
 140              	.LVL9:
 141              		.loc 1 118 0
 142 0012 2246     		mov	r2, r4
 143 0014 02E0     		b	.L14
 144              	.LVL10:
 145              	.L16:
 146              		.loc 1 119 0
 147 0016 9D42     		cmp	r5, r3
 148 0018 08D0     		beq	.L22
 149 001a 1A46     		mov	r2, r3
 150              	.LVL11:
 151              	.L14:
 152              		.loc 1 118 0
 153 001c 1368     		ldr	r3, [r2]
 154 001e 9C42     		cmp	r4, r3
 155 0020 F9D1     		bne	.L16
 156              		.loc 1 125 0
 157 0022 FFF7FEFF 		bl	dbg_check_unlock
 158              	.LVL12:
 159              		.syntax unified
 160              	@ 125 "../../../os/kernel/src/chevents.c" 1
 161 0026 FFF7FEFF 		bl      _port_unlock
 162              	@ 0 "" 2
 163              		.thumb
 164              		.syntax unified
 165 002a 38BD     		pop	{r3, r4, r5, pc}
 166              	.LVL13:
 167              	.L22:
 168              		.loc 1 120 0
 169 002c 2B68     		ldr	r3, [r5]
 170 002e 1360     		str	r3, [r2]
 171              		.loc 1 125 0
ARM GAS  /tmp/cc5jmVAF.s 			page 4


 172 0030 FFF7FEFF 		bl	dbg_check_unlock
 173              	.LVL14:
 174              		.syntax unified
 175              	@ 125 "../../../os/kernel/src/chevents.c" 1
 176 0034 FFF7FEFF 		bl      _port_unlock
 177              	@ 0 "" 2
 178              		.thumb
 179              		.syntax unified
 180 0038 38BD     		pop	{r3, r4, r5, pc}
 181              	.LVL15:
 182              	.L12:
 183              		.loc 1 114 0 discriminator 3
 184 003a 0248     		ldr	r0, .L23
 185              	.LVL16:
 186 003c FFF7FEFF 		bl	chDbgPanic
 187              	.LVL17:
 188 0040 E3E7     		b	.L13
 189              	.L24:
 190 0042 00BF     		.align	2
 191              	.L23:
 192 0044 18000000 		.word	.LC1
 193              		.cfi_endproc
 194              	.LFE1:
 195              		.size	chEvtUnregister, .-chEvtUnregister
 196              		.section	.text.chEvtGetAndClearEvents,"ax",%progbits
 197              		.align	2
 198              		.p2align 4,,15
 199              		.global	chEvtGetAndClearEvents
 200              		.thumb
 201              		.thumb_func
 202              		.type	chEvtGetAndClearEvents, %function
 203              	chEvtGetAndClearEvents:
 204              	.LFB2:
 205              		.loc 1 136 0
 206              		.cfi_startproc
 207              		@ args = 0, pretend = 0, frame = 0
 208              		@ frame_needed = 0, uses_anonymous_args = 0
 209              	.LVL18:
 210 0000 10B5     		push	{r4, lr}
 211              		.cfi_def_cfa_offset 8
 212              		.cfi_offset 4, -8
 213              		.cfi_offset 14, -4
 214              		.loc 1 136 0
 215 0002 0446     		mov	r4, r0
 216              		.loc 1 139 0
 217              		.syntax unified
 218              	@ 139 "../../../os/kernel/src/chevents.c" 1
 219 0004 FFF7FEFF 		bl      _port_lock
 220              	@ 0 "" 2
 221              		.thumb
 222              		.syntax unified
 223 0008 FFF7FEFF 		bl	dbg_check_lock
 224              	.LVL19:
 225              		.loc 1 141 0
 226 000c 064B     		ldr	r3, .L27
 227 000e 9B69     		ldr	r3, [r3, #24]
 228 0010 D86B     		ldr	r0, [r3, #60]
ARM GAS  /tmp/cc5jmVAF.s 			page 5


 229              		.loc 1 142 0
 230 0012 20EA0402 		bic	r2, r0, r4
 231 0016 DA63     		str	r2, [r3, #60]
 232              		.loc 1 141 0
 233 0018 0440     		ands	r4, r4, r0
 234              	.LVL20:
 235              		.loc 1 144 0
 236 001a FFF7FEFF 		bl	dbg_check_unlock
 237              	.LVL21:
 238              		.syntax unified
 239              	@ 144 "../../../os/kernel/src/chevents.c" 1
 240 001e FFF7FEFF 		bl      _port_unlock
 241              	@ 0 "" 2
 242              		.loc 1 146 0
 243              		.thumb
 244              		.syntax unified
 245 0022 2046     		mov	r0, r4
 246 0024 10BD     		pop	{r4, pc}
 247              	.LVL22:
 248              	.L28:
 249 0026 00BF     		.align	2
 250              	.L27:
 251 0028 00000000 		.word	rlist
 252              		.cfi_endproc
 253              	.LFE2:
 254              		.size	chEvtGetAndClearEvents, .-chEvtGetAndClearEvents
 255              		.section	.text.chEvtAddEvents,"ax",%progbits
 256              		.align	2
 257              		.p2align 4,,15
 258              		.global	chEvtAddEvents
 259              		.thumb
 260              		.thumb_func
 261              		.type	chEvtAddEvents, %function
 262              	chEvtAddEvents:
 263              	.LFB3:
 264              		.loc 1 157 0
 265              		.cfi_startproc
 266              		@ args = 0, pretend = 0, frame = 0
 267              		@ frame_needed = 0, uses_anonymous_args = 0
 268              	.LVL23:
 269 0000 10B5     		push	{r4, lr}
 270              		.cfi_def_cfa_offset 8
 271              		.cfi_offset 4, -8
 272              		.cfi_offset 14, -4
 273              		.loc 1 157 0
 274 0002 0446     		mov	r4, r0
 275              		.loc 1 159 0
 276              		.syntax unified
 277              	@ 159 "../../../os/kernel/src/chevents.c" 1
 278 0004 FFF7FEFF 		bl      _port_lock
 279              	@ 0 "" 2
 280              		.thumb
 281              		.syntax unified
 282 0008 FFF7FEFF 		bl	dbg_check_lock
 283              	.LVL24:
 284              		.loc 1 161 0
 285 000c 054B     		ldr	r3, .L31
ARM GAS  /tmp/cc5jmVAF.s 			page 6


 286 000e 9A69     		ldr	r2, [r3, #24]
 287 0010 D36B     		ldr	r3, [r2, #60]
 288 0012 1C43     		orrs	r4, r4, r3
 289              	.LVL25:
 290 0014 D463     		str	r4, [r2, #60]
 291              	.LVL26:
 292              		.loc 1 163 0
 293 0016 FFF7FEFF 		bl	dbg_check_unlock
 294              	.LVL27:
 295              		.syntax unified
 296              	@ 163 "../../../os/kernel/src/chevents.c" 1
 297 001a FFF7FEFF 		bl      _port_unlock
 298              	@ 0 "" 2
 299              		.loc 1 165 0
 300              		.thumb
 301              		.syntax unified
 302 001e 2046     		mov	r0, r4
 303 0020 10BD     		pop	{r4, pc}
 304              	.LVL28:
 305              	.L32:
 306 0022 00BF     		.align	2
 307              	.L31:
 308 0024 00000000 		.word	rlist
 309              		.cfi_endproc
 310              	.LFE3:
 311              		.size	chEvtAddEvents, .-chEvtAddEvents
 312              		.section	.text.chEvtGetAndClearFlags,"ax",%progbits
 313              		.align	2
 314              		.p2align 4,,15
 315              		.global	chEvtGetAndClearFlags
 316              		.thumb
 317              		.thumb_func
 318              		.type	chEvtGetAndClearFlags, %function
 319              	chEvtGetAndClearFlags:
 320              	.LFB5:
 321              		.loc 1 209 0
 322              		.cfi_startproc
 323              		@ args = 0, pretend = 0, frame = 0
 324              		@ frame_needed = 0, uses_anonymous_args = 0
 325              	.LVL29:
 326 0000 38B5     		push	{r3, r4, r5, lr}
 327              		.cfi_def_cfa_offset 16
 328              		.cfi_offset 3, -16
 329              		.cfi_offset 4, -12
 330              		.cfi_offset 5, -8
 331              		.cfi_offset 14, -4
 332              		.loc 1 209 0
 333 0002 0446     		mov	r4, r0
 334              		.loc 1 212 0
 335              		.syntax unified
 336              	@ 212 "../../../os/kernel/src/chevents.c" 1
 337 0004 FFF7FEFF 		bl      _port_lock
 338              	@ 0 "" 2
 339              		.thumb
 340              		.syntax unified
 341 0008 FFF7FEFF 		bl	dbg_check_lock
 342              	.LVL30:
ARM GAS  /tmp/cc5jmVAF.s 			page 7


 343              		.loc 1 215 0
 344 000c 0023     		movs	r3, #0
 345              		.loc 1 214 0
 346 000e E568     		ldr	r5, [r4, #12]
 347              	.LVL31:
 348              		.loc 1 215 0
 349 0010 E360     		str	r3, [r4, #12]
 350              		.loc 1 217 0
 351 0012 FFF7FEFF 		bl	dbg_check_unlock
 352              	.LVL32:
 353              		.syntax unified
 354              	@ 217 "../../../os/kernel/src/chevents.c" 1
 355 0016 FFF7FEFF 		bl      _port_unlock
 356              	@ 0 "" 2
 357              		.loc 1 219 0
 358              		.thumb
 359              		.syntax unified
 360 001a 2846     		mov	r0, r5
 361 001c 38BD     		pop	{r3, r4, r5, pc}
 362              		.cfi_endproc
 363              	.LFE5:
 364              		.size	chEvtGetAndClearFlags, .-chEvtGetAndClearFlags
 365 001e 00BF     		.section	.text.chEvtSignalI,"ax",%progbits
 366              		.align	2
 367              		.p2align 4,,15
 368              		.global	chEvtSignalI
 369              		.thumb
 370              		.thumb_func
 371              		.type	chEvtSignalI, %function
 372              	chEvtSignalI:
 373              	.LFB7:
 374              		.loc 1 251 0
 375              		.cfi_startproc
 376              		@ args = 0, pretend = 0, frame = 0
 377              		@ frame_needed = 0, uses_anonymous_args = 0
 378              	.LVL33:
 379 0000 38B5     		push	{r3, r4, r5, lr}
 380              		.cfi_def_cfa_offset 16
 381              		.cfi_offset 3, -16
 382              		.cfi_offset 4, -12
 383              		.cfi_offset 5, -8
 384              		.cfi_offset 14, -4
 385              		.loc 1 251 0
 386 0002 0446     		mov	r4, r0
 387 0004 0D46     		mov	r5, r1
 388              		.loc 1 253 0
 389 0006 FFF7FEFF 		bl	chDbgCheckClassI
 390              	.LVL34:
 391              		.loc 1 254 0
 392 000a BCB1     		cbz	r4, .L41
 393              	.L36:
 394              		.loc 1 256 0
 395 000c E36B     		ldr	r3, [r4, #60]
 396              		.loc 1 258 0
 397 000e 94F82020 		ldrb	r2, [r4, #32]	@ zero_extendqisi2
 398              		.loc 1 256 0
 399 0012 45EA0301 		orr	r1, r5, r3
ARM GAS  /tmp/cc5jmVAF.s 			page 8


 400              		.loc 1 258 0
 401 0016 082A     		cmp	r2, #8
 402              		.loc 1 256 0
 403 0018 E163     		str	r1, [r4, #60]
 404              		.loc 1 258 0
 405 001a 0BD0     		beq	.L42
 406              		.loc 1 259 0
 407 001c 092A     		cmp	r2, #9
 408 001e 00D0     		beq	.L43
 409              	.L35:
 410 0020 38BD     		pop	{r3, r4, r5, pc}
 411              	.LVL35:
 412              	.L43:
 413              		.loc 1 261 0
 414 0022 A36A     		ldr	r3, [r4, #40]
 415              		.loc 1 260 0
 416 0024 8B43     		bics	r3, r3, r1
 417 0026 FBD1     		bne	.L35
 418              	.L38:
 419              	.LVL36:
 420              	.LBB4:
 421              	.LBB5:
 422              		.loc 1 262 0
 423 0028 2046     		mov	r0, r4
 424 002a FFF7FEFF 		bl	chSchReadyI
 425              	.LVL37:
 426 002e 0023     		movs	r3, #0
 427 0030 8362     		str	r3, [r0, #40]
 428 0032 38BD     		pop	{r3, r4, r5, pc}
 429              	.LVL38:
 430              	.L42:
 431              	.LBE5:
 432              	.LBE4:
 433              		.loc 1 258 0 discriminator 1
 434 0034 A36A     		ldr	r3, [r4, #40]
 435 0036 1942     		tst	r1, r3
 436 0038 F6D1     		bne	.L38
 437 003a 38BD     		pop	{r3, r4, r5, pc}
 438              	.LVL39:
 439              	.L41:
 440              		.loc 1 254 0 discriminator 1
 441 003c 0148     		ldr	r0, .L44
 442 003e FFF7FEFF 		bl	chDbgPanic
 443              	.LVL40:
 444 0042 E3E7     		b	.L36
 445              	.L45:
 446              		.align	2
 447              	.L44:
 448 0044 2C000000 		.word	.LC2
 449              		.cfi_endproc
 450              	.LFE7:
 451              		.size	chEvtSignalI, .-chEvtSignalI
 452              		.section	.text.chEvtBroadcastFlagsI,"ax",%progbits
 453              		.align	2
 454              		.p2align 4,,15
 455              		.global	chEvtBroadcastFlagsI
 456              		.thumb
ARM GAS  /tmp/cc5jmVAF.s 			page 9


 457              		.thumb_func
 458              		.type	chEvtBroadcastFlagsI, %function
 459              	chEvtBroadcastFlagsI:
 460              	.LFB4:
 461              		.loc 1 184 0
 462              		.cfi_startproc
 463              		@ args = 0, pretend = 0, frame = 0
 464              		@ frame_needed = 0, uses_anonymous_args = 0
 465              	.LVL41:
 466 0000 70B5     		push	{r4, r5, r6, lr}
 467              		.cfi_def_cfa_offset 16
 468              		.cfi_offset 4, -16
 469              		.cfi_offset 5, -12
 470              		.cfi_offset 6, -8
 471              		.cfi_offset 14, -4
 472              		.loc 1 184 0
 473 0002 0546     		mov	r5, r0
 474 0004 0E46     		mov	r6, r1
 475              		.loc 1 187 0
 476 0006 FFF7FEFF 		bl	chDbgCheckClassI
 477              	.LVL42:
 478              		.loc 1 188 0
 479 000a 65B1     		cbz	r5, .L53
 480              	.L47:
 481              		.loc 1 190 0
 482 000c 2C68     		ldr	r4, [r5]
 483              	.LVL43:
 484              		.loc 1 191 0
 485 000e A542     		cmp	r5, r4
 486 0010 08D0     		beq	.L46
 487              	.L49:
 488              		.loc 1 193 0
 489 0012 201D     		adds	r0, r4, #4
 490 0014 0BC8     		ldmia	r0, {r0, r1, r3}
 491              		.loc 1 192 0
 492 0016 3343     		orrs	r3, r3, r6
 493 0018 E360     		str	r3, [r4, #12]
 494              		.loc 1 193 0
 495 001a FFF7FEFF 		bl	chEvtSignalI
 496              	.LVL44:
 497              		.loc 1 194 0
 498 001e 2468     		ldr	r4, [r4]
 499              	.LVL45:
 500              		.loc 1 191 0
 501 0020 A542     		cmp	r5, r4
 502 0022 F6D1     		bne	.L49
 503              	.L46:
 504 0024 70BD     		pop	{r4, r5, r6, pc}
 505              	.LVL46:
 506              	.L53:
 507              		.loc 1 188 0 discriminator 1
 508 0026 0248     		ldr	r0, .L54
 509 0028 FFF7FEFF 		bl	chDbgPanic
 510              	.LVL47:
 511 002c EEE7     		b	.L47
 512              	.L55:
 513 002e 00BF     		.align	2
ARM GAS  /tmp/cc5jmVAF.s 			page 10


 514              	.L54:
 515 0030 40000000 		.word	.LC3
 516              		.cfi_endproc
 517              	.LFE4:
 518              		.size	chEvtBroadcastFlagsI, .-chEvtBroadcastFlagsI
 519              		.section	.text.chEvtSignal,"ax",%progbits
 520              		.align	2
 521              		.p2align 4,,15
 522              		.global	chEvtSignal
 523              		.thumb
 524              		.thumb_func
 525              		.type	chEvtSignal, %function
 526              	chEvtSignal:
 527              	.LFB6:
 528              		.loc 1 229 0
 529              		.cfi_startproc
 530              		@ args = 0, pretend = 0, frame = 0
 531              		@ frame_needed = 0, uses_anonymous_args = 0
 532              	.LVL48:
 533 0000 38B5     		push	{r3, r4, r5, lr}
 534              		.cfi_def_cfa_offset 16
 535              		.cfi_offset 3, -16
 536              		.cfi_offset 4, -12
 537              		.cfi_offset 5, -8
 538              		.cfi_offset 14, -4
 539              		.loc 1 229 0
 540 0002 0D46     		mov	r5, r1
 541              		.loc 1 231 0
 542 0004 0446     		mov	r4, r0
 543 0006 70B1     		cbz	r0, .L59
 544              	.LVL49:
 545              	.L57:
 546              		.loc 1 233 0
 547              		.syntax unified
 548              	@ 233 "../../../os/kernel/src/chevents.c" 1
 549 0008 FFF7FEFF 		bl      _port_lock
 550              	@ 0 "" 2
 551              		.thumb
 552              		.syntax unified
 553 000c FFF7FEFF 		bl	dbg_check_lock
 554              	.LVL50:
 555              		.loc 1 234 0
 556 0010 2946     		mov	r1, r5
 557 0012 2046     		mov	r0, r4
 558 0014 FFF7FEFF 		bl	chEvtSignalI
 559              	.LVL51:
 560              		.loc 1 235 0
 561 0018 FFF7FEFF 		bl	chSchRescheduleS
 562              	.LVL52:
 563              		.loc 1 236 0
 564 001c FFF7FEFF 		bl	dbg_check_unlock
 565              	.LVL53:
 566              		.syntax unified
 567              	@ 236 "../../../os/kernel/src/chevents.c" 1
 568 0020 FFF7FEFF 		bl      _port_unlock
 569              	@ 0 "" 2
 570              		.thumb
ARM GAS  /tmp/cc5jmVAF.s 			page 11


 571              		.syntax unified
 572 0024 38BD     		pop	{r3, r4, r5, pc}
 573              	.LVL54:
 574              	.L59:
 575              		.loc 1 231 0 discriminator 1
 576 0026 0248     		ldr	r0, .L60
 577              	.LVL55:
 578 0028 FFF7FEFF 		bl	chDbgPanic
 579              	.LVL56:
 580 002c ECE7     		b	.L57
 581              	.L61:
 582 002e 00BF     		.align	2
 583              	.L60:
 584 0030 58000000 		.word	.LC4
 585              		.cfi_endproc
 586              	.LFE6:
 587              		.size	chEvtSignal, .-chEvtSignal
 588              		.section	.text.chEvtBroadcastFlags,"ax",%progbits
 589              		.align	2
 590              		.p2align 4,,15
 591              		.global	chEvtBroadcastFlags
 592              		.thumb
 593              		.thumb_func
 594              		.type	chEvtBroadcastFlags, %function
 595              	chEvtBroadcastFlags:
 596              	.LFB8:
 597              		.loc 1 278 0
 598              		.cfi_startproc
 599              		@ args = 0, pretend = 0, frame = 0
 600              		@ frame_needed = 0, uses_anonymous_args = 0
 601              	.LVL57:
 602 0000 38B5     		push	{r3, r4, r5, lr}
 603              		.cfi_def_cfa_offset 16
 604              		.cfi_offset 3, -16
 605              		.cfi_offset 4, -12
 606              		.cfi_offset 5, -8
 607              		.cfi_offset 14, -4
 608              		.loc 1 278 0
 609 0002 0446     		mov	r4, r0
 610 0004 0D46     		mov	r5, r1
 611              		.loc 1 280 0
 612              		.syntax unified
 613              	@ 280 "../../../os/kernel/src/chevents.c" 1
 614 0006 FFF7FEFF 		bl      _port_lock
 615              	@ 0 "" 2
 616              		.thumb
 617              		.syntax unified
 618 000a FFF7FEFF 		bl	dbg_check_lock
 619              	.LVL58:
 620              		.loc 1 281 0
 621 000e 2946     		mov	r1, r5
 622 0010 2046     		mov	r0, r4
 623 0012 FFF7FEFF 		bl	chEvtBroadcastFlagsI
 624              	.LVL59:
 625              		.loc 1 282 0
 626 0016 FFF7FEFF 		bl	chSchRescheduleS
 627              	.LVL60:
ARM GAS  /tmp/cc5jmVAF.s 			page 12


 628              		.loc 1 283 0
 629 001a FFF7FEFF 		bl	dbg_check_unlock
 630              	.LVL61:
 631              		.syntax unified
 632              	@ 283 "../../../os/kernel/src/chevents.c" 1
 633 001e FFF7FEFF 		bl      _port_unlock
 634              	@ 0 "" 2
 635              		.thumb
 636              		.syntax unified
 637 0022 38BD     		pop	{r3, r4, r5, pc}
 638              		.cfi_endproc
 639              	.LFE8:
 640              		.size	chEvtBroadcastFlags, .-chEvtBroadcastFlags
 641              		.section	.text.chEvtGetAndClearFlagsI,"ax",%progbits
 642              		.align	2
 643              		.p2align 4,,15
 644              		.global	chEvtGetAndClearFlagsI
 645              		.thumb
 646              		.thumb_func
 647              		.type	chEvtGetAndClearFlagsI, %function
 648              	chEvtGetAndClearFlagsI:
 649              	.LFB9:
 650              		.loc 1 297 0
 651              		.cfi_startproc
 652              		@ args = 0, pretend = 0, frame = 0
 653              		@ frame_needed = 0, uses_anonymous_args = 0
 654              		@ link register save eliminated.
 655              	.LVL62:
 656              		.loc 1 297 0
 657 0000 0346     		mov	r3, r0
 658              		.loc 1 301 0
 659 0002 0022     		movs	r2, #0
 660              		.loc 1 300 0
 661 0004 C068     		ldr	r0, [r0, #12]
 662              	.LVL63:
 663              		.loc 1 301 0
 664 0006 DA60     		str	r2, [r3, #12]
 665              		.loc 1 304 0
 666 0008 7047     		bx	lr
 667              		.cfi_endproc
 668              	.LFE9:
 669              		.size	chEvtGetAndClearFlagsI, .-chEvtGetAndClearFlagsI
 670 000a 00BF     		.section	.text.chEvtDispatch,"ax",%progbits
 671              		.align	2
 672              		.p2align 4,,15
 673              		.global	chEvtDispatch
 674              		.thumb
 675              		.thumb_func
 676              		.type	chEvtDispatch, %function
 677              	chEvtDispatch:
 678              	.LFB10:
 679              		.loc 1 315 0
 680              		.cfi_startproc
 681              		@ args = 0, pretend = 0, frame = 0
 682              		@ frame_needed = 0, uses_anonymous_args = 0
 683              	.LVL64:
 684 0000 2DE9F041 		push	{r4, r5, r6, r7, r8, lr}
ARM GAS  /tmp/cc5jmVAF.s 			page 13


 685              		.cfi_def_cfa_offset 24
 686              		.cfi_offset 4, -24
 687              		.cfi_offset 5, -20
 688              		.cfi_offset 6, -16
 689              		.cfi_offset 7, -12
 690              		.cfi_offset 8, -8
 691              		.cfi_offset 14, -4
 692              		.loc 1 315 0
 693 0004 0E46     		mov	r6, r1
 694              		.loc 1 318 0
 695 0006 0546     		mov	r5, r0
 696 0008 E8B1     		cbz	r0, .L75
 697              	.LVL65:
 698              	.L66:
 699              		.loc 1 321 0
 700 000a AEB1     		cbz	r6, .L65
 701 000c 0024     		movs	r4, #0
 702              		.loc 1 322 0
 703 000e 4FF00108 		mov	r8, #1
 704              	.LVL66:
 705              	.L68:
 706 0012 08FA04F7 		lsl	r7, r8, r4
 707 0016 3742     		tst	r7, r6
 708 0018 0BD0     		beq	.L69
 709              		.loc 1 323 0
 710 001a 2B68     		ldr	r3, [r5]
 711 001c 73B1     		cbz	r3, .L76
 712              	.L70:
 713              		.loc 1 327 0
 714 001e 2046     		mov	r0, r4
 715              		.loc 1 326 0
 716 0020 26EA0706 		bic	r6, r6, r7
 717              	.LVL67:
 718 0024 0435     		adds	r5, r5, #4
 719              		.loc 1 327 0
 720 0026 9847     		blx	r3
 721              	.LVL68:
 722              		.loc 1 329 0
 723 0028 0134     		adds	r4, r4, #1
 724              	.LVL69:
 725              		.loc 1 321 0
 726 002a 002E     		cmp	r6, #0
 727 002c F1D1     		bne	.L68
 728 002e BDE8F081 		pop	{r4, r5, r6, r7, r8, pc}
 729              	.LVL70:
 730              	.L69:
 731              		.loc 1 329 0
 732 0032 0134     		adds	r4, r4, #1
 733              	.LVL71:
 734 0034 0435     		adds	r5, r5, #4
 735 0036 ECE7     		b	.L68
 736              	.LVL72:
 737              	.L65:
 738 0038 BDE8F081 		pop	{r4, r5, r6, r7, r8, pc}
 739              	.LVL73:
 740              	.L76:
 741              		.loc 1 323 0 discriminator 1
ARM GAS  /tmp/cc5jmVAF.s 			page 14


 742 003c 0448     		ldr	r0, .L77
 743 003e FFF7FEFF 		bl	chDbgPanic
 744              	.LVL74:
 745 0042 2B68     		ldr	r3, [r5]
 746 0044 EBE7     		b	.L70
 747              	.LVL75:
 748              	.L75:
 749              		.loc 1 318 0 discriminator 1
 750 0046 0348     		ldr	r0, .L77+4
 751              	.LVL76:
 752 0048 FFF7FEFF 		bl	chDbgPanic
 753              	.LVL77:
 754 004c DDE7     		b	.L66
 755              	.L78:
 756 004e 00BF     		.align	2
 757              	.L77:
 758 0050 7C000000 		.word	.LC6
 759 0054 68000000 		.word	.LC5
 760              		.cfi_endproc
 761              	.LFE10:
 762              		.size	chEvtDispatch, .-chEvtDispatch
 763              		.section	.text.chEvtWaitOne,"ax",%progbits
 764              		.align	2
 765              		.p2align 4,,15
 766              		.global	chEvtWaitOne
 767              		.thumb
 768              		.thumb_func
 769              		.type	chEvtWaitOne, %function
 770              	chEvtWaitOne:
 771              	.LFB11:
 772              		.loc 1 350 0
 773              		.cfi_startproc
 774              		@ args = 0, pretend = 0, frame = 0
 775              		@ frame_needed = 0, uses_anonymous_args = 0
 776              	.LVL78:
 777              		.loc 1 351 0
 778 0000 0E4B     		ldr	r3, .L82
 779              		.loc 1 350 0
 780 0002 70B5     		push	{r4, r5, r6, lr}
 781              		.cfi_def_cfa_offset 16
 782              		.cfi_offset 4, -16
 783              		.cfi_offset 5, -12
 784              		.cfi_offset 6, -8
 785              		.cfi_offset 14, -4
 786              		.loc 1 350 0
 787 0004 0646     		mov	r6, r0
 788              		.loc 1 351 0
 789 0006 9D69     		ldr	r5, [r3, #24]
 790              	.LVL79:
 791              		.loc 1 354 0
 792              		.syntax unified
 793              	@ 354 "../../../os/kernel/src/chevents.c" 1
 794 0008 FFF7FEFF 		bl      _port_lock
 795              	@ 0 "" 2
 796              		.thumb
 797              		.syntax unified
 798 000c FFF7FEFF 		bl	dbg_check_lock
ARM GAS  /tmp/cc5jmVAF.s 			page 15


 799              	.LVL80:
 800              		.loc 1 356 0
 801 0010 EB6B     		ldr	r3, [r5, #60]
 802              	.LVL81:
 803 0012 13EA0604 		ands	r4, r3, r6
 804              	.LVL82:
 805 0016 06D1     		bne	.L80
 806              		.loc 1 357 0
 807 0018 AE62     		str	r6, [r5, #40]
 808              		.loc 1 358 0
 809 001a 0820     		movs	r0, #8
 810 001c FFF7FEFF 		bl	chSchGoSleepS
 811              	.LVL83:
 812              		.loc 1 359 0
 813 0020 EB6B     		ldr	r3, [r5, #60]
 814 0022 06EA0304 		and	r4, r6, r3
 815              	.LVL84:
 816              	.L80:
 817              		.loc 1 361 0
 818 0026 6242     		negs	r2, r4
 819 0028 1440     		ands	r4, r4, r2
 820              	.LVL85:
 821              		.loc 1 362 0
 822 002a 23EA0403 		bic	r3, r3, r4
 823 002e EB63     		str	r3, [r5, #60]
 824              		.loc 1 364 0
 825 0030 FFF7FEFF 		bl	dbg_check_unlock
 826              	.LVL86:
 827              		.syntax unified
 828              	@ 364 "../../../os/kernel/src/chevents.c" 1
 829 0034 FFF7FEFF 		bl      _port_unlock
 830              	@ 0 "" 2
 831              		.loc 1 366 0
 832              		.thumb
 833              		.syntax unified
 834 0038 2046     		mov	r0, r4
 835 003a 70BD     		pop	{r4, r5, r6, pc}
 836              	.LVL87:
 837              	.L83:
 838              		.align	2
 839              	.L82:
 840 003c 00000000 		.word	rlist
 841              		.cfi_endproc
 842              	.LFE11:
 843              		.size	chEvtWaitOne, .-chEvtWaitOne
 844              		.section	.text.chEvtWaitAny,"ax",%progbits
 845              		.align	2
 846              		.p2align 4,,15
 847              		.global	chEvtWaitAny
 848              		.thumb
 849              		.thumb_func
 850              		.type	chEvtWaitAny, %function
 851              	chEvtWaitAny:
 852              	.LFB12:
 853              		.loc 1 379 0
 854              		.cfi_startproc
 855              		@ args = 0, pretend = 0, frame = 0
ARM GAS  /tmp/cc5jmVAF.s 			page 16


 856              		@ frame_needed = 0, uses_anonymous_args = 0
 857              	.LVL88:
 858              		.loc 1 380 0
 859 0000 0D4B     		ldr	r3, .L87
 860              		.loc 1 379 0
 861 0002 70B5     		push	{r4, r5, r6, lr}
 862              		.cfi_def_cfa_offset 16
 863              		.cfi_offset 4, -16
 864              		.cfi_offset 5, -12
 865              		.cfi_offset 6, -8
 866              		.cfi_offset 14, -4
 867              		.loc 1 379 0
 868 0004 0546     		mov	r5, r0
 869              		.loc 1 380 0
 870 0006 9C69     		ldr	r4, [r3, #24]
 871              	.LVL89:
 872              		.loc 1 383 0
 873              		.syntax unified
 874              	@ 383 "../../../os/kernel/src/chevents.c" 1
 875 0008 FFF7FEFF 		bl      _port_lock
 876              	@ 0 "" 2
 877              		.thumb
 878              		.syntax unified
 879 000c FFF7FEFF 		bl	dbg_check_lock
 880              	.LVL90:
 881              		.loc 1 385 0
 882 0010 E36B     		ldr	r3, [r4, #60]
 883              	.LVL91:
 884 0012 13EA0506 		ands	r6, r3, r5
 885              	.LVL92:
 886 0016 06D1     		bne	.L85
 887              		.loc 1 386 0
 888 0018 A562     		str	r5, [r4, #40]
 889              		.loc 1 387 0
 890 001a 0820     		movs	r0, #8
 891 001c FFF7FEFF 		bl	chSchGoSleepS
 892              	.LVL93:
 893              		.loc 1 388 0
 894 0020 E36B     		ldr	r3, [r4, #60]
 895 0022 05EA0306 		and	r6, r5, r3
 896              	.LVL94:
 897              	.L85:
 898              		.loc 1 390 0
 899 0026 23EA0603 		bic	r3, r3, r6
 900 002a E363     		str	r3, [r4, #60]
 901              		.loc 1 392 0
 902 002c FFF7FEFF 		bl	dbg_check_unlock
 903              	.LVL95:
 904              		.syntax unified
 905              	@ 392 "../../../os/kernel/src/chevents.c" 1
 906 0030 FFF7FEFF 		bl      _port_unlock
 907              	@ 0 "" 2
 908              		.loc 1 394 0
 909              		.thumb
 910              		.syntax unified
 911 0034 3046     		mov	r0, r6
 912 0036 70BD     		pop	{r4, r5, r6, pc}
ARM GAS  /tmp/cc5jmVAF.s 			page 17


 913              	.LVL96:
 914              	.L88:
 915              		.align	2
 916              	.L87:
 917 0038 00000000 		.word	rlist
 918              		.cfi_endproc
 919              	.LFE12:
 920              		.size	chEvtWaitAny, .-chEvtWaitAny
 921              		.section	.text.chEvtWaitAll,"ax",%progbits
 922              		.align	2
 923              		.p2align 4,,15
 924              		.global	chEvtWaitAll
 925              		.thumb
 926              		.thumb_func
 927              		.type	chEvtWaitAll, %function
 928              	chEvtWaitAll:
 929              	.LFB13:
 930              		.loc 1 407 0
 931              		.cfi_startproc
 932              		@ args = 0, pretend = 0, frame = 0
 933              		@ frame_needed = 0, uses_anonymous_args = 0
 934              	.LVL97:
 935 0000 38B5     		push	{r3, r4, r5, lr}
 936              		.cfi_def_cfa_offset 16
 937              		.cfi_offset 3, -16
 938              		.cfi_offset 4, -12
 939              		.cfi_offset 5, -8
 940              		.cfi_offset 14, -4
 941              		.loc 1 408 0
 942 0002 0C4B     		ldr	r3, .L92
 943              		.loc 1 407 0
 944 0004 0446     		mov	r4, r0
 945              		.loc 1 408 0
 946 0006 9D69     		ldr	r5, [r3, #24]
 947              	.LVL98:
 948              		.loc 1 410 0
 949              		.syntax unified
 950              	@ 410 "../../../os/kernel/src/chevents.c" 1
 951 0008 FFF7FEFF 		bl      _port_lock
 952              	@ 0 "" 2
 953              		.thumb
 954              		.syntax unified
 955 000c FFF7FEFF 		bl	dbg_check_lock
 956              	.LVL99:
 957              		.loc 1 412 0
 958 0010 EB6B     		ldr	r3, [r5, #60]
 959 0012 34EA0302 		bics	r2, r4, r3
 960 0016 04D0     		beq	.L90
 961              		.loc 1 413 0
 962 0018 AC62     		str	r4, [r5, #40]
 963              		.loc 1 414 0
 964 001a 0920     		movs	r0, #9
 965 001c FFF7FEFF 		bl	chSchGoSleepS
 966              	.LVL100:
 967 0020 EB6B     		ldr	r3, [r5, #60]
 968              	.L90:
 969              		.loc 1 416 0
ARM GAS  /tmp/cc5jmVAF.s 			page 18


 970 0022 23EA0403 		bic	r3, r3, r4
 971 0026 EB63     		str	r3, [r5, #60]
 972              		.loc 1 418 0
 973 0028 FFF7FEFF 		bl	dbg_check_unlock
 974              	.LVL101:
 975              		.syntax unified
 976              	@ 418 "../../../os/kernel/src/chevents.c" 1
 977 002c FFF7FEFF 		bl      _port_unlock
 978              	@ 0 "" 2
 979              		.loc 1 420 0
 980              		.thumb
 981              		.syntax unified
 982 0030 2046     		mov	r0, r4
 983 0032 38BD     		pop	{r3, r4, r5, pc}
 984              	.LVL102:
 985              	.L93:
 986              		.align	2
 987              	.L92:
 988 0034 00000000 		.word	rlist
 989              		.cfi_endproc
 990              	.LFE13:
 991              		.size	chEvtWaitAll, .-chEvtWaitAll
 992              		.section	.rodata.str1.4,"aMS",%progbits,1
 993              		.align	2
 994              	.LC0:
 995 0000 22636845 		.ascii	"\"chEvtRegisterMask\"()\000"
 995      76745265 
 995      67697374 
 995      65724D61 
 995      736B2228 
 996 0016 0000     		.space	2
 997              	.LC1:
 998 0018 22636845 		.ascii	"\"chEvtUnregister\"()\000"
 998      7674556E 
 998      72656769 
 998      73746572 
 998      22282900 
 999              	.LC2:
 1000 002c 22636845 		.ascii	"\"chEvtSignalI\"()\000"
 1000      76745369 
 1000      676E616C 
 1000      49222829 
 1000      00
 1001 003d 000000   		.space	3
 1002              	.LC3:
 1003 0040 22636845 		.ascii	"\"chEvtBroadcastMaskI\"()\000"
 1003      76744272 
 1003      6F616463 
 1003      6173744D 
 1003      61736B49 
 1004              	.LC4:
 1005 0058 22636845 		.ascii	"\"chEvtSignal\"()\000"
 1005      76745369 
 1005      676E616C 
 1005      22282900 
 1006              	.LC5:
 1007 0068 22636845 		.ascii	"\"chEvtDispatch\"()\000"
ARM GAS  /tmp/cc5jmVAF.s 			page 19


 1007      76744469 
 1007      73706174 
 1007      63682228 
 1007      2900
 1008 007a 0000     		.space	2
 1009              	.LC6:
 1010 007c 63684576 		.ascii	"chEvtDispatch(), #1\000"
 1010      74446973 
 1010      70617463 
 1010      6828292C 
 1010      20233100 
 1011              		.text
 1012              	.Letext0:
 1013              		.file 2 "/home/z80/programs/sw4stm32/plugins/fr.ac6.mcu.externaltools.arm-none.linux32_1.7.0.20160
 1014              		.file 3 "/home/z80/programs/sw4stm32/plugins/fr.ac6.mcu.externaltools.arm-none.linux32_1.7.0.20160
 1015              		.file 4 "../../../os/ports/GCC/ARMCMx/chtypes.h"
 1016              		.file 5 "../../../os/kernel/include/chlists.h"
 1017              		.file 6 "../../../os/kernel/include/chthreads.h"
 1018              		.file 7 "../../../os/ports/GCC/ARMCMx/chcore_v7m.h"
 1019              		.file 8 "../../../os/kernel/include/chschd.h"
 1020              		.file 9 "../../../os/kernel/include/chmtx.h"
 1021              		.file 10 "../../../os/kernel/include/chevents.h"
 1022              		.file 11 "../../../os/kernel/include/chdebug.h"