ARM GAS  /tmp/ccErxGom.s 			page 1


   1              		.syntax unified
   2              		.cpu cortex-m4
   3              		.fpu softvfp
   4              		.eabi_attribute 20, 1
   5              		.eabi_attribute 21, 1
   6              		.eabi_attribute 23, 3
   7              		.eabi_attribute 24, 1
   8              		.eabi_attribute 25, 1
   9              		.eabi_attribute 26, 1
  10              		.eabi_attribute 30, 2
  11              		.eabi_attribute 34, 1
  12              		.eabi_attribute 18, 4
  13              		.thumb
  14              		.syntax unified
  15              		.file	"chlists.c"
  16              		.text
  17              	.Ltext0:
  18              		.cfi_sections	.debug_frame
  19              		.section	.text.prio_insert,"ax",%progbits
  20              		.align	2
  21              		.p2align 4,,15
  22              		.global	prio_insert
  23              		.thumb
  24              		.thumb_func
  25              		.type	prio_insert, %function
  26              	prio_insert:
  27              	.LFB0:
  28              		.file 1 "../../../os/kernel/src/chlists.c"
  29              		.loc 1 51 0
  30              		.cfi_startproc
  31              		@ args = 0, pretend = 0, frame = 0
  32              		@ frame_needed = 0, uses_anonymous_args = 0
  33              		@ link register save eliminated.
  34              	.LVL0:
  35 0000 10B4     		push	{r4}
  36              		.cfi_def_cfa_offset 4
  37              		.cfi_offset 4, -4
  38              		.loc 1 54 0
  39 0002 0B46     		mov	r3, r1
  40 0004 03E0     		b	.L3
  41              	.LVL1:
  42              	.L2:
  43              		.loc 1 59 0 discriminator 1
  44 0006 9C68     		ldr	r4, [r3, #8]
  45 0008 8268     		ldr	r2, [r0, #8]
  46 000a 9442     		cmp	r4, r2
  47 000c 02D3     		bcc	.L4
  48              	.L3:
  49              		.loc 1 57 0 discriminator 2
  50 000e 1B68     		ldr	r3, [r3]
  51              	.LVL2:
  52              		.loc 1 59 0 discriminator 2
  53 0010 9942     		cmp	r1, r3
  54 0012 F8D1     		bne	.L2
  55              	.L4:
  56              		.loc 1 62 0
  57 0014 5A68     		ldr	r2, [r3, #4]
ARM GAS  /tmp/ccErxGom.s 			page 2


  58 0016 4260     		str	r2, [r0, #4]
  59              		.loc 1 61 0
  60 0018 0360     		str	r3, [r0]
  61              		.loc 1 64 0
  62 001a 10BC     		pop	{r4}
  63              		.cfi_restore 4
  64              		.cfi_def_cfa_offset 0
  65              		.loc 1 63 0
  66 001c 5860     		str	r0, [r3, #4]
  67 001e 1060     		str	r0, [r2]
  68              		.loc 1 64 0
  69 0020 7047     		bx	lr
  70              		.cfi_endproc
  71              	.LFE0:
  72              		.size	prio_insert, .-prio_insert
  73 0022 00BF     		.section	.text.queue_insert,"ax",%progbits
  74              		.align	2
  75              		.p2align 4,,15
  76              		.global	queue_insert
  77              		.thumb
  78              		.thumb_func
  79              		.type	queue_insert, %function
  80              	queue_insert:
  81              	.LFB1:
  82              		.loc 1 74 0
  83              		.cfi_startproc
  84              		@ args = 0, pretend = 0, frame = 0
  85              		@ frame_needed = 0, uses_anonymous_args = 0
  86              		@ link register save eliminated.
  87              	.LVL3:
  88              		.loc 1 77 0
  89 0000 4B68     		ldr	r3, [r1, #4]
  90 0002 80E80A00 		stmia	r0, {r1, r3}
  91              		.loc 1 78 0
  92 0006 4860     		str	r0, [r1, #4]
  93 0008 1860     		str	r0, [r3]
  94 000a 7047     		bx	lr
  95              		.cfi_endproc
  96              	.LFE1:
  97              		.size	queue_insert, .-queue_insert
  98              		.section	.text.fifo_remove,"ax",%progbits
  99              		.align	2
 100              		.p2align 4,,15
 101              		.global	fifo_remove
 102              		.thumb
 103              		.thumb_func
 104              		.type	fifo_remove, %function
 105              	fifo_remove:
 106              	.LFB2:
 107              		.loc 1 91 0
 108              		.cfi_startproc
 109              		@ args = 0, pretend = 0, frame = 0
 110              		@ frame_needed = 0, uses_anonymous_args = 0
 111              		@ link register save eliminated.
 112              	.LVL4:
 113              		.loc 1 91 0
 114 0000 0346     		mov	r3, r0
ARM GAS  /tmp/ccErxGom.s 			page 3


 115              		.loc 1 92 0
 116 0002 0068     		ldr	r0, [r0]
 117              	.LVL5:
 118              		.loc 1 94 0
 119 0004 0268     		ldr	r2, [r0]
 120 0006 1A60     		str	r2, [r3]
 121 0008 5360     		str	r3, [r2, #4]
 122              		.loc 1 96 0
 123 000a 7047     		bx	lr
 124              		.cfi_endproc
 125              	.LFE2:
 126              		.size	fifo_remove, .-fifo_remove
 127              		.section	.text.lifo_remove,"ax",%progbits
 128              		.align	2
 129              		.p2align 4,,15
 130              		.global	lifo_remove
 131              		.thumb
 132              		.thumb_func
 133              		.type	lifo_remove, %function
 134              	lifo_remove:
 135              	.LFB3:
 136              		.loc 1 108 0
 137              		.cfi_startproc
 138              		@ args = 0, pretend = 0, frame = 0
 139              		@ frame_needed = 0, uses_anonymous_args = 0
 140              		@ link register save eliminated.
 141              	.LVL6:
 142              		.loc 1 108 0
 143 0000 0346     		mov	r3, r0
 144              		.loc 1 109 0
 145 0002 4068     		ldr	r0, [r0, #4]
 146              	.LVL7:
 147              		.loc 1 111 0
 148 0004 4268     		ldr	r2, [r0, #4]
 149 0006 5A60     		str	r2, [r3, #4]
 150 0008 1360     		str	r3, [r2]
 151              		.loc 1 113 0
 152 000a 7047     		bx	lr
 153              		.cfi_endproc
 154              	.LFE3:
 155              		.size	lifo_remove, .-lifo_remove
 156              		.section	.text.dequeue,"ax",%progbits
 157              		.align	2
 158              		.p2align 4,,15
 159              		.global	dequeue
 160              		.thumb
 161              		.thumb_func
 162              		.type	dequeue, %function
 163              	dequeue:
 164              	.LFB4:
 165              		.loc 1 125 0
 166              		.cfi_startproc
 167              		@ args = 0, pretend = 0, frame = 0
 168              		@ frame_needed = 0, uses_anonymous_args = 0
 169              		@ link register save eliminated.
 170              	.LVL8:
 171              		.loc 1 127 0
ARM GAS  /tmp/ccErxGom.s 			page 4


 172 0000 90E80600 		ldmia	r0, {r1, r2}
 173 0004 1160     		str	r1, [r2]
 174              		.loc 1 128 0
 175 0006 0368     		ldr	r3, [r0]
 176 0008 5A60     		str	r2, [r3, #4]
 177              		.loc 1 130 0
 178 000a 7047     		bx	lr
 179              		.cfi_endproc
 180              	.LFE4:
 181              		.size	dequeue, .-dequeue
 182              		.section	.text.list_insert,"ax",%progbits
 183              		.align	2
 184              		.p2align 4,,15
 185              		.global	list_insert
 186              		.thumb
 187              		.thumb_func
 188              		.type	list_insert, %function
 189              	list_insert:
 190              	.LFB5:
 191              		.loc 1 140 0
 192              		.cfi_startproc
 193              		@ args = 0, pretend = 0, frame = 0
 194              		@ frame_needed = 0, uses_anonymous_args = 0
 195              		@ link register save eliminated.
 196              	.LVL9:
 197              		.loc 1 142 0
 198 0000 0B68     		ldr	r3, [r1]
 199 0002 0360     		str	r3, [r0]
 200              		.loc 1 143 0
 201 0004 0860     		str	r0, [r1]
 202 0006 7047     		bx	lr
 203              		.cfi_endproc
 204              	.LFE5:
 205              		.size	list_insert, .-list_insert
 206              		.section	.text.list_remove,"ax",%progbits
 207              		.align	2
 208              		.p2align 4,,15
 209              		.global	list_remove
 210              		.thumb
 211              		.thumb_func
 212              		.type	list_remove, %function
 213              	list_remove:
 214              	.LFB6:
 215              		.loc 1 155 0
 216              		.cfi_startproc
 217              		@ args = 0, pretend = 0, frame = 0
 218              		@ frame_needed = 0, uses_anonymous_args = 0
 219              		@ link register save eliminated.
 220              	.LVL10:
 221              		.loc 1 157 0
 222 0000 0368     		ldr	r3, [r0]
 223              	.LVL11:
 224              		.loc 1 158 0
 225 0002 1A68     		ldr	r2, [r3]
 226 0004 0260     		str	r2, [r0]
 227              		.loc 1 160 0
 228 0006 1846     		mov	r0, r3
ARM GAS  /tmp/ccErxGom.s 			page 5


 229              	.LVL12:
 230 0008 7047     		bx	lr
 231              		.cfi_endproc
 232              	.LFE6:
 233              		.size	list_remove, .-list_remove
 234 000a 00BF     		.text
 235              	.Letext0:
 236              		.file 2 "/home/z80/programs/sw4stm32/plugins/fr.ac6.mcu.externaltools.arm-none.linux32_1.7.0.20160
 237              		.file 3 "/home/z80/programs/sw4stm32/plugins/fr.ac6.mcu.externaltools.arm-none.linux32_1.7.0.20160
 238              		.file 4 "../../../os/ports/GCC/ARMCMx/chtypes.h"
 239              		.file 5 "../../../os/kernel/include/chlists.h"
 240              		.file 6 "../../../os/kernel/include/chthreads.h"
 241              		.file 7 "../../../os/ports/GCC/ARMCMx/chcore_v7m.h"
 242              		.file 8 "../../../os/kernel/include/chmtx.h"