ARM GAS  /tmp/ccHxX4KX.s 			page 1


   1              		.syntax unified
   2              		.cpu cortex-m4
   3              		.fpu softvfp
   4              		.eabi_attribute 20, 1
   5              		.eabi_attribute 21, 1
   6              		.eabi_attribute 23, 3
   7              		.eabi_attribute 24, 1
   8              		.eabi_attribute 25, 1
   9              		.eabi_attribute 26, 1
  10              		.eabi_attribute 30, 2
  11              		.eabi_attribute 34, 1
  12              		.eabi_attribute 18, 4
  13              		.thumb
  14              		.syntax unified
  15              		.file	"chmboxes.c"
  16              		.text
  17              	.Ltext0:
  18              		.cfi_sections	.debug_frame
  19              		.section	.text.chMBInit,"ax",%progbits
  20              		.align	2
  21              		.p2align 4,,15
  22              		.global	chMBInit
  23              		.thumb
  24              		.thumb_func
  25              		.type	chMBInit, %function
  26              	chMBInit:
  27              	.LFB0:
  28              		.file 1 "../../../os/kernel/src/chmboxes.c"
  29              		.loc 1 72 0
  30              		.cfi_startproc
  31              		@ args = 0, pretend = 0, frame = 0
  32              		@ frame_needed = 0, uses_anonymous_args = 0
  33              	.LVL0:
  34 0000 70B5     		push	{r4, r5, r6, lr}
  35              		.cfi_def_cfa_offset 16
  36              		.cfi_offset 4, -16
  37              		.cfi_offset 5, -12
  38              		.cfi_offset 6, -8
  39              		.cfi_offset 14, -4
  40              		.loc 1 72 0
  41 0002 0D46     		mov	r5, r1
  42 0004 1646     		mov	r6, r2
  43              		.loc 1 74 0
  44 0006 0446     		mov	r4, r0
  45 0008 A0B1     		cbz	r0, .L2
  46              		.loc 1 74 0 is_stmt 0 discriminator 2
  47 000a 99B1     		cbz	r1, .L2
  48              		.loc 1 74 0 discriminator 4
  49 000c 002A     		cmp	r2, #0
  50 000e 11DD     		ble	.L2
  51              	.LVL1:
  52              	.L3:
  53              		.loc 1 77 0 is_stmt 1
  54 0010 05EB8603 		add	r3, r5, r6, lsl #2
  55              		.loc 1 78 0
  56 0014 3146     		mov	r1, r6
  57 0016 04F11C00 		add	r0, r4, #28
ARM GAS  /tmp/ccHxX4KX.s 			page 2


  58              		.loc 1 76 0
  59 001a E560     		str	r5, [r4, #12]
  60 001c A560     		str	r5, [r4, #8]
  61 001e 2560     		str	r5, [r4]
  62              		.loc 1 77 0
  63 0020 6360     		str	r3, [r4, #4]
  64              		.loc 1 78 0
  65 0022 FFF7FEFF 		bl	chSemInit
  66              	.LVL2:
  67              		.loc 1 79 0
  68 0026 04F11000 		add	r0, r4, #16
  69 002a 0021     		movs	r1, #0
  70              		.loc 1 80 0
  71 002c BDE87040 		pop	{r4, r5, r6, lr}
  72              		.cfi_remember_state
  73              		.cfi_restore 14
  74              		.cfi_restore 6
  75              		.cfi_restore 5
  76              		.cfi_restore 4
  77              		.cfi_def_cfa_offset 0
  78              	.LVL3:
  79              		.loc 1 79 0
  80 0030 FFF7FEBF 		b	chSemInit
  81              	.LVL4:
  82              	.L2:
  83              		.cfi_restore_state
  84              		.loc 1 74 0 discriminator 5
  85 0034 0148     		ldr	r0, .L12
  86              	.LVL5:
  87 0036 FFF7FEFF 		bl	chDbgPanic
  88              	.LVL6:
  89 003a E9E7     		b	.L3
  90              	.L13:
  91              		.align	2
  92              	.L12:
  93 003c 00000000 		.word	.LC0
  94              		.cfi_endproc
  95              	.LFE0:
  96              		.size	chMBInit, .-chMBInit
  97              		.section	.text.chMBReset,"ax",%progbits
  98              		.align	2
  99              		.p2align 4,,15
 100              		.global	chMBReset
 101              		.thumb
 102              		.thumb_func
 103              		.type	chMBReset, %function
 104              	chMBReset:
 105              	.LFB1:
 106              		.loc 1 91 0
 107              		.cfi_startproc
 108              		@ args = 0, pretend = 0, frame = 0
 109              		@ frame_needed = 0, uses_anonymous_args = 0
 110              	.LVL7:
 111 0000 10B5     		push	{r4, lr}
 112              		.cfi_def_cfa_offset 8
 113              		.cfi_offset 4, -8
 114              		.cfi_offset 14, -4
ARM GAS  /tmp/ccHxX4KX.s 			page 3


 115              		.loc 1 93 0
 116 0002 0446     		mov	r4, r0
 117 0004 C8B1     		cbz	r0, .L17
 118              	.LVL8:
 119              	.L15:
 120              		.loc 1 95 0
 121              		.syntax unified
 122              	@ 95 "../../../os/kernel/src/chmboxes.c" 1
 123 0006 FFF7FEFF 		bl      _port_lock
 124              	@ 0 "" 2
 125              		.thumb
 126              		.syntax unified
 127 000a FFF7FEFF 		bl	dbg_check_lock
 128              	.LVL9:
 129              		.loc 1 96 0
 130 000e 2368     		ldr	r3, [r4]
 131              		.loc 1 97 0
 132 0010 6168     		ldr	r1, [r4, #4]
 133              		.loc 1 96 0
 134 0012 E360     		str	r3, [r4, #12]
 135              		.loc 1 97 0
 136 0014 C91A     		subs	r1, r1, r3
 137              		.loc 1 96 0
 138 0016 A360     		str	r3, [r4, #8]
 139              		.loc 1 97 0
 140 0018 04F11C00 		add	r0, r4, #28
 141 001c 8910     		asrs	r1, r1, #2
 142 001e FFF7FEFF 		bl	chSemResetI
 143              	.LVL10:
 144              		.loc 1 98 0
 145 0022 04F11000 		add	r0, r4, #16
 146 0026 0021     		movs	r1, #0
 147 0028 FFF7FEFF 		bl	chSemResetI
 148              	.LVL11:
 149              		.loc 1 99 0
 150 002c FFF7FEFF 		bl	chSchRescheduleS
 151              	.LVL12:
 152              		.loc 1 100 0
 153 0030 FFF7FEFF 		bl	dbg_check_unlock
 154              	.LVL13:
 155              		.syntax unified
 156              	@ 100 "../../../os/kernel/src/chmboxes.c" 1
 157 0034 FFF7FEFF 		bl      _port_unlock
 158              	@ 0 "" 2
 159              		.thumb
 160              		.syntax unified
 161 0038 10BD     		pop	{r4, pc}
 162              	.LVL14:
 163              	.L17:
 164              		.loc 1 93 0 discriminator 1
 165 003a 0248     		ldr	r0, .L18
 166              	.LVL15:
 167 003c FFF7FEFF 		bl	chDbgPanic
 168              	.LVL16:
 169 0040 E1E7     		b	.L15
 170              	.L19:
 171 0042 00BF     		.align	2
ARM GAS  /tmp/ccHxX4KX.s 			page 4


 172              	.L18:
 173 0044 10000000 		.word	.LC1
 174              		.cfi_endproc
 175              	.LFE1:
 176              		.size	chMBReset, .-chMBReset
 177              		.section	.text.chMBPostS,"ax",%progbits
 178              		.align	2
 179              		.p2align 4,,15
 180              		.global	chMBPostS
 181              		.thumb
 182              		.thumb_func
 183              		.type	chMBPostS, %function
 184              	chMBPostS:
 185              	.LFB3:
 186              		.loc 1 150 0
 187              		.cfi_startproc
 188              		@ args = 0, pretend = 0, frame = 0
 189              		@ frame_needed = 0, uses_anonymous_args = 0
 190              	.LVL17:
 191 0000 70B5     		push	{r4, r5, r6, lr}
 192              		.cfi_def_cfa_offset 16
 193              		.cfi_offset 4, -16
 194              		.cfi_offset 5, -12
 195              		.cfi_offset 6, -8
 196              		.cfi_offset 14, -4
 197              		.loc 1 150 0
 198 0002 0446     		mov	r4, r0
 199 0004 0E46     		mov	r6, r1
 200 0006 1546     		mov	r5, r2
 201              		.loc 1 153 0
 202 0008 FFF7FEFF 		bl	chDbgCheckClassS
 203              	.LVL18:
 204              		.loc 1 154 0
 205 000c C4B1     		cbz	r4, .L25
 206              	.L21:
 207              		.loc 1 156 0
 208 000e 2946     		mov	r1, r5
 209 0010 04F11C00 		add	r0, r4, #28
 210 0014 FFF7FEFF 		bl	chSemWaitTimeoutS
 211              	.LVL19:
 212              		.loc 1 157 0
 213 0018 0546     		mov	r5, r0
 214              	.LVL20:
 215 001a 78B9     		cbnz	r0, .L22
 216              	.LVL21:
 217              	.LBB4:
 218              	.LBB5:
 219              		.loc 1 158 0
 220 001c A268     		ldr	r2, [r4, #8]
 221              		.loc 1 159 0
 222 001e 6168     		ldr	r1, [r4, #4]
 223              		.loc 1 158 0
 224 0020 131D     		adds	r3, r2, #4
 225              		.loc 1 159 0
 226 0022 8B42     		cmp	r3, r1
 227              		.loc 1 158 0
 228 0024 A360     		str	r3, [r4, #8]
ARM GAS  /tmp/ccHxX4KX.s 			page 5


 229              		.loc 1 160 0
 230 0026 28BF     		it	cs
 231 0028 2368     		ldrcs	r3, [r4]
 232              		.loc 1 158 0
 233 002a 1660     		str	r6, [r2]
 234              		.loc 1 161 0
 235 002c 04F11000 		add	r0, r4, #16
 236              	.LVL22:
 237              		.loc 1 160 0
 238 0030 28BF     		it	cs
 239 0032 A360     		strcs	r3, [r4, #8]
 240              		.loc 1 161 0
 241 0034 FFF7FEFF 		bl	chSemSignalI
 242              	.LVL23:
 243              		.loc 1 162 0
 244 0038 FFF7FEFF 		bl	chSchRescheduleS
 245              	.LVL24:
 246              	.L22:
 247              	.LBE5:
 248              	.LBE4:
 249              		.loc 1 165 0
 250 003c 2846     		mov	r0, r5
 251 003e 70BD     		pop	{r4, r5, r6, pc}
 252              	.LVL25:
 253              	.L25:
 254              		.loc 1 154 0 discriminator 1
 255 0040 0148     		ldr	r0, .L26
 256 0042 FFF7FEFF 		bl	chDbgPanic
 257              	.LVL26:
 258 0046 E2E7     		b	.L21
 259              	.L27:
 260              		.align	2
 261              	.L26:
 262 0048 20000000 		.word	.LC2
 263              		.cfi_endproc
 264              	.LFE3:
 265              		.size	chMBPostS, .-chMBPostS
 266              		.section	.text.chMBPost,"ax",%progbits
 267              		.align	2
 268              		.p2align 4,,15
 269              		.global	chMBPost
 270              		.thumb
 271              		.thumb_func
 272              		.type	chMBPost, %function
 273              	chMBPost:
 274              	.LFB2:
 275              		.loc 1 122 0
 276              		.cfi_startproc
 277              		@ args = 0, pretend = 0, frame = 0
 278              		@ frame_needed = 0, uses_anonymous_args = 0
 279              	.LVL27:
 280 0000 70B5     		push	{r4, r5, r6, lr}
 281              		.cfi_def_cfa_offset 16
 282              		.cfi_offset 4, -16
 283              		.cfi_offset 5, -12
 284              		.cfi_offset 6, -8
 285              		.cfi_offset 14, -4
ARM GAS  /tmp/ccHxX4KX.s 			page 6


 286              		.loc 1 122 0
 287 0002 0446     		mov	r4, r0
 288 0004 0D46     		mov	r5, r1
 289 0006 1646     		mov	r6, r2
 290              		.loc 1 125 0
 291              		.syntax unified
 292              	@ 125 "../../../os/kernel/src/chmboxes.c" 1
 293 0008 FFF7FEFF 		bl      _port_lock
 294              	@ 0 "" 2
 295              		.thumb
 296              		.syntax unified
 297 000c FFF7FEFF 		bl	dbg_check_lock
 298              	.LVL28:
 299              		.loc 1 126 0
 300 0010 3246     		mov	r2, r6
 301 0012 2946     		mov	r1, r5
 302 0014 2046     		mov	r0, r4
 303 0016 FFF7FEFF 		bl	chMBPostS
 304              	.LVL29:
 305 001a 0446     		mov	r4, r0
 306              	.LVL30:
 307              		.loc 1 127 0
 308 001c FFF7FEFF 		bl	dbg_check_unlock
 309              	.LVL31:
 310              		.syntax unified
 311              	@ 127 "../../../os/kernel/src/chmboxes.c" 1
 312 0020 FFF7FEFF 		bl      _port_unlock
 313              	@ 0 "" 2
 314              		.loc 1 129 0
 315              		.thumb
 316              		.syntax unified
 317 0024 2046     		mov	r0, r4
 318 0026 70BD     		pop	{r4, r5, r6, pc}
 319              		.cfi_endproc
 320              	.LFE2:
 321              		.size	chMBPost, .-chMBPost
 322              		.section	.text.chMBPostI,"ax",%progbits
 323              		.align	2
 324              		.p2align 4,,15
 325              		.global	chMBPostI
 326              		.thumb
 327              		.thumb_func
 328              		.type	chMBPostI, %function
 329              	chMBPostI:
 330              	.LFB4:
 331              		.loc 1 181 0
 332              		.cfi_startproc
 333              		@ args = 0, pretend = 0, frame = 0
 334              		@ frame_needed = 0, uses_anonymous_args = 0
 335              	.LVL32:
 336 0000 38B5     		push	{r3, r4, r5, lr}
 337              		.cfi_def_cfa_offset 16
 338              		.cfi_offset 3, -16
 339              		.cfi_offset 4, -12
 340              		.cfi_offset 5, -8
 341              		.cfi_offset 14, -4
 342              		.loc 1 181 0
ARM GAS  /tmp/ccHxX4KX.s 			page 7


 343 0002 0446     		mov	r4, r0
 344 0004 0D46     		mov	r5, r1
 345              		.loc 1 183 0
 346 0006 FFF7FEFF 		bl	chDbgCheckClassI
 347              	.LVL33:
 348              		.loc 1 184 0
 349 000a A4B1     		cbz	r4, .L36
 350              	.L31:
 351              		.loc 1 186 0
 352 000c 636A     		ldr	r3, [r4, #36]
 353 000e 002B     		cmp	r3, #0
 354 0010 15DD     		ble	.L34
 355              		.loc 1 189 0
 356 0012 A068     		ldr	r0, [r4, #8]
 357              		.loc 1 190 0
 358 0014 6168     		ldr	r1, [r4, #4]
 359              		.loc 1 189 0
 360 0016 021D     		adds	r2, r0, #4
 361              		.loc 1 188 0
 362 0018 013B     		subs	r3, r3, #1
 363              		.loc 1 190 0
 364 001a 8A42     		cmp	r2, r1
 365              		.loc 1 188 0
 366 001c 6362     		str	r3, [r4, #36]
 367              		.loc 1 191 0
 368 001e 28BF     		it	cs
 369 0020 2368     		ldrcs	r3, [r4]
 370              		.loc 1 189 0
 371 0022 A260     		str	r2, [r4, #8]
 372 0024 0560     		str	r5, [r0]
 373              		.loc 1 192 0
 374 0026 04F11000 		add	r0, r4, #16
 375              		.loc 1 191 0
 376 002a 28BF     		it	cs
 377 002c A360     		strcs	r3, [r4, #8]
 378              		.loc 1 192 0
 379 002e FFF7FEFF 		bl	chSemSignalI
 380              	.LVL34:
 381              		.loc 1 193 0
 382 0032 0020     		movs	r0, #0
 383 0034 38BD     		pop	{r3, r4, r5, pc}
 384              	.LVL35:
 385              	.L36:
 386              		.loc 1 184 0 discriminator 1
 387 0036 0348     		ldr	r0, .L37
 388 0038 FFF7FEFF 		bl	chDbgPanic
 389              	.LVL36:
 390 003c E6E7     		b	.L31
 391              	.L34:
 392              		.loc 1 187 0
 393 003e 4FF0FF30 		mov	r0, #-1
 394              		.loc 1 194 0
 395 0042 38BD     		pop	{r3, r4, r5, pc}
 396              	.LVL37:
 397              	.L38:
 398              		.align	2
 399              	.L37:
ARM GAS  /tmp/ccHxX4KX.s 			page 8


 400 0044 30000000 		.word	.LC3
 401              		.cfi_endproc
 402              	.LFE4:
 403              		.size	chMBPostI, .-chMBPostI
 404              		.section	.text.chMBPostAheadS,"ax",%progbits
 405              		.align	2
 406              		.p2align 4,,15
 407              		.global	chMBPostAheadS
 408              		.thumb
 409              		.thumb_func
 410              		.type	chMBPostAheadS, %function
 411              	chMBPostAheadS:
 412              	.LFB6:
 413              		.loc 1 243 0
 414              		.cfi_startproc
 415              		@ args = 0, pretend = 0, frame = 0
 416              		@ frame_needed = 0, uses_anonymous_args = 0
 417              	.LVL38:
 418 0000 70B5     		push	{r4, r5, r6, lr}
 419              		.cfi_def_cfa_offset 16
 420              		.cfi_offset 4, -16
 421              		.cfi_offset 5, -12
 422              		.cfi_offset 6, -8
 423              		.cfi_offset 14, -4
 424              		.loc 1 243 0
 425 0002 0446     		mov	r4, r0
 426 0004 0E46     		mov	r6, r1
 427 0006 1546     		mov	r5, r2
 428              		.loc 1 246 0
 429 0008 FFF7FEFF 		bl	chDbgCheckClassS
 430              	.LVL39:
 431              		.loc 1 247 0
 432 000c CCB1     		cbz	r4, .L44
 433              	.L40:
 434              		.loc 1 249 0
 435 000e 2946     		mov	r1, r5
 436 0010 04F11C00 		add	r0, r4, #28
 437 0014 FFF7FEFF 		bl	chSemWaitTimeoutS
 438              	.LVL40:
 439              		.loc 1 250 0
 440 0018 0546     		mov	r5, r0
 441              	.LVL41:
 442 001a 60B9     		cbnz	r0, .L41
 443              	.LVL42:
 444              	.LBB8:
 445              	.LBB9:
 446              		.loc 1 251 0
 447 001c E368     		ldr	r3, [r4, #12]
 448 001e 2268     		ldr	r2, [r4]
 449 0020 043B     		subs	r3, r3, #4
 450 0022 9342     		cmp	r3, r2
 451 0024 E360     		str	r3, [r4, #12]
 452 0026 08D3     		bcc	.L45
 453              	.L42:
 454              		.loc 1 253 0
 455 0028 1E60     		str	r6, [r3]
 456              		.loc 1 254 0
ARM GAS  /tmp/ccHxX4KX.s 			page 9


 457 002a 04F11000 		add	r0, r4, #16
 458              	.LVL43:
 459 002e FFF7FEFF 		bl	chSemSignalI
 460              	.LVL44:
 461              		.loc 1 255 0
 462 0032 FFF7FEFF 		bl	chSchRescheduleS
 463              	.LVL45:
 464              	.L41:
 465              	.LBE9:
 466              	.LBE8:
 467              		.loc 1 258 0
 468 0036 2846     		mov	r0, r5
 469 0038 70BD     		pop	{r4, r5, r6, pc}
 470              	.LVL46:
 471              	.L45:
 472              	.LBB11:
 473              	.LBB10:
 474              		.loc 1 252 0
 475 003a 6368     		ldr	r3, [r4, #4]
 476 003c 043B     		subs	r3, r3, #4
 477 003e E360     		str	r3, [r4, #12]
 478 0040 F2E7     		b	.L42
 479              	.LVL47:
 480              	.L44:
 481              	.LBE10:
 482              	.LBE11:
 483              		.loc 1 247 0 discriminator 1
 484 0042 0248     		ldr	r0, .L46
 485 0044 FFF7FEFF 		bl	chDbgPanic
 486              	.LVL48:
 487 0048 E1E7     		b	.L40
 488              	.L47:
 489 004a 00BF     		.align	2
 490              	.L46:
 491 004c 40000000 		.word	.LC4
 492              		.cfi_endproc
 493              	.LFE6:
 494              		.size	chMBPostAheadS, .-chMBPostAheadS
 495              		.section	.text.chMBPostAhead,"ax",%progbits
 496              		.align	2
 497              		.p2align 4,,15
 498              		.global	chMBPostAhead
 499              		.thumb
 500              		.thumb_func
 501              		.type	chMBPostAhead, %function
 502              	chMBPostAhead:
 503              	.LFB5:
 504              		.loc 1 215 0
 505              		.cfi_startproc
 506              		@ args = 0, pretend = 0, frame = 0
 507              		@ frame_needed = 0, uses_anonymous_args = 0
 508              	.LVL49:
 509 0000 70B5     		push	{r4, r5, r6, lr}
 510              		.cfi_def_cfa_offset 16
 511              		.cfi_offset 4, -16
 512              		.cfi_offset 5, -12
 513              		.cfi_offset 6, -8
ARM GAS  /tmp/ccHxX4KX.s 			page 10


 514              		.cfi_offset 14, -4
 515              		.loc 1 215 0
 516 0002 0446     		mov	r4, r0
 517 0004 0D46     		mov	r5, r1
 518 0006 1646     		mov	r6, r2
 519              		.loc 1 218 0
 520              		.syntax unified
 521              	@ 218 "../../../os/kernel/src/chmboxes.c" 1
 522 0008 FFF7FEFF 		bl      _port_lock
 523              	@ 0 "" 2
 524              		.thumb
 525              		.syntax unified
 526 000c FFF7FEFF 		bl	dbg_check_lock
 527              	.LVL50:
 528              		.loc 1 219 0
 529 0010 3246     		mov	r2, r6
 530 0012 2946     		mov	r1, r5
 531 0014 2046     		mov	r0, r4
 532 0016 FFF7FEFF 		bl	chMBPostAheadS
 533              	.LVL51:
 534 001a 0446     		mov	r4, r0
 535              	.LVL52:
 536              		.loc 1 220 0
 537 001c FFF7FEFF 		bl	dbg_check_unlock
 538              	.LVL53:
 539              		.syntax unified
 540              	@ 220 "../../../os/kernel/src/chmboxes.c" 1
 541 0020 FFF7FEFF 		bl      _port_unlock
 542              	@ 0 "" 2
 543              		.loc 1 222 0
 544              		.thumb
 545              		.syntax unified
 546 0024 2046     		mov	r0, r4
 547 0026 70BD     		pop	{r4, r5, r6, pc}
 548              		.cfi_endproc
 549              	.LFE5:
 550              		.size	chMBPostAhead, .-chMBPostAhead
 551              		.section	.text.chMBPostAheadI,"ax",%progbits
 552              		.align	2
 553              		.p2align 4,,15
 554              		.global	chMBPostAheadI
 555              		.thumb
 556              		.thumb_func
 557              		.type	chMBPostAheadI, %function
 558              	chMBPostAheadI:
 559              	.LFB7:
 560              		.loc 1 274 0
 561              		.cfi_startproc
 562              		@ args = 0, pretend = 0, frame = 0
 563              		@ frame_needed = 0, uses_anonymous_args = 0
 564              	.LVL54:
 565 0000 38B5     		push	{r3, r4, r5, lr}
 566              		.cfi_def_cfa_offset 16
 567              		.cfi_offset 3, -16
 568              		.cfi_offset 4, -12
 569              		.cfi_offset 5, -8
 570              		.cfi_offset 14, -4
ARM GAS  /tmp/ccHxX4KX.s 			page 11


 571              		.loc 1 274 0
 572 0002 0446     		mov	r4, r0
 573 0004 0D46     		mov	r5, r1
 574              		.loc 1 276 0
 575 0006 FFF7FEFF 		bl	chDbgCheckClassI
 576              	.LVL55:
 577              		.loc 1 277 0
 578 000a A4B1     		cbz	r4, .L56
 579              	.L51:
 580              		.loc 1 279 0
 581 000c 626A     		ldr	r2, [r4, #36]
 582 000e 002A     		cmp	r2, #0
 583 0010 15DD     		ble	.L54
 584              		.loc 1 282 0
 585 0012 E368     		ldr	r3, [r4, #12]
 586 0014 2168     		ldr	r1, [r4]
 587 0016 043B     		subs	r3, r3, #4
 588              		.loc 1 281 0
 589 0018 013A     		subs	r2, r2, #1
 590              		.loc 1 282 0
 591 001a 8B42     		cmp	r3, r1
 592              		.loc 1 281 0
 593 001c 6262     		str	r2, [r4, #36]
 594              		.loc 1 282 0
 595 001e E360     		str	r3, [r4, #12]
 596 0020 02D2     		bcs	.L53
 597              		.loc 1 283 0
 598 0022 6368     		ldr	r3, [r4, #4]
 599 0024 043B     		subs	r3, r3, #4
 600 0026 E360     		str	r3, [r4, #12]
 601              	.L53:
 602              		.loc 1 285 0
 603 0028 04F11000 		add	r0, r4, #16
 604              		.loc 1 284 0
 605 002c 1D60     		str	r5, [r3]
 606              		.loc 1 285 0
 607 002e FFF7FEFF 		bl	chSemSignalI
 608              	.LVL56:
 609              		.loc 1 286 0
 610 0032 0020     		movs	r0, #0
 611 0034 38BD     		pop	{r3, r4, r5, pc}
 612              	.LVL57:
 613              	.L56:
 614              		.loc 1 277 0 discriminator 1
 615 0036 0348     		ldr	r0, .L57
 616 0038 FFF7FEFF 		bl	chDbgPanic
 617              	.LVL58:
 618 003c E6E7     		b	.L51
 619              	.L54:
 620              		.loc 1 280 0
 621 003e 4FF0FF30 		mov	r0, #-1
 622              		.loc 1 287 0
 623 0042 38BD     		pop	{r3, r4, r5, pc}
 624              	.LVL59:
 625              	.L58:
 626              		.align	2
 627              	.L57:
ARM GAS  /tmp/ccHxX4KX.s 			page 12


 628 0044 54000000 		.word	.LC5
 629              		.cfi_endproc
 630              	.LFE7:
 631              		.size	chMBPostAheadI, .-chMBPostAheadI
 632              		.section	.text.chMBFetchS,"ax",%progbits
 633              		.align	2
 634              		.p2align 4,,15
 635              		.global	chMBFetchS
 636              		.thumb
 637              		.thumb_func
 638              		.type	chMBFetchS, %function
 639              	chMBFetchS:
 640              	.LFB9:
 641              		.loc 1 336 0
 642              		.cfi_startproc
 643              		@ args = 0, pretend = 0, frame = 0
 644              		@ frame_needed = 0, uses_anonymous_args = 0
 645              	.LVL60:
 646 0000 70B5     		push	{r4, r5, r6, lr}
 647              		.cfi_def_cfa_offset 16
 648              		.cfi_offset 4, -16
 649              		.cfi_offset 5, -12
 650              		.cfi_offset 6, -8
 651              		.cfi_offset 14, -4
 652              		.loc 1 336 0
 653 0002 0446     		mov	r4, r0
 654 0004 0E46     		mov	r6, r1
 655 0006 1546     		mov	r5, r2
 656              		.loc 1 339 0
 657 0008 FFF7FEFF 		bl	chDbgCheckClassS
 658              	.LVL61:
 659              		.loc 1 340 0
 660 000c D4B1     		cbz	r4, .L60
 661              		.loc 1 340 0 is_stmt 0 discriminator 2
 662 000e CEB1     		cbz	r6, .L60
 663              	.L61:
 664              		.loc 1 342 0 is_stmt 1
 665 0010 2946     		mov	r1, r5
 666 0012 04F11000 		add	r0, r4, #16
 667 0016 FFF7FEFF 		bl	chSemWaitTimeoutS
 668              	.LVL62:
 669              		.loc 1 343 0
 670 001a 0546     		mov	r5, r0
 671              	.LVL63:
 672 001c 80B9     		cbnz	r0, .L62
 673              	.LVL64:
 674              	.LBB14:
 675              	.LBB15:
 676              		.loc 1 344 0
 677 001e E368     		ldr	r3, [r4, #12]
 678              		.loc 1 345 0
 679 0020 6268     		ldr	r2, [r4, #4]
 680              		.loc 1 344 0
 681 0022 1968     		ldr	r1, [r3]
 682 0024 0433     		adds	r3, r3, #4
 683              		.loc 1 345 0
 684 0026 9342     		cmp	r3, r2
ARM GAS  /tmp/ccHxX4KX.s 			page 13


 685              		.loc 1 344 0
 686 0028 E360     		str	r3, [r4, #12]
 687              		.loc 1 346 0
 688 002a 28BF     		it	cs
 689 002c 2368     		ldrcs	r3, [r4]
 690              		.loc 1 344 0
 691 002e 3160     		str	r1, [r6]
 692              		.loc 1 347 0
 693 0030 04F11C00 		add	r0, r4, #28
 694              	.LVL65:
 695              		.loc 1 346 0
 696 0034 28BF     		it	cs
 697 0036 E360     		strcs	r3, [r4, #12]
 698              		.loc 1 347 0
 699 0038 FFF7FEFF 		bl	chSemSignalI
 700              	.LVL66:
 701              		.loc 1 348 0
 702 003c FFF7FEFF 		bl	chSchRescheduleS
 703              	.LVL67:
 704              	.L62:
 705              	.LBE15:
 706              	.LBE14:
 707              		.loc 1 351 0
 708 0040 2846     		mov	r0, r5
 709 0042 70BD     		pop	{r4, r5, r6, pc}
 710              	.LVL68:
 711              	.L60:
 712              		.loc 1 340 0 discriminator 3
 713 0044 0148     		ldr	r0, .L68
 714 0046 FFF7FEFF 		bl	chDbgPanic
 715              	.LVL69:
 716 004a E1E7     		b	.L61
 717              	.L69:
 718              		.align	2
 719              	.L68:
 720 004c 68000000 		.word	.LC6
 721              		.cfi_endproc
 722              	.LFE9:
 723              		.size	chMBFetchS, .-chMBFetchS
 724              		.section	.text.chMBFetch,"ax",%progbits
 725              		.align	2
 726              		.p2align 4,,15
 727              		.global	chMBFetch
 728              		.thumb
 729              		.thumb_func
 730              		.type	chMBFetch, %function
 731              	chMBFetch:
 732              	.LFB8:
 733              		.loc 1 308 0
 734              		.cfi_startproc
 735              		@ args = 0, pretend = 0, frame = 0
 736              		@ frame_needed = 0, uses_anonymous_args = 0
 737              	.LVL70:
 738 0000 70B5     		push	{r4, r5, r6, lr}
 739              		.cfi_def_cfa_offset 16
 740              		.cfi_offset 4, -16
 741              		.cfi_offset 5, -12
ARM GAS  /tmp/ccHxX4KX.s 			page 14


 742              		.cfi_offset 6, -8
 743              		.cfi_offset 14, -4
 744              		.loc 1 308 0
 745 0002 0446     		mov	r4, r0
 746 0004 0D46     		mov	r5, r1
 747 0006 1646     		mov	r6, r2
 748              		.loc 1 311 0
 749              		.syntax unified
 750              	@ 311 "../../../os/kernel/src/chmboxes.c" 1
 751 0008 FFF7FEFF 		bl      _port_lock
 752              	@ 0 "" 2
 753              		.thumb
 754              		.syntax unified
 755 000c FFF7FEFF 		bl	dbg_check_lock
 756              	.LVL71:
 757              		.loc 1 312 0
 758 0010 3246     		mov	r2, r6
 759 0012 2946     		mov	r1, r5
 760 0014 2046     		mov	r0, r4
 761 0016 FFF7FEFF 		bl	chMBFetchS
 762              	.LVL72:
 763 001a 0446     		mov	r4, r0
 764              	.LVL73:
 765              		.loc 1 313 0
 766 001c FFF7FEFF 		bl	dbg_check_unlock
 767              	.LVL74:
 768              		.syntax unified
 769              	@ 313 "../../../os/kernel/src/chmboxes.c" 1
 770 0020 FFF7FEFF 		bl      _port_unlock
 771              	@ 0 "" 2
 772              		.loc 1 315 0
 773              		.thumb
 774              		.syntax unified
 775 0024 2046     		mov	r0, r4
 776 0026 70BD     		pop	{r4, r5, r6, pc}
 777              		.cfi_endproc
 778              	.LFE8:
 779              		.size	chMBFetch, .-chMBFetch
 780              		.section	.text.chMBFetchI,"ax",%progbits
 781              		.align	2
 782              		.p2align 4,,15
 783              		.global	chMBFetchI
 784              		.thumb
 785              		.thumb_func
 786              		.type	chMBFetchI, %function
 787              	chMBFetchI:
 788              	.LFB10:
 789              		.loc 1 367 0
 790              		.cfi_startproc
 791              		@ args = 0, pretend = 0, frame = 0
 792              		@ frame_needed = 0, uses_anonymous_args = 0
 793              	.LVL75:
 794 0000 38B5     		push	{r3, r4, r5, lr}
 795              		.cfi_def_cfa_offset 16
 796              		.cfi_offset 3, -16
 797              		.cfi_offset 4, -12
 798              		.cfi_offset 5, -8
ARM GAS  /tmp/ccHxX4KX.s 			page 15


 799              		.cfi_offset 14, -4
 800              		.loc 1 367 0
 801 0002 0446     		mov	r4, r0
 802 0004 0D46     		mov	r5, r1
 803              		.loc 1 369 0
 804 0006 FFF7FEFF 		bl	chDbgCheckClassI
 805              	.LVL76:
 806              		.loc 1 370 0
 807 000a B4B1     		cbz	r4, .L73
 808              		.loc 1 370 0 is_stmt 0 discriminator 2
 809 000c ADB1     		cbz	r5, .L73
 810              	.L74:
 811              		.loc 1 372 0 is_stmt 1
 812 000e A369     		ldr	r3, [r4, #24]
 813 0010 002B     		cmp	r3, #0
 814 0012 16DD     		ble	.L77
 815              		.loc 1 374 0
 816 0014 5A1E     		subs	r2, r3, #1
 817              		.loc 1 375 0
 818 0016 E368     		ldr	r3, [r4, #12]
 819              		.loc 1 374 0
 820 0018 A261     		str	r2, [r4, #24]
 821              		.loc 1 376 0
 822 001a 6268     		ldr	r2, [r4, #4]
 823              		.loc 1 375 0
 824 001c 1968     		ldr	r1, [r3]
 825 001e 0433     		adds	r3, r3, #4
 826              		.loc 1 376 0
 827 0020 9342     		cmp	r3, r2
 828              		.loc 1 375 0
 829 0022 E360     		str	r3, [r4, #12]
 830              		.loc 1 377 0
 831 0024 28BF     		it	cs
 832 0026 2368     		ldrcs	r3, [r4]
 833              		.loc 1 375 0
 834 0028 2960     		str	r1, [r5]
 835              		.loc 1 378 0
 836 002a 04F11C00 		add	r0, r4, #28
 837              		.loc 1 377 0
 838 002e 28BF     		it	cs
 839 0030 E360     		strcs	r3, [r4, #12]
 840              		.loc 1 378 0
 841 0032 FFF7FEFF 		bl	chSemSignalI
 842              	.LVL77:
 843              		.loc 1 379 0
 844 0036 0020     		movs	r0, #0
 845 0038 38BD     		pop	{r3, r4, r5, pc}
 846              	.LVL78:
 847              	.L73:
 848              		.loc 1 370 0 discriminator 3
 849 003a 0348     		ldr	r0, .L82
 850 003c FFF7FEFF 		bl	chDbgPanic
 851              	.LVL79:
 852 0040 E5E7     		b	.L74
 853              	.L77:
 854              		.loc 1 373 0
 855 0042 4FF0FF30 		mov	r0, #-1
ARM GAS  /tmp/ccHxX4KX.s 			page 16


 856              		.loc 1 380 0
 857 0046 38BD     		pop	{r3, r4, r5, pc}
 858              	.LVL80:
 859              	.L83:
 860              		.align	2
 861              	.L82:
 862 0048 78000000 		.word	.LC7
 863              		.cfi_endproc
 864              	.LFE10:
 865              		.size	chMBFetchI, .-chMBFetchI
 866              		.section	.rodata.str1.4,"aMS",%progbits,1
 867              		.align	2
 868              	.LC0:
 869 0000 2263684D 		.ascii	"\"chMBInit\"()\000"
 869      42496E69 
 869      74222829 
 869      00
 870 000d 000000   		.space	3
 871              	.LC1:
 872 0010 2263684D 		.ascii	"\"chMBReset\"()\000"
 872      42526573 
 872      65742228 
 872      2900
 873 001e 0000     		.space	2
 874              	.LC2:
 875 0020 2263684D 		.ascii	"\"chMBPostS\"()\000"
 875      42506F73 
 875      74532228 
 875      2900
 876 002e 0000     		.space	2
 877              	.LC3:
 878 0030 2263684D 		.ascii	"\"chMBPostI\"()\000"
 878      42506F73 
 878      74492228 
 878      2900
 879 003e 0000     		.space	2
 880              	.LC4:
 881 0040 2263684D 		.ascii	"\"chMBPostAheadS\"()\000"
 881      42506F73 
 881      74416865 
 881      61645322 
 881      282900
 882 0053 00       		.space	1
 883              	.LC5:
 884 0054 2263684D 		.ascii	"\"chMBPostAheadI\"()\000"
 884      42506F73 
 884      74416865 
 884      61644922 
 884      282900
 885 0067 00       		.space	1
 886              	.LC6:
 887 0068 2263684D 		.ascii	"\"chMBFetchS\"()\000"
 887      42466574 
 887      63685322 
 887      282900
 888 0077 00       		.space	1
 889              	.LC7:
ARM GAS  /tmp/ccHxX4KX.s 			page 17


 890 0078 2263684D 		.ascii	"\"chMBFetchI\"()\000"
 890      42466574 
 890      63684922 
 890      282900
 891              		.text
 892              	.Letext0:
 893              		.file 2 "/home/z80/programs/sw4stm32/plugins/fr.ac6.mcu.externaltools.arm-none.linux32_1.7.0.20160
 894              		.file 3 "/home/z80/programs/sw4stm32/plugins/fr.ac6.mcu.externaltools.arm-none.linux32_1.7.0.20160
 895              		.file 4 "../../../os/ports/GCC/ARMCMx/chtypes.h"
 896              		.file 5 "../../../os/kernel/include/chlists.h"
 897              		.file 6 "../../../os/kernel/include/chthreads.h"
 898              		.file 7 "../../../os/ports/GCC/ARMCMx/chcore_v7m.h"
 899              		.file 8 "../../../os/kernel/include/chsem.h"
 900              		.file 9 "../../../os/kernel/include/chmtx.h"
 901              		.file 10 "../../../os/kernel/include/chmboxes.h"
 902              		.file 11 "../../../os/kernel/include/chdebug.h"
 903              		.file 12 "../../../os/kernel/include/chschd.h"