ARM GAS  /tmp/ccj0txlk.s 			page 1


   1              		.syntax unified
   2              		.cpu cortex-m4
   3              		.fpu softvfp
   4              		.eabi_attribute 20, 1
   5              		.eabi_attribute 21, 1
   6              		.eabi_attribute 23, 3
   7              		.eabi_attribute 24, 1
   8              		.eabi_attribute 25, 1
   9              		.eabi_attribute 26, 1
  10              		.eabi_attribute 30, 2
  11              		.eabi_attribute 34, 1
  12              		.eabi_attribute 18, 4
  13              		.thumb
  14              		.syntax unified
  15              		.file	"chmemcore.c"
  16              		.text
  17              	.Ltext0:
  18              		.cfi_sections	.debug_frame
  19              		.section	.text._core_init,"ax",%progbits
  20              		.align	2
  21              		.p2align 4,,15
  22              		.global	_core_init
  23              		.thumb
  24              		.thumb_func
  25              		.type	_core_init, %function
  26              	_core_init:
  27              	.LFB0:
  28              		.file 1 "../../../os/kernel/src/chmemcore.c"
  29              		.loc 1 66 0
  30              		.cfi_startproc
  31              		@ args = 0, pretend = 0, frame = 0
  32              		@ frame_needed = 0, uses_anonymous_args = 0
  33              		@ link register save eliminated.
  34              		.loc 1 70 0
  35 0000 054A     		ldr	r2, .L2
  36              		.loc 1 71 0
  37 0002 064B     		ldr	r3, .L2+4
  38              		.loc 1 70 0
  39 0004 0648     		ldr	r0, .L2+8
  40              		.loc 1 71 0
  41 0006 0749     		ldr	r1, .L2+12
  42              		.loc 1 70 0
  43 0008 22F00702 		bic	r2, r2, #7
  44              		.loc 1 71 0
  45 000c 23F00703 		bic	r3, r3, #7
  46              		.loc 1 70 0
  47 0010 0260     		str	r2, [r0]
  48              		.loc 1 71 0
  49 0012 0B60     		str	r3, [r1]
  50 0014 7047     		bx	lr
  51              	.L3:
  52 0016 00BF     		.align	2
  53              	.L2:
  54 0018 07000000 		.word	__heap_base__+7
  55 001c 00000000 		.word	__heap_end__
  56 0020 00000000 		.word	.LANCHOR0
  57 0024 00000000 		.word	.LANCHOR1
ARM GAS  /tmp/ccj0txlk.s 			page 2


  58              		.cfi_endproc
  59              	.LFE0:
  60              		.size	_core_init, .-_core_init
  61              		.section	.text.chCoreAlloc,"ax",%progbits
  62              		.align	2
  63              		.p2align 4,,15
  64              		.global	chCoreAlloc
  65              		.thumb
  66              		.thumb_func
  67              		.type	chCoreAlloc, %function
  68              	chCoreAlloc:
  69              	.LFB1:
  70              		.loc 1 91 0
  71              		.cfi_startproc
  72              		@ args = 0, pretend = 0, frame = 0
  73              		@ frame_needed = 0, uses_anonymous_args = 0
  74              	.LVL0:
  75 0000 10B5     		push	{r4, lr}
  76              		.cfi_def_cfa_offset 8
  77              		.cfi_offset 4, -8
  78              		.cfi_offset 14, -4
  79              		.loc 1 91 0
  80 0002 0446     		mov	r4, r0
  81              		.loc 1 94 0
  82              		.syntax unified
  83              	@ 94 "../../../os/kernel/src/chmemcore.c" 1
  84 0004 FFF7FEFF 		bl      _port_lock
  85              	@ 0 "" 2
  86              		.thumb
  87              		.syntax unified
  88 0008 FFF7FEFF 		bl	dbg_check_lock
  89              	.LVL1:
  90              	.LBB4:
  91              	.LBB5:
  92              		.loc 1 115 0
  93 000c FFF7FEFF 		bl	chDbgCheckClassI
  94              	.LVL2:
  95              		.loc 1 118 0
  96 0010 0949     		ldr	r1, .L9
  97 0012 0A4B     		ldr	r3, .L9+4
  98 0014 0868     		ldr	r0, [r1]
  99 0016 1A68     		ldr	r2, [r3]
 100              		.loc 1 117 0
 101 0018 E31D     		adds	r3, r4, #7
 102 001a 23F00703 		bic	r3, r3, #7
 103              	.LVL3:
 104              		.loc 1 118 0
 105 001e 121A     		subs	r2, r2, r0
 106 0020 9342     		cmp	r3, r2
 107              	.LVL4:
 108              		.loc 1 121 0
 109 0022 9DBF     		ittte	ls
 110 0024 1B18     		addls	r3, r3, r0
 111              	.LVL5:
 112 0026 0B60     		strls	r3, [r1]
 113              		.loc 1 122 0
 114 0028 0446     		movls	r4, r0
ARM GAS  /tmp/ccj0txlk.s 			page 3


 115              	.LVL6:
 116              		.loc 1 119 0
 117 002a 0024     		movhi	r4, #0
 118              	.LVL7:
 119              	.LBE5:
 120              	.LBE4:
 121              		.loc 1 96 0
 122 002c FFF7FEFF 		bl	dbg_check_unlock
 123              	.LVL8:
 124              		.syntax unified
 125              	@ 96 "../../../os/kernel/src/chmemcore.c" 1
 126 0030 FFF7FEFF 		bl      _port_unlock
 127              	@ 0 "" 2
 128              		.loc 1 98 0
 129              		.thumb
 130              		.syntax unified
 131 0034 2046     		mov	r0, r4
 132 0036 10BD     		pop	{r4, pc}
 133              	.L10:
 134              		.align	2
 135              	.L9:
 136 0038 00000000 		.word	.LANCHOR0
 137 003c 00000000 		.word	.LANCHOR1
 138              		.cfi_endproc
 139              	.LFE1:
 140              		.size	chCoreAlloc, .-chCoreAlloc
 141              		.section	.text.chCoreAllocI,"ax",%progbits
 142              		.align	2
 143              		.p2align 4,,15
 144              		.global	chCoreAllocI
 145              		.thumb
 146              		.thumb_func
 147              		.type	chCoreAllocI, %function
 148              	chCoreAllocI:
 149              	.LFB2:
 150              		.loc 1 112 0
 151              		.cfi_startproc
 152              		@ args = 0, pretend = 0, frame = 0
 153              		@ frame_needed = 0, uses_anonymous_args = 0
 154              	.LVL9:
 155 0000 10B5     		push	{r4, lr}
 156              		.cfi_def_cfa_offset 8
 157              		.cfi_offset 4, -8
 158              		.cfi_offset 14, -4
 159              		.loc 1 112 0
 160 0002 0446     		mov	r4, r0
 161              		.loc 1 115 0
 162 0004 FFF7FEFF 		bl	chDbgCheckClassI
 163              	.LVL10:
 164              		.loc 1 118 0
 165 0008 0649     		ldr	r1, .L15
 166 000a 074B     		ldr	r3, .L15+4
 167 000c 0868     		ldr	r0, [r1]
 168 000e 1A68     		ldr	r2, [r3]
 169              		.loc 1 117 0
 170 0010 E31D     		adds	r3, r4, #7
 171 0012 23F00703 		bic	r3, r3, #7
ARM GAS  /tmp/ccj0txlk.s 			page 4


 172              	.LVL11:
 173              		.loc 1 118 0
 174 0016 121A     		subs	r2, r2, r0
 175 0018 9342     		cmp	r3, r2
 176              	.LVL12:
 177              		.loc 1 121 0
 178 001a 9ABF     		itte	ls
 179 001c 1B18     		addls	r3, r3, r0
 180              	.LVL13:
 181 001e 0B60     		strls	r3, [r1]
 182              		.loc 1 119 0
 183 0020 0020     		movhi	r0, #0
 184              	.LVL14:
 185              		.loc 1 123 0
 186 0022 10BD     		pop	{r4, pc}
 187              	.LVL15:
 188              	.L16:
 189              		.align	2
 190              	.L15:
 191 0024 00000000 		.word	.LANCHOR0
 192 0028 00000000 		.word	.LANCHOR1
 193              		.cfi_endproc
 194              	.LFE2:
 195              		.size	chCoreAllocI, .-chCoreAllocI
 196              		.section	.text.chCoreStatus,"ax",%progbits
 197              		.align	2
 198              		.p2align 4,,15
 199              		.global	chCoreStatus
 200              		.thumb
 201              		.thumb_func
 202              		.type	chCoreStatus, %function
 203              	chCoreStatus:
 204              	.LFB3:
 205              		.loc 1 132 0
 206              		.cfi_startproc
 207              		@ args = 0, pretend = 0, frame = 0
 208              		@ frame_needed = 0, uses_anonymous_args = 0
 209              		@ link register save eliminated.
 210              		.loc 1 134 0
 211 0000 024A     		ldr	r2, .L18
 212 0002 034B     		ldr	r3, .L18+4
 213 0004 1068     		ldr	r0, [r2]
 214 0006 1B68     		ldr	r3, [r3]
 215              		.loc 1 135 0
 216 0008 C01A     		subs	r0, r0, r3
 217 000a 7047     		bx	lr
 218              	.L19:
 219              		.align	2
 220              	.L18:
 221 000c 00000000 		.word	.LANCHOR1
 222 0010 00000000 		.word	.LANCHOR0
 223              		.cfi_endproc
 224              	.LFE3:
 225              		.size	chCoreStatus, .-chCoreStatus
 226              		.section	.bss.endmem,"aw",%nobits
 227              		.align	2
 228              		.set	.LANCHOR1,. + 0
ARM GAS  /tmp/ccj0txlk.s 			page 5


 229              		.type	endmem, %object
 230              		.size	endmem, 4
 231              	endmem:
 232 0000 00000000 		.space	4
 233              		.section	.bss.nextmem,"aw",%nobits
 234              		.align	2
 235              		.set	.LANCHOR0,. + 0
 236              		.type	nextmem, %object
 237              		.size	nextmem, 4
 238              	nextmem:
 239 0000 00000000 		.space	4
 240              		.text
 241              	.Letext0:
 242              		.file 2 "/home/z80/programs/sw4stm32/plugins/fr.ac6.mcu.externaltools.arm-none.linux32_1.7.0.20160
 243              		.file 3 "/home/z80/programs/sw4stm32/plugins/fr.ac6.mcu.externaltools.arm-none.linux32_1.7.0.20160
 244              		.file 4 "/home/z80/programs/sw4stm32/plugins/fr.ac6.mcu.externaltools.arm-none.linux32_1.7.0.20160
 245              		.file 5 "../../../os/kernel/include/chdebug.h"