ARM GAS  /tmp/ccargGdo.s 			page 1


   1              		.syntax unified
   2              		.cpu cortex-m4
   3              		.fpu softvfp
   4              		.eabi_attribute 20, 1
   5              		.eabi_attribute 21, 1
   6              		.eabi_attribute 23, 3
   7              		.eabi_attribute 24, 1
   8              		.eabi_attribute 25, 1
   9              		.eabi_attribute 26, 1
  10              		.eabi_attribute 30, 2
  11              		.eabi_attribute 34, 1
  12              		.eabi_attribute 18, 4
  13              		.thumb
  14              		.syntax unified
  15              		.file	"chmempools.c"
  16              		.text
  17              	.Ltext0:
  18              		.cfi_sections	.debug_frame
  19              		.section	.text.chPoolInit,"ax",%progbits
  20              		.align	2
  21              		.p2align 4,,15
  22              		.global	chPoolInit
  23              		.thumb
  24              		.thumb_func
  25              		.type	chPoolInit, %function
  26              	chPoolInit:
  27              	.LFB0:
  28              		.file 1 "../../../os/kernel/src/chmempools.c"
  29              		.loc 1 62 0
  30              		.cfi_startproc
  31              		@ args = 0, pretend = 0, frame = 0
  32              		@ frame_needed = 0, uses_anonymous_args = 0
  33              	.LVL0:
  34 0000 70B5     		push	{r4, r5, r6, lr}
  35              		.cfi_def_cfa_offset 16
  36              		.cfi_offset 4, -16
  37              		.cfi_offset 5, -12
  38              		.cfi_offset 6, -8
  39              		.cfi_offset 14, -4
  40              		.loc 1 62 0
  41 0002 0D46     		mov	r5, r1
  42 0004 1646     		mov	r6, r2
  43              		.loc 1 64 0
  44 0006 0446     		mov	r4, r0
  45 0008 08B1     		cbz	r0, .L2
  46              		.loc 1 64 0 is_stmt 0 discriminator 2
  47 000a 0329     		cmp	r1, #3
  48 000c 02D8     		bhi	.L3
  49              	.L2:
  50              		.loc 1 64 0 discriminator 3
  51 000e 0348     		ldr	r0, .L9
  52              	.LVL1:
  53 0010 FFF7FEFF 		bl	chDbgPanic
  54              	.LVL2:
  55              	.L3:
  56              		.loc 1 66 0 is_stmt 1
  57 0014 0023     		movs	r3, #0
ARM GAS  /tmp/ccargGdo.s 			page 2


  58 0016 84E86800 		stmia	r4, {r3, r5, r6}
  59 001a 70BD     		pop	{r4, r5, r6, pc}
  60              	.LVL3:
  61              	.L10:
  62              		.align	2
  63              	.L9:
  64 001c 00000000 		.word	.LC0
  65              		.cfi_endproc
  66              	.LFE0:
  67              		.size	chPoolInit, .-chPoolInit
  68              		.section	.text.chPoolAllocI,"ax",%progbits
  69              		.align	2
  70              		.p2align 4,,15
  71              		.global	chPoolAllocI
  72              		.thumb
  73              		.thumb_func
  74              		.type	chPoolAllocI, %function
  75              	chPoolAllocI:
  76              	.LFB2:
  77              		.loc 1 105 0
  78              		.cfi_startproc
  79              		@ args = 0, pretend = 0, frame = 0
  80              		@ frame_needed = 0, uses_anonymous_args = 0
  81              	.LVL4:
  82 0000 10B5     		push	{r4, lr}
  83              		.cfi_def_cfa_offset 8
  84              		.cfi_offset 4, -8
  85              		.cfi_offset 14, -4
  86              		.loc 1 105 0
  87 0002 0446     		mov	r4, r0
  88              		.loc 1 108 0
  89 0004 FFF7FEFF 		bl	chDbgCheckClassI
  90              	.LVL5:
  91              		.loc 1 109 0
  92 0008 5CB1     		cbz	r4, .L19
  93              	.L12:
  94              		.loc 1 111 0
  95 000a 2068     		ldr	r0, [r4]
  96              	.LVL6:
  97 000c 10B1     		cbz	r0, .L13
  98              		.loc 1 112 0
  99 000e 0368     		ldr	r3, [r0]
 100 0010 2360     		str	r3, [r4]
 101 0012 10BD     		pop	{r4, pc}
 102              	.LVL7:
 103              	.L13:
 104              		.loc 1 113 0
 105 0014 A368     		ldr	r3, [r4, #8]
 106 0016 1BB1     		cbz	r3, .L14
 107              		.loc 1 114 0
 108 0018 6068     		ldr	r0, [r4, #4]
 109              	.LVL8:
 110              		.loc 1 116 0
 111 001a BDE81040 		pop	{r4, lr}
 112              		.cfi_remember_state
 113              		.cfi_restore 14
 114              		.cfi_restore 4
ARM GAS  /tmp/ccargGdo.s 			page 3


 115              		.cfi_def_cfa_offset 0
 116              	.LVL9:
 117              		.loc 1 114 0
 118 001e 1847     		bx	r3
 119              	.LVL10:
 120              	.L14:
 121              		.cfi_restore_state
 122              		.loc 1 116 0
 123 0020 10BD     		pop	{r4, pc}
 124              	.LVL11:
 125              	.L19:
 126              		.loc 1 109 0 discriminator 1
 127 0022 0248     		ldr	r0, .L20
 128 0024 FFF7FEFF 		bl	chDbgPanic
 129              	.LVL12:
 130 0028 EFE7     		b	.L12
 131              	.L21:
 132 002a 00BF     		.align	2
 133              	.L20:
 134 002c 10000000 		.word	.LC1
 135              		.cfi_endproc
 136              	.LFE2:
 137              		.size	chPoolAllocI, .-chPoolAllocI
 138              		.section	.text.chPoolAlloc,"ax",%progbits
 139              		.align	2
 140              		.p2align 4,,15
 141              		.global	chPoolAlloc
 142              		.thumb
 143              		.thumb_func
 144              		.type	chPoolAlloc, %function
 145              	chPoolAlloc:
 146              	.LFB3:
 147              		.loc 1 128 0
 148              		.cfi_startproc
 149              		@ args = 0, pretend = 0, frame = 0
 150              		@ frame_needed = 0, uses_anonymous_args = 0
 151              	.LVL13:
 152 0000 10B5     		push	{r4, lr}
 153              		.cfi_def_cfa_offset 8
 154              		.cfi_offset 4, -8
 155              		.cfi_offset 14, -4
 156              		.loc 1 128 0
 157 0002 0446     		mov	r4, r0
 158              		.loc 1 131 0
 159              		.syntax unified
 160              	@ 131 "../../../os/kernel/src/chmempools.c" 1
 161 0004 FFF7FEFF 		bl      _port_lock
 162              	@ 0 "" 2
 163              		.thumb
 164              		.syntax unified
 165 0008 FFF7FEFF 		bl	dbg_check_lock
 166              	.LVL14:
 167              		.loc 1 132 0
 168 000c 2046     		mov	r0, r4
 169 000e FFF7FEFF 		bl	chPoolAllocI
 170              	.LVL15:
 171 0012 0446     		mov	r4, r0
ARM GAS  /tmp/ccargGdo.s 			page 4


 172              	.LVL16:
 173              		.loc 1 133 0
 174 0014 FFF7FEFF 		bl	dbg_check_unlock
 175              	.LVL17:
 176              		.syntax unified
 177              	@ 133 "../../../os/kernel/src/chmempools.c" 1
 178 0018 FFF7FEFF 		bl      _port_unlock
 179              	@ 0 "" 2
 180              		.loc 1 135 0
 181              		.thumb
 182              		.syntax unified
 183 001c 2046     		mov	r0, r4
 184 001e 10BD     		pop	{r4, pc}
 185              		.cfi_endproc
 186              	.LFE3:
 187              		.size	chPoolAlloc, .-chPoolAlloc
 188              		.section	.text.chPoolFreeI,"ax",%progbits
 189              		.align	2
 190              		.p2align 4,,15
 191              		.global	chPoolFreeI
 192              		.thumb
 193              		.thumb_func
 194              		.type	chPoolFreeI, %function
 195              	chPoolFreeI:
 196              	.LFB4:
 197              		.loc 1 149 0
 198              		.cfi_startproc
 199              		@ args = 0, pretend = 0, frame = 0
 200              		@ frame_needed = 0, uses_anonymous_args = 0
 201              	.LVL18:
 202 0000 38B5     		push	{r3, r4, r5, lr}
 203              		.cfi_def_cfa_offset 16
 204              		.cfi_offset 3, -16
 205              		.cfi_offset 4, -12
 206              		.cfi_offset 5, -8
 207              		.cfi_offset 14, -4
 208              		.loc 1 149 0
 209 0002 0446     		mov	r4, r0
 210 0004 0D46     		mov	r5, r1
 211              	.LVL19:
 212              		.loc 1 152 0
 213 0006 FFF7FEFF 		bl	chDbgCheckClassI
 214              	.LVL20:
 215              		.loc 1 153 0
 216 000a 24B1     		cbz	r4, .L25
 217              		.loc 1 153 0 is_stmt 0 discriminator 2
 218 000c 1DB1     		cbz	r5, .L25
 219              		.loc 1 155 0 is_stmt 1
 220 000e 2368     		ldr	r3, [r4]
 221 0010 2B60     		str	r3, [r5]
 222              		.loc 1 156 0
 223 0012 2560     		str	r5, [r4]
 224 0014 38BD     		pop	{r3, r4, r5, pc}
 225              	.LVL21:
 226              	.L25:
 227              		.loc 1 153 0 discriminator 3
 228 0016 0348     		ldr	r0, .L31
ARM GAS  /tmp/ccargGdo.s 			page 5


 229 0018 FFF7FEFF 		bl	chDbgPanic
 230              	.LVL22:
 231              		.loc 1 155 0 discriminator 3
 232 001c 2368     		ldr	r3, [r4]
 233 001e 2B60     		str	r3, [r5]
 234              		.loc 1 156 0 discriminator 3
 235 0020 2560     		str	r5, [r4]
 236 0022 38BD     		pop	{r3, r4, r5, pc}
 237              	.LVL23:
 238              	.L32:
 239              		.align	2
 240              	.L31:
 241 0024 24000000 		.word	.LC2
 242              		.cfi_endproc
 243              	.LFE4:
 244              		.size	chPoolFreeI, .-chPoolFreeI
 245              		.section	.text.chPoolFree,"ax",%progbits
 246              		.align	2
 247              		.p2align 4,,15
 248              		.global	chPoolFree
 249              		.thumb
 250              		.thumb_func
 251              		.type	chPoolFree, %function
 252              	chPoolFree:
 253              	.LFB5:
 254              		.loc 1 171 0
 255              		.cfi_startproc
 256              		@ args = 0, pretend = 0, frame = 0
 257              		@ frame_needed = 0, uses_anonymous_args = 0
 258              	.LVL24:
 259 0000 38B5     		push	{r3, r4, r5, lr}
 260              		.cfi_def_cfa_offset 16
 261              		.cfi_offset 3, -16
 262              		.cfi_offset 4, -12
 263              		.cfi_offset 5, -8
 264              		.cfi_offset 14, -4
 265              		.loc 1 171 0
 266 0002 0446     		mov	r4, r0
 267 0004 0D46     		mov	r5, r1
 268              		.loc 1 173 0
 269              		.syntax unified
 270              	@ 173 "../../../os/kernel/src/chmempools.c" 1
 271 0006 FFF7FEFF 		bl      _port_lock
 272              	@ 0 "" 2
 273              		.thumb
 274              		.syntax unified
 275 000a FFF7FEFF 		bl	dbg_check_lock
 276              	.LVL25:
 277              		.loc 1 174 0
 278 000e 2946     		mov	r1, r5
 279 0010 2046     		mov	r0, r4
 280 0012 FFF7FEFF 		bl	chPoolFreeI
 281              	.LVL26:
 282              		.loc 1 175 0
 283 0016 FFF7FEFF 		bl	dbg_check_unlock
 284              	.LVL27:
 285              		.syntax unified
ARM GAS  /tmp/ccargGdo.s 			page 6


 286              	@ 175 "../../../os/kernel/src/chmempools.c" 1
 287 001a FFF7FEFF 		bl      _port_unlock
 288              	@ 0 "" 2
 289              		.thumb
 290              		.syntax unified
 291 001e 38BD     		pop	{r3, r4, r5, pc}
 292              		.cfi_endproc
 293              	.LFE5:
 294              		.size	chPoolFree, .-chPoolFree
 295              		.section	.text.chPoolLoadArray,"ax",%progbits
 296              		.align	2
 297              		.p2align 4,,15
 298              		.global	chPoolLoadArray
 299              		.thumb
 300              		.thumb_func
 301              		.type	chPoolLoadArray, %function
 302              	chPoolLoadArray:
 303              	.LFB1:
 304              		.loc 1 84 0
 305              		.cfi_startproc
 306              		@ args = 0, pretend = 0, frame = 0
 307              		@ frame_needed = 0, uses_anonymous_args = 0
 308              	.LVL28:
 309 0000 70B5     		push	{r4, r5, r6, lr}
 310              		.cfi_def_cfa_offset 16
 311              		.cfi_offset 4, -16
 312              		.cfi_offset 5, -12
 313              		.cfi_offset 6, -8
 314              		.cfi_offset 14, -4
 315              		.loc 1 84 0
 316 0002 0D46     		mov	r5, r1
 317 0004 1446     		mov	r4, r2
 318              		.loc 1 86 0
 319 0006 0646     		mov	r6, r0
 320 0008 28B1     		cbz	r0, .L36
 321              		.loc 1 86 0 is_stmt 0 discriminator 2
 322 000a 42B9     		cbnz	r2, .L38
 323              		.loc 1 86 0
 324 000c 0948     		ldr	r0, .L43
 325              	.LVL29:
 326              		.loc 1 93 0 is_stmt 1
 327 000e BDE87040 		pop	{r4, r5, r6, lr}
 328              		.cfi_remember_state
 329              		.cfi_restore 14
 330              		.cfi_restore 6
 331              		.cfi_restore 5
 332              		.cfi_restore 4
 333              		.cfi_def_cfa_offset 0
 334              	.LVL30:
 335              		.loc 1 86 0
 336 0012 FFF7FEBF 		b	chDbgPanic
 337              	.LVL31:
 338              	.L36:
 339              		.cfi_restore_state
 340              		.loc 1 86 0 is_stmt 0 discriminator 3
 341 0016 0748     		ldr	r0, .L43
 342              	.LVL32:
ARM GAS  /tmp/ccargGdo.s 			page 7


 343 0018 FFF7FEFF 		bl	chDbgPanic
 344              	.LVL33:
 345              		.loc 1 88 0 is_stmt 1 discriminator 3
 346 001c 44B1     		cbz	r4, .L35
 347              	.LVL34:
 348              	.L38:
 349              		.loc 1 89 0
 350 001e 2946     		mov	r1, r5
 351 0020 3046     		mov	r0, r6
 352 0022 FFF7FEFF 		bl	chPoolFree
 353              	.LVL35:
 354              		.loc 1 90 0
 355 0026 7368     		ldr	r3, [r6, #4]
 356              		.loc 1 88 0
 357 0028 013C     		subs	r4, r4, #1
 358              	.LVL36:
 359              		.loc 1 90 0
 360 002a 1D44     		add	r5, r5, r3
 361              	.LVL37:
 362              		.loc 1 88 0
 363 002c F7D1     		bne	.L38
 364 002e 70BD     		pop	{r4, r5, r6, pc}
 365              	.LVL38:
 366              	.L35:
 367 0030 70BD     		pop	{r4, r5, r6, pc}
 368              	.LVL39:
 369              	.L44:
 370 0032 00BF     		.align	2
 371              	.L43:
 372 0034 34000000 		.word	.LC3
 373              		.cfi_endproc
 374              	.LFE1:
 375              		.size	chPoolLoadArray, .-chPoolLoadArray
 376              		.section	.rodata.str1.4,"aMS",%progbits,1
 377              		.align	2
 378              	.LC0:
 379 0000 22636850 		.ascii	"\"chPoolInit\"()\000"
 379      6F6F6C49 
 379      6E697422 
 379      282900
 380 000f 00       		.space	1
 381              	.LC1:
 382 0010 22636850 		.ascii	"\"chPoolAllocI\"()\000"
 382      6F6F6C41 
 382      6C6C6F63 
 382      49222829 
 382      00
 383 0021 000000   		.space	3
 384              	.LC2:
 385 0024 22636850 		.ascii	"\"chPoolFreeI\"()\000"
 385      6F6F6C46 
 385      72656549 
 385      22282900 
 386              	.LC3:
 387 0034 22636850 		.ascii	"\"chPoolLoadArray\"()\000"
 387      6F6F6C4C 
 387      6F616441 
ARM GAS  /tmp/ccargGdo.s 			page 8


 387      72726179 
 387      22282900 
 388              		.text
 389              	.Letext0:
 390              		.file 2 "/home/z80/programs/sw4stm32/plugins/fr.ac6.mcu.externaltools.arm-none.linux32_1.7.0.20160
 391              		.file 3 "/home/z80/programs/sw4stm32/plugins/fr.ac6.mcu.externaltools.arm-none.linux32_1.7.0.20160
 392              		.file 4 "/home/z80/programs/sw4stm32/plugins/fr.ac6.mcu.externaltools.arm-none.linux32_1.7.0.20160
 393              		.file 5 "../../../os/kernel/include/chmemcore.h"
 394              		.file 6 "../../../os/kernel/include/chmempools.h"
 395              		.file 7 "../../../os/kernel/include/chdebug.h"