ARM GAS  /tmp/ccjg8TOi.s 			page 1


   1              		.syntax unified
   2              		.cpu cortex-m4
   3              		.fpu softvfp
   4              		.eabi_attribute 20, 1
   5              		.eabi_attribute 21, 1
   6              		.eabi_attribute 23, 3
   7              		.eabi_attribute 24, 1
   8              		.eabi_attribute 25, 1
   9              		.eabi_attribute 26, 1
  10              		.eabi_attribute 30, 2
  11              		.eabi_attribute 34, 1
  12              		.eabi_attribute 18, 4
  13              		.thumb
  14              		.syntax unified
  15              		.file	"chregistry.c"
  16              		.text
  17              	.Ltext0:
  18              		.cfi_sections	.debug_frame
  19              		.section	.text.chRegFirstThread,"ax",%progbits
  20              		.align	2
  21              		.p2align 4,,15
  22              		.global	chRegFirstThread
  23              		.thumb
  24              		.thumb_func
  25              		.type	chRegFirstThread, %function
  26              	chRegFirstThread:
  27              	.LFB0:
  28              		.file 1 "../../../os/kernel/src/chregistry.c"
  29              		.loc 1 117 0
  30              		.cfi_startproc
  31              		@ args = 0, pretend = 0, frame = 0
  32              		@ frame_needed = 0, uses_anonymous_args = 0
  33 0000 10B5     		push	{r4, lr}
  34              		.cfi_def_cfa_offset 8
  35              		.cfi_offset 4, -8
  36              		.cfi_offset 14, -4
  37              		.loc 1 120 0
  38              		.syntax unified
  39              	@ 120 "../../../os/kernel/src/chregistry.c" 1
  40 0002 FFF7FEFF 		bl      _port_lock
  41              	@ 0 "" 2
  42              		.thumb
  43              		.syntax unified
  44 0006 FFF7FEFF 		bl	dbg_check_lock
  45              	.LVL0:
  46              		.loc 1 121 0
  47 000a 044B     		ldr	r3, .L3
  48 000c 1C69     		ldr	r4, [r3, #16]
  49              	.LVL1:
  50              		.loc 1 125 0
  51 000e FFF7FEFF 		bl	dbg_check_unlock
  52              	.LVL2:
  53              		.syntax unified
  54              	@ 125 "../../../os/kernel/src/chregistry.c" 1
  55 0012 FFF7FEFF 		bl      _port_unlock
  56              	@ 0 "" 2
  57              		.loc 1 127 0
ARM GAS  /tmp/ccjg8TOi.s 			page 2


  58              		.thumb
  59              		.syntax unified
  60 0016 2046     		mov	r0, r4
  61 0018 10BD     		pop	{r4, pc}
  62              	.LVL3:
  63              	.L4:
  64 001a 00BF     		.align	2
  65              	.L3:
  66 001c 00000000 		.word	rlist
  67              		.cfi_endproc
  68              	.LFE0:
  69              		.size	chRegFirstThread, .-chRegFirstThread
  70              		.section	.text.chRegNextThread,"ax",%progbits
  71              		.align	2
  72              		.p2align 4,,15
  73              		.global	chRegNextThread
  74              		.thumb
  75              		.thumb_func
  76              		.type	chRegNextThread, %function
  77              	chRegNextThread:
  78              	.LFB1:
  79              		.loc 1 140 0
  80              		.cfi_startproc
  81              		@ args = 0, pretend = 0, frame = 0
  82              		@ frame_needed = 0, uses_anonymous_args = 0
  83              	.LVL4:
  84 0000 10B5     		push	{r4, lr}
  85              		.cfi_def_cfa_offset 8
  86              		.cfi_offset 4, -8
  87              		.cfi_offset 14, -4
  88              		.loc 1 140 0
  89 0002 0446     		mov	r4, r0
  90              		.loc 1 143 0
  91              		.syntax unified
  92              	@ 143 "../../../os/kernel/src/chregistry.c" 1
  93 0004 FFF7FEFF 		bl      _port_lock
  94              	@ 0 "" 2
  95              		.thumb
  96              		.syntax unified
  97 0008 FFF7FEFF 		bl	dbg_check_lock
  98              	.LVL5:
  99              		.loc 1 145 0
 100 000c 054B     		ldr	r3, .L8
 101              		.loc 1 144 0
 102 000e 2469     		ldr	r4, [r4, #16]
 103              	.LVL6:
 104              		.loc 1 146 0
 105 0010 9C42     		cmp	r4, r3
 106 0012 08BF     		it	eq
 107 0014 0024     		moveq	r4, #0
 108              	.LVL7:
 109              		.loc 1 154 0
 110 0016 FFF7FEFF 		bl	dbg_check_unlock
 111              	.LVL8:
 112              		.syntax unified
 113              	@ 154 "../../../os/kernel/src/chregistry.c" 1
 114 001a FFF7FEFF 		bl      _port_unlock
ARM GAS  /tmp/ccjg8TOi.s 			page 3


 115              	@ 0 "" 2
 116              		.loc 1 159 0
 117              		.thumb
 118              		.syntax unified
 119 001e 2046     		mov	r0, r4
 120 0020 10BD     		pop	{r4, pc}
 121              	.LVL9:
 122              	.L9:
 123 0022 00BF     		.align	2
 124              	.L8:
 125 0024 00000000 		.word	rlist
 126              		.cfi_endproc
 127              	.LFE1:
 128              		.size	chRegNextThread, .-chRegNextThread
 129              		.global	ch_debug
 130              		.section	.rodata.ch_debug,"a",%progbits
 131              		.align	2
 132              		.type	ch_debug, %object
 133              		.size	ch_debug, 22
 134              	ch_debug:
 135 0000 6D61696E 		.ascii	"main"
 136 0004 00       		.byte	0
 137 0005 16       		.byte	22
 138 0006 8411     		.short	4484
 139 0008 04       		.byte	4
 140 0009 04       		.byte	4
 141 000a 48       		.byte	72
 142 000b 08       		.byte	8
 143 000c 0C       		.byte	12
 144 000d 10       		.byte	16
 145 000e 14       		.byte	20
 146 000f 18       		.byte	24
 147 0010 1C       		.byte	28
 148 0011 20       		.byte	32
 149 0012 21       		.byte	33
 150 0013 00       		.byte	0
 151 0014 00       		.byte	0
 152 0015 24       		.byte	36
 153              		.text
 154              	.Letext0:
 155              		.file 2 "/home/z80/programs/sw4stm32/plugins/fr.ac6.mcu.externaltools.arm-none.linux32_1.7.0.20160
 156              		.file 3 "/home/z80/programs/sw4stm32/plugins/fr.ac6.mcu.externaltools.arm-none.linux32_1.7.0.20160
 157              		.file 4 "/home/z80/programs/sw4stm32/plugins/fr.ac6.mcu.externaltools.arm-none.linux32_1.7.0.20160
 158              		.file 5 "../../../os/ports/GCC/ARMCMx/chtypes.h"
 159              		.file 6 "../../../os/kernel/include/chlists.h"
 160              		.file 7 "../../../os/kernel/include/chthreads.h"
 161              		.file 8 "../../../os/ports/GCC/ARMCMx/chcore_v7m.h"
 162              		.file 9 "../../../os/kernel/include/chschd.h"
 163              		.file 10 "../../../os/kernel/include/chmtx.h"
 164              		.file 11 "../../../os/kernel/include/chregistry.h"
 165              		.file 12 "../../../os/kernel/include/chdebug.h"