ARM GAS  /tmp/ccZb8Ef3.s 			page 1


   1              		.syntax unified
   2              		.cpu cortex-m4
   3              		.fpu softvfp
   4              		.eabi_attribute 20, 1
   5              		.eabi_attribute 21, 1
   6              		.eabi_attribute 23, 3
   7              		.eabi_attribute 24, 1
   8              		.eabi_attribute 25, 1
   9              		.eabi_attribute 26, 1
  10              		.eabi_attribute 30, 2
  11              		.eabi_attribute 34, 1
  12              		.eabi_attribute 18, 4
  13              		.thumb
  14              		.syntax unified
  15              		.file	"chsys.c"
  16              		.text
  17              	.Ltext0:
  18              		.cfi_sections	.debug_frame
  19              		.section	.text._idle_thread,"ax",%progbits
  20              		.align	2
  21              		.p2align 4,,15
  22              		.global	_idle_thread
  23              		.thumb
  24              		.thumb_func
  25              		.type	_idle_thread, %function
  26              	_idle_thread:
  27              	.LFB0:
  28              		.file 1 "../../../os/kernel/src/chsys.c"
  29              		.loc 1 61 0
  30              		.cfi_startproc
  31              		@ Volatile: function does not return.
  32              		@ args = 0, pretend = 0, frame = 0
  33              		@ frame_needed = 0, uses_anonymous_args = 0
  34              		@ link register save eliminated.
  35              	.LVL0:
  36              		.loc 1 64 0
  37 0000 024B     		ldr	r3, .L4
  38 0002 034A     		ldr	r2, .L4+4
  39 0004 9B69     		ldr	r3, [r3, #24]
  40 0006 9A61     		str	r2, [r3, #24]
  41              	.L2:
  42 0008 FEE7     		b	.L2
  43              	.L5:
  44 000a 00BF     		.align	2
  45              	.L4:
  46 000c 00000000 		.word	rlist
  47 0010 00000000 		.word	.LC0
  48              		.cfi_endproc
  49              	.LFE0:
  50              		.size	_idle_thread, .-_idle_thread
  51              		.section	.text.chSysInit,"ax",%progbits
  52              		.align	2
  53              		.p2align 4,,15
  54              		.global	chSysInit
  55              		.thumb
  56              		.thumb_func
  57              		.type	chSysInit, %function
ARM GAS  /tmp/ccZb8Ef3.s 			page 2


  58              	chSysInit:
  59              	.LFB1:
  60              		.loc 1 84 0
  61              		.cfi_startproc
  62              		@ args = 0, pretend = 0, frame = 0
  63              		@ frame_needed = 0, uses_anonymous_args = 0
  64 0000 30B5     		push	{r4, r5, lr}
  65              		.cfi_def_cfa_offset 12
  66              		.cfi_offset 4, -12
  67              		.cfi_offset 5, -8
  68              		.cfi_offset 14, -4
  69 0002 83B0     		sub	sp, sp, #12
  70              		.cfi_def_cfa_offset 24
  71              		.loc 1 90 0
  72 0004 FFF7FEFF 		bl	_port_init
  73              	.LVL1:
  74              		.loc 1 91 0
  75 0008 FFF7FEFF 		bl	_scheduler_init
  76              	.LVL2:
  77              		.loc 1 92 0
  78 000c FFF7FEFF 		bl	_vt_init
  79              	.LVL3:
  80              		.loc 1 94 0
  81 0010 FFF7FEFF 		bl	_core_init
  82              	.LVL4:
  83              		.loc 1 100 0
  84 0014 FFF7FEFF 		bl	_trace_init
  85              	.LVL5:
  86              		.loc 1 104 0
  87 0018 4021     		movs	r1, #64
  88 001a 0E48     		ldr	r0, .L8
  89 001c 0E4D     		ldr	r5, .L8+4
  90 001e FFF7FEFF 		bl	_thread_init
  91              	.LVL6:
  92              		.loc 1 105 0
  93 0022 0124     		movs	r4, #1
  94              		.loc 1 109 0
  95 0024 0D4B     		ldr	r3, .L8+8
  96 0026 C361     		str	r3, [r0, #28]
  97              		.loc 1 105 0
  98 0028 80F82040 		strb	r4, [r0, #32]
  99              		.loc 1 104 0
 100 002c A861     		str	r0, [r5, #24]
 101              		.loc 1 111 0
 102 002e FFF7FEFF 		bl	dbg_check_enable
 103              	.LVL7:
 104              	.LBB2:
 105 0032 0023     		movs	r3, #0
 106              		.syntax unified
 107              	@ 111 "../../../os/kernel/src/chsys.c" 1
 108 0034 83F31188 		msr     BASEPRI, r3                    
 109 0038 62B6     		cpsie   i
 110              	@ 0 "" 2
 111              		.thumb
 112              		.syntax unified
 113              	.LBE2:
 114              		.loc 1 115 0
ARM GAS  /tmp/ccZb8Ef3.s 			page 3


 115 003a AA69     		ldr	r2, [r5, #24]
 116 003c 0849     		ldr	r1, .L8+12
 117 003e 9161     		str	r1, [r2, #24]
 118              		.loc 1 121 0
 119 0040 0848     		ldr	r0, .L8+16
 120 0042 0093     		str	r3, [sp]
 121 0044 2246     		mov	r2, r4
 122 0046 084B     		ldr	r3, .L8+20
 123 0048 E021     		movs	r1, #224
 124 004a FFF7FEFF 		bl	chThdCreateStatic
 125              	.LVL8:
 126              		.loc 1 124 0
 127 004e 03B0     		add	sp, sp, #12
 128              		.cfi_def_cfa_offset 12
 129              		@ sp needed
 130 0050 30BD     		pop	{r4, r5, pc}
 131              	.L9:
 132 0052 00BF     		.align	2
 133              	.L8:
 134 0054 00000000 		.word	.LANCHOR0
 135 0058 00000000 		.word	rlist
 136 005c 00000000 		.word	__main_thread_stack_base__
 137 0060 00000000 		.word	ch_debug
 138 0064 00000000 		.word	.LANCHOR1
 139 0068 00000000 		.word	_idle_thread
 140              		.cfi_endproc
 141              	.LFE1:
 142              		.size	chSysInit, .-chSysInit
 143              		.section	.text.chSysTimerHandlerI,"ax",%progbits
 144              		.align	2
 145              		.p2align 4,,15
 146              		.global	chSysTimerHandlerI
 147              		.thumb
 148              		.thumb_func
 149              		.type	chSysTimerHandlerI, %function
 150              	chSysTimerHandlerI:
 151              	.LFB2:
 152              		.loc 1 137 0
 153              		.cfi_startproc
 154              		@ args = 0, pretend = 0, frame = 0
 155              		@ frame_needed = 0, uses_anonymous_args = 0
 156 0000 F8B5     		push	{r3, r4, r5, r6, r7, lr}
 157              		.cfi_def_cfa_offset 24
 158              		.cfi_offset 3, -24
 159              		.cfi_offset 4, -20
 160              		.cfi_offset 5, -16
 161              		.cfi_offset 6, -12
 162              		.cfi_offset 7, -8
 163              		.cfi_offset 14, -4
 164              		.loc 1 139 0
 165 0002 FFF7FEFF 		bl	chDbgCheckClassI
 166              	.LVL9:
 167              		.loc 1 148 0
 168 0006 124B     		ldr	r3, .L17
 169              		.loc 1 150 0
 170 0008 124D     		ldr	r5, .L17+4
 171              		.loc 1 148 0
ARM GAS  /tmp/ccZb8Ef3.s 			page 4


 172 000a 9A69     		ldr	r2, [r3, #24]
 173              		.loc 1 150 0
 174 000c 2C68     		ldr	r4, [r5]
 175              		.loc 1 148 0
 176 000e 536A     		ldr	r3, [r2, #36]
 177 0010 0133     		adds	r3, r3, #1
 178 0012 5362     		str	r3, [r2, #36]
 179              		.loc 1 150 0
 180 0014 EB68     		ldr	r3, [r5, #12]
 181 0016 AC42     		cmp	r4, r5
 182 0018 03F10103 		add	r3, r3, #1
 183 001c EB60     		str	r3, [r5, #12]
 184 001e 16D0     		beq	.L10
 185              	.LBB3:
 186              		.loc 1 150 0 is_stmt 0 discriminator 1
 187 0020 A768     		ldr	r7, [r4, #8]
 188 0022 013F     		subs	r7, r7, #1
 189 0024 A760     		str	r7, [r4, #8]
 190              	.LVL10:
 191 0026 97B9     		cbnz	r7, .L10
 192              	.L13:
 193              	.LBB4:
 194              		.loc 1 150 0 discriminator 4
 195 0028 2368     		ldr	r3, [r4]
 196 002a E668     		ldr	r6, [r4, #12]
 197              	.LVL11:
 198 002c E760     		str	r7, [r4, #12]
 199 002e 5D60     		str	r5, [r3, #4]
 200 0030 2B60     		str	r3, [r5]
 201 0032 FFF7FEFF 		bl	dbg_check_unlock_from_isr
 202              	.LVL12:
 203              		.syntax unified
 204              	@ 150 "../../../os/kernel/src/chsys.c" 1
 205 0036 FFF7FEFF 		bl      _port_unlock
 206              	@ 0 "" 2
 207              		.thumb
 208              		.syntax unified
 209 003a 2069     		ldr	r0, [r4, #16]
 210 003c B047     		blx	r6
 211              	.LVL13:
 212              		.syntax unified
 213              	@ 150 "../../../os/kernel/src/chsys.c" 1
 214 003e FFF7FEFF 		bl      _port_lock
 215              	@ 0 "" 2
 216              		.thumb
 217              		.syntax unified
 218 0042 FFF7FEFF 		bl	dbg_check_lock_from_isr
 219              	.LVL14:
 220              	.LBE4:
 221 0046 2C68     		ldr	r4, [r5]
 222              	.LVL15:
 223 0048 A368     		ldr	r3, [r4, #8]
 224 004a 002B     		cmp	r3, #0
 225 004c ECD0     		beq	.L13
 226              	.LVL16:
 227              	.L10:
 228 004e F8BD     		pop	{r3, r4, r5, r6, r7, pc}
ARM GAS  /tmp/ccZb8Ef3.s 			page 5


 229              	.L18:
 230              		.align	2
 231              	.L17:
 232 0050 00000000 		.word	rlist
 233 0054 00000000 		.word	vtlist
 234              	.LBE3:
 235              		.cfi_endproc
 236              	.LFE2:
 237              		.size	chSysTimerHandlerI, .-chSysTimerHandlerI
 238              		.global	_idle_thread_wa
 239              		.section	.bss.mainthread.4865,"aw",%nobits
 240              		.align	2
 241              		.set	.LANCHOR0,. + 0
 242              		.type	mainthread.4865, %object
 243              		.size	mainthread.4865, 72
 244              	mainthread.4865:
 245 0000 00000000 		.space	72
 245      00000000 
 245      00000000 
 245      00000000 
 245      00000000 
 246              		.section	.rodata.str1.4,"aMS",%progbits,1
 247              		.align	2
 248              	.LC0:
 249 0000 69646C65 		.ascii	"idle\000"
 249      00
 250              		.section	.bss._idle_thread_wa,"aw",%nobits
 251              		.align	3
 252              		.set	.LANCHOR1,. + 0
 253              		.type	_idle_thread_wa, %object
 254              		.size	_idle_thread_wa, 224
 255              	_idle_thread_wa:
 256 0000 00000000 		.space	224
 256      00000000 
 256      00000000 
 256      00000000 
 256      00000000 
 257              		.text
 258              	.Letext0:
 259              		.file 2 "/home/z80/programs/sw4stm32/plugins/fr.ac6.mcu.externaltools.arm-none.linux32_1.7.0.20160
 260              		.file 3 "/home/z80/programs/sw4stm32/plugins/fr.ac6.mcu.externaltools.arm-none.linux32_1.7.0.20160
 261              		.file 4 "../../../os/ports/GCC/ARMCMx/chtypes.h"
 262              		.file 5 "../../../os/kernel/include/chlists.h"
 263              		.file 6 "../../../os/kernel/include/chthreads.h"
 264              		.file 7 "../../../os/ports/GCC/ARMCMx/chcore_v7m.h"
 265              		.file 8 "../../../os/kernel/include/chvt.h"
 266              		.file 9 "../../../os/kernel/include/chschd.h"
 267              		.file 10 "../../../os/kernel/include/chmtx.h"
 268              		.file 11 "../../../os/kernel/include/chregistry.h"
 269              		.file 12 "../../../os/kernel/include/chmemcore.h"
 270              		.file 13 "../../../os/kernel/include/chdebug.h"