ARM GAS  /tmp/ccteddTh.s 			page 1


   1              		.syntax unified
   2              		.cpu cortex-m4
   3              		.fpu softvfp
   4              		.eabi_attribute 20, 1
   5              		.eabi_attribute 21, 1
   6              		.eabi_attribute 23, 3
   7              		.eabi_attribute 24, 1
   8              		.eabi_attribute 25, 1
   9              		.eabi_attribute 26, 1
  10              		.eabi_attribute 30, 2
  11              		.eabi_attribute 34, 1
  12              		.eabi_attribute 18, 4
  13              		.thumb
  14              		.syntax unified
  15              		.file	"ext.c"
  16              		.text
  17              	.Ltext0:
  18              		.cfi_sections	.debug_frame
  19              		.section	.text.extInit,"ax",%progbits
  20              		.align	2
  21              		.p2align 4,,15
  22              		.global	extInit
  23              		.thumb
  24              		.thumb_func
  25              		.type	extInit, %function
  26              	extInit:
  27              	.LFB111:
  28              		.file 1 "../../../os/hal/src/ext.c"
  29              		.loc 1 68 0
  30              		.cfi_startproc
  31              		@ args = 0, pretend = 0, frame = 0
  32              		@ frame_needed = 0, uses_anonymous_args = 0
  33              		@ link register save eliminated.
  34              		.loc 1 70 0
  35 0000 FFF7FEBF 		b	ext_lld_init
  36              	.LVL0:
  37              		.cfi_endproc
  38              	.LFE111:
  39              		.size	extInit, .-extInit
  40              		.section	.text.extObjectInit,"ax",%progbits
  41              		.align	2
  42              		.p2align 4,,15
  43              		.global	extObjectInit
  44              		.thumb
  45              		.thumb_func
  46              		.type	extObjectInit, %function
  47              	extObjectInit:
  48              	.LFB112:
  49              		.loc 1 80 0
  50              		.cfi_startproc
  51              		@ args = 0, pretend = 0, frame = 0
  52              		@ frame_needed = 0, uses_anonymous_args = 0
  53              		@ link register save eliminated.
  54              	.LVL1:
  55              		.loc 1 82 0
  56 0000 0122     		movs	r2, #1
  57              		.loc 1 83 0
ARM GAS  /tmp/ccteddTh.s 			page 2


  58 0002 0023     		movs	r3, #0
  59              		.loc 1 82 0
  60 0004 0270     		strb	r2, [r0]
  61              		.loc 1 83 0
  62 0006 4360     		str	r3, [r0, #4]
  63 0008 7047     		bx	lr
  64              		.cfi_endproc
  65              	.LFE112:
  66              		.size	extObjectInit, .-extObjectInit
  67 000a 00BF     		.section	.text.extStart,"ax",%progbits
  68              		.align	2
  69              		.p2align 4,,15
  70              		.global	extStart
  71              		.thumb
  72              		.thumb_func
  73              		.type	extStart, %function
  74              	extStart:
  75              	.LFB113:
  76              		.loc 1 96 0
  77              		.cfi_startproc
  78              		@ args = 0, pretend = 0, frame = 0
  79              		@ frame_needed = 0, uses_anonymous_args = 0
  80              	.LVL2:
  81 0000 38B5     		push	{r3, r4, r5, lr}
  82              		.cfi_def_cfa_offset 16
  83              		.cfi_offset 3, -16
  84              		.cfi_offset 4, -12
  85              		.cfi_offset 5, -8
  86              		.cfi_offset 14, -4
  87              		.loc 1 96 0
  88 0002 0D46     		mov	r5, r1
  89              		.loc 1 98 0
  90 0004 0446     		mov	r4, r0
  91 0006 B0B1     		cbz	r0, .L4
  92              		.loc 1 98 0 is_stmt 0 discriminator 2
  93 0008 A9B1     		cbz	r1, .L4
  94              	.LVL3:
  95              	.L5:
  96              		.loc 1 100 0 is_stmt 1
  97              		.syntax unified
  98              	@ 100 "../../../os/hal/src/ext.c" 1
  99 000a FFF7FEFF 		bl      _port_lock
 100              	@ 0 "" 2
 101              		.thumb
 102              		.syntax unified
 103 000e FFF7FEFF 		bl	dbg_check_lock
 104              	.LVL4:
 105              		.loc 1 101 0
 106 0012 2378     		ldrb	r3, [r4]	@ zero_extendqisi2
 107 0014 013B     		subs	r3, r3, #1
 108 0016 012B     		cmp	r3, #1
 109 0018 02D9     		bls	.L6
 110              		.loc 1 101 0 is_stmt 0 discriminator 1
 111 001a 0948     		ldr	r0, .L12
 112 001c FFF7FEFF 		bl	chDbgPanic
 113              	.LVL5:
 114              	.L6:
ARM GAS  /tmp/ccteddTh.s 			page 3


 115              		.loc 1 104 0 is_stmt 1
 116 0020 2046     		mov	r0, r4
 117              		.loc 1 103 0
 118 0022 6560     		str	r5, [r4, #4]
 119              		.loc 1 104 0
 120 0024 FFF7FEFF 		bl	ext_lld_start
 121              	.LVL6:
 122              		.loc 1 105 0
 123 0028 0223     		movs	r3, #2
 124 002a 2370     		strb	r3, [r4]
 125              		.loc 1 106 0
 126 002c FFF7FEFF 		bl	dbg_check_unlock
 127              	.LVL7:
 128              		.syntax unified
 129              	@ 106 "../../../os/hal/src/ext.c" 1
 130 0030 FFF7FEFF 		bl      _port_unlock
 131              	@ 0 "" 2
 132              		.thumb
 133              		.syntax unified
 134 0034 38BD     		pop	{r3, r4, r5, pc}
 135              	.LVL8:
 136              	.L4:
 137              		.loc 1 98 0 discriminator 3
 138 0036 0348     		ldr	r0, .L12+4
 139              	.LVL9:
 140 0038 FFF7FEFF 		bl	chDbgPanic
 141              	.LVL10:
 142 003c E5E7     		b	.L5
 143              	.L13:
 144 003e 00BF     		.align	2
 145              	.L12:
 146 0040 10000000 		.word	.LC1
 147 0044 00000000 		.word	.LC0
 148              		.cfi_endproc
 149              	.LFE113:
 150              		.size	extStart, .-extStart
 151              		.section	.text.extStop,"ax",%progbits
 152              		.align	2
 153              		.p2align 4,,15
 154              		.global	extStop
 155              		.thumb
 156              		.thumb_func
 157              		.type	extStop, %function
 158              	extStop:
 159              	.LFB114:
 160              		.loc 1 116 0
 161              		.cfi_startproc
 162              		@ args = 0, pretend = 0, frame = 0
 163              		@ frame_needed = 0, uses_anonymous_args = 0
 164              	.LVL11:
 165 0000 10B5     		push	{r4, lr}
 166              		.cfi_def_cfa_offset 8
 167              		.cfi_offset 4, -8
 168              		.cfi_offset 14, -4
 169              		.loc 1 118 0
 170 0002 0446     		mov	r4, r0
 171 0004 A0B1     		cbz	r0, .L18
ARM GAS  /tmp/ccteddTh.s 			page 4


 172              	.LVL12:
 173              	.L15:
 174              		.loc 1 120 0
 175              		.syntax unified
 176              	@ 120 "../../../os/hal/src/ext.c" 1
 177 0006 FFF7FEFF 		bl      _port_lock
 178              	@ 0 "" 2
 179              		.thumb
 180              		.syntax unified
 181 000a FFF7FEFF 		bl	dbg_check_lock
 182              	.LVL13:
 183              		.loc 1 121 0
 184 000e 2378     		ldrb	r3, [r4]	@ zero_extendqisi2
 185 0010 013B     		subs	r3, r3, #1
 186 0012 012B     		cmp	r3, #1
 187 0014 02D9     		bls	.L16
 188              		.loc 1 121 0 is_stmt 0 discriminator 1
 189 0016 0848     		ldr	r0, .L19
 190 0018 FFF7FEFF 		bl	chDbgPanic
 191              	.LVL14:
 192              	.L16:
 193              		.loc 1 123 0 is_stmt 1
 194 001c 2046     		mov	r0, r4
 195 001e FFF7FEFF 		bl	ext_lld_stop
 196              	.LVL15:
 197              		.loc 1 124 0
 198 0022 0123     		movs	r3, #1
 199 0024 2370     		strb	r3, [r4]
 200              		.loc 1 125 0
 201 0026 FFF7FEFF 		bl	dbg_check_unlock
 202              	.LVL16:
 203              		.syntax unified
 204              	@ 125 "../../../os/hal/src/ext.c" 1
 205 002a FFF7FEFF 		bl      _port_unlock
 206              	@ 0 "" 2
 207              		.thumb
 208              		.syntax unified
 209 002e 10BD     		pop	{r4, pc}
 210              	.LVL17:
 211              	.L18:
 212              		.loc 1 118 0 discriminator 1
 213 0030 0248     		ldr	r0, .L19+4
 214              	.LVL18:
 215 0032 FFF7FEFF 		bl	chDbgPanic
 216              	.LVL19:
 217 0036 E6E7     		b	.L15
 218              	.L20:
 219              		.align	2
 220              	.L19:
 221 0038 2C000000 		.word	.LC3
 222 003c 20000000 		.word	.LC2
 223              		.cfi_endproc
 224              	.LFE114:
 225              		.size	extStop, .-extStop
 226              		.section	.text.extChannelEnable,"ax",%progbits
 227              		.align	2
 228              		.p2align 4,,15
ARM GAS  /tmp/ccteddTh.s 			page 5


 229              		.global	extChannelEnable
 230              		.thumb
 231              		.thumb_func
 232              		.type	extChannelEnable, %function
 233              	extChannelEnable:
 234              	.LFB115:
 235              		.loc 1 137 0
 236              		.cfi_startproc
 237              		@ args = 0, pretend = 0, frame = 0
 238              		@ frame_needed = 0, uses_anonymous_args = 0
 239              	.LVL20:
 240 0000 38B5     		push	{r3, r4, r5, lr}
 241              		.cfi_def_cfa_offset 16
 242              		.cfi_offset 3, -16
 243              		.cfi_offset 4, -12
 244              		.cfi_offset 5, -8
 245              		.cfi_offset 14, -4
 246              		.loc 1 137 0
 247 0002 0D46     		mov	r5, r1
 248              		.loc 1 139 0
 249 0004 0446     		mov	r4, r0
 250 0006 A0B1     		cbz	r0, .L22
 251              		.loc 1 139 0 is_stmt 0 discriminator 2
 252 0008 1629     		cmp	r1, #22
 253 000a 12D8     		bhi	.L22
 254              		.loc 1 142 0 is_stmt 1
 255              		.syntax unified
 256              	@ 142 "../../../os/hal/src/ext.c" 1
 257 000c FFF7FEFF 		bl      _port_lock
 258              	@ 0 "" 2
 259              		.thumb
 260              		.syntax unified
 261 0010 FFF7FEFF 		bl	dbg_check_lock
 262              	.LVL21:
 263              		.loc 1 143 0
 264 0014 2378     		ldrb	r3, [r4]	@ zero_extendqisi2
 265 0016 022B     		cmp	r3, #2
 266 0018 15D0     		beq	.L30
 267              	.L24:
 268              		.loc 1 143 0 is_stmt 0 discriminator 3
 269 001a 0E48     		ldr	r0, .L31
 270 001c FFF7FEFF 		bl	chDbgPanic
 271              	.LVL22:
 272              	.L25:
 273              		.loc 1 147 0 is_stmt 1
 274 0020 2946     		mov	r1, r5
 275 0022 2046     		mov	r0, r4
 276 0024 FFF7FEFF 		bl	ext_lld_channel_enable
 277              	.LVL23:
 278              		.loc 1 148 0
 279 0028 FFF7FEFF 		bl	dbg_check_unlock
 280              	.LVL24:
 281              		.syntax unified
 282              	@ 148 "../../../os/hal/src/ext.c" 1
 283 002c FFF7FEFF 		bl      _port_unlock
 284              	@ 0 "" 2
 285              		.thumb
ARM GAS  /tmp/ccteddTh.s 			page 6


 286              		.syntax unified
 287 0030 38BD     		pop	{r3, r4, r5, pc}
 288              	.LVL25:
 289              	.L22:
 290              		.loc 1 139 0 discriminator 3
 291 0032 0948     		ldr	r0, .L31+4
 292              	.LVL26:
 293 0034 FFF7FEFF 		bl	chDbgPanic
 294              	.LVL27:
 295              		.loc 1 142 0 discriminator 3
 296              		.syntax unified
 297              	@ 142 "../../../os/hal/src/ext.c" 1
 298 0038 FFF7FEFF 		bl      _port_lock
 299              	@ 0 "" 2
 300              		.thumb
 301              		.syntax unified
 302 003c FFF7FEFF 		bl	dbg_check_lock
 303              	.LVL28:
 304              		.loc 1 143 0 discriminator 3
 305 0040 2378     		ldrb	r3, [r4]	@ zero_extendqisi2
 306 0042 022B     		cmp	r3, #2
 307 0044 E9D1     		bne	.L24
 308              	.L30:
 309              		.loc 1 143 0 is_stmt 0 discriminator 2
 310 0046 6368     		ldr	r3, [r4, #4]
 311 0048 53F83530 		ldr	r3, [r3, r5, lsl #3]
 312 004c 9B07     		lsls	r3, r3, #30
 313 004e E7D1     		bne	.L25
 314 0050 E3E7     		b	.L24
 315              	.L32:
 316 0052 00BF     		.align	2
 317              	.L31:
 318 0054 54000000 		.word	.LC5
 319 0058 3C000000 		.word	.LC4
 320              		.cfi_endproc
 321              	.LFE115:
 322              		.size	extChannelEnable, .-extChannelEnable
 323              		.section	.text.extChannelDisable,"ax",%progbits
 324              		.align	2
 325              		.p2align 4,,15
 326              		.global	extChannelDisable
 327              		.thumb
 328              		.thumb_func
 329              		.type	extChannelDisable, %function
 330              	extChannelDisable:
 331              	.LFB116:
 332              		.loc 1 160 0 is_stmt 1
 333              		.cfi_startproc
 334              		@ args = 0, pretend = 0, frame = 0
 335              		@ frame_needed = 0, uses_anonymous_args = 0
 336              	.LVL29:
 337 0000 38B5     		push	{r3, r4, r5, lr}
 338              		.cfi_def_cfa_offset 16
 339              		.cfi_offset 3, -16
 340              		.cfi_offset 4, -12
 341              		.cfi_offset 5, -8
 342              		.cfi_offset 14, -4
ARM GAS  /tmp/ccteddTh.s 			page 7


 343              		.loc 1 160 0
 344 0002 0D46     		mov	r5, r1
 345              		.loc 1 162 0
 346 0004 0446     		mov	r4, r0
 347 0006 A0B1     		cbz	r0, .L34
 348              		.loc 1 162 0 is_stmt 0 discriminator 2
 349 0008 1629     		cmp	r1, #22
 350 000a 12D8     		bhi	.L34
 351              		.loc 1 165 0 is_stmt 1
 352              		.syntax unified
 353              	@ 165 "../../../os/hal/src/ext.c" 1
 354 000c FFF7FEFF 		bl      _port_lock
 355              	@ 0 "" 2
 356              		.thumb
 357              		.syntax unified
 358 0010 FFF7FEFF 		bl	dbg_check_lock
 359              	.LVL30:
 360              		.loc 1 166 0
 361 0014 2378     		ldrb	r3, [r4]	@ zero_extendqisi2
 362 0016 022B     		cmp	r3, #2
 363 0018 15D0     		beq	.L42
 364              	.L36:
 365              		.loc 1 166 0 is_stmt 0 discriminator 3
 366 001a 0E48     		ldr	r0, .L43
 367 001c FFF7FEFF 		bl	chDbgPanic
 368              	.LVL31:
 369              	.L37:
 370              		.loc 1 170 0 is_stmt 1
 371 0020 2946     		mov	r1, r5
 372 0022 2046     		mov	r0, r4
 373 0024 FFF7FEFF 		bl	ext_lld_channel_disable
 374              	.LVL32:
 375              		.loc 1 171 0
 376 0028 FFF7FEFF 		bl	dbg_check_unlock
 377              	.LVL33:
 378              		.syntax unified
 379              	@ 171 "../../../os/hal/src/ext.c" 1
 380 002c FFF7FEFF 		bl      _port_unlock
 381              	@ 0 "" 2
 382              		.thumb
 383              		.syntax unified
 384 0030 38BD     		pop	{r3, r4, r5, pc}
 385              	.LVL34:
 386              	.L34:
 387              		.loc 1 162 0 discriminator 3
 388 0032 0948     		ldr	r0, .L43+4
 389              	.LVL35:
 390 0034 FFF7FEFF 		bl	chDbgPanic
 391              	.LVL36:
 392              		.loc 1 165 0 discriminator 3
 393              		.syntax unified
 394              	@ 165 "../../../os/hal/src/ext.c" 1
 395 0038 FFF7FEFF 		bl      _port_lock
 396              	@ 0 "" 2
 397              		.thumb
 398              		.syntax unified
 399 003c FFF7FEFF 		bl	dbg_check_lock
ARM GAS  /tmp/ccteddTh.s 			page 8


 400              	.LVL37:
 401              		.loc 1 166 0 discriminator 3
 402 0040 2378     		ldrb	r3, [r4]	@ zero_extendqisi2
 403 0042 022B     		cmp	r3, #2
 404 0044 E9D1     		bne	.L36
 405              	.L42:
 406              		.loc 1 166 0 is_stmt 0 discriminator 2
 407 0046 6368     		ldr	r3, [r4, #4]
 408 0048 53F83530 		ldr	r3, [r3, r5, lsl #3]
 409 004c 9B07     		lsls	r3, r3, #30
 410 004e E7D1     		bne	.L37
 411 0050 E3E7     		b	.L36
 412              	.L44:
 413 0052 00BF     		.align	2
 414              	.L43:
 415 0054 84000000 		.word	.LC7
 416 0058 6C000000 		.word	.LC6
 417              		.cfi_endproc
 418              	.LFE116:
 419              		.size	extChannelDisable, .-extChannelDisable
 420              		.section	.text.extSetChannelModeI,"ax",%progbits
 421              		.align	2
 422              		.p2align 4,,15
 423              		.global	extSetChannelModeI
 424              		.thumb
 425              		.thumb_func
 426              		.type	extSetChannelModeI, %function
 427              	extSetChannelModeI:
 428              	.LFB117:
 429              		.loc 1 193 0 is_stmt 1
 430              		.cfi_startproc
 431              		@ args = 0, pretend = 0, frame = 0
 432              		@ frame_needed = 0, uses_anonymous_args = 0
 433              	.LVL38:
 434 0000 70B5     		push	{r4, r5, r6, lr}
 435              		.cfi_def_cfa_offset 16
 436              		.cfi_offset 4, -16
 437              		.cfi_offset 5, -12
 438              		.cfi_offset 6, -8
 439              		.cfi_offset 14, -4
 440              		.loc 1 193 0
 441 0002 0D46     		mov	r5, r1
 442 0004 1646     		mov	r6, r2
 443              		.loc 1 196 0
 444 0006 0446     		mov	r4, r0
 445 0008 08B1     		cbz	r0, .L46
 446              		.loc 1 196 0 is_stmt 0 discriminator 2
 447 000a 1629     		cmp	r1, #22
 448 000c 15D9     		bls	.L56
 449              	.L46:
 450              		.loc 1 196 0 discriminator 5
 451 000e 0C48     		ldr	r0, .L57
 452              	.LVL39:
 453 0010 FFF7FEFF 		bl	chDbgPanic
 454              	.LVL40:
 455              	.L47:
 456              		.loc 1 199 0 is_stmt 1
ARM GAS  /tmp/ccteddTh.s 			page 9


 457 0014 2378     		ldrb	r3, [r4]	@ zero_extendqisi2
 458 0016 022B     		cmp	r3, #2
 459 0018 02D0     		beq	.L48
 460              		.loc 1 199 0 is_stmt 0 discriminator 1
 461 001a 0A48     		ldr	r0, .L57+4
 462 001c FFF7FEFF 		bl	chDbgPanic
 463              	.LVL41:
 464              	.L48:
 465              		.loc 1 208 0 is_stmt 1
 466 0020 96E80300 		ldmia	r6, {r0, r1}
 467 0024 6368     		ldr	r3, [r4, #4]
 468 0026 03EBC503 		add	r3, r3, r5, lsl #3
 469 002a 83E80300 		stmia	r3, {r0, r1}
 470              	.LVL42:
 471              		.loc 1 209 0
 472 002e 2946     		mov	r1, r5
 473 0030 2046     		mov	r0, r4
 474              		.loc 1 210 0
 475 0032 BDE87040 		pop	{r4, r5, r6, lr}
 476              		.cfi_remember_state
 477              		.cfi_restore 14
 478              		.cfi_restore 6
 479              		.cfi_restore 5
 480              		.cfi_restore 4
 481              		.cfi_def_cfa_offset 0
 482              	.LVL43:
 483              		.loc 1 209 0
 484 0036 FFF7FEBF 		b	ext_lld_channel_enable
 485              	.LVL44:
 486              	.L56:
 487              		.cfi_restore_state
 488              		.loc 1 196 0 discriminator 4
 489 003a 002A     		cmp	r2, #0
 490 003c EAD1     		bne	.L47
 491 003e E6E7     		b	.L46
 492              	.L58:
 493              		.align	2
 494              	.L57:
 495 0040 9C000000 		.word	.LC8
 496 0044 B4000000 		.word	.LC9
 497              		.cfi_endproc
 498              	.LFE117:
 499              		.size	extSetChannelModeI, .-extSetChannelModeI
 500              		.section	.rodata.str1.4,"aMS",%progbits,1
 501              		.align	2
 502              	.LC0:
 503 0000 22657874 		.ascii	"\"extStart\"()\000"
 503      53746172 
 503      74222829 
 503      00
 504 000d 000000   		.space	3
 505              	.LC1:
 506 0010 65787453 		.ascii	"extStart(), #1\000"
 506      74617274 
 506      28292C20 
 506      233100
 507 001f 00       		.space	1
ARM GAS  /tmp/ccteddTh.s 			page 10


 508              	.LC2:
 509 0020 22657874 		.ascii	"\"extStop\"()\000"
 509      53746F70 
 509      22282900 
 510              	.LC3:
 511 002c 65787453 		.ascii	"extStop(), #1\000"
 511      746F7028 
 511      292C2023 
 511      3100
 512 003a 0000     		.space	2
 513              	.LC4:
 514 003c 22657874 		.ascii	"\"extChannelEnable\"()\000"
 514      4368616E 
 514      6E656C45 
 514      6E61626C 
 514      65222829 
 515 0051 000000   		.space	3
 516              	.LC5:
 517 0054 65787443 		.ascii	"extChannelEnable(), #1\000"
 517      68616E6E 
 517      656C456E 
 517      61626C65 
 517      28292C20 
 518 006b 00       		.space	1
 519              	.LC6:
 520 006c 22657874 		.ascii	"\"extChannelDisable\"()\000"
 520      4368616E 
 520      6E656C44 
 520      69736162 
 520      6C652228 
 521 0082 0000     		.space	2
 522              	.LC7:
 523 0084 65787443 		.ascii	"extChannelDisable(), #1\000"
 523      68616E6E 
 523      656C4469 
 523      7361626C 
 523      6528292C 
 524              	.LC8:
 525 009c 22657874 		.ascii	"\"extSetChannelModeI\"()\000"
 525      53657443 
 525      68616E6E 
 525      656C4D6F 
 525      64654922 
 526 00b3 00       		.space	1
 527              	.LC9:
 528 00b4 65787453 		.ascii	"extSetChannelModeI(), #1\000"
 528      65744368 
 528      616E6E65 
 528      6C4D6F64 
 528      65492829 
 529              		.text
 530              	.Letext0:
 531              		.file 2 "/home/z80/programs/sw4stm32/plugins/fr.ac6.mcu.externaltools.arm-none.linux32_1.7.0.20160
 532              		.file 3 "/home/z80/programs/sw4stm32/plugins/fr.ac6.mcu.externaltools.arm-none.linux32_1.7.0.20160
 533              		.file 4 "../../../os/hal/include/ext.h"
 534              		.file 5 "../../../os/hal/platforms/STM32/ext_lld.h"
 535              		.file 6 "../../../os/kernel/include/chdebug.h"
ARM GAS  /tmp/ccteddTh.s 			page 11


 536              		.file 7 "../../../os/ports/common/ARMCMx/CMSIS/include/core_cm4.h"
 537              		.section	.debug_info,"",%progbits
 538              	.Ldebug_info0:
 539 0000 1D050000 		.4byte	0x51d
 540 0004 0400     		.2byte	0x4
 541 0006 00000000 		.4byte	.Ldebug_abbrev0
 542 000a 04       		.byte	0x4
 543 000b 01       		.uleb128 0x1
 544 000c 98000000 		.4byte	.LASF48
 545 0010 0C       		.byte	0xc
 546 0011 00000000 		.4byte	.LASF49
 547 0015 E1020000 		.4byte	.LASF50
 548 0019 00000000 		.4byte	.Ldebug_ranges0+0
 549 001d 00000000 		.4byte	0
 550 0021 00000000 		.4byte	.Ldebug_line0
 551 0025 02       		.uleb128 0x2
 552 0026 04       		.byte	0x4
 553 0027 05       		.byte	0x5
 554 0028 696E7400 		.ascii	"int\000"
 555 002c 03       		.uleb128 0x3
 556 002d 04       		.byte	0x4
 557 002e 07       		.byte	0x7
 558 002f 4C020000 		.4byte	.LASF0
 559 0033 03       		.uleb128 0x3
 560 0034 08       		.byte	0x8
 561 0035 05       		.byte	0x5
 562 0036 AD020000 		.4byte	.LASF1
 563 003a 03       		.uleb128 0x3
 564 003b 08       		.byte	0x8
 565 003c 04       		.byte	0x4
 566 003d 45030000 		.4byte	.LASF2
 567 0041 03       		.uleb128 0x3
 568 0042 01       		.byte	0x1
 569 0043 06       		.byte	0x6
 570 0044 51030000 		.4byte	.LASF3
 571 0048 03       		.uleb128 0x3
 572 0049 01       		.byte	0x1
 573 004a 08       		.byte	0x8
 574 004b C8010000 		.4byte	.LASF4
 575 004f 03       		.uleb128 0x3
 576 0050 02       		.byte	0x2
 577 0051 05       		.byte	0x5
 578 0052 D7020000 		.4byte	.LASF5
 579 0056 03       		.uleb128 0x3
 580 0057 02       		.byte	0x2
 581 0058 07       		.byte	0x7
 582 0059 EE010000 		.4byte	.LASF6
 583 005d 04       		.uleb128 0x4
 584 005e 86000000 		.4byte	.LASF8
 585 0062 02       		.byte	0x2
 586 0063 3F       		.byte	0x3f
 587 0064 68000000 		.4byte	0x68
 588 0068 03       		.uleb128 0x3
 589 0069 04       		.byte	0x4
 590 006a 05       		.byte	0x5
 591 006b 3C030000 		.4byte	.LASF7
 592 006f 04       		.uleb128 0x4
ARM GAS  /tmp/ccteddTh.s 			page 12


 593 0070 1F020000 		.4byte	.LASF9
 594 0074 02       		.byte	0x2
 595 0075 41       		.byte	0x41
 596 0076 7A000000 		.4byte	0x7a
 597 007a 03       		.uleb128 0x3
 598 007b 04       		.byte	0x4
 599 007c 07       		.byte	0x7
 600 007d DC010000 		.4byte	.LASF10
 601 0081 03       		.uleb128 0x3
 602 0082 08       		.byte	0x8
 603 0083 07       		.byte	0x7
 604 0084 B1010000 		.4byte	.LASF11
 605 0088 04       		.uleb128 0x4
 606 0089 9C020000 		.4byte	.LASF12
 607 008d 03       		.byte	0x3
 608 008e 1F       		.byte	0x1f
 609 008f 5D000000 		.4byte	0x5d
 610 0093 04       		.uleb128 0x4
 611 0094 33030000 		.4byte	.LASF13
 612 0098 03       		.byte	0x3
 613 0099 20       		.byte	0x20
 614 009a 6F000000 		.4byte	0x6f
 615 009e 03       		.uleb128 0x3
 616 009f 01       		.byte	0x1
 617 00a0 02       		.byte	0x2
 618 00a1 6F030000 		.4byte	.LASF14
 619 00a5 03       		.uleb128 0x3
 620 00a6 04       		.byte	0x4
 621 00a7 07       		.byte	0x7
 622 00a8 A4020000 		.4byte	.LASF15
 623 00ac 03       		.uleb128 0x3
 624 00ad 01       		.byte	0x1
 625 00ae 08       		.byte	0x8
 626 00af 5E020000 		.4byte	.LASF16
 627 00b3 05       		.uleb128 0x5
 628 00b4 88000000 		.4byte	0x88
 629 00b8 06       		.uleb128 0x6
 630 00b9 01       		.byte	0x1
 631 00ba 48000000 		.4byte	0x48
 632 00be 04       		.byte	0x4
 633 00bf 4A       		.byte	0x4a
 634 00c0 D7000000 		.4byte	0xd7
 635 00c4 07       		.uleb128 0x7
 636 00c5 73000000 		.4byte	.LASF17
 637 00c9 00       		.byte	0
 638 00ca 07       		.uleb128 0x7
 639 00cb 83030000 		.4byte	.LASF18
 640 00cf 01       		.byte	0x1
 641 00d0 07       		.uleb128 0x7
 642 00d1 41020000 		.4byte	.LASF19
 643 00d5 02       		.byte	0x2
 644 00d6 00       		.byte	0
 645 00d7 04       		.uleb128 0x4
 646 00d8 57000000 		.4byte	.LASF20
 647 00dc 04       		.byte	0x4
 648 00dd 4E       		.byte	0x4e
 649 00de B8000000 		.4byte	0xb8
ARM GAS  /tmp/ccteddTh.s 			page 13


 650 00e2 04       		.uleb128 0x4
 651 00e3 1A000000 		.4byte	.LASF21
 652 00e7 04       		.byte	0x4
 653 00e8 53       		.byte	0x53
 654 00e9 ED000000 		.4byte	0xed
 655 00ed 08       		.uleb128 0x8
 656 00ee 1A000000 		.4byte	.LASF21
 657 00f2 08       		.byte	0x8
 658 00f3 05       		.byte	0x5
 659 00f4 71       		.byte	0x71
 660 00f5 12010000 		.4byte	0x112
 661 00f9 09       		.uleb128 0x9
 662 00fa 51000000 		.4byte	.LASF22
 663 00fe 05       		.byte	0x5
 664 00ff 75       		.byte	0x75
 665 0100 D7000000 		.4byte	0xd7
 666 0104 00       		.byte	0
 667 0105 09       		.uleb128 0x9
 668 0106 0E020000 		.4byte	.LASF23
 669 010a 05       		.byte	0x5
 670 010b 79       		.byte	0x79
 671 010c 9F010000 		.4byte	0x19f
 672 0110 04       		.byte	0x4
 673 0111 00       		.byte	0
 674 0112 04       		.uleb128 0x4
 675 0113 83010000 		.4byte	.LASF24
 676 0117 05       		.byte	0x5
 677 0118 47       		.byte	0x47
 678 0119 93000000 		.4byte	0x93
 679 011d 04       		.uleb128 0x4
 680 011e 63020000 		.4byte	.LASF25
 681 0122 05       		.byte	0x5
 682 0123 4F       		.byte	0x4f
 683 0124 28010000 		.4byte	0x128
 684 0128 0A       		.uleb128 0xa
 685 0129 04       		.byte	0x4
 686 012a 2E010000 		.4byte	0x12e
 687 012e 0B       		.uleb128 0xb
 688 012f 3E010000 		.4byte	0x13e
 689 0133 0C       		.uleb128 0xc
 690 0134 3E010000 		.4byte	0x13e
 691 0138 0C       		.uleb128 0xc
 692 0139 12010000 		.4byte	0x112
 693 013d 00       		.byte	0
 694 013e 0A       		.uleb128 0xa
 695 013f 04       		.byte	0x4
 696 0140 E2000000 		.4byte	0xe2
 697 0144 0D       		.uleb128 0xd
 698 0145 08       		.byte	0x8
 699 0146 05       		.byte	0x5
 700 0147 54       		.byte	0x54
 701 0148 64010000 		.4byte	0x164
 702 014c 09       		.uleb128 0x9
 703 014d 71020000 		.4byte	.LASF26
 704 0151 05       		.byte	0x5
 705 0152 58       		.byte	0x58
 706 0153 93000000 		.4byte	0x93
ARM GAS  /tmp/ccteddTh.s 			page 14


 707 0157 00       		.byte	0
 708 0158 0E       		.uleb128 0xe
 709 0159 636200   		.ascii	"cb\000"
 710 015c 05       		.byte	0x5
 711 015d 5F       		.byte	0x5f
 712 015e 1D010000 		.4byte	0x11d
 713 0162 04       		.byte	0x4
 714 0163 00       		.byte	0
 715 0164 04       		.uleb128 0x4
 716 0165 62000000 		.4byte	.LASF27
 717 0169 05       		.byte	0x5
 718 016a 60       		.byte	0x60
 719 016b 44010000 		.4byte	0x144
 720 016f 0D       		.uleb128 0xd
 721 0170 B8       		.byte	0xb8
 722 0171 05       		.byte	0x5
 723 0172 66       		.byte	0x66
 724 0173 84010000 		.4byte	0x184
 725 0177 09       		.uleb128 0x9
 726 0178 72010000 		.4byte	.LASF28
 727 017c 05       		.byte	0x5
 728 017d 6A       		.byte	0x6a
 729 017e 84010000 		.4byte	0x184
 730 0182 00       		.byte	0
 731 0183 00       		.byte	0
 732 0184 0F       		.uleb128 0xf
 733 0185 64010000 		.4byte	0x164
 734 0189 94010000 		.4byte	0x194
 735 018d 10       		.uleb128 0x10
 736 018e A5000000 		.4byte	0xa5
 737 0192 16       		.byte	0x16
 738 0193 00       		.byte	0
 739 0194 04       		.uleb128 0x4
 740 0195 15020000 		.4byte	.LASF29
 741 0199 05       		.byte	0x5
 742 019a 6C       		.byte	0x6c
 743 019b 6F010000 		.4byte	0x16f
 744 019f 0A       		.uleb128 0xa
 745 01a0 04       		.byte	0x4
 746 01a1 A5010000 		.4byte	0x1a5
 747 01a5 11       		.uleb128 0x11
 748 01a6 94010000 		.4byte	0x194
 749 01aa 12       		.uleb128 0x12
 750 01ab 7B010000 		.4byte	.LASF30
 751 01af 01       		.byte	0x1
 752 01b0 44       		.byte	0x44
 753 01b1 00000000 		.4byte	.LFB111
 754 01b5 04000000 		.4byte	.LFE111-.LFB111
 755 01b9 01       		.uleb128 0x1
 756 01ba 9C       		.byte	0x9c
 757 01bb C9010000 		.4byte	0x1c9
 758 01bf 13       		.uleb128 0x13
 759 01c0 04000000 		.4byte	.LVL0
 760 01c4 C8040000 		.4byte	0x4c8
 761 01c8 00       		.byte	0
 762 01c9 12       		.uleb128 0x12
 763 01ca 25030000 		.4byte	.LASF31
ARM GAS  /tmp/ccteddTh.s 			page 15


 764 01ce 01       		.byte	0x1
 765 01cf 50       		.byte	0x50
 766 01d0 00000000 		.4byte	.LFB112
 767 01d4 0A000000 		.4byte	.LFE112-.LFB112
 768 01d8 01       		.uleb128 0x1
 769 01d9 9C       		.byte	0x9c
 770 01da EC010000 		.4byte	0x1ec
 771 01de 14       		.uleb128 0x14
 772 01df 59020000 		.4byte	.LASF33
 773 01e3 01       		.byte	0x1
 774 01e4 50       		.byte	0x50
 775 01e5 3E010000 		.4byte	0x13e
 776 01e9 01       		.uleb128 0x1
 777 01ea 50       		.byte	0x50
 778 01eb 00       		.byte	0
 779 01ec 12       		.uleb128 0x12
 780 01ed 90010000 		.4byte	.LASF32
 781 01f1 01       		.byte	0x1
 782 01f2 60       		.byte	0x60
 783 01f3 00000000 		.4byte	.LFB113
 784 01f7 48000000 		.4byte	.LFE113-.LFB113
 785 01fb 01       		.uleb128 0x1
 786 01fc 9C       		.byte	0x9c
 787 01fd 70020000 		.4byte	0x270
 788 0201 15       		.uleb128 0x15
 789 0202 59020000 		.4byte	.LASF33
 790 0206 01       		.byte	0x1
 791 0207 60       		.byte	0x60
 792 0208 3E010000 		.4byte	0x13e
 793 020c 00000000 		.4byte	.LLST0
 794 0210 15       		.uleb128 0x15
 795 0211 0E020000 		.4byte	.LASF23
 796 0215 01       		.byte	0x1
 797 0216 60       		.byte	0x60
 798 0217 9F010000 		.4byte	0x19f
 799 021b 34000000 		.4byte	.LLST1
 800 021f 16       		.uleb128 0x16
 801 0220 12000000 		.4byte	.LVL4
 802 0224 D3040000 		.4byte	0x4d3
 803 0228 17       		.uleb128 0x17
 804 0229 20000000 		.4byte	.LVL5
 805 022d DE040000 		.4byte	0x4de
 806 0231 3F020000 		.4byte	0x23f
 807 0235 18       		.uleb128 0x18
 808 0236 01       		.uleb128 0x1
 809 0237 50       		.byte	0x50
 810 0238 05       		.uleb128 0x5
 811 0239 03       		.byte	0x3
 812 023a 10000000 		.4byte	.LC1
 813 023e 00       		.byte	0
 814 023f 17       		.uleb128 0x17
 815 0240 28000000 		.4byte	.LVL6
 816 0244 E9040000 		.4byte	0x4e9
 817 0248 53020000 		.4byte	0x253
 818 024c 18       		.uleb128 0x18
 819 024d 01       		.uleb128 0x1
 820 024e 50       		.byte	0x50
ARM GAS  /tmp/ccteddTh.s 			page 16


 821 024f 02       		.uleb128 0x2
 822 0250 74       		.byte	0x74
 823 0251 00       		.sleb128 0
 824 0252 00       		.byte	0
 825 0253 16       		.uleb128 0x16
 826 0254 30000000 		.4byte	.LVL7
 827 0258 F4040000 		.4byte	0x4f4
 828 025c 19       		.uleb128 0x19
 829 025d 3C000000 		.4byte	.LVL10
 830 0261 DE040000 		.4byte	0x4de
 831 0265 18       		.uleb128 0x18
 832 0266 01       		.uleb128 0x1
 833 0267 50       		.byte	0x50
 834 0268 05       		.uleb128 0x5
 835 0269 03       		.byte	0x3
 836 026a 00000000 		.4byte	.LC0
 837 026e 00       		.byte	0
 838 026f 00       		.byte	0
 839 0270 12       		.uleb128 0x12
 840 0271 90000000 		.4byte	.LASF34
 841 0275 01       		.byte	0x1
 842 0276 74       		.byte	0x74
 843 0277 00000000 		.4byte	.LFB114
 844 027b 40000000 		.4byte	.LFE114-.LFB114
 845 027f 01       		.uleb128 0x1
 846 0280 9C       		.byte	0x9c
 847 0281 E5020000 		.4byte	0x2e5
 848 0285 15       		.uleb128 0x15
 849 0286 59020000 		.4byte	.LASF33
 850 028a 01       		.byte	0x1
 851 028b 74       		.byte	0x74
 852 028c 3E010000 		.4byte	0x13e
 853 0290 68000000 		.4byte	.LLST2
 854 0294 16       		.uleb128 0x16
 855 0295 0E000000 		.4byte	.LVL13
 856 0299 D3040000 		.4byte	0x4d3
 857 029d 17       		.uleb128 0x17
 858 029e 1C000000 		.4byte	.LVL14
 859 02a2 DE040000 		.4byte	0x4de
 860 02a6 B4020000 		.4byte	0x2b4
 861 02aa 18       		.uleb128 0x18
 862 02ab 01       		.uleb128 0x1
 863 02ac 50       		.byte	0x50
 864 02ad 05       		.uleb128 0x5
 865 02ae 03       		.byte	0x3
 866 02af 2C000000 		.4byte	.LC3
 867 02b3 00       		.byte	0
 868 02b4 17       		.uleb128 0x17
 869 02b5 22000000 		.4byte	.LVL15
 870 02b9 FF040000 		.4byte	0x4ff
 871 02bd C8020000 		.4byte	0x2c8
 872 02c1 18       		.uleb128 0x18
 873 02c2 01       		.uleb128 0x1
 874 02c3 50       		.byte	0x50
 875 02c4 02       		.uleb128 0x2
 876 02c5 74       		.byte	0x74
 877 02c6 00       		.sleb128 0
ARM GAS  /tmp/ccteddTh.s 			page 17


 878 02c7 00       		.byte	0
 879 02c8 16       		.uleb128 0x16
 880 02c9 2A000000 		.4byte	.LVL16
 881 02cd F4040000 		.4byte	0x4f4
 882 02d1 19       		.uleb128 0x19
 883 02d2 36000000 		.4byte	.LVL19
 884 02d6 DE040000 		.4byte	0x4de
 885 02da 18       		.uleb128 0x18
 886 02db 01       		.uleb128 0x1
 887 02dc 50       		.byte	0x50
 888 02dd 05       		.uleb128 0x5
 889 02de 03       		.byte	0x3
 890 02df 20000000 		.4byte	.LC2
 891 02e3 00       		.byte	0
 892 02e4 00       		.byte	0
 893 02e5 12       		.uleb128 0x12
 894 02e6 C6020000 		.4byte	.LASF35
 895 02ea 01       		.byte	0x1
 896 02eb 89       		.byte	0x89
 897 02ec 00000000 		.4byte	.LFB115
 898 02f0 5C000000 		.4byte	.LFE115-.LFB115
 899 02f4 01       		.uleb128 0x1
 900 02f5 9C       		.byte	0x9c
 901 02f6 7C030000 		.4byte	0x37c
 902 02fa 15       		.uleb128 0x15
 903 02fb 59020000 		.4byte	.LASF33
 904 02ff 01       		.byte	0x1
 905 0300 89       		.byte	0x89
 906 0301 3E010000 		.4byte	0x13e
 907 0305 9C000000 		.4byte	.LLST3
 908 0309 15       		.uleb128 0x15
 909 030a 7E000000 		.4byte	.LASF36
 910 030e 01       		.byte	0x1
 911 030f 89       		.byte	0x89
 912 0310 12010000 		.4byte	0x112
 913 0314 D0000000 		.4byte	.LLST4
 914 0318 16       		.uleb128 0x16
 915 0319 14000000 		.4byte	.LVL21
 916 031d D3040000 		.4byte	0x4d3
 917 0321 17       		.uleb128 0x17
 918 0322 20000000 		.4byte	.LVL22
 919 0326 DE040000 		.4byte	0x4de
 920 032a 38030000 		.4byte	0x338
 921 032e 18       		.uleb128 0x18
 922 032f 01       		.uleb128 0x1
 923 0330 50       		.byte	0x50
 924 0331 05       		.uleb128 0x5
 925 0332 03       		.byte	0x3
 926 0333 54000000 		.4byte	.LC5
 927 0337 00       		.byte	0
 928 0338 17       		.uleb128 0x17
 929 0339 28000000 		.4byte	.LVL23
 930 033d 0A050000 		.4byte	0x50a
 931 0341 52030000 		.4byte	0x352
 932 0345 18       		.uleb128 0x18
 933 0346 01       		.uleb128 0x1
 934 0347 50       		.byte	0x50
ARM GAS  /tmp/ccteddTh.s 			page 18


 935 0348 02       		.uleb128 0x2
 936 0349 74       		.byte	0x74
 937 034a 00       		.sleb128 0
 938 034b 18       		.uleb128 0x18
 939 034c 01       		.uleb128 0x1
 940 034d 51       		.byte	0x51
 941 034e 02       		.uleb128 0x2
 942 034f 75       		.byte	0x75
 943 0350 00       		.sleb128 0
 944 0351 00       		.byte	0
 945 0352 16       		.uleb128 0x16
 946 0353 2C000000 		.4byte	.LVL24
 947 0357 F4040000 		.4byte	0x4f4
 948 035b 17       		.uleb128 0x17
 949 035c 38000000 		.4byte	.LVL27
 950 0360 DE040000 		.4byte	0x4de
 951 0364 72030000 		.4byte	0x372
 952 0368 18       		.uleb128 0x18
 953 0369 01       		.uleb128 0x1
 954 036a 50       		.byte	0x50
 955 036b 05       		.uleb128 0x5
 956 036c 03       		.byte	0x3
 957 036d 3C000000 		.4byte	.LC4
 958 0371 00       		.byte	0
 959 0372 16       		.uleb128 0x16
 960 0373 40000000 		.4byte	.LVL28
 961 0377 D3040000 		.4byte	0x4d3
 962 037b 00       		.byte	0
 963 037c 12       		.uleb128 0x12
 964 037d 5D030000 		.4byte	.LASF37
 965 0381 01       		.byte	0x1
 966 0382 A0       		.byte	0xa0
 967 0383 00000000 		.4byte	.LFB116
 968 0387 5C000000 		.4byte	.LFE116-.LFB116
 969 038b 01       		.uleb128 0x1
 970 038c 9C       		.byte	0x9c
 971 038d 13040000 		.4byte	0x413
 972 0391 15       		.uleb128 0x15
 973 0392 59020000 		.4byte	.LASF33
 974 0396 01       		.byte	0x1
 975 0397 A0       		.byte	0xa0
 976 0398 3E010000 		.4byte	0x13e
 977 039c 04010000 		.4byte	.LLST5
 978 03a0 15       		.uleb128 0x15
 979 03a1 7E000000 		.4byte	.LASF36
 980 03a5 01       		.byte	0x1
 981 03a6 A0       		.byte	0xa0
 982 03a7 12010000 		.4byte	0x112
 983 03ab 38010000 		.4byte	.LLST6
 984 03af 16       		.uleb128 0x16
 985 03b0 14000000 		.4byte	.LVL30
 986 03b4 D3040000 		.4byte	0x4d3
 987 03b8 17       		.uleb128 0x17
 988 03b9 20000000 		.4byte	.LVL31
 989 03bd DE040000 		.4byte	0x4de
 990 03c1 CF030000 		.4byte	0x3cf
 991 03c5 18       		.uleb128 0x18
ARM GAS  /tmp/ccteddTh.s 			page 19


 992 03c6 01       		.uleb128 0x1
 993 03c7 50       		.byte	0x50
 994 03c8 05       		.uleb128 0x5
 995 03c9 03       		.byte	0x3
 996 03ca 84000000 		.4byte	.LC7
 997 03ce 00       		.byte	0
 998 03cf 17       		.uleb128 0x17
 999 03d0 28000000 		.4byte	.LVL32
 1000 03d4 15050000 		.4byte	0x515
 1001 03d8 E9030000 		.4byte	0x3e9
 1002 03dc 18       		.uleb128 0x18
 1003 03dd 01       		.uleb128 0x1
 1004 03de 50       		.byte	0x50
 1005 03df 02       		.uleb128 0x2
 1006 03e0 74       		.byte	0x74
 1007 03e1 00       		.sleb128 0
 1008 03e2 18       		.uleb128 0x18
 1009 03e3 01       		.uleb128 0x1
 1010 03e4 51       		.byte	0x51
 1011 03e5 02       		.uleb128 0x2
 1012 03e6 75       		.byte	0x75
 1013 03e7 00       		.sleb128 0
 1014 03e8 00       		.byte	0
 1015 03e9 16       		.uleb128 0x16
 1016 03ea 2C000000 		.4byte	.LVL33
 1017 03ee F4040000 		.4byte	0x4f4
 1018 03f2 17       		.uleb128 0x17
 1019 03f3 38000000 		.4byte	.LVL36
 1020 03f7 DE040000 		.4byte	0x4de
 1021 03fb 09040000 		.4byte	0x409
 1022 03ff 18       		.uleb128 0x18
 1023 0400 01       		.uleb128 0x1
 1024 0401 50       		.byte	0x50
 1025 0402 05       		.uleb128 0x5
 1026 0403 03       		.byte	0x3
 1027 0404 6C000000 		.4byte	.LC6
 1028 0408 00       		.byte	0
 1029 0409 16       		.uleb128 0x16
 1030 040a 40000000 		.4byte	.LVL37
 1031 040e D3040000 		.4byte	0x4d3
 1032 0412 00       		.byte	0
 1033 0413 12       		.uleb128 0x12
 1034 0414 83020000 		.4byte	.LASF38
 1035 0418 01       		.byte	0x1
 1036 0419 BF       		.byte	0xbf
 1037 041a 00000000 		.4byte	.LFB117
 1038 041e 48000000 		.4byte	.LFE117-.LFB117
 1039 0422 01       		.uleb128 0x1
 1040 0423 9C       		.byte	0x9c
 1041 0424 AB040000 		.4byte	0x4ab
 1042 0428 15       		.uleb128 0x15
 1043 0429 59020000 		.4byte	.LASF33
 1044 042d 01       		.byte	0x1
 1045 042e BF       		.byte	0xbf
 1046 042f 3E010000 		.4byte	0x13e
 1047 0433 6C010000 		.4byte	.LLST7
 1048 0437 15       		.uleb128 0x15
ARM GAS  /tmp/ccteddTh.s 			page 20


 1049 0438 7E000000 		.4byte	.LASF36
 1050 043c 01       		.byte	0x1
 1051 043d C0       		.byte	0xc0
 1052 043e 12010000 		.4byte	0x112
 1053 0442 AE010000 		.4byte	.LLST8
 1054 0446 15       		.uleb128 0x15
 1055 0447 D6010000 		.4byte	.LASF39
 1056 044b 01       		.byte	0x1
 1057 044c C1       		.byte	0xc1
 1058 044d AB040000 		.4byte	0x4ab
 1059 0451 F0010000 		.4byte	.LLST9
 1060 0455 1A       		.uleb128 0x1a
 1061 0456 96020000 		.4byte	.LASF51
 1062 045a 01       		.byte	0x1
 1063 045b C2       		.byte	0xc2
 1064 045c B6040000 		.4byte	0x4b6
 1065 0460 27020000 		.4byte	.LLST10
 1066 0464 17       		.uleb128 0x17
 1067 0465 14000000 		.4byte	.LVL40
 1068 0469 DE040000 		.4byte	0x4de
 1069 046d 7B040000 		.4byte	0x47b
 1070 0471 18       		.uleb128 0x18
 1071 0472 01       		.uleb128 0x1
 1072 0473 50       		.byte	0x50
 1073 0474 05       		.uleb128 0x5
 1074 0475 03       		.byte	0x3
 1075 0476 9C000000 		.4byte	.LC8
 1076 047a 00       		.byte	0
 1077 047b 17       		.uleb128 0x17
 1078 047c 20000000 		.4byte	.LVL41
 1079 0480 DE040000 		.4byte	0x4de
 1080 0484 92040000 		.4byte	0x492
 1081 0488 18       		.uleb128 0x18
 1082 0489 01       		.uleb128 0x1
 1083 048a 50       		.byte	0x50
 1084 048b 05       		.uleb128 0x5
 1085 048c 03       		.byte	0x3
 1086 048d B4000000 		.4byte	.LC9
 1087 0491 00       		.byte	0
 1088 0492 1B       		.uleb128 0x1b
 1089 0493 3A000000 		.4byte	.LVL44
 1090 0497 0A050000 		.4byte	0x50a
 1091 049b 18       		.uleb128 0x18
 1092 049c 01       		.uleb128 0x1
 1093 049d 50       		.byte	0x50
 1094 049e 03       		.uleb128 0x3
 1095 049f F3       		.byte	0xf3
 1096 04a0 01       		.uleb128 0x1
 1097 04a1 50       		.byte	0x50
 1098 04a2 18       		.uleb128 0x18
 1099 04a3 01       		.uleb128 0x1
 1100 04a4 51       		.byte	0x51
 1101 04a5 03       		.uleb128 0x3
 1102 04a6 F3       		.byte	0xf3
 1103 04a7 01       		.uleb128 0x1
 1104 04a8 51       		.byte	0x51
 1105 04a9 00       		.byte	0
ARM GAS  /tmp/ccteddTh.s 			page 21


 1106 04aa 00       		.byte	0
 1107 04ab 0A       		.uleb128 0xa
 1108 04ac 04       		.byte	0x4
 1109 04ad B1040000 		.4byte	0x4b1
 1110 04b1 11       		.uleb128 0x11
 1111 04b2 64010000 		.4byte	0x164
 1112 04b6 0A       		.uleb128 0xa
 1113 04b7 04       		.byte	0x4
 1114 04b8 64010000 		.4byte	0x164
 1115 04bc 1C       		.uleb128 0x1c
 1116 04bd 01020000 		.4byte	.LASF52
 1117 04c1 07       		.byte	0x7
 1118 04c2 9806     		.2byte	0x698
 1119 04c4 B3000000 		.4byte	0xb3
 1120 04c8 1D       		.uleb128 0x1d
 1121 04c9 35000000 		.4byte	.LASF40
 1122 04cd 35000000 		.4byte	.LASF40
 1123 04d1 05       		.byte	0x5
 1124 04d2 8C       		.byte	0x8c
 1125 04d3 1D       		.uleb128 0x1d
 1126 04d4 42000000 		.4byte	.LASF41
 1127 04d8 42000000 		.4byte	.LASF41
 1128 04dc 06       		.byte	0x6
 1129 04dd E7       		.byte	0xe7
 1130 04de 1D       		.uleb128 0x1d
 1131 04df BB020000 		.4byte	.LASF42
 1132 04e3 BB020000 		.4byte	.LASF42
 1133 04e7 06       		.byte	0x6
 1134 04e8 F6       		.byte	0xf6
 1135 04e9 1D       		.uleb128 0x1d
 1136 04ea 75030000 		.4byte	.LASF43
 1137 04ee 75030000 		.4byte	.LASF43
 1138 04f2 05       		.byte	0x5
 1139 04f3 8D       		.byte	0x8d
 1140 04f4 1D       		.uleb128 0x1d
 1141 04f5 24000000 		.4byte	.LASF44
 1142 04f9 24000000 		.4byte	.LASF44
 1143 04fd 06       		.byte	0x6
 1144 04fe E8       		.byte	0xe8
 1145 04ff 1D       		.uleb128 0x1d
 1146 0500 76020000 		.4byte	.LASF45
 1147 0504 76020000 		.4byte	.LASF45
 1148 0508 05       		.byte	0x5
 1149 0509 8E       		.byte	0x8e
 1150 050a 1D       		.uleb128 0x1d
 1151 050b 2A020000 		.4byte	.LASF46
 1152 050f 2A020000 		.4byte	.LASF46
 1153 0513 05       		.byte	0x5
 1154 0514 8F       		.byte	0x8f
 1155 0515 1D       		.uleb128 0x1d
 1156 0516 99010000 		.4byte	.LASF47
 1157 051a 99010000 		.4byte	.LASF47
 1158 051e 05       		.byte	0x5
 1159 051f 90       		.byte	0x90
 1160 0520 00       		.byte	0
 1161              		.section	.debug_abbrev,"",%progbits
 1162              	.Ldebug_abbrev0:
ARM GAS  /tmp/ccteddTh.s 			page 22


 1163 0000 01       		.uleb128 0x1
 1164 0001 11       		.uleb128 0x11
 1165 0002 01       		.byte	0x1
 1166 0003 25       		.uleb128 0x25
 1167 0004 0E       		.uleb128 0xe
 1168 0005 13       		.uleb128 0x13
 1169 0006 0B       		.uleb128 0xb
 1170 0007 03       		.uleb128 0x3
 1171 0008 0E       		.uleb128 0xe
 1172 0009 1B       		.uleb128 0x1b
 1173 000a 0E       		.uleb128 0xe
 1174 000b 55       		.uleb128 0x55
 1175 000c 17       		.uleb128 0x17
 1176 000d 11       		.uleb128 0x11
 1177 000e 01       		.uleb128 0x1
 1178 000f 10       		.uleb128 0x10
 1179 0010 17       		.uleb128 0x17
 1180 0011 00       		.byte	0
 1181 0012 00       		.byte	0
 1182 0013 02       		.uleb128 0x2
 1183 0014 24       		.uleb128 0x24
 1184 0015 00       		.byte	0
 1185 0016 0B       		.uleb128 0xb
 1186 0017 0B       		.uleb128 0xb
 1187 0018 3E       		.uleb128 0x3e
 1188 0019 0B       		.uleb128 0xb
 1189 001a 03       		.uleb128 0x3
 1190 001b 08       		.uleb128 0x8
 1191 001c 00       		.byte	0
 1192 001d 00       		.byte	0
 1193 001e 03       		.uleb128 0x3
 1194 001f 24       		.uleb128 0x24
 1195 0020 00       		.byte	0
 1196 0021 0B       		.uleb128 0xb
 1197 0022 0B       		.uleb128 0xb
 1198 0023 3E       		.uleb128 0x3e
 1199 0024 0B       		.uleb128 0xb
 1200 0025 03       		.uleb128 0x3
 1201 0026 0E       		.uleb128 0xe
 1202 0027 00       		.byte	0
 1203 0028 00       		.byte	0
 1204 0029 04       		.uleb128 0x4
 1205 002a 16       		.uleb128 0x16
 1206 002b 00       		.byte	0
 1207 002c 03       		.uleb128 0x3
 1208 002d 0E       		.uleb128 0xe
 1209 002e 3A       		.uleb128 0x3a
 1210 002f 0B       		.uleb128 0xb
 1211 0030 3B       		.uleb128 0x3b
 1212 0031 0B       		.uleb128 0xb
 1213 0032 49       		.uleb128 0x49
 1214 0033 13       		.uleb128 0x13
 1215 0034 00       		.byte	0
 1216 0035 00       		.byte	0
 1217 0036 05       		.uleb128 0x5
 1218 0037 35       		.uleb128 0x35
 1219 0038 00       		.byte	0
ARM GAS  /tmp/ccteddTh.s 			page 23


 1220 0039 49       		.uleb128 0x49
 1221 003a 13       		.uleb128 0x13
 1222 003b 00       		.byte	0
 1223 003c 00       		.byte	0
 1224 003d 06       		.uleb128 0x6
 1225 003e 04       		.uleb128 0x4
 1226 003f 01       		.byte	0x1
 1227 0040 0B       		.uleb128 0xb
 1228 0041 0B       		.uleb128 0xb
 1229 0042 49       		.uleb128 0x49
 1230 0043 13       		.uleb128 0x13
 1231 0044 3A       		.uleb128 0x3a
 1232 0045 0B       		.uleb128 0xb
 1233 0046 3B       		.uleb128 0x3b
 1234 0047 0B       		.uleb128 0xb
 1235 0048 01       		.uleb128 0x1
 1236 0049 13       		.uleb128 0x13
 1237 004a 00       		.byte	0
 1238 004b 00       		.byte	0
 1239 004c 07       		.uleb128 0x7
 1240 004d 28       		.uleb128 0x28
 1241 004e 00       		.byte	0
 1242 004f 03       		.uleb128 0x3
 1243 0050 0E       		.uleb128 0xe
 1244 0051 1C       		.uleb128 0x1c
 1245 0052 0B       		.uleb128 0xb
 1246 0053 00       		.byte	0
 1247 0054 00       		.byte	0
 1248 0055 08       		.uleb128 0x8
 1249 0056 13       		.uleb128 0x13
 1250 0057 01       		.byte	0x1
 1251 0058 03       		.uleb128 0x3
 1252 0059 0E       		.uleb128 0xe
 1253 005a 0B       		.uleb128 0xb
 1254 005b 0B       		.uleb128 0xb
 1255 005c 3A       		.uleb128 0x3a
 1256 005d 0B       		.uleb128 0xb
 1257 005e 3B       		.uleb128 0x3b
 1258 005f 0B       		.uleb128 0xb
 1259 0060 01       		.uleb128 0x1
 1260 0061 13       		.uleb128 0x13
 1261 0062 00       		.byte	0
 1262 0063 00       		.byte	0
 1263 0064 09       		.uleb128 0x9
 1264 0065 0D       		.uleb128 0xd
 1265 0066 00       		.byte	0
 1266 0067 03       		.uleb128 0x3
 1267 0068 0E       		.uleb128 0xe
 1268 0069 3A       		.uleb128 0x3a
 1269 006a 0B       		.uleb128 0xb
 1270 006b 3B       		.uleb128 0x3b
 1271 006c 0B       		.uleb128 0xb
 1272 006d 49       		.uleb128 0x49
 1273 006e 13       		.uleb128 0x13
 1274 006f 38       		.uleb128 0x38
 1275 0070 0B       		.uleb128 0xb
 1276 0071 00       		.byte	0
ARM GAS  /tmp/ccteddTh.s 			page 24


 1277 0072 00       		.byte	0
 1278 0073 0A       		.uleb128 0xa
 1279 0074 0F       		.uleb128 0xf
 1280 0075 00       		.byte	0
 1281 0076 0B       		.uleb128 0xb
 1282 0077 0B       		.uleb128 0xb
 1283 0078 49       		.uleb128 0x49
 1284 0079 13       		.uleb128 0x13
 1285 007a 00       		.byte	0
 1286 007b 00       		.byte	0
 1287 007c 0B       		.uleb128 0xb
 1288 007d 15       		.uleb128 0x15
 1289 007e 01       		.byte	0x1
 1290 007f 27       		.uleb128 0x27
 1291 0080 19       		.uleb128 0x19
 1292 0081 01       		.uleb128 0x1
 1293 0082 13       		.uleb128 0x13
 1294 0083 00       		.byte	0
 1295 0084 00       		.byte	0
 1296 0085 0C       		.uleb128 0xc
 1297 0086 05       		.uleb128 0x5
 1298 0087 00       		.byte	0
 1299 0088 49       		.uleb128 0x49
 1300 0089 13       		.uleb128 0x13
 1301 008a 00       		.byte	0
 1302 008b 00       		.byte	0
 1303 008c 0D       		.uleb128 0xd
 1304 008d 13       		.uleb128 0x13
 1305 008e 01       		.byte	0x1
 1306 008f 0B       		.uleb128 0xb
 1307 0090 0B       		.uleb128 0xb
 1308 0091 3A       		.uleb128 0x3a
 1309 0092 0B       		.uleb128 0xb
 1310 0093 3B       		.uleb128 0x3b
 1311 0094 0B       		.uleb128 0xb
 1312 0095 01       		.uleb128 0x1
 1313 0096 13       		.uleb128 0x13
 1314 0097 00       		.byte	0
 1315 0098 00       		.byte	0
 1316 0099 0E       		.uleb128 0xe
 1317 009a 0D       		.uleb128 0xd
 1318 009b 00       		.byte	0
 1319 009c 03       		.uleb128 0x3
 1320 009d 08       		.uleb128 0x8
 1321 009e 3A       		.uleb128 0x3a
 1322 009f 0B       		.uleb128 0xb
 1323 00a0 3B       		.uleb128 0x3b
 1324 00a1 0B       		.uleb128 0xb
 1325 00a2 49       		.uleb128 0x49
 1326 00a3 13       		.uleb128 0x13
 1327 00a4 38       		.uleb128 0x38
 1328 00a5 0B       		.uleb128 0xb
 1329 00a6 00       		.byte	0
 1330 00a7 00       		.byte	0
 1331 00a8 0F       		.uleb128 0xf
 1332 00a9 01       		.uleb128 0x1
 1333 00aa 01       		.byte	0x1
ARM GAS  /tmp/ccteddTh.s 			page 25


 1334 00ab 49       		.uleb128 0x49
 1335 00ac 13       		.uleb128 0x13
 1336 00ad 01       		.uleb128 0x1
 1337 00ae 13       		.uleb128 0x13
 1338 00af 00       		.byte	0
 1339 00b0 00       		.byte	0
 1340 00b1 10       		.uleb128 0x10
 1341 00b2 21       		.uleb128 0x21
 1342 00b3 00       		.byte	0
 1343 00b4 49       		.uleb128 0x49
 1344 00b5 13       		.uleb128 0x13
 1345 00b6 2F       		.uleb128 0x2f
 1346 00b7 0B       		.uleb128 0xb
 1347 00b8 00       		.byte	0
 1348 00b9 00       		.byte	0
 1349 00ba 11       		.uleb128 0x11
 1350 00bb 26       		.uleb128 0x26
 1351 00bc 00       		.byte	0
 1352 00bd 49       		.uleb128 0x49
 1353 00be 13       		.uleb128 0x13
 1354 00bf 00       		.byte	0
 1355 00c0 00       		.byte	0
 1356 00c1 12       		.uleb128 0x12
 1357 00c2 2E       		.uleb128 0x2e
 1358 00c3 01       		.byte	0x1
 1359 00c4 3F       		.uleb128 0x3f
 1360 00c5 19       		.uleb128 0x19
 1361 00c6 03       		.uleb128 0x3
 1362 00c7 0E       		.uleb128 0xe
 1363 00c8 3A       		.uleb128 0x3a
 1364 00c9 0B       		.uleb128 0xb
 1365 00ca 3B       		.uleb128 0x3b
 1366 00cb 0B       		.uleb128 0xb
 1367 00cc 27       		.uleb128 0x27
 1368 00cd 19       		.uleb128 0x19
 1369 00ce 11       		.uleb128 0x11
 1370 00cf 01       		.uleb128 0x1
 1371 00d0 12       		.uleb128 0x12
 1372 00d1 06       		.uleb128 0x6
 1373 00d2 40       		.uleb128 0x40
 1374 00d3 18       		.uleb128 0x18
 1375 00d4 9742     		.uleb128 0x2117
 1376 00d6 19       		.uleb128 0x19
 1377 00d7 01       		.uleb128 0x1
 1378 00d8 13       		.uleb128 0x13
 1379 00d9 00       		.byte	0
 1380 00da 00       		.byte	0
 1381 00db 13       		.uleb128 0x13
 1382 00dc 898201   		.uleb128 0x4109
 1383 00df 00       		.byte	0
 1384 00e0 11       		.uleb128 0x11
 1385 00e1 01       		.uleb128 0x1
 1386 00e2 9542     		.uleb128 0x2115
 1387 00e4 19       		.uleb128 0x19
 1388 00e5 31       		.uleb128 0x31
 1389 00e6 13       		.uleb128 0x13
 1390 00e7 00       		.byte	0
ARM GAS  /tmp/ccteddTh.s 			page 26


 1391 00e8 00       		.byte	0
 1392 00e9 14       		.uleb128 0x14
 1393 00ea 05       		.uleb128 0x5
 1394 00eb 00       		.byte	0
 1395 00ec 03       		.uleb128 0x3
 1396 00ed 0E       		.uleb128 0xe
 1397 00ee 3A       		.uleb128 0x3a
 1398 00ef 0B       		.uleb128 0xb
 1399 00f0 3B       		.uleb128 0x3b
 1400 00f1 0B       		.uleb128 0xb
 1401 00f2 49       		.uleb128 0x49
 1402 00f3 13       		.uleb128 0x13
 1403 00f4 02       		.uleb128 0x2
 1404 00f5 18       		.uleb128 0x18
 1405 00f6 00       		.byte	0
 1406 00f7 00       		.byte	0
 1407 00f8 15       		.uleb128 0x15
 1408 00f9 05       		.uleb128 0x5
 1409 00fa 00       		.byte	0
 1410 00fb 03       		.uleb128 0x3
 1411 00fc 0E       		.uleb128 0xe
 1412 00fd 3A       		.uleb128 0x3a
 1413 00fe 0B       		.uleb128 0xb
 1414 00ff 3B       		.uleb128 0x3b
 1415 0100 0B       		.uleb128 0xb
 1416 0101 49       		.uleb128 0x49
 1417 0102 13       		.uleb128 0x13
 1418 0103 02       		.uleb128 0x2
 1419 0104 17       		.uleb128 0x17
 1420 0105 00       		.byte	0
 1421 0106 00       		.byte	0
 1422 0107 16       		.uleb128 0x16
 1423 0108 898201   		.uleb128 0x4109
 1424 010b 00       		.byte	0
 1425 010c 11       		.uleb128 0x11
 1426 010d 01       		.uleb128 0x1
 1427 010e 31       		.uleb128 0x31
 1428 010f 13       		.uleb128 0x13
 1429 0110 00       		.byte	0
 1430 0111 00       		.byte	0
 1431 0112 17       		.uleb128 0x17
 1432 0113 898201   		.uleb128 0x4109
 1433 0116 01       		.byte	0x1
 1434 0117 11       		.uleb128 0x11
 1435 0118 01       		.uleb128 0x1
 1436 0119 31       		.uleb128 0x31
 1437 011a 13       		.uleb128 0x13
 1438 011b 01       		.uleb128 0x1
 1439 011c 13       		.uleb128 0x13
 1440 011d 00       		.byte	0
 1441 011e 00       		.byte	0
 1442 011f 18       		.uleb128 0x18
 1443 0120 8A8201   		.uleb128 0x410a
 1444 0123 00       		.byte	0
 1445 0124 02       		.uleb128 0x2
 1446 0125 18       		.uleb128 0x18
 1447 0126 9142     		.uleb128 0x2111
ARM GAS  /tmp/ccteddTh.s 			page 27


 1448 0128 18       		.uleb128 0x18
 1449 0129 00       		.byte	0
 1450 012a 00       		.byte	0
 1451 012b 19       		.uleb128 0x19
 1452 012c 898201   		.uleb128 0x4109
 1453 012f 01       		.byte	0x1
 1454 0130 11       		.uleb128 0x11
 1455 0131 01       		.uleb128 0x1
 1456 0132 31       		.uleb128 0x31
 1457 0133 13       		.uleb128 0x13
 1458 0134 00       		.byte	0
 1459 0135 00       		.byte	0
 1460 0136 1A       		.uleb128 0x1a
 1461 0137 34       		.uleb128 0x34
 1462 0138 00       		.byte	0
 1463 0139 03       		.uleb128 0x3
 1464 013a 0E       		.uleb128 0xe
 1465 013b 3A       		.uleb128 0x3a
 1466 013c 0B       		.uleb128 0xb
 1467 013d 3B       		.uleb128 0x3b
 1468 013e 0B       		.uleb128 0xb
 1469 013f 49       		.uleb128 0x49
 1470 0140 13       		.uleb128 0x13
 1471 0141 02       		.uleb128 0x2
 1472 0142 17       		.uleb128 0x17
 1473 0143 00       		.byte	0
 1474 0144 00       		.byte	0
 1475 0145 1B       		.uleb128 0x1b
 1476 0146 898201   		.uleb128 0x4109
 1477 0149 01       		.byte	0x1
 1478 014a 11       		.uleb128 0x11
 1479 014b 01       		.uleb128 0x1
 1480 014c 9542     		.uleb128 0x2115
 1481 014e 19       		.uleb128 0x19
 1482 014f 31       		.uleb128 0x31
 1483 0150 13       		.uleb128 0x13
 1484 0151 00       		.byte	0
 1485 0152 00       		.byte	0
 1486 0153 1C       		.uleb128 0x1c
 1487 0154 34       		.uleb128 0x34
 1488 0155 00       		.byte	0
 1489 0156 03       		.uleb128 0x3
 1490 0157 0E       		.uleb128 0xe
 1491 0158 3A       		.uleb128 0x3a
 1492 0159 0B       		.uleb128 0xb
 1493 015a 3B       		.uleb128 0x3b
 1494 015b 05       		.uleb128 0x5
 1495 015c 49       		.uleb128 0x49
 1496 015d 13       		.uleb128 0x13
 1497 015e 3F       		.uleb128 0x3f
 1498 015f 19       		.uleb128 0x19
 1499 0160 3C       		.uleb128 0x3c
 1500 0161 19       		.uleb128 0x19
 1501 0162 00       		.byte	0
 1502 0163 00       		.byte	0
 1503 0164 1D       		.uleb128 0x1d
 1504 0165 2E       		.uleb128 0x2e
ARM GAS  /tmp/ccteddTh.s 			page 28


 1505 0166 00       		.byte	0
 1506 0167 3F       		.uleb128 0x3f
 1507 0168 19       		.uleb128 0x19
 1508 0169 3C       		.uleb128 0x3c
 1509 016a 19       		.uleb128 0x19
 1510 016b 6E       		.uleb128 0x6e
 1511 016c 0E       		.uleb128 0xe
 1512 016d 03       		.uleb128 0x3
 1513 016e 0E       		.uleb128 0xe
 1514 016f 3A       		.uleb128 0x3a
 1515 0170 0B       		.uleb128 0xb
 1516 0171 3B       		.uleb128 0x3b
 1517 0172 0B       		.uleb128 0xb
 1518 0173 00       		.byte	0
 1519 0174 00       		.byte	0
 1520 0175 00       		.byte	0
 1521              		.section	.debug_loc,"",%progbits
 1522              	.Ldebug_loc0:
 1523              	.LLST0:
 1524 0000 00000000 		.4byte	.LVL2
 1525 0004 0A000000 		.4byte	.LVL3
 1526 0008 0100     		.2byte	0x1
 1527 000a 50       		.byte	0x50
 1528 000b 0A000000 		.4byte	.LVL3
 1529 000f 36000000 		.4byte	.LVL8
 1530 0013 0100     		.2byte	0x1
 1531 0015 54       		.byte	0x54
 1532 0016 36000000 		.4byte	.LVL8
 1533 001a 38000000 		.4byte	.LVL9
 1534 001e 0100     		.2byte	0x1
 1535 0020 50       		.byte	0x50
 1536 0021 38000000 		.4byte	.LVL9
 1537 0025 48000000 		.4byte	.LFE113
 1538 0029 0100     		.2byte	0x1
 1539 002b 54       		.byte	0x54
 1540 002c 00000000 		.4byte	0
 1541 0030 00000000 		.4byte	0
 1542              	.LLST1:
 1543 0034 00000000 		.4byte	.LVL2
 1544 0038 0A000000 		.4byte	.LVL3
 1545 003c 0100     		.2byte	0x1
 1546 003e 51       		.byte	0x51
 1547 003f 0A000000 		.4byte	.LVL3
 1548 0043 36000000 		.4byte	.LVL8
 1549 0047 0100     		.2byte	0x1
 1550 0049 55       		.byte	0x55
 1551 004a 36000000 		.4byte	.LVL8
 1552 004e 3B000000 		.4byte	.LVL10-1
 1553 0052 0100     		.2byte	0x1
 1554 0054 51       		.byte	0x51
 1555 0055 3B000000 		.4byte	.LVL10-1
 1556 0059 48000000 		.4byte	.LFE113
 1557 005d 0100     		.2byte	0x1
 1558 005f 55       		.byte	0x55
 1559 0060 00000000 		.4byte	0
 1560 0064 00000000 		.4byte	0
 1561              	.LLST2:
ARM GAS  /tmp/ccteddTh.s 			page 29


 1562 0068 00000000 		.4byte	.LVL11
 1563 006c 06000000 		.4byte	.LVL12
 1564 0070 0100     		.2byte	0x1
 1565 0072 50       		.byte	0x50
 1566 0073 06000000 		.4byte	.LVL12
 1567 0077 30000000 		.4byte	.LVL17
 1568 007b 0100     		.2byte	0x1
 1569 007d 54       		.byte	0x54
 1570 007e 30000000 		.4byte	.LVL17
 1571 0082 32000000 		.4byte	.LVL18
 1572 0086 0100     		.2byte	0x1
 1573 0088 50       		.byte	0x50
 1574 0089 32000000 		.4byte	.LVL18
 1575 008d 40000000 		.4byte	.LFE114
 1576 0091 0100     		.2byte	0x1
 1577 0093 54       		.byte	0x54
 1578 0094 00000000 		.4byte	0
 1579 0098 00000000 		.4byte	0
 1580              	.LLST3:
 1581 009c 00000000 		.4byte	.LVL20
 1582 00a0 13000000 		.4byte	.LVL21-1
 1583 00a4 0100     		.2byte	0x1
 1584 00a6 50       		.byte	0x50
 1585 00a7 13000000 		.4byte	.LVL21-1
 1586 00ab 32000000 		.4byte	.LVL25
 1587 00af 0100     		.2byte	0x1
 1588 00b1 54       		.byte	0x54
 1589 00b2 32000000 		.4byte	.LVL25
 1590 00b6 34000000 		.4byte	.LVL26
 1591 00ba 0100     		.2byte	0x1
 1592 00bc 50       		.byte	0x50
 1593 00bd 34000000 		.4byte	.LVL26
 1594 00c1 5C000000 		.4byte	.LFE115
 1595 00c5 0100     		.2byte	0x1
 1596 00c7 54       		.byte	0x54
 1597 00c8 00000000 		.4byte	0
 1598 00cc 00000000 		.4byte	0
 1599              	.LLST4:
 1600 00d0 00000000 		.4byte	.LVL20
 1601 00d4 13000000 		.4byte	.LVL21-1
 1602 00d8 0100     		.2byte	0x1
 1603 00da 51       		.byte	0x51
 1604 00db 13000000 		.4byte	.LVL21-1
 1605 00df 32000000 		.4byte	.LVL25
 1606 00e3 0100     		.2byte	0x1
 1607 00e5 55       		.byte	0x55
 1608 00e6 32000000 		.4byte	.LVL25
 1609 00ea 37000000 		.4byte	.LVL27-1
 1610 00ee 0100     		.2byte	0x1
 1611 00f0 51       		.byte	0x51
 1612 00f1 37000000 		.4byte	.LVL27-1
 1613 00f5 5C000000 		.4byte	.LFE115
 1614 00f9 0100     		.2byte	0x1
 1615 00fb 55       		.byte	0x55
 1616 00fc 00000000 		.4byte	0
 1617 0100 00000000 		.4byte	0
 1618              	.LLST5:
ARM GAS  /tmp/ccteddTh.s 			page 30


 1619 0104 00000000 		.4byte	.LVL29
 1620 0108 13000000 		.4byte	.LVL30-1
 1621 010c 0100     		.2byte	0x1
 1622 010e 50       		.byte	0x50
 1623 010f 13000000 		.4byte	.LVL30-1
 1624 0113 32000000 		.4byte	.LVL34
 1625 0117 0100     		.2byte	0x1
 1626 0119 54       		.byte	0x54
 1627 011a 32000000 		.4byte	.LVL34
 1628 011e 34000000 		.4byte	.LVL35
 1629 0122 0100     		.2byte	0x1
 1630 0124 50       		.byte	0x50
 1631 0125 34000000 		.4byte	.LVL35
 1632 0129 5C000000 		.4byte	.LFE116
 1633 012d 0100     		.2byte	0x1
 1634 012f 54       		.byte	0x54
 1635 0130 00000000 		.4byte	0
 1636 0134 00000000 		.4byte	0
 1637              	.LLST6:
 1638 0138 00000000 		.4byte	.LVL29
 1639 013c 13000000 		.4byte	.LVL30-1
 1640 0140 0100     		.2byte	0x1
 1641 0142 51       		.byte	0x51
 1642 0143 13000000 		.4byte	.LVL30-1
 1643 0147 32000000 		.4byte	.LVL34
 1644 014b 0100     		.2byte	0x1
 1645 014d 55       		.byte	0x55
 1646 014e 32000000 		.4byte	.LVL34
 1647 0152 37000000 		.4byte	.LVL36-1
 1648 0156 0100     		.2byte	0x1
 1649 0158 51       		.byte	0x51
 1650 0159 37000000 		.4byte	.LVL36-1
 1651 015d 5C000000 		.4byte	.LFE116
 1652 0161 0100     		.2byte	0x1
 1653 0163 55       		.byte	0x55
 1654 0164 00000000 		.4byte	0
 1655 0168 00000000 		.4byte	0
 1656              	.LLST7:
 1657 016c 00000000 		.4byte	.LVL38
 1658 0170 10000000 		.4byte	.LVL39
 1659 0174 0100     		.2byte	0x1
 1660 0176 50       		.byte	0x50
 1661 0177 10000000 		.4byte	.LVL39
 1662 017b 36000000 		.4byte	.LVL43
 1663 017f 0100     		.2byte	0x1
 1664 0181 54       		.byte	0x54
 1665 0182 36000000 		.4byte	.LVL43
 1666 0186 39000000 		.4byte	.LVL44-1
 1667 018a 0100     		.2byte	0x1
 1668 018c 50       		.byte	0x50
 1669 018d 39000000 		.4byte	.LVL44-1
 1670 0191 3A000000 		.4byte	.LVL44
 1671 0195 0400     		.2byte	0x4
 1672 0197 F3       		.byte	0xf3
 1673 0198 01       		.uleb128 0x1
 1674 0199 50       		.byte	0x50
 1675 019a 9F       		.byte	0x9f
ARM GAS  /tmp/ccteddTh.s 			page 31


 1676 019b 3A000000 		.4byte	.LVL44
 1677 019f 48000000 		.4byte	.LFE117
 1678 01a3 0100     		.2byte	0x1
 1679 01a5 50       		.byte	0x50
 1680 01a6 00000000 		.4byte	0
 1681 01aa 00000000 		.4byte	0
 1682              	.LLST8:
 1683 01ae 00000000 		.4byte	.LVL38
 1684 01b2 13000000 		.4byte	.LVL40-1
 1685 01b6 0100     		.2byte	0x1
 1686 01b8 51       		.byte	0x51
 1687 01b9 13000000 		.4byte	.LVL40-1
 1688 01bd 36000000 		.4byte	.LVL43
 1689 01c1 0100     		.2byte	0x1
 1690 01c3 55       		.byte	0x55
 1691 01c4 36000000 		.4byte	.LVL43
 1692 01c8 39000000 		.4byte	.LVL44-1
 1693 01cc 0100     		.2byte	0x1
 1694 01ce 51       		.byte	0x51
 1695 01cf 39000000 		.4byte	.LVL44-1
 1696 01d3 3A000000 		.4byte	.LVL44
 1697 01d7 0400     		.2byte	0x4
 1698 01d9 F3       		.byte	0xf3
 1699 01da 01       		.uleb128 0x1
 1700 01db 51       		.byte	0x51
 1701 01dc 9F       		.byte	0x9f
 1702 01dd 3A000000 		.4byte	.LVL44
 1703 01e1 48000000 		.4byte	.LFE117
 1704 01e5 0100     		.2byte	0x1
 1705 01e7 51       		.byte	0x51
 1706 01e8 00000000 		.4byte	0
 1707 01ec 00000000 		.4byte	0
 1708              	.LLST9:
 1709 01f0 00000000 		.4byte	.LVL38
 1710 01f4 13000000 		.4byte	.LVL40-1
 1711 01f8 0100     		.2byte	0x1
 1712 01fa 52       		.byte	0x52
 1713 01fb 13000000 		.4byte	.LVL40-1
 1714 01ff 36000000 		.4byte	.LVL43
 1715 0203 0100     		.2byte	0x1
 1716 0205 56       		.byte	0x56
 1717 0206 36000000 		.4byte	.LVL43
 1718 020a 3A000000 		.4byte	.LVL44
 1719 020e 0400     		.2byte	0x4
 1720 0210 F3       		.byte	0xf3
 1721 0211 01       		.uleb128 0x1
 1722 0212 52       		.byte	0x52
 1723 0213 9F       		.byte	0x9f
 1724 0214 3A000000 		.4byte	.LVL44
 1725 0218 48000000 		.4byte	.LFE117
 1726 021c 0100     		.2byte	0x1
 1727 021e 52       		.byte	0x52
 1728 021f 00000000 		.4byte	0
 1729 0223 00000000 		.4byte	0
 1730              	.LLST10:
 1731 0227 20000000 		.4byte	.LVL41
 1732 022b 2E000000 		.4byte	.LVL42
ARM GAS  /tmp/ccteddTh.s 			page 32


 1733 022f 0900     		.2byte	0x9
 1734 0231 75       		.byte	0x75
 1735 0232 00       		.sleb128 0
 1736 0233 33       		.byte	0x33
 1737 0234 24       		.byte	0x24
 1738 0235 74       		.byte	0x74
 1739 0236 04       		.sleb128 4
 1740 0237 06       		.byte	0x6
 1741 0238 22       		.byte	0x22
 1742 0239 9F       		.byte	0x9f
 1743 023a 00000000 		.4byte	0
 1744 023e 00000000 		.4byte	0
 1745              		.section	.debug_aranges,"",%progbits
 1746 0000 4C000000 		.4byte	0x4c
 1747 0004 0200     		.2byte	0x2
 1748 0006 00000000 		.4byte	.Ldebug_info0
 1749 000a 04       		.byte	0x4
 1750 000b 00       		.byte	0
 1751 000c 0000     		.2byte	0
 1752 000e 0000     		.2byte	0
 1753 0010 00000000 		.4byte	.LFB111
 1754 0014 04000000 		.4byte	.LFE111-.LFB111
 1755 0018 00000000 		.4byte	.LFB112
 1756 001c 0A000000 		.4byte	.LFE112-.LFB112
 1757 0020 00000000 		.4byte	.LFB113
 1758 0024 48000000 		.4byte	.LFE113-.LFB113
 1759 0028 00000000 		.4byte	.LFB114
 1760 002c 40000000 		.4byte	.LFE114-.LFB114
 1761 0030 00000000 		.4byte	.LFB115
 1762 0034 5C000000 		.4byte	.LFE115-.LFB115
 1763 0038 00000000 		.4byte	.LFB116
 1764 003c 5C000000 		.4byte	.LFE116-.LFB116
 1765 0040 00000000 		.4byte	.LFB117
 1766 0044 48000000 		.4byte	.LFE117-.LFB117
 1767 0048 00000000 		.4byte	0
 1768 004c 00000000 		.4byte	0
 1769              		.section	.debug_ranges,"",%progbits
 1770              	.Ldebug_ranges0:
 1771 0000 00000000 		.4byte	.LFB111
 1772 0004 04000000 		.4byte	.LFE111
 1773 0008 00000000 		.4byte	.LFB112
 1774 000c 0A000000 		.4byte	.LFE112
 1775 0010 00000000 		.4byte	.LFB113
 1776 0014 48000000 		.4byte	.LFE113
 1777 0018 00000000 		.4byte	.LFB114
 1778 001c 40000000 		.4byte	.LFE114
 1779 0020 00000000 		.4byte	.LFB115
 1780 0024 5C000000 		.4byte	.LFE115
 1781 0028 00000000 		.4byte	.LFB116
 1782 002c 5C000000 		.4byte	.LFE116
 1783 0030 00000000 		.4byte	.LFB117
 1784 0034 48000000 		.4byte	.LFE117
 1785 0038 00000000 		.4byte	0
 1786 003c 00000000 		.4byte	0
 1787              		.section	.debug_line,"",%progbits
 1788              	.Ldebug_line0:
 1789 0000 41030000 		.section	.debug_str,"MS",%progbits,1
ARM GAS  /tmp/ccteddTh.s 			page 33


 1789      02001B02 
 1789      00000201 
 1789      FB0E0D00 
 1789      01010101 
 1790              	.LASF49:
 1791 0000 2E2E2F2E 		.ascii	"../../../os/hal/src/ext.c\000"
 1791      2E2F2E2E 
 1791      2F6F732F 
 1791      68616C2F 
 1791      7372632F 
 1792              	.LASF21:
 1793 001a 45585444 		.ascii	"EXTDriver\000"
 1793      72697665 
 1793      7200
 1794              	.LASF44:
 1795 0024 6462675F 		.ascii	"dbg_check_unlock\000"
 1795      63686563 
 1795      6B5F756E 
 1795      6C6F636B 
 1795      00
 1796              	.LASF40:
 1797 0035 6578745F 		.ascii	"ext_lld_init\000"
 1797      6C6C645F 
 1797      696E6974 
 1797      00
 1798              	.LASF41:
 1799 0042 6462675F 		.ascii	"dbg_check_lock\000"
 1799      63686563 
 1799      6B5F6C6F 
 1799      636B00
 1800              	.LASF22:
 1801 0051 73746174 		.ascii	"state\000"
 1801      6500
 1802              	.LASF20:
 1803 0057 65787473 		.ascii	"extstate_t\000"
 1803      74617465 
 1803      5F7400
 1804              	.LASF27:
 1805 0062 45585443 		.ascii	"EXTChannelConfig\000"
 1805      68616E6E 
 1805      656C436F 
 1805      6E666967 
 1805      00
 1806              	.LASF17:
 1807 0073 4558545F 		.ascii	"EXT_UNINIT\000"
 1807      554E494E 
 1807      495400
 1808              	.LASF36:
 1809 007e 6368616E 		.ascii	"channel\000"
 1809      6E656C00 
 1810              	.LASF8:
 1811 0086 5F5F696E 		.ascii	"__int32_t\000"
 1811      7433325F 
 1811      7400
 1812              	.LASF34:
 1813 0090 65787453 		.ascii	"extStop\000"
 1813      746F7000 
ARM GAS  /tmp/ccteddTh.s 			page 34


 1814              	.LASF48:
 1815 0098 474E5520 		.ascii	"GNU C11 5.2.1 20151202 (release) [ARM/embedded-5-br"
 1815      43313120 
 1815      352E322E 
 1815      31203230 
 1815      31353132 
 1816 00cb 616E6368 		.ascii	"anch revision 231848] -mcpu=cortex-m4 -mno-thumb-in"
 1816      20726576 
 1816      6973696F 
 1816      6E203233 
 1816      31383438 
 1817 00fe 74657277 		.ascii	"terwork -mthumb -ggdb -O2 -fomit-frame-pointer -fal"
 1817      6F726B20 
 1817      2D6D7468 
 1817      756D6220 
 1817      2D676764 
 1818 0131 69676E2D 		.ascii	"ign-functions=16 -ffunction-sections -fdata-section"
 1818      66756E63 
 1818      74696F6E 
 1818      733D3136 
 1818      202D6666 
 1819 0164 73202D66 		.ascii	"s -fno-common\000"
 1819      6E6F2D63 
 1819      6F6D6D6F 
 1819      6E00
 1820              	.LASF28:
 1821 0172 6368616E 		.ascii	"channels\000"
 1821      6E656C73 
 1821      00
 1822              	.LASF30:
 1823 017b 65787449 		.ascii	"extInit\000"
 1823      6E697400 
 1824              	.LASF24:
 1825 0183 65787063 		.ascii	"expchannel_t\000"
 1825      68616E6E 
 1825      656C5F74 
 1825      00
 1826              	.LASF32:
 1827 0190 65787453 		.ascii	"extStart\000"
 1827      74617274 
 1827      00
 1828              	.LASF47:
 1829 0199 6578745F 		.ascii	"ext_lld_channel_disable\000"
 1829      6C6C645F 
 1829      6368616E 
 1829      6E656C5F 
 1829      64697361 
 1830              	.LASF11:
 1831 01b1 6C6F6E67 		.ascii	"long long unsigned int\000"
 1831      206C6F6E 
 1831      6720756E 
 1831      7369676E 
 1831      65642069 
 1832              	.LASF4:
 1833 01c8 756E7369 		.ascii	"unsigned char\000"
 1833      676E6564 
 1833      20636861 
ARM GAS  /tmp/ccteddTh.s 			page 35


 1833      7200
 1834              	.LASF39:
 1835 01d6 65787463 		.ascii	"extcp\000"
 1835      7000
 1836              	.LASF10:
 1837 01dc 6C6F6E67 		.ascii	"long unsigned int\000"
 1837      20756E73 
 1837      69676E65 
 1837      6420696E 
 1837      7400
 1838              	.LASF6:
 1839 01ee 73686F72 		.ascii	"short unsigned int\000"
 1839      7420756E 
 1839      7369676E 
 1839      65642069 
 1839      6E7400
 1840              	.LASF52:
 1841 0201 49544D5F 		.ascii	"ITM_RxBuffer\000"
 1841      52784275 
 1841      66666572 
 1841      00
 1842              	.LASF23:
 1843 020e 636F6E66 		.ascii	"config\000"
 1843      696700
 1844              	.LASF29:
 1845 0215 45585443 		.ascii	"EXTConfig\000"
 1845      6F6E6669 
 1845      6700
 1846              	.LASF9:
 1847 021f 5F5F7569 		.ascii	"__uint32_t\000"
 1847      6E743332 
 1847      5F7400
 1848              	.LASF46:
 1849 022a 6578745F 		.ascii	"ext_lld_channel_enable\000"
 1849      6C6C645F 
 1849      6368616E 
 1849      6E656C5F 
 1849      656E6162 
 1850              	.LASF19:
 1851 0241 4558545F 		.ascii	"EXT_ACTIVE\000"
 1851      41435449 
 1851      564500
 1852              	.LASF0:
 1853 024c 756E7369 		.ascii	"unsigned int\000"
 1853      676E6564 
 1853      20696E74 
 1853      00
 1854              	.LASF33:
 1855 0259 65787470 		.ascii	"extp\000"
 1855      00
 1856              	.LASF16:
 1857 025e 63686172 		.ascii	"char\000"
 1857      00
 1858              	.LASF25:
 1859 0263 65787463 		.ascii	"extcallback_t\000"
 1859      616C6C62 
 1859      61636B5F 
ARM GAS  /tmp/ccteddTh.s 			page 36


 1859      7400
 1860              	.LASF26:
 1861 0271 6D6F6465 		.ascii	"mode\000"
 1861      00
 1862              	.LASF45:
 1863 0276 6578745F 		.ascii	"ext_lld_stop\000"
 1863      6C6C645F 
 1863      73746F70 
 1863      00
 1864              	.LASF38:
 1865 0283 65787453 		.ascii	"extSetChannelModeI\000"
 1865      65744368 
 1865      616E6E65 
 1865      6C4D6F64 
 1865      654900
 1866              	.LASF51:
 1867 0296 6F6C6463 		.ascii	"oldcp\000"
 1867      7000
 1868              	.LASF12:
 1869 029c 696E7433 		.ascii	"int32_t\000"
 1869      325F7400 
 1870              	.LASF15:
 1871 02a4 73697A65 		.ascii	"sizetype\000"
 1871      74797065 
 1871      00
 1872              	.LASF1:
 1873 02ad 6C6F6E67 		.ascii	"long long int\000"
 1873      206C6F6E 
 1873      6720696E 
 1873      7400
 1874              	.LASF42:
 1875 02bb 63684462 		.ascii	"chDbgPanic\000"
 1875      6750616E 
 1875      696300
 1876              	.LASF35:
 1877 02c6 65787443 		.ascii	"extChannelEnable\000"
 1877      68616E6E 
 1877      656C456E 
 1877      61626C65 
 1877      00
 1878              	.LASF5:
 1879 02d7 73686F72 		.ascii	"short int\000"
 1879      7420696E 
 1879      7400
 1880              	.LASF50:
 1881 02e1 2F686F6D 		.ascii	"/home/z80/projects/stm32f238.git/firmware/testhal/S"
 1881      652F7A38 
 1881      302F7072 
 1881      6F6A6563 
 1881      74732F73 
 1882 0314 544D3332 		.ascii	"TM32F4xx/_serial\000"
 1882      46347878 
 1882      2F5F7365 
 1882      7269616C 
 1882      00
 1883              	.LASF31:
 1884 0325 6578744F 		.ascii	"extObjectInit\000"
ARM GAS  /tmp/ccteddTh.s 			page 37


 1884      626A6563 
 1884      74496E69 
 1884      7400
 1885              	.LASF13:
 1886 0333 75696E74 		.ascii	"uint32_t\000"
 1886      33325F74 
 1886      00
 1887              	.LASF7:
 1888 033c 6C6F6E67 		.ascii	"long int\000"
 1888      20696E74 
 1888      00
 1889              	.LASF2:
 1890 0345 6C6F6E67 		.ascii	"long double\000"
 1890      20646F75 
 1890      626C6500 
 1891              	.LASF3:
 1892 0351 7369676E 		.ascii	"signed char\000"
 1892      65642063 
 1892      68617200 
 1893              	.LASF37:
 1894 035d 65787443 		.ascii	"extChannelDisable\000"
 1894      68616E6E 
 1894      656C4469 
 1894      7361626C 
 1894      6500
 1895              	.LASF14:
 1896 036f 5F426F6F 		.ascii	"_Bool\000"
 1896      6C00
 1897              	.LASF43:
 1898 0375 6578745F 		.ascii	"ext_lld_start\000"
 1898      6C6C645F 
 1898      73746172 
 1898      7400
 1899              	.LASF18:
 1900 0383 4558545F 		.ascii	"EXT_STOP\000"
 1900      53544F50 
 1900      00
 1901              		.ident	"GCC: (GNU Tools for ARM Embedded Processors) 5.2.1 20151202 (release) [ARM/embedded-5-bran
ARM GAS  /tmp/ccteddTh.s 			page 38


DEFINED SYMBOLS
                            *ABS*:00000000 ext.c
     /tmp/ccteddTh.s:20     .text.extInit:00000000 $t
     /tmp/ccteddTh.s:26     .text.extInit:00000000 extInit
     /tmp/ccteddTh.s:41     .text.extObjectInit:00000000 $t
     /tmp/ccteddTh.s:47     .text.extObjectInit:00000000 extObjectInit
     /tmp/ccteddTh.s:68     .text.extStart:00000000 $t
     /tmp/ccteddTh.s:74     .text.extStart:00000000 extStart
     /tmp/ccteddTh.s:146    .text.extStart:00000040 $d
     /tmp/ccteddTh.s:152    .text.extStop:00000000 $t
     /tmp/ccteddTh.s:158    .text.extStop:00000000 extStop
     /tmp/ccteddTh.s:221    .text.extStop:00000038 $d
     /tmp/ccteddTh.s:227    .text.extChannelEnable:00000000 $t
     /tmp/ccteddTh.s:233    .text.extChannelEnable:00000000 extChannelEnable
     /tmp/ccteddTh.s:318    .text.extChannelEnable:00000054 $d
     /tmp/ccteddTh.s:324    .text.extChannelDisable:00000000 $t
     /tmp/ccteddTh.s:330    .text.extChannelDisable:00000000 extChannelDisable
     /tmp/ccteddTh.s:415    .text.extChannelDisable:00000054 $d
     /tmp/ccteddTh.s:421    .text.extSetChannelModeI:00000000 $t
     /tmp/ccteddTh.s:427    .text.extSetChannelModeI:00000000 extSetChannelModeI
     /tmp/ccteddTh.s:495    .text.extSetChannelModeI:00000040 $d
     /tmp/ccteddTh.s:501    .rodata.str1.4:00000000 $d
                     .debug_frame:00000010 $d

UNDEFINED SYMBOLS
ext_lld_init
_port_lock
dbg_check_lock
chDbgPanic
ext_lld_start
dbg_check_unlock
_port_unlock
ext_lld_stop
ext_lld_channel_enable
ext_lld_channel_disable
