ARM GAS  /tmp/ccteddTh.s 			page 1


   1              		.syntax unified
   2              		.cpu cortex-m4
   3              		.fpu softvfp
   4              		.eabi_attribute 20, 1
   5              		.eabi_attribute 21, 1
   6              		.eabi_attribute 23, 3
   7              		.eabi_attribute 24, 1
   8              		.eabi_attribute 25, 1
   9              		.eabi_attribute 26, 1
  10              		.eabi_attribute 30, 2
  11              		.eabi_attribute 34, 1
  12              		.eabi_attribute 18, 4
  13              		.thumb
  14              		.syntax unified
  15              		.file	"ext.c"
  16              		.text
  17              	.Ltext0:
  18              		.cfi_sections	.debug_frame
  19              		.section	.text.extInit,"ax",%progbits
  20              		.align	2
  21              		.p2align 4,,15
  22              		.global	extInit
  23              		.thumb
  24              		.thumb_func
  25              		.type	extInit, %function
  26              	extInit:
  27              	.LFB111:
  28              		.file 1 "../../../os/hal/src/ext.c"
  29              		.loc 1 68 0
  30              		.cfi_startproc
  31              		@ args = 0, pretend = 0, frame = 0
  32              		@ frame_needed = 0, uses_anonymous_args = 0
  33              		@ link register save eliminated.
  34              		.loc 1 70 0
  35 0000 FFF7FEBF 		b	ext_lld_init
  36              	.LVL0:
  37              		.cfi_endproc
  38              	.LFE111:
  39              		.size	extInit, .-extInit
  40              		.section	.text.extObjectInit,"ax",%progbits
  41              		.align	2
  42              		.p2align 4,,15
  43              		.global	extObjectInit
  44              		.thumb
  45              		.thumb_func
  46              		.type	extObjectInit, %function
  47              	extObjectInit:
  48              	.LFB112:
  49              		.loc 1 80 0
  50              		.cfi_startproc
  51              		@ args = 0, pretend = 0, frame = 0
  52              		@ frame_needed = 0, uses_anonymous_args = 0
  53              		@ link register save eliminated.
  54              	.LVL1:
  55              		.loc 1 82 0
  56 0000 0122     		movs	r2, #1
  57              		.loc 1 83 0
ARM GAS  /tmp/ccteddTh.s 			page 2


  58 0002 0023     		movs	r3, #0
  59              		.loc 1 82 0
  60 0004 0270     		strb	r2, [r0]
  61              		.loc 1 83 0
  62 0006 4360     		str	r3, [r0, #4]
  63 0008 7047     		bx	lr
  64              		.cfi_endproc
  65              	.LFE112:
  66              		.size	extObjectInit, .-extObjectInit
  67 000a 00BF     		.section	.text.extStart,"ax",%progbits
  68              		.align	2
  69              		.p2align 4,,15
  70              		.global	extStart
  71              		.thumb
  72              		.thumb_func
  73              		.type	extStart, %function
  74              	extStart:
  75              	.LFB113:
  76              		.loc 1 96 0
  77              		.cfi_startproc
  78              		@ args = 0, pretend = 0, frame = 0
  79              		@ frame_needed = 0, uses_anonymous_args = 0
  80              	.LVL2:
  81 0000 38B5     		push	{r3, r4, r5, lr}
  82              		.cfi_def_cfa_offset 16
  83              		.cfi_offset 3, -16
  84              		.cfi_offset 4, -12
  85              		.cfi_offset 5, -8
  86              		.cfi_offset 14, -4
  87              		.loc 1 96 0
  88 0002 0D46     		mov	r5, r1
  89              		.loc 1 98 0
  90 0004 0446     		mov	r4, r0
  91 0006 B0B1     		cbz	r0, .L4
  92              		.loc 1 98 0 is_stmt 0 discriminator 2
  93 0008 A9B1     		cbz	r1, .L4
  94              	.LVL3:
  95              	.L5:
  96              		.loc 1 100 0 is_stmt 1
  97              		.syntax unified
  98              	@ 100 "../../../os/hal/src/ext.c" 1
  99 000a FFF7FEFF 		bl      _port_lock
 100              	@ 0 "" 2
 101              		.thumb
 102              		.syntax unified
 103 000e FFF7FEFF 		bl	dbg_check_lock
 104              	.LVL4:
 105              		.loc 1 101 0
 106 0012 2378     		ldrb	r3, [r4]	@ zero_extendqisi2
 107 0014 013B     		subs	r3, r3, #1
 108 0016 012B     		cmp	r3, #1
 109 0018 02D9     		bls	.L6
 110              		.loc 1 101 0 is_stmt 0 discriminator 1
 111 001a 0948     		ldr	r0, .L12
 112 001c FFF7FEFF 		bl	chDbgPanic
 113              	.LVL5:
 114              	.L6:
ARM GAS  /tmp/ccteddTh.s 			page 3


 115              		.loc 1 104 0 is_stmt 1
 116 0020 2046     		mov	r0, r4
 117              		.loc 1 103 0
 118 0022 6560     		str	r5, [r4, #4]
 119              		.loc 1 104 0
 120 0024 FFF7FEFF 		bl	ext_lld_start
 121              	.LVL6:
 122              		.loc 1 105 0
 123 0028 0223     		movs	r3, #2
 124 002a 2370     		strb	r3, [r4]
 125              		.loc 1 106 0
 126 002c FFF7FEFF 		bl	dbg_check_unlock
 127              	.LVL7:
 128              		.syntax unified
 129              	@ 106 "../../../os/hal/src/ext.c" 1
 130 0030 FFF7FEFF 		bl      _port_unlock
 131              	@ 0 "" 2
 132              		.thumb
 133              		.syntax unified
 134 0034 38BD     		pop	{r3, r4, r5, pc}
 135              	.LVL8:
 136              	.L4:
 137              		.loc 1 98 0 discriminator 3
 138 0036 0348     		ldr	r0, .L12+4
 139              	.LVL9:
 140 0038 FFF7FEFF 		bl	chDbgPanic
 141              	.LVL10:
 142 003c E5E7     		b	.L5
 143              	.L13:
 144 003e 00BF     		.align	2
 145              	.L12:
 146 0040 10000000 		.word	.LC1
 147 0044 00000000 		.word	.LC0
 148              		.cfi_endproc
 149              	.LFE113:
 150              		.size	extStart, .-extStart
 151              		.section	.text.extStop,"ax",%progbits
 152              		.align	2
 153              		.p2align 4,,15
 154              		.global	extStop
 155              		.thumb
 156              		.thumb_func
 157              		.type	extStop, %function
 158              	extStop:
 159              	.LFB114:
 160              		.loc 1 116 0
 161              		.cfi_startproc
 162              		@ args = 0, pretend = 0, frame = 0
 163              		@ frame_needed = 0, uses_anonymous_args = 0
 164              	.LVL11:
 165 0000 10B5     		push	{r4, lr}
 166              		.cfi_def_cfa_offset 8
 167              		.cfi_offset 4, -8
 168              		.cfi_offset 14, -4
 169              		.loc 1 118 0
 170 0002 0446     		mov	r4, r0
 171 0004 A0B1     		cbz	r0, .L18
ARM GAS  /tmp/ccteddTh.s 			page 4


 172              	.LVL12:
 173              	.L15:
 174              		.loc 1 120 0
 175              		.syntax unified
 176              	@ 120 "../../../os/hal/src/ext.c" 1
 177 0006 FFF7FEFF 		bl      _port_lock
 178              	@ 0 "" 2
 179              		.thumb
 180              		.syntax unified
 181 000a FFF7FEFF 		bl	dbg_check_lock
 182              	.LVL13:
 183              		.loc 1 121 0
 184 000e 2378     		ldrb	r3, [r4]	@ zero_extendqisi2
 185 0010 013B     		subs	r3, r3, #1
 186 0012 012B     		cmp	r3, #1
 187 0014 02D9     		bls	.L16
 188              		.loc 1 121 0 is_stmt 0 discriminator 1
 189 0016 0848     		ldr	r0, .L19
 190 0018 FFF7FEFF 		bl	chDbgPanic
 191              	.LVL14:
 192              	.L16:
 193              		.loc 1 123 0 is_stmt 1
 194 001c 2046     		mov	r0, r4
 195 001e FFF7FEFF 		bl	ext_lld_stop
 196              	.LVL15:
 197              		.loc 1 124 0
 198 0022 0123     		movs	r3, #1
 199 0024 2370     		strb	r3, [r4]
 200              		.loc 1 125 0
 201 0026 FFF7FEFF 		bl	dbg_check_unlock
 202              	.LVL16:
 203              		.syntax unified
 204              	@ 125 "../../../os/hal/src/ext.c" 1
 205 002a FFF7FEFF 		bl      _port_unlock
 206              	@ 0 "" 2
 207              		.thumb
 208              		.syntax unified
 209 002e 10BD     		pop	{r4, pc}
 210              	.LVL17:
 211              	.L18:
 212              		.loc 1 118 0 discriminator 1
 213 0030 0248     		ldr	r0, .L19+4
 214              	.LVL18:
 215 0032 FFF7FEFF 		bl	chDbgPanic
 216              	.LVL19:
 217 0036 E6E7     		b	.L15
 218              	.L20:
 219              		.align	2
 220              	.L19:
 221 0038 2C000000 		.word	.LC3
 222 003c 20000000 		.word	.LC2
 223              		.cfi_endproc
 224              	.LFE114:
 225              		.size	extStop, .-extStop
 226              		.section	.text.extChannelEnable,"ax",%progbits
 227              		.align	2
 228              		.p2align 4,,15
ARM GAS  /tmp/ccteddTh.s 			page 5


 229              		.global	extChannelEnable
 230              		.thumb
 231              		.thumb_func
 232              		.type	extChannelEnable, %function
 233              	extChannelEnable:
 234              	.LFB115:
 235              		.loc 1 137 0
 236              		.cfi_startproc
 237              		@ args = 0, pretend = 0, frame = 0
 238              		@ frame_needed = 0, uses_anonymous_args = 0
 239              	.LVL20:
 240 0000 38B5     		push	{r3, r4, r5, lr}
 241              		.cfi_def_cfa_offset 16
 242              		.cfi_offset 3, -16
 243              		.cfi_offset 4, -12
 244              		.cfi_offset 5, -8
 245              		.cfi_offset 14, -4
 246              		.loc 1 137 0
 247 0002 0D46     		mov	r5, r1
 248              		.loc 1 139 0
 249 0004 0446     		mov	r4, r0
 250 0006 A0B1     		cbz	r0, .L22
 251              		.loc 1 139 0 is_stmt 0 discriminator 2
 252 0008 1629     		cmp	r1, #22
 253 000a 12D8     		bhi	.L22
 254              		.loc 1 142 0 is_stmt 1
 255              		.syntax unified
 256              	@ 142 "../../../os/hal/src/ext.c" 1
 257 000c FFF7FEFF 		bl      _port_lock
 258              	@ 0 "" 2
 259              		.thumb
 260              		.syntax unified
 261 0010 FFF7FEFF 		bl	dbg_check_lock
 262              	.LVL21:
 263              		.loc 1 143 0
 264 0014 2378     		ldrb	r3, [r4]	@ zero_extendqisi2
 265 0016 022B     		cmp	r3, #2
 266 0018 15D0     		beq	.L30
 267              	.L24:
 268              		.loc 1 143 0 is_stmt 0 discriminator 3
 269 001a 0E48     		ldr	r0, .L31
 270 001c FFF7FEFF 		bl	chDbgPanic
 271              	.LVL22:
 272              	.L25:
 273              		.loc 1 147 0 is_stmt 1
 274 0020 2946     		mov	r1, r5
 275 0022 2046     		mov	r0, r4
 276 0024 FFF7FEFF 		bl	ext_lld_channel_enable
 277              	.LVL23:
 278              		.loc 1 148 0
 279 0028 FFF7FEFF 		bl	dbg_check_unlock
 280              	.LVL24:
 281              		.syntax unified
 282              	@ 148 "../../../os/hal/src/ext.c" 1
 283 002c FFF7FEFF 		bl      _port_unlock
 284              	@ 0 "" 2
 285              		.thumb
ARM GAS  /tmp/ccteddTh.s 			page 6


 286              		.syntax unified
 287 0030 38BD     		pop	{r3, r4, r5, pc}
 288              	.LVL25:
 289              	.L22:
 290              		.loc 1 139 0 discriminator 3
 291 0032 0948     		ldr	r0, .L31+4
 292              	.LVL26:
 293 0034 FFF7FEFF 		bl	chDbgPanic
 294              	.LVL27:
 295              		.loc 1 142 0 discriminator 3
 296              		.syntax unified
 297              	@ 142 "../../../os/hal/src/ext.c" 1
 298 0038 FFF7FEFF 		bl      _port_lock
 299              	@ 0 "" 2
 300              		.thumb
 301              		.syntax unified
 302 003c FFF7FEFF 		bl	dbg_check_lock
 303              	.LVL28:
 304              		.loc 1 143 0 discriminator 3
 305 0040 2378     		ldrb	r3, [r4]	@ zero_extendqisi2
 306 0042 022B     		cmp	r3, #2
 307 0044 E9D1     		bne	.L24
 308              	.L30:
 309              		.loc 1 143 0 is_stmt 0 discriminator 2
 310 0046 6368     		ldr	r3, [r4, #4]
 311 0048 53F83530 		ldr	r3, [r3, r5, lsl #3]
 312 004c 9B07     		lsls	r3, r3, #30
 313 004e E7D1     		bne	.L25
 314 0050 E3E7     		b	.L24
 315              	.L32:
 316 0052 00BF     		.align	2
 317              	.L31:
 318 0054 54000000 		.word	.LC5
 319 0058 3C000000 		.word	.LC4
 320              		.cfi_endproc
 321              	.LFE115:
 322              		.size	extChannelEnable, .-extChannelEnable
 323              		.section	.text.extChannelDisable,"ax",%progbits
 324              		.align	2
 325              		.p2align 4,,15
 326              		.global	extChannelDisable
 327              		.thumb
 328              		.thumb_func
 329              		.type	extChannelDisable, %function
 330              	extChannelDisable:
 331              	.LFB116:
 332              		.loc 1 160 0 is_stmt 1
 333              		.cfi_startproc
 334              		@ args = 0, pretend = 0, frame = 0
 335              		@ frame_needed = 0, uses_anonymous_args = 0
 336              	.LVL29:
 337 0000 38B5     		push	{r3, r4, r5, lr}
 338              		.cfi_def_cfa_offset 16
 339              		.cfi_offset 3, -16
 340              		.cfi_offset 4, -12
 341              		.cfi_offset 5, -8
 342              		.cfi_offset 14, -4
ARM GAS  /tmp/ccteddTh.s 			page 7


 343              		.loc 1 160 0
 344 0002 0D46     		mov	r5, r1
 345              		.loc 1 162 0
 346 0004 0446     		mov	r4, r0
 347 0006 A0B1     		cbz	r0, .L34
 348              		.loc 1 162 0 is_stmt 0 discriminator 2
 349 0008 1629     		cmp	r1, #22
 350 000a 12D8     		bhi	.L34
 351              		.loc 1 165 0 is_stmt 1
 352              		.syntax unified
 353              	@ 165 "../../../os/hal/src/ext.c" 1
 354 000c FFF7FEFF 		bl      _port_lock
 355              	@ 0 "" 2
 356              		.thumb
 357              		.syntax unified
 358 0010 FFF7FEFF 		bl	dbg_check_lock
 359              	.LVL30:
 360              		.loc 1 166 0
 361 0014 2378     		ldrb	r3, [r4]	@ zero_extendqisi2
 362 0016 022B     		cmp	r3, #2
 363 0018 15D0     		beq	.L42
 364              	.L36:
 365              		.loc 1 166 0 is_stmt 0 discriminator 3
 366 001a 0E48     		ldr	r0, .L43
 367 001c FFF7FEFF 		bl	chDbgPanic
 368              	.LVL31:
 369              	.L37:
 370              		.loc 1 170 0 is_stmt 1
 371 0020 2946     		mov	r1, r5
 372 0022 2046     		mov	r0, r4
 373 0024 FFF7FEFF 		bl	ext_lld_channel_disable
 374              	.LVL32:
 375              		.loc 1 171 0
 376 0028 FFF7FEFF 		bl	dbg_check_unlock
 377              	.LVL33:
 378              		.syntax unified
 379              	@ 171 "../../../os/hal/src/ext.c" 1
 380 002c FFF7FEFF 		bl      _port_unlock
 381              	@ 0 "" 2
 382              		.thumb
 383              		.syntax unified
 384 0030 38BD     		pop	{r3, r4, r5, pc}
 385              	.LVL34:
 386              	.L34:
 387              		.loc 1 162 0 discriminator 3
 388 0032 0948     		ldr	r0, .L43+4
 389              	.LVL35:
 390 0034 FFF7FEFF 		bl	chDbgPanic
 391              	.LVL36:
 392              		.loc 1 165 0 discriminator 3
 393              		.syntax unified
 394              	@ 165 "../../../os/hal/src/ext.c" 1
 395 0038 FFF7FEFF 		bl      _port_lock
 396              	@ 0 "" 2
 397              		.thumb
 398              		.syntax unified
 399 003c FFF7FEFF 		bl	dbg_check_lock
ARM GAS  /tmp/ccteddTh.s 			page 8


 400              	.LVL37:
 401              		.loc 1 166 0 discriminator 3
 402 0040 2378     		ldrb	r3, [r4]	@ zero_extendqisi2
 403 0042 022B     		cmp	r3, #2
 404 0044 E9D1     		bne	.L36
 405              	.L42:
 406              		.loc 1 166 0 is_stmt 0 discriminator 2
 407 0046 6368     		ldr	r3, [r4, #4]
 408 0048 53F83530 		ldr	r3, [r3, r5, lsl #3]
 409 004c 9B07     		lsls	r3, r3, #30
 410 004e E7D1     		bne	.L37
 411 0050 E3E7     		b	.L36
 412              	.L44:
 413 0052 00BF     		.align	2
 414              	.L43:
 415 0054 84000000 		.word	.LC7
 416 0058 6C000000 		.word	.LC6
 417              		.cfi_endproc
 418              	.LFE116:
 419              		.size	extChannelDisable, .-extChannelDisable
 420              		.section	.text.extSetChannelModeI,"ax",%progbits
 421              		.align	2
 422              		.p2align 4,,15
 423              		.global	extSetChannelModeI
 424              		.thumb
 425              		.thumb_func
 426              		.type	extSetChannelModeI, %function
 427              	extSetChannelModeI:
 428              	.LFB117:
 429              		.loc 1 193 0 is_stmt 1
 430              		.cfi_startproc
 431              		@ args = 0, pretend = 0, frame = 0
 432              		@ frame_needed = 0, uses_anonymous_args = 0
 433              	.LVL38:
 434 0000 70B5     		push	{r4, r5, r6, lr}
 435              		.cfi_def_cfa_offset 16
 436              		.cfi_offset 4, -16
 437              		.cfi_offset 5, -12
 438              		.cfi_offset 6, -8
 439              		.cfi_offset 14, -4
 440              		.loc 1 193 0
 441 0002 0D46     		mov	r5, r1
 442 0004 1646     		mov	r6, r2
 443              		.loc 1 196 0
 444 0006 0446     		mov	r4, r0
 445 0008 08B1     		cbz	r0, .L46
 446              		.loc 1 196 0 is_stmt 0 discriminator 2
 447 000a 1629     		cmp	r1, #22
 448 000c 15D9     		bls	.L56
 449              	.L46:
 450              		.loc 1 196 0 discriminator 5
 451 000e 0C48     		ldr	r0, .L57
 452              	.LVL39:
 453 0010 FFF7FEFF 		bl	chDbgPanic
 454              	.LVL40:
 455              	.L47:
 456              		.loc 1 199 0 is_stmt 1
ARM GAS  /tmp/ccteddTh.s 			page 9


 457 0014 2378     		ldrb	r3, [r4]	@ zero_extendqisi2
 458 0016 022B     		cmp	r3, #2
 459 0018 02D0     		beq	.L48
 460              		.loc 1 199 0 is_stmt 0 discriminator 1
 461 001a 0A48     		ldr	r0, .L57+4
 462 001c FFF7FEFF 		bl	chDbgPanic
 463              	.LVL41:
 464              	.L48:
 465              		.loc 1 208 0 is_stmt 1
 466 0020 96E80300 		ldmia	r6, {r0, r1}
 467 0024 6368     		ldr	r3, [r4, #4]
 468 0026 03EBC503 		add	r3, r3, r5, lsl #3
 469 002a 83E80300 		stmia	r3, {r0, r1}
 470              	.LVL42:
 471              		.loc 1 209 0
 472 002e 2946     		mov	r1, r5
 473 0030 2046     		mov	r0, r4
 474              		.loc 1 210 0
 475 0032 BDE87040 		pop	{r4, r5, r6, lr}
 476              		.cfi_remember_state
 477              		.cfi_restore 14
 478              		.cfi_restore 6
 479              		.cfi_restore 5
 480              		.cfi_restore 4
 481              		.cfi_def_cfa_offset 0
 482              	.LVL43:
 483              		.loc 1 209 0
 484 0036 FFF7FEBF 		b	ext_lld_channel_enable
 485              	.LVL44:
 486              	.L56:
 487              		.cfi_restore_state
 488              		.loc 1 196 0 discriminator 4
 489 003a 002A     		cmp	r2, #0
 490 003c EAD1     		bne	.L47
 491 003e E6E7     		b	.L46
 492              	.L58:
 493              		.align	2
 494              	.L57:
 495 0040 9C000000 		.word	.LC8
 496 0044 B4000000 		.word	.LC9
 497              		.cfi_endproc
 498              	.LFE117:
 499              		.size	extSetChannelModeI, .-extSetChannelModeI
 500              		.section	.rodata.str1.4,"aMS",%progbits,1
 501              		.align	2
 502              	.LC0:
 503 0000 22657874 		.ascii	"\"extStart\"()\000"
 503      53746172 
 503      74222829 
 503      00
 504 000d 000000   		.space	3
 505              	.LC1:
 506 0010 65787453 		.ascii	"extStart(), #1\000"
 506      74617274 
 506      28292C20 
 506      233100
 507 001f 00       		.space	1
ARM GAS  /tmp/ccteddTh.s 			page 10


 508              	.LC2:
 509 0020 22657874 		.ascii	"\"extStop\"()\000"
 509      53746F70 
 509      22282900 
 510              	.LC3:
 511 002c 65787453 		.ascii	"extStop(), #1\000"
 511      746F7028 
 511      292C2023 
 511      3100
 512 003a 0000     		.space	2
 513              	.LC4:
 514 003c 22657874 		.ascii	"\"extChannelEnable\"()\000"
 514      4368616E 
 514      6E656C45 
 514      6E61626C 
 514      65222829 
 515 0051 000000   		.space	3
 516              	.LC5:
 517 0054 65787443 		.ascii	"extChannelEnable(), #1\000"
 517      68616E6E 
 517      656C456E 
 517      61626C65 
 517      28292C20 
 518 006b 00       		.space	1
 519              	.LC6:
 520 006c 22657874 		.ascii	"\"extChannelDisable\"()\000"
 520      4368616E 
 520      6E656C44 
 520      69736162 
 520      6C652228 
 521 0082 0000     		.space	2
 522              	.LC7:
 523 0084 65787443 		.ascii	"extChannelDisable(), #1\000"
 523      68616E6E 
 523      656C4469 
 523      7361626C 
 523      6528292C 
 524              	.LC8:
 525 009c 22657874 		.ascii	"\"extSetChannelModeI\"()\000"
 525      53657443 
 525      68616E6E 
 525      656C4D6F 
 525      64654922 
 526 00b3 00       		.space	1
 527              	.LC9:
 528 00b4 65787453 		.ascii	"extSetChannelModeI(), #1\000"
 528      65744368 
 528      616E6E65 
 528      6C4D6F64 
 528      65492829 
 529              		.text
 530              	.Letext0:
 531              		.file 2 "/home/z80/programs/sw4stm32/plugins/fr.ac6.mcu.externaltools.arm-none.linux32_1.7.0.20160
 532              		.file 3 "/home/z80/programs/sw4stm32/plugins/fr.ac6.mcu.externaltools.arm-none.linux32_1.7.0.20160
 533              		.file 4 "../../../os/hal/include/ext.h"
 534              		.file 5 "../../../os/hal/platforms/STM32/ext_lld.h"
 535              		.file 6 "../../../os/kernel/include/chdebug.h"
ARM GAS  /tmp/ccteddTh.s 			page 11


 536              		.file 7 "../../../os/ports/common/ARMCMx/CMSIS/include/core_cm4.h"