ARM GAS  /tmp/cc2rLMrL.s 			page 1


   1              		.syntax unified
   2              		.cpu cortex-m4
   3              		.fpu softvfp
   4              		.eabi_attribute 20, 1
   5              		.eabi_attribute 21, 1
   6              		.eabi_attribute 23, 3
   7              		.eabi_attribute 24, 1
   8              		.eabi_attribute 25, 1
   9              		.eabi_attribute 26, 1
  10              		.eabi_attribute 30, 2
  11              		.eabi_attribute 34, 1
  12              		.eabi_attribute 18, 4
  13              		.thumb
  14              		.syntax unified
  15              		.file	"ext_lld_isr.c"
  16              		.text
  17              	.Ltext0:
  18              		.cfi_sections	.debug_frame
  19              		.section	.text.Vector58,"ax",%progbits
  20              		.align	2
  21              		.p2align 4,,15
  22              		.global	Vector58
  23              		.thumb
  24              		.thumb_func
  25              		.type	Vector58, %function
  26              	Vector58:
  27              	.LFB111:
  28              		.file 1 "../../../os/hal/platforms/STM32F4xx/ext_lld_isr.c"
  29              		.loc 1 57 0
  30              		.cfi_startproc
  31              		@ args = 0, pretend = 0, frame = 0
  32              		@ frame_needed = 0, uses_anonymous_args = 0
  33 0000 08B5     		push	{r3, lr}
  34              		.cfi_def_cfa_offset 8
  35              		.cfi_offset 3, -8
  36              		.cfi_offset 14, -4
  37              		.loc 1 59 0
  38 0002 FFF7FEFF 		bl	dbg_check_enter_isr
  39              	.LVL0:
  40              		.loc 1 62 0
  41 0006 0748     		ldr	r0, .L3
  42              		.loc 1 61 0
  43 0008 074A     		ldr	r2, .L3+4
  44              		.loc 1 62 0
  45 000a 4368     		ldr	r3, [r0, #4]
  46              		.loc 1 61 0
  47 000c 0121     		movs	r1, #1
  48              		.loc 1 62 0
  49 000e 5B68     		ldr	r3, [r3, #4]
  50              		.loc 1 61 0
  51 0010 5161     		str	r1, [r2, #20]
  52              		.loc 1 62 0
  53 0012 0021     		movs	r1, #0
  54 0014 9847     		blx	r3
  55              	.LVL1:
  56              		.loc 1 64 0
  57 0016 FFF7FEFF 		bl	dbg_check_leave_isr
ARM GAS  /tmp/cc2rLMrL.s 			page 2


  58              	.LVL2:
  59              		.loc 1 65 0
  60 001a BDE80840 		pop	{r3, lr}
  61              		.cfi_restore 14
  62              		.cfi_restore 3
  63              		.cfi_def_cfa_offset 0
  64              		.loc 1 64 0
  65 001e FFF7FEBF 		b	_port_irq_epilogue
  66              	.LVL3:
  67              	.L4:
  68 0022 00BF     		.align	2
  69              	.L3:
  70 0024 00000000 		.word	EXTD1
  71 0028 003C0140 		.word	1073822720
  72              		.cfi_endproc
  73              	.LFE111:
  74              		.size	Vector58, .-Vector58
  75              		.section	.text.Vector5C,"ax",%progbits
  76              		.align	2
  77              		.p2align 4,,15
  78              		.global	Vector5C
  79              		.thumb
  80              		.thumb_func
  81              		.type	Vector5C, %function
  82              	Vector5C:
  83              	.LFB112:
  84              		.loc 1 72 0
  85              		.cfi_startproc
  86              		@ args = 0, pretend = 0, frame = 0
  87              		@ frame_needed = 0, uses_anonymous_args = 0
  88 0000 08B5     		push	{r3, lr}
  89              		.cfi_def_cfa_offset 8
  90              		.cfi_offset 3, -8
  91              		.cfi_offset 14, -4
  92              		.loc 1 74 0
  93 0002 FFF7FEFF 		bl	dbg_check_enter_isr
  94              	.LVL4:
  95              		.loc 1 77 0
  96 0006 0748     		ldr	r0, .L7
  97              		.loc 1 76 0
  98 0008 074A     		ldr	r2, .L7+4
  99              		.loc 1 77 0
 100 000a 4368     		ldr	r3, [r0, #4]
 101              		.loc 1 76 0
 102 000c 0221     		movs	r1, #2
 103              		.loc 1 77 0
 104 000e DB68     		ldr	r3, [r3, #12]
 105              		.loc 1 76 0
 106 0010 5161     		str	r1, [r2, #20]
 107              		.loc 1 77 0
 108 0012 0121     		movs	r1, #1
 109 0014 9847     		blx	r3
 110              	.LVL5:
 111              		.loc 1 79 0
 112 0016 FFF7FEFF 		bl	dbg_check_leave_isr
 113              	.LVL6:
 114              		.loc 1 80 0
ARM GAS  /tmp/cc2rLMrL.s 			page 3


 115 001a BDE80840 		pop	{r3, lr}
 116              		.cfi_restore 14
 117              		.cfi_restore 3
 118              		.cfi_def_cfa_offset 0
 119              		.loc 1 79 0
 120 001e FFF7FEBF 		b	_port_irq_epilogue
 121              	.LVL7:
 122              	.L8:
 123 0022 00BF     		.align	2
 124              	.L7:
 125 0024 00000000 		.word	EXTD1
 126 0028 003C0140 		.word	1073822720
 127              		.cfi_endproc
 128              	.LFE112:
 129              		.size	Vector5C, .-Vector5C
 130              		.section	.text.Vector60,"ax",%progbits
 131              		.align	2
 132              		.p2align 4,,15
 133              		.global	Vector60
 134              		.thumb
 135              		.thumb_func
 136              		.type	Vector60, %function
 137              	Vector60:
 138              	.LFB113:
 139              		.loc 1 87 0
 140              		.cfi_startproc
 141              		@ args = 0, pretend = 0, frame = 0
 142              		@ frame_needed = 0, uses_anonymous_args = 0
 143 0000 08B5     		push	{r3, lr}
 144              		.cfi_def_cfa_offset 8
 145              		.cfi_offset 3, -8
 146              		.cfi_offset 14, -4
 147              		.loc 1 89 0
 148 0002 FFF7FEFF 		bl	dbg_check_enter_isr
 149              	.LVL8:
 150              		.loc 1 92 0
 151 0006 0748     		ldr	r0, .L11
 152              		.loc 1 91 0
 153 0008 074A     		ldr	r2, .L11+4
 154              		.loc 1 92 0
 155 000a 4368     		ldr	r3, [r0, #4]
 156              		.loc 1 91 0
 157 000c 0421     		movs	r1, #4
 158              		.loc 1 92 0
 159 000e 5B69     		ldr	r3, [r3, #20]
 160              		.loc 1 91 0
 161 0010 5161     		str	r1, [r2, #20]
 162              		.loc 1 92 0
 163 0012 0221     		movs	r1, #2
 164 0014 9847     		blx	r3
 165              	.LVL9:
 166              		.loc 1 94 0
 167 0016 FFF7FEFF 		bl	dbg_check_leave_isr
 168              	.LVL10:
 169              		.loc 1 95 0
 170 001a BDE80840 		pop	{r3, lr}
 171              		.cfi_restore 14
ARM GAS  /tmp/cc2rLMrL.s 			page 4


 172              		.cfi_restore 3
 173              		.cfi_def_cfa_offset 0
 174              		.loc 1 94 0
 175 001e FFF7FEBF 		b	_port_irq_epilogue
 176              	.LVL11:
 177              	.L12:
 178 0022 00BF     		.align	2
 179              	.L11:
 180 0024 00000000 		.word	EXTD1
 181 0028 003C0140 		.word	1073822720
 182              		.cfi_endproc
 183              	.LFE113:
 184              		.size	Vector60, .-Vector60
 185              		.section	.text.Vector64,"ax",%progbits
 186              		.align	2
 187              		.p2align 4,,15
 188              		.global	Vector64
 189              		.thumb
 190              		.thumb_func
 191              		.type	Vector64, %function
 192              	Vector64:
 193              	.LFB114:
 194              		.loc 1 102 0
 195              		.cfi_startproc
 196              		@ args = 0, pretend = 0, frame = 0
 197              		@ frame_needed = 0, uses_anonymous_args = 0
 198 0000 08B5     		push	{r3, lr}
 199              		.cfi_def_cfa_offset 8
 200              		.cfi_offset 3, -8
 201              		.cfi_offset 14, -4
 202              		.loc 1 104 0
 203 0002 FFF7FEFF 		bl	dbg_check_enter_isr
 204              	.LVL12:
 205              		.loc 1 107 0
 206 0006 0748     		ldr	r0, .L15
 207              		.loc 1 106 0
 208 0008 074A     		ldr	r2, .L15+4
 209              		.loc 1 107 0
 210 000a 4368     		ldr	r3, [r0, #4]
 211              		.loc 1 106 0
 212 000c 0821     		movs	r1, #8
 213              		.loc 1 107 0
 214 000e DB69     		ldr	r3, [r3, #28]
 215              		.loc 1 106 0
 216 0010 5161     		str	r1, [r2, #20]
 217              		.loc 1 107 0
 218 0012 0321     		movs	r1, #3
 219 0014 9847     		blx	r3
 220              	.LVL13:
 221              		.loc 1 109 0
 222 0016 FFF7FEFF 		bl	dbg_check_leave_isr
 223              	.LVL14:
 224              		.loc 1 110 0
 225 001a BDE80840 		pop	{r3, lr}
 226              		.cfi_restore 14
 227              		.cfi_restore 3
 228              		.cfi_def_cfa_offset 0
ARM GAS  /tmp/cc2rLMrL.s 			page 5


 229              		.loc 1 109 0
 230 001e FFF7FEBF 		b	_port_irq_epilogue
 231              	.LVL15:
 232              	.L16:
 233 0022 00BF     		.align	2
 234              	.L15:
 235 0024 00000000 		.word	EXTD1
 236 0028 003C0140 		.word	1073822720
 237              		.cfi_endproc
 238              	.LFE114:
 239              		.size	Vector64, .-Vector64
 240              		.section	.text.Vector68,"ax",%progbits
 241              		.align	2
 242              		.p2align 4,,15
 243              		.global	Vector68
 244              		.thumb
 245              		.thumb_func
 246              		.type	Vector68, %function
 247              	Vector68:
 248              	.LFB115:
 249              		.loc 1 117 0
 250              		.cfi_startproc
 251              		@ args = 0, pretend = 0, frame = 0
 252              		@ frame_needed = 0, uses_anonymous_args = 0
 253 0000 08B5     		push	{r3, lr}
 254              		.cfi_def_cfa_offset 8
 255              		.cfi_offset 3, -8
 256              		.cfi_offset 14, -4
 257              		.loc 1 119 0
 258 0002 FFF7FEFF 		bl	dbg_check_enter_isr
 259              	.LVL16:
 260              		.loc 1 122 0
 261 0006 0748     		ldr	r0, .L19
 262              		.loc 1 121 0
 263 0008 074A     		ldr	r2, .L19+4
 264              		.loc 1 122 0
 265 000a 4368     		ldr	r3, [r0, #4]
 266              		.loc 1 121 0
 267 000c 1021     		movs	r1, #16
 268              		.loc 1 122 0
 269 000e 5B6A     		ldr	r3, [r3, #36]
 270              		.loc 1 121 0
 271 0010 5161     		str	r1, [r2, #20]
 272              		.loc 1 122 0
 273 0012 0421     		movs	r1, #4
 274 0014 9847     		blx	r3
 275              	.LVL17:
 276              		.loc 1 124 0
 277 0016 FFF7FEFF 		bl	dbg_check_leave_isr
 278              	.LVL18:
 279              		.loc 1 125 0
 280 001a BDE80840 		pop	{r3, lr}
 281              		.cfi_restore 14
 282              		.cfi_restore 3
 283              		.cfi_def_cfa_offset 0
 284              		.loc 1 124 0
 285 001e FFF7FEBF 		b	_port_irq_epilogue
ARM GAS  /tmp/cc2rLMrL.s 			page 6


 286              	.LVL19:
 287              	.L20:
 288 0022 00BF     		.align	2
 289              	.L19:
 290 0024 00000000 		.word	EXTD1
 291 0028 003C0140 		.word	1073822720
 292              		.cfi_endproc
 293              	.LFE115:
 294              		.size	Vector68, .-Vector68
 295              		.section	.text.Vector9C,"ax",%progbits
 296              		.align	2
 297              		.p2align 4,,15
 298              		.global	Vector9C
 299              		.thumb
 300              		.thumb_func
 301              		.type	Vector9C, %function
 302              	Vector9C:
 303              	.LFB116:
 304              		.loc 1 132 0
 305              		.cfi_startproc
 306              		@ args = 0, pretend = 0, frame = 0
 307              		@ frame_needed = 0, uses_anonymous_args = 0
 308 0000 10B5     		push	{r4, lr}
 309              		.cfi_def_cfa_offset 8
 310              		.cfi_offset 4, -8
 311              		.cfi_offset 14, -4
 312              		.loc 1 135 0
 313 0002 FFF7FEFF 		bl	dbg_check_enter_isr
 314              	.LVL20:
 315              		.loc 1 137 0
 316 0006 194B     		ldr	r3, .L48
 317 0008 5C69     		ldr	r4, [r3, #20]
 318 000a 04F47872 		and	r2, r4, #992
 319              	.LVL21:
 320              		.loc 1 138 0
 321 000e 5A61     		str	r2, [r3, #20]
 322              		.loc 1 139 0
 323 0010 A306     		lsls	r3, r4, #26
 324 0012 24D4     		bmi	.L44
 325              	.LVL22:
 326              	.L22:
 327              		.loc 1 141 0
 328 0014 6006     		lsls	r0, r4, #25
 329 0016 1CD4     		bmi	.L45
 330              	.L23:
 331              		.loc 1 143 0
 332 0018 2106     		lsls	r1, r4, #24
 333 001a 14D4     		bmi	.L46
 334              	.L24:
 335              		.loc 1 145 0
 336 001c E205     		lsls	r2, r4, #23
 337 001e 0CD4     		bmi	.L47
 338              	.L25:
 339              		.loc 1 147 0
 340 0020 A305     		lsls	r3, r4, #22
 341 0022 04D5     		bpl	.L26
 342              		.loc 1 148 0
ARM GAS  /tmp/cc2rLMrL.s 			page 7


 343 0024 1248     		ldr	r0, .L48+4
 344 0026 4368     		ldr	r3, [r0, #4]
 345 0028 0921     		movs	r1, #9
 346 002a DB6C     		ldr	r3, [r3, #76]
 347 002c 9847     		blx	r3
 348              	.LVL23:
 349              	.L26:
 350              		.loc 1 150 0
 351 002e FFF7FEFF 		bl	dbg_check_leave_isr
 352              	.LVL24:
 353              		.loc 1 151 0
 354 0032 BDE81040 		pop	{r4, lr}
 355              		.cfi_remember_state
 356              		.cfi_restore 14
 357              		.cfi_restore 4
 358              		.cfi_def_cfa_offset 0
 359              	.LVL25:
 360              		.loc 1 150 0
 361 0036 FFF7FEBF 		b	_port_irq_epilogue
 362              	.LVL26:
 363              	.L47:
 364              		.cfi_restore_state
 365              		.loc 1 146 0
 366 003a 0D48     		ldr	r0, .L48+4
 367 003c 4368     		ldr	r3, [r0, #4]
 368 003e 0821     		movs	r1, #8
 369 0040 5B6C     		ldr	r3, [r3, #68]
 370 0042 9847     		blx	r3
 371              	.LVL27:
 372 0044 ECE7     		b	.L25
 373              	.L46:
 374              		.loc 1 144 0
 375 0046 0A48     		ldr	r0, .L48+4
 376 0048 4368     		ldr	r3, [r0, #4]
 377 004a 0721     		movs	r1, #7
 378 004c DB6B     		ldr	r3, [r3, #60]
 379 004e 9847     		blx	r3
 380              	.LVL28:
 381 0050 E4E7     		b	.L24
 382              	.L45:
 383              		.loc 1 142 0
 384 0052 0748     		ldr	r0, .L48+4
 385 0054 4368     		ldr	r3, [r0, #4]
 386 0056 0621     		movs	r1, #6
 387 0058 5B6B     		ldr	r3, [r3, #52]
 388 005a 9847     		blx	r3
 389              	.LVL29:
 390 005c DCE7     		b	.L23
 391              	.LVL30:
 392              	.L44:
 393              		.loc 1 140 0
 394 005e 0448     		ldr	r0, .L48+4
 395 0060 4368     		ldr	r3, [r0, #4]
 396 0062 0521     		movs	r1, #5
 397 0064 DB6A     		ldr	r3, [r3, #44]
 398 0066 9847     		blx	r3
 399              	.LVL31:
ARM GAS  /tmp/cc2rLMrL.s 			page 8


 400 0068 D4E7     		b	.L22
 401              	.L49:
 402 006a 00BF     		.align	2
 403              	.L48:
 404 006c 003C0140 		.word	1073822720
 405 0070 00000000 		.word	EXTD1
 406              		.cfi_endproc
 407              	.LFE116:
 408              		.size	Vector9C, .-Vector9C
 409              		.section	.text.VectorE0,"ax",%progbits
 410              		.align	2
 411              		.p2align 4,,15
 412              		.global	VectorE0
 413              		.thumb
 414              		.thumb_func
 415              		.type	VectorE0, %function
 416              	VectorE0:
 417              	.LFB117:
 418              		.loc 1 158 0
 419              		.cfi_startproc
 420              		@ args = 0, pretend = 0, frame = 0
 421              		@ frame_needed = 0, uses_anonymous_args = 0
 422 0000 10B5     		push	{r4, lr}
 423              		.cfi_def_cfa_offset 8
 424              		.cfi_offset 4, -8
 425              		.cfi_offset 14, -4
 426              		.loc 1 161 0
 427 0002 FFF7FEFF 		bl	dbg_check_enter_isr
 428              	.LVL32:
 429              		.loc 1 163 0
 430 0006 1D4B     		ldr	r3, .L81
 431 0008 5C69     		ldr	r4, [r3, #20]
 432 000a 04F47C42 		and	r2, r4, #64512
 433              	.LVL33:
 434              		.loc 1 165 0
 435 000e 5A61     		str	r2, [r3, #20]
 436              		.loc 1 166 0
 437 0010 6205     		lsls	r2, r4, #21
 438              	.LVL34:
 439 0012 2CD4     		bmi	.L76
 440              	.LVL35:
 441              	.L51:
 442              		.loc 1 168 0
 443 0014 2305     		lsls	r3, r4, #20
 444 0016 24D4     		bmi	.L77
 445              	.L52:
 446              		.loc 1 170 0
 447 0018 E004     		lsls	r0, r4, #19
 448 001a 1CD4     		bmi	.L78
 449              	.L53:
 450              		.loc 1 172 0
 451 001c A104     		lsls	r1, r4, #18
 452 001e 14D4     		bmi	.L79
 453              	.L54:
 454              		.loc 1 174 0
 455 0020 6204     		lsls	r2, r4, #17
 456 0022 0CD4     		bmi	.L80
ARM GAS  /tmp/cc2rLMrL.s 			page 9


 457              	.L55:
 458              		.loc 1 176 0
 459 0024 2304     		lsls	r3, r4, #16
 460 0026 04D5     		bpl	.L56
 461              		.loc 1 177 0
 462 0028 1548     		ldr	r0, .L81+4
 463 002a 4368     		ldr	r3, [r0, #4]
 464 002c 0F21     		movs	r1, #15
 465 002e DB6F     		ldr	r3, [r3, #124]
 466 0030 9847     		blx	r3
 467              	.LVL36:
 468              	.L56:
 469              		.loc 1 179 0
 470 0032 FFF7FEFF 		bl	dbg_check_leave_isr
 471              	.LVL37:
 472              		.loc 1 180 0
 473 0036 BDE81040 		pop	{r4, lr}
 474              		.cfi_remember_state
 475              		.cfi_restore 14
 476              		.cfi_restore 4
 477              		.cfi_def_cfa_offset 0
 478              	.LVL38:
 479              		.loc 1 179 0
 480 003a FFF7FEBF 		b	_port_irq_epilogue
 481              	.LVL39:
 482              	.L80:
 483              		.cfi_restore_state
 484              		.loc 1 175 0
 485 003e 1048     		ldr	r0, .L81+4
 486 0040 4368     		ldr	r3, [r0, #4]
 487 0042 0E21     		movs	r1, #14
 488 0044 5B6F     		ldr	r3, [r3, #116]
 489 0046 9847     		blx	r3
 490              	.LVL40:
 491 0048 ECE7     		b	.L55
 492              	.L79:
 493              		.loc 1 173 0
 494 004a 0D48     		ldr	r0, .L81+4
 495 004c 4368     		ldr	r3, [r0, #4]
 496 004e 0D21     		movs	r1, #13
 497 0050 DB6E     		ldr	r3, [r3, #108]
 498 0052 9847     		blx	r3
 499              	.LVL41:
 500 0054 E4E7     		b	.L54
 501              	.L78:
 502              		.loc 1 171 0
 503 0056 0A48     		ldr	r0, .L81+4
 504 0058 4368     		ldr	r3, [r0, #4]
 505 005a 0C21     		movs	r1, #12
 506 005c 5B6E     		ldr	r3, [r3, #100]
 507 005e 9847     		blx	r3
 508              	.LVL42:
 509 0060 DCE7     		b	.L53
 510              	.L77:
 511              		.loc 1 169 0
 512 0062 0748     		ldr	r0, .L81+4
 513 0064 4368     		ldr	r3, [r0, #4]
ARM GAS  /tmp/cc2rLMrL.s 			page 10


 514 0066 0B21     		movs	r1, #11
 515 0068 DB6D     		ldr	r3, [r3, #92]
 516 006a 9847     		blx	r3
 517              	.LVL43:
 518 006c D4E7     		b	.L52
 519              	.LVL44:
 520              	.L76:
 521              		.loc 1 167 0
 522 006e 0448     		ldr	r0, .L81+4
 523 0070 4368     		ldr	r3, [r0, #4]
 524              	.LVL45:
 525 0072 0A21     		movs	r1, #10
 526 0074 5B6D     		ldr	r3, [r3, #84]
 527 0076 9847     		blx	r3
 528              	.LVL46:
 529 0078 CCE7     		b	.L51
 530              	.L82:
 531 007a 00BF     		.align	2
 532              	.L81:
 533 007c 003C0140 		.word	1073822720
 534 0080 00000000 		.word	EXTD1
 535              		.cfi_endproc
 536              	.LFE117:
 537              		.size	VectorE0, .-VectorE0
 538              		.section	.text.Vector44,"ax",%progbits
 539              		.align	2
 540              		.p2align 4,,15
 541              		.global	Vector44
 542              		.thumb
 543              		.thumb_func
 544              		.type	Vector44, %function
 545              	Vector44:
 546              	.LFB118:
 547              		.loc 1 187 0
 548              		.cfi_startproc
 549              		@ args = 0, pretend = 0, frame = 0
 550              		@ frame_needed = 0, uses_anonymous_args = 0
 551 0000 08B5     		push	{r3, lr}
 552              		.cfi_def_cfa_offset 8
 553              		.cfi_offset 3, -8
 554              		.cfi_offset 14, -4
 555              		.loc 1 189 0
 556 0002 FFF7FEFF 		bl	dbg_check_enter_isr
 557              	.LVL47:
 558              		.loc 1 192 0
 559 0006 0848     		ldr	r0, .L85
 560              		.loc 1 191 0
 561 0008 084A     		ldr	r2, .L85+4
 562              		.loc 1 192 0
 563 000a 4368     		ldr	r3, [r0, #4]
 564              		.loc 1 191 0
 565 000c 4FF48031 		mov	r1, #65536
 566              		.loc 1 192 0
 567 0010 D3F88430 		ldr	r3, [r3, #132]
 568              		.loc 1 191 0
 569 0014 5161     		str	r1, [r2, #20]
 570              		.loc 1 192 0
ARM GAS  /tmp/cc2rLMrL.s 			page 11


 571 0016 1021     		movs	r1, #16
 572 0018 9847     		blx	r3
 573              	.LVL48:
 574              		.loc 1 194 0
 575 001a FFF7FEFF 		bl	dbg_check_leave_isr
 576              	.LVL49:
 577              		.loc 1 195 0
 578 001e BDE80840 		pop	{r3, lr}
 579              		.cfi_restore 14
 580              		.cfi_restore 3
 581              		.cfi_def_cfa_offset 0
 582              		.loc 1 194 0
 583 0022 FFF7FEBF 		b	_port_irq_epilogue
 584              	.LVL50:
 585              	.L86:
 586 0026 00BF     		.align	2
 587              	.L85:
 588 0028 00000000 		.word	EXTD1
 589 002c 003C0140 		.word	1073822720
 590              		.cfi_endproc
 591              	.LFE118:
 592              		.size	Vector44, .-Vector44
 593              		.section	.text.VectorE4,"ax",%progbits
 594              		.align	2
 595              		.p2align 4,,15
 596              		.global	VectorE4
 597              		.thumb
 598              		.thumb_func
 599              		.type	VectorE4, %function
 600              	VectorE4:
 601              	.LFB119:
 602              		.loc 1 202 0
 603              		.cfi_startproc
 604              		@ args = 0, pretend = 0, frame = 0
 605              		@ frame_needed = 0, uses_anonymous_args = 0
 606 0000 08B5     		push	{r3, lr}
 607              		.cfi_def_cfa_offset 8
 608              		.cfi_offset 3, -8
 609              		.cfi_offset 14, -4
 610              		.loc 1 204 0
 611 0002 FFF7FEFF 		bl	dbg_check_enter_isr
 612              	.LVL51:
 613              		.loc 1 207 0
 614 0006 0848     		ldr	r0, .L89
 615              		.loc 1 206 0
 616 0008 084A     		ldr	r2, .L89+4
 617              		.loc 1 207 0
 618 000a 4368     		ldr	r3, [r0, #4]
 619              		.loc 1 206 0
 620 000c 4FF40031 		mov	r1, #131072
 621              		.loc 1 207 0
 622 0010 D3F88C30 		ldr	r3, [r3, #140]
 623              		.loc 1 206 0
 624 0014 5161     		str	r1, [r2, #20]
 625              		.loc 1 207 0
 626 0016 1121     		movs	r1, #17
 627 0018 9847     		blx	r3
ARM GAS  /tmp/cc2rLMrL.s 			page 12


 628              	.LVL52:
 629              		.loc 1 209 0
 630 001a FFF7FEFF 		bl	dbg_check_leave_isr
 631              	.LVL53:
 632              		.loc 1 210 0
 633 001e BDE80840 		pop	{r3, lr}
 634              		.cfi_restore 14
 635              		.cfi_restore 3
 636              		.cfi_def_cfa_offset 0
 637              		.loc 1 209 0
 638 0022 FFF7FEBF 		b	_port_irq_epilogue
 639              	.LVL54:
 640              	.L90:
 641 0026 00BF     		.align	2
 642              	.L89:
 643 0028 00000000 		.word	EXTD1
 644 002c 003C0140 		.word	1073822720
 645              		.cfi_endproc
 646              	.LFE119:
 647              		.size	VectorE4, .-VectorE4
 648              		.section	.text.VectorE8,"ax",%progbits
 649              		.align	2
 650              		.p2align 4,,15
 651              		.global	VectorE8
 652              		.thumb
 653              		.thumb_func
 654              		.type	VectorE8, %function
 655              	VectorE8:
 656              	.LFB120:
 657              		.loc 1 217 0
 658              		.cfi_startproc
 659              		@ args = 0, pretend = 0, frame = 0
 660              		@ frame_needed = 0, uses_anonymous_args = 0
 661 0000 08B5     		push	{r3, lr}
 662              		.cfi_def_cfa_offset 8
 663              		.cfi_offset 3, -8
 664              		.cfi_offset 14, -4
 665              		.loc 1 219 0
 666 0002 FFF7FEFF 		bl	dbg_check_enter_isr
 667              	.LVL55:
 668              		.loc 1 222 0
 669 0006 0848     		ldr	r0, .L93
 670              		.loc 1 221 0
 671 0008 084A     		ldr	r2, .L93+4
 672              		.loc 1 222 0
 673 000a 4368     		ldr	r3, [r0, #4]
 674              		.loc 1 221 0
 675 000c 4FF48021 		mov	r1, #262144
 676              		.loc 1 222 0
 677 0010 D3F89430 		ldr	r3, [r3, #148]
 678              		.loc 1 221 0
 679 0014 5161     		str	r1, [r2, #20]
 680              		.loc 1 222 0
 681 0016 1221     		movs	r1, #18
 682 0018 9847     		blx	r3
 683              	.LVL56:
 684              		.loc 1 224 0
ARM GAS  /tmp/cc2rLMrL.s 			page 13


 685 001a FFF7FEFF 		bl	dbg_check_leave_isr
 686              	.LVL57:
 687              		.loc 1 225 0
 688 001e BDE80840 		pop	{r3, lr}
 689              		.cfi_restore 14
 690              		.cfi_restore 3
 691              		.cfi_def_cfa_offset 0
 692              		.loc 1 224 0
 693 0022 FFF7FEBF 		b	_port_irq_epilogue
 694              	.LVL58:
 695              	.L94:
 696 0026 00BF     		.align	2
 697              	.L93:
 698 0028 00000000 		.word	EXTD1
 699 002c 003C0140 		.word	1073822720
 700              		.cfi_endproc
 701              	.LFE120:
 702              		.size	VectorE8, .-VectorE8
 703              		.section	.text.Vector138,"ax",%progbits
 704              		.align	2
 705              		.p2align 4,,15
 706              		.global	Vector138
 707              		.thumb
 708              		.thumb_func
 709              		.type	Vector138, %function
 710              	Vector138:
 711              	.LFB121:
 712              		.loc 1 232 0
 713              		.cfi_startproc
 714              		@ args = 0, pretend = 0, frame = 0
 715              		@ frame_needed = 0, uses_anonymous_args = 0
 716 0000 08B5     		push	{r3, lr}
 717              		.cfi_def_cfa_offset 8
 718              		.cfi_offset 3, -8
 719              		.cfi_offset 14, -4
 720              		.loc 1 234 0
 721 0002 FFF7FEFF 		bl	dbg_check_enter_isr
 722              	.LVL59:
 723              		.loc 1 237 0
 724 0006 0848     		ldr	r0, .L97
 725              		.loc 1 236 0
 726 0008 084A     		ldr	r2, .L97+4
 727              		.loc 1 237 0
 728 000a 4368     		ldr	r3, [r0, #4]
 729              		.loc 1 236 0
 730 000c 4FF40021 		mov	r1, #524288
 731              		.loc 1 237 0
 732 0010 D3F89C30 		ldr	r3, [r3, #156]
 733              		.loc 1 236 0
 734 0014 5161     		str	r1, [r2, #20]
 735              		.loc 1 237 0
 736 0016 1321     		movs	r1, #19
 737 0018 9847     		blx	r3
 738              	.LVL60:
 739              		.loc 1 239 0
 740 001a FFF7FEFF 		bl	dbg_check_leave_isr
 741              	.LVL61:
ARM GAS  /tmp/cc2rLMrL.s 			page 14


 742              		.loc 1 240 0
 743 001e BDE80840 		pop	{r3, lr}
 744              		.cfi_restore 14
 745              		.cfi_restore 3
 746              		.cfi_def_cfa_offset 0
 747              		.loc 1 239 0
 748 0022 FFF7FEBF 		b	_port_irq_epilogue
 749              	.LVL62:
 750              	.L98:
 751 0026 00BF     		.align	2
 752              	.L97:
 753 0028 00000000 		.word	EXTD1
 754 002c 003C0140 		.word	1073822720
 755              		.cfi_endproc
 756              	.LFE121:
 757              		.size	Vector138, .-Vector138
 758              		.section	.text.Vector170,"ax",%progbits
 759              		.align	2
 760              		.p2align 4,,15
 761              		.global	Vector170
 762              		.thumb
 763              		.thumb_func
 764              		.type	Vector170, %function
 765              	Vector170:
 766              	.LFB122:
 767              		.loc 1 248 0
 768              		.cfi_startproc
 769              		@ args = 0, pretend = 0, frame = 0
 770              		@ frame_needed = 0, uses_anonymous_args = 0
 771 0000 08B5     		push	{r3, lr}
 772              		.cfi_def_cfa_offset 8
 773              		.cfi_offset 3, -8
 774              		.cfi_offset 14, -4
 775              		.loc 1 250 0
 776 0002 FFF7FEFF 		bl	dbg_check_enter_isr
 777              	.LVL63:
 778              		.loc 1 253 0
 779 0006 0848     		ldr	r0, .L101
 780              		.loc 1 252 0
 781 0008 084A     		ldr	r2, .L101+4
 782              		.loc 1 253 0
 783 000a 4368     		ldr	r3, [r0, #4]
 784              		.loc 1 252 0
 785 000c 4FF48011 		mov	r1, #1048576
 786              		.loc 1 253 0
 787 0010 D3F8A430 		ldr	r3, [r3, #164]
 788              		.loc 1 252 0
 789 0014 5161     		str	r1, [r2, #20]
 790              		.loc 1 253 0
 791 0016 1421     		movs	r1, #20
 792 0018 9847     		blx	r3
 793              	.LVL64:
 794              		.loc 1 255 0
 795 001a FFF7FEFF 		bl	dbg_check_leave_isr
 796              	.LVL65:
 797              		.loc 1 256 0
 798 001e BDE80840 		pop	{r3, lr}
ARM GAS  /tmp/cc2rLMrL.s 			page 15


 799              		.cfi_restore 14
 800              		.cfi_restore 3
 801              		.cfi_def_cfa_offset 0
 802              		.loc 1 255 0
 803 0022 FFF7FEBF 		b	_port_irq_epilogue
 804              	.LVL66:
 805              	.L102:
 806 0026 00BF     		.align	2
 807              	.L101:
 808 0028 00000000 		.word	EXTD1
 809 002c 003C0140 		.word	1073822720
 810              		.cfi_endproc
 811              	.LFE122:
 812              		.size	Vector170, .-Vector170
 813              		.section	.text.TAMPER_STAMP_IRQHandler,"ax",%progbits
 814              		.align	2
 815              		.p2align 4,,15
 816              		.global	TAMPER_STAMP_IRQHandler
 817              		.thumb
 818              		.thumb_func
 819              		.type	TAMPER_STAMP_IRQHandler, %function
 820              	TAMPER_STAMP_IRQHandler:
 821              	.LFB123:
 822              		.loc 1 263 0
 823              		.cfi_startproc
 824              		@ args = 0, pretend = 0, frame = 0
 825              		@ frame_needed = 0, uses_anonymous_args = 0
 826 0000 08B5     		push	{r3, lr}
 827              		.cfi_def_cfa_offset 8
 828              		.cfi_offset 3, -8
 829              		.cfi_offset 14, -4
 830              		.loc 1 265 0
 831 0002 FFF7FEFF 		bl	dbg_check_enter_isr
 832              	.LVL67:
 833              		.loc 1 268 0
 834 0006 0848     		ldr	r0, .L105
 835              		.loc 1 267 0
 836 0008 084A     		ldr	r2, .L105+4
 837              		.loc 1 268 0
 838 000a 4368     		ldr	r3, [r0, #4]
 839              		.loc 1 267 0
 840 000c 4FF40011 		mov	r1, #2097152
 841              		.loc 1 268 0
 842 0010 D3F8AC30 		ldr	r3, [r3, #172]
 843              		.loc 1 267 0
 844 0014 5161     		str	r1, [r2, #20]
 845              		.loc 1 268 0
 846 0016 1521     		movs	r1, #21
 847 0018 9847     		blx	r3
 848              	.LVL68:
 849              		.loc 1 270 0
 850 001a FFF7FEFF 		bl	dbg_check_leave_isr
 851              	.LVL69:
 852              		.loc 1 271 0
 853 001e BDE80840 		pop	{r3, lr}
 854              		.cfi_restore 14
 855              		.cfi_restore 3
ARM GAS  /tmp/cc2rLMrL.s 			page 16


 856              		.cfi_def_cfa_offset 0
 857              		.loc 1 270 0
 858 0022 FFF7FEBF 		b	_port_irq_epilogue
 859              	.LVL70:
 860              	.L106:
 861 0026 00BF     		.align	2
 862              	.L105:
 863 0028 00000000 		.word	EXTD1
 864 002c 003C0140 		.word	1073822720
 865              		.cfi_endproc
 866              	.LFE123:
 867              		.size	TAMPER_STAMP_IRQHandler, .-TAMPER_STAMP_IRQHandler
 868              		.section	.text.Vector4C,"ax",%progbits
 869              		.align	2
 870              		.p2align 4,,15
 871              		.global	Vector4C
 872              		.thumb
 873              		.thumb_func
 874              		.type	Vector4C, %function
 875              	Vector4C:
 876              	.LFB124:
 877              		.loc 1 279 0
 878              		.cfi_startproc
 879              		@ args = 0, pretend = 0, frame = 0
 880              		@ frame_needed = 0, uses_anonymous_args = 0
 881 0000 08B5     		push	{r3, lr}
 882              		.cfi_def_cfa_offset 8
 883              		.cfi_offset 3, -8
 884              		.cfi_offset 14, -4
 885              		.loc 1 281 0
 886 0002 FFF7FEFF 		bl	dbg_check_enter_isr
 887              	.LVL71:
 888              		.loc 1 284 0
 889 0006 0848     		ldr	r0, .L109
 890              		.loc 1 283 0
 891 0008 084A     		ldr	r2, .L109+4
 892              		.loc 1 284 0
 893 000a 4368     		ldr	r3, [r0, #4]
 894              		.loc 1 283 0
 895 000c 4FF48001 		mov	r1, #4194304
 896              		.loc 1 284 0
 897 0010 D3F8B430 		ldr	r3, [r3, #180]
 898              		.loc 1 283 0
 899 0014 5161     		str	r1, [r2, #20]
 900              		.loc 1 284 0
 901 0016 1621     		movs	r1, #22
 902 0018 9847     		blx	r3
 903              	.LVL72:
 904              		.loc 1 286 0
 905 001a FFF7FEFF 		bl	dbg_check_leave_isr
 906              	.LVL73:
 907              		.loc 1 287 0
 908 001e BDE80840 		pop	{r3, lr}
 909              		.cfi_restore 14
 910              		.cfi_restore 3
 911              		.cfi_def_cfa_offset 0
 912              		.loc 1 286 0
ARM GAS  /tmp/cc2rLMrL.s 			page 17


 913 0022 FFF7FEBF 		b	_port_irq_epilogue
 914              	.LVL74:
 915              	.L110:
 916 0026 00BF     		.align	2
 917              	.L109:
 918 0028 00000000 		.word	EXTD1
 919 002c 003C0140 		.word	1073822720
 920              		.cfi_endproc
 921              	.LFE124:
 922              		.size	Vector4C, .-Vector4C
 923              		.section	.text.ext_lld_exti_irq_enable,"ax",%progbits
 924              		.align	2
 925              		.p2align 4,,15
 926              		.global	ext_lld_exti_irq_enable
 927              		.thumb
 928              		.thumb_func
 929              		.type	ext_lld_exti_irq_enable, %function
 930              	ext_lld_exti_irq_enable:
 931              	.LFB125:
 932              		.loc 1 298 0
 933              		.cfi_startproc
 934              		@ args = 0, pretend = 0, frame = 0
 935              		@ frame_needed = 0, uses_anonymous_args = 0
 936 0000 08B5     		push	{r3, lr}
 937              		.cfi_def_cfa_offset 8
 938              		.cfi_offset 3, -8
 939              		.cfi_offset 14, -4
 940              		.loc 1 300 0
 941 0002 6021     		movs	r1, #96
 942 0004 0620     		movs	r0, #6
 943 0006 FFF7FEFF 		bl	nvicEnableVector
 944              	.LVL75:
 945              		.loc 1 302 0
 946 000a 6021     		movs	r1, #96
 947 000c 0720     		movs	r0, #7
 948 000e FFF7FEFF 		bl	nvicEnableVector
 949              	.LVL76:
 950              		.loc 1 304 0
 951 0012 6021     		movs	r1, #96
 952 0014 0820     		movs	r0, #8
 953 0016 FFF7FEFF 		bl	nvicEnableVector
 954              	.LVL77:
 955              		.loc 1 306 0
 956 001a 6021     		movs	r1, #96
 957 001c 0920     		movs	r0, #9
 958 001e FFF7FEFF 		bl	nvicEnableVector
 959              	.LVL78:
 960              		.loc 1 308 0
 961 0022 6021     		movs	r1, #96
 962 0024 0A20     		movs	r0, #10
 963 0026 FFF7FEFF 		bl	nvicEnableVector
 964              	.LVL79:
 965              		.loc 1 310 0
 966 002a 6021     		movs	r1, #96
 967 002c 1720     		movs	r0, #23
 968 002e FFF7FEFF 		bl	nvicEnableVector
 969              	.LVL80:
ARM GAS  /tmp/cc2rLMrL.s 			page 18


 970              		.loc 1 312 0
 971 0032 6021     		movs	r1, #96
 972 0034 2820     		movs	r0, #40
 973 0036 FFF7FEFF 		bl	nvicEnableVector
 974              	.LVL81:
 975              		.loc 1 314 0
 976 003a 6021     		movs	r1, #96
 977 003c 0120     		movs	r0, #1
 978 003e FFF7FEFF 		bl	nvicEnableVector
 979              	.LVL82:
 980              		.loc 1 316 0
 981 0042 F021     		movs	r1, #240
 982 0044 2920     		movs	r0, #41
 983 0046 FFF7FEFF 		bl	nvicEnableVector
 984              	.LVL83:
 985              		.loc 1 318 0
 986 004a 6021     		movs	r1, #96
 987 004c 2A20     		movs	r0, #42
 988 004e FFF7FEFF 		bl	nvicEnableVector
 989              	.LVL84:
 990              		.loc 1 320 0
 991 0052 6021     		movs	r1, #96
 992 0054 3E20     		movs	r0, #62
 993 0056 FFF7FEFF 		bl	nvicEnableVector
 994              	.LVL85:
 995              		.loc 1 323 0
 996 005a 6021     		movs	r1, #96
 997 005c 4C20     		movs	r0, #76
 998 005e FFF7FEFF 		bl	nvicEnableVector
 999              	.LVL86:
 1000              		.loc 1 325 0
 1001 0062 F021     		movs	r1, #240
 1002 0064 0220     		movs	r0, #2
 1003 0066 FFF7FEFF 		bl	nvicEnableVector
 1004              	.LVL87:
 1005              		.loc 1 328 0
 1006 006a F021     		movs	r1, #240
 1007 006c 0320     		movs	r0, #3
 1008              		.loc 1 330 0
 1009 006e BDE80840 		pop	{r3, lr}
 1010              		.cfi_restore 14
 1011              		.cfi_restore 3
 1012              		.cfi_def_cfa_offset 0
 1013              		.loc 1 328 0
 1014 0072 FFF7FEBF 		b	nvicEnableVector
 1015              	.LVL88:
 1016              		.cfi_endproc
 1017              	.LFE125:
 1018              		.size	ext_lld_exti_irq_enable, .-ext_lld_exti_irq_enable
 1019 0076 00BF     		.section	.text.ext_lld_exti_irq_disable,"ax",%progbits
 1020              		.align	2
 1021              		.p2align 4,,15
 1022              		.global	ext_lld_exti_irq_disable
 1023              		.thumb
 1024              		.thumb_func
 1025              		.type	ext_lld_exti_irq_disable, %function
 1026              	ext_lld_exti_irq_disable:
ARM GAS  /tmp/cc2rLMrL.s 			page 19


 1027              	.LFB126:
 1028              		.loc 1 337 0
 1029              		.cfi_startproc
 1030              		@ args = 0, pretend = 0, frame = 0
 1031              		@ frame_needed = 0, uses_anonymous_args = 0
 1032 0000 08B5     		push	{r3, lr}
 1033              		.cfi_def_cfa_offset 8
 1034              		.cfi_offset 3, -8
 1035              		.cfi_offset 14, -4
 1036              		.loc 1 339 0
 1037 0002 0620     		movs	r0, #6
 1038 0004 FFF7FEFF 		bl	nvicDisableVector
 1039              	.LVL89:
 1040              		.loc 1 340 0
 1041 0008 0720     		movs	r0, #7
 1042 000a FFF7FEFF 		bl	nvicDisableVector
 1043              	.LVL90:
 1044              		.loc 1 341 0
 1045 000e 0820     		movs	r0, #8
 1046 0010 FFF7FEFF 		bl	nvicDisableVector
 1047              	.LVL91:
 1048              		.loc 1 342 0
 1049 0014 0920     		movs	r0, #9
 1050 0016 FFF7FEFF 		bl	nvicDisableVector
 1051              	.LVL92:
 1052              		.loc 1 343 0
 1053 001a 0A20     		movs	r0, #10
 1054 001c FFF7FEFF 		bl	nvicDisableVector
 1055              	.LVL93:
 1056              		.loc 1 344 0
 1057 0020 1720     		movs	r0, #23
 1058 0022 FFF7FEFF 		bl	nvicDisableVector
 1059              	.LVL94:
 1060              		.loc 1 345 0
 1061 0026 2820     		movs	r0, #40
 1062 0028 FFF7FEFF 		bl	nvicDisableVector
 1063              	.LVL95:
 1064              		.loc 1 346 0
 1065 002c 0120     		movs	r0, #1
 1066 002e FFF7FEFF 		bl	nvicDisableVector
 1067              	.LVL96:
 1068              		.loc 1 347 0
 1069 0032 2920     		movs	r0, #41
 1070 0034 FFF7FEFF 		bl	nvicDisableVector
 1071              	.LVL97:
 1072              		.loc 1 348 0
 1073 0038 2A20     		movs	r0, #42
 1074 003a FFF7FEFF 		bl	nvicDisableVector
 1075              	.LVL98:
 1076              		.loc 1 349 0
 1077 003e 3E20     		movs	r0, #62
 1078 0040 FFF7FEFF 		bl	nvicDisableVector
 1079              	.LVL99:
 1080              		.loc 1 351 0
 1081 0044 4C20     		movs	r0, #76
 1082 0046 FFF7FEFF 		bl	nvicDisableVector
 1083              	.LVL100:
ARM GAS  /tmp/cc2rLMrL.s 			page 20


 1084              		.loc 1 352 0
 1085 004a 0220     		movs	r0, #2
 1086 004c FFF7FEFF 		bl	nvicDisableVector
 1087              	.LVL101:
 1088              		.loc 1 354 0
 1089 0050 0320     		movs	r0, #3
 1090              		.loc 1 355 0
 1091 0052 BDE80840 		pop	{r3, lr}
 1092              		.cfi_restore 14
 1093              		.cfi_restore 3
 1094              		.cfi_def_cfa_offset 0
 1095              		.loc 1 354 0
 1096 0056 FFF7FEBF 		b	nvicDisableVector
 1097              	.LVL102:
 1098              		.cfi_endproc
 1099              	.LFE126:
 1100              		.size	ext_lld_exti_irq_disable, .-ext_lld_exti_irq_disable
 1101 005a 00BF     		.text
 1102              	.Letext0:
 1103              		.file 2 "/home/z80/programs/sw4stm32/plugins/fr.ac6.mcu.externaltools.arm-none.linux32_1.7.0.20160
 1104              		.file 3 "/home/z80/programs/sw4stm32/plugins/fr.ac6.mcu.externaltools.arm-none.linux32_1.7.0.20160
 1105              		.file 4 "../../../os/hal/platforms/STM32F4xx/stm32f4xx.h"
 1106              		.file 5 "../../../os/hal/include/ext.h"
 1107              		.file 6 "../../../os/hal/platforms/STM32/ext_lld.h"
 1108              		.file 7 "../../../os/ports/common/ARMCMx/CMSIS/include/core_cm4.h"
 1109              		.file 8 "../../../os/kernel/include/chdebug.h"
 1110              		.file 9 "../../../os/ports/GCC/ARMCMx/chcore_v7m.h"
 1111              		.file 10 "../../../os/ports/common/ARMCMx/nvic.h"
 1112              		.section	.debug_info,"",%progbits
 1113              	.Ldebug_info0:
 1114 0000 420B0000 		.4byte	0xb42
 1115 0004 0400     		.2byte	0x4
 1116 0006 00000000 		.4byte	.Ldebug_abbrev0
 1117 000a 04       		.byte	0x4
 1118 000b 01       		.uleb128 0x1
 1119 000c F7050000 		.4byte	.LASF147
 1120 0010 0C       		.byte	0xc
 1121 0011 3C010000 		.4byte	.LASF148
 1122 0015 62070000 		.4byte	.LASF149
 1123 0019 00000000 		.4byte	.Ldebug_ranges0+0
 1124 001d 00000000 		.4byte	0
 1125 0021 00000000 		.4byte	.Ldebug_line0
 1126 0025 02       		.uleb128 0x2
 1127 0026 04       		.byte	0x4
 1128 0027 05       		.byte	0x5
 1129 0028 696E7400 		.ascii	"int\000"
 1130 002c 03       		.uleb128 0x3
 1131 002d 04       		.byte	0x4
 1132 002e 07       		.byte	0x7
 1133 002f 5E020000 		.4byte	.LASF0
 1134 0033 03       		.uleb128 0x3
 1135 0034 08       		.byte	0x8
 1136 0035 05       		.byte	0x5
 1137 0036 02010000 		.4byte	.LASF1
 1138 003a 03       		.uleb128 0x3
 1139 003b 08       		.byte	0x8
 1140 003c 04       		.byte	0x4
ARM GAS  /tmp/cc2rLMrL.s 			page 21


 1141 003d 08070000 		.4byte	.LASF2
 1142 0041 03       		.uleb128 0x3
 1143 0042 01       		.byte	0x1
 1144 0043 06       		.byte	0x6
 1145 0044 10010000 		.4byte	.LASF3
 1146 0048 03       		.uleb128 0x3
 1147 0049 01       		.byte	0x1
 1148 004a 08       		.byte	0x8
 1149 004b 49050000 		.4byte	.LASF4
 1150 004f 03       		.uleb128 0x3
 1151 0050 02       		.byte	0x2
 1152 0051 05       		.byte	0x5
 1153 0052 A0050000 		.4byte	.LASF5
 1154 0056 03       		.uleb128 0x3
 1155 0057 02       		.byte	0x2
 1156 0058 07       		.byte	0x7
 1157 0059 05030000 		.4byte	.LASF6
 1158 005d 04       		.uleb128 0x4
 1159 005e CD070000 		.4byte	.LASF8
 1160 0062 02       		.byte	0x2
 1161 0063 3F       		.byte	0x3f
 1162 0064 68000000 		.4byte	0x68
 1163 0068 03       		.uleb128 0x3
 1164 0069 04       		.byte	0x4
 1165 006a 05       		.byte	0x5
 1166 006b 7D010000 		.4byte	.LASF7
 1167 006f 04       		.uleb128 0x4
 1168 0070 09020000 		.4byte	.LASF9
 1169 0074 02       		.byte	0x2
 1170 0075 41       		.byte	0x41
 1171 0076 7A000000 		.4byte	0x7a
 1172 007a 03       		.uleb128 0x3
 1173 007b 04       		.byte	0x4
 1174 007c 07       		.byte	0x7
 1175 007d B7020000 		.4byte	.LASF10
 1176 0081 03       		.uleb128 0x3
 1177 0082 08       		.byte	0x8
 1178 0083 07       		.byte	0x7
 1179 0084 85000000 		.4byte	.LASF11
 1180 0088 04       		.uleb128 0x4
 1181 0089 41050000 		.4byte	.LASF12
 1182 008d 03       		.byte	0x3
 1183 008e 1F       		.byte	0x1f
 1184 008f 5D000000 		.4byte	0x5d
 1185 0093 04       		.uleb128 0x4
 1186 0094 D1060000 		.4byte	.LASF13
 1187 0098 03       		.byte	0x3
 1188 0099 20       		.byte	0x20
 1189 009a 6F000000 		.4byte	0x6f
 1190 009e 03       		.uleb128 0x3
 1191 009f 01       		.byte	0x1
 1192 00a0 02       		.byte	0x2
 1193 00a1 3B050000 		.4byte	.LASF14
 1194 00a5 05       		.uleb128 0x5
 1195 00a6 93000000 		.4byte	0x93
 1196 00aa 03       		.uleb128 0x3
 1197 00ab 04       		.byte	0x4
ARM GAS  /tmp/cc2rLMrL.s 			page 22


 1198 00ac 07       		.byte	0x7
 1199 00ad D9030000 		.4byte	.LASF15
 1200 00b1 03       		.uleb128 0x3
 1201 00b2 01       		.byte	0x1
 1202 00b3 08       		.byte	0x8
 1203 00b4 2F070000 		.4byte	.LASF16
 1204 00b8 06       		.uleb128 0x6
 1205 00b9 CB030000 		.4byte	.LASF150
 1206 00bd 01       		.byte	0x1
 1207 00be 41000000 		.4byte	0x41
 1208 00c2 04       		.byte	0x4
 1209 00c3 AA       		.byte	0xaa
 1210 00c4 E5020000 		.4byte	0x2e5
 1211 00c8 07       		.uleb128 0x7
 1212 00c9 B9070000 		.4byte	.LASF17
 1213 00cd 72       		.sleb128 -14
 1214 00ce 07       		.uleb128 0x7
 1215 00cf 94020000 		.4byte	.LASF18
 1216 00d3 74       		.sleb128 -12
 1217 00d4 07       		.uleb128 0x7
 1218 00d5 14020000 		.4byte	.LASF19
 1219 00d9 75       		.sleb128 -11
 1220 00da 07       		.uleb128 0x7
 1221 00db E6060000 		.4byte	.LASF20
 1222 00df 76       		.sleb128 -10
 1223 00e0 07       		.uleb128 0x7
 1224 00e1 F9020000 		.4byte	.LASF21
 1225 00e5 7B       		.sleb128 -5
 1226 00e6 07       		.uleb128 0x7
 1227 00e7 52080000 		.4byte	.LASF22
 1228 00eb 7C       		.sleb128 -4
 1229 00ec 07       		.uleb128 0x7
 1230 00ed EA010000 		.4byte	.LASF23
 1231 00f1 7E       		.sleb128 -2
 1232 00f2 07       		.uleb128 0x7
 1233 00f3 7C030000 		.4byte	.LASF24
 1234 00f7 7F       		.sleb128 -1
 1235 00f8 08       		.uleb128 0x8
 1236 00f9 D0000000 		.4byte	.LASF25
 1237 00fd 00       		.byte	0
 1238 00fe 08       		.uleb128 0x8
 1239 00ff 0E000000 		.4byte	.LASF26
 1240 0103 01       		.byte	0x1
 1241 0104 08       		.uleb128 0x8
 1242 0105 BF040000 		.4byte	.LASF27
 1243 0109 02       		.byte	0x2
 1244 010a 08       		.uleb128 0x8
 1245 010b C2000000 		.4byte	.LASF28
 1246 010f 03       		.byte	0x3
 1247 0110 08       		.uleb128 0x8
 1248 0111 EC050000 		.4byte	.LASF29
 1249 0115 04       		.byte	0x4
 1250 0116 08       		.uleb128 0x8
 1251 0117 AE080000 		.4byte	.LASF30
 1252 011b 05       		.byte	0x5
 1253 011c 08       		.uleb128 0x8
 1254 011d 16080000 		.4byte	.LASF31
ARM GAS  /tmp/cc2rLMrL.s 			page 23


 1255 0121 06       		.byte	0x6
 1256 0122 08       		.uleb128 0x8
 1257 0123 D2080000 		.4byte	.LASF32
 1258 0127 07       		.byte	0x7
 1259 0128 08       		.uleb128 0x8
 1260 0129 E1050000 		.4byte	.LASF33
 1261 012d 08       		.byte	0x8
 1262 012e 08       		.uleb128 0x8
 1263 012f 64040000 		.4byte	.LASF34
 1264 0133 09       		.byte	0x9
 1265 0134 08       		.uleb128 0x8
 1266 0135 87050000 		.4byte	.LASF35
 1267 0139 0A       		.byte	0xa
 1268 013a 08       		.uleb128 0x8
 1269 013b DD080000 		.4byte	.LASF36
 1270 013f 0B       		.byte	0xb
 1271 0140 08       		.uleb128 0x8
 1272 0141 56030000 		.4byte	.LASF37
 1273 0145 0C       		.byte	0xc
 1274 0146 08       		.uleb128 0x8
 1275 0147 79040000 		.4byte	.LASF38
 1276 014b 0D       		.byte	0xd
 1277 014c 08       		.uleb128 0x8
 1278 014d 6B020000 		.4byte	.LASF39
 1279 0151 0E       		.byte	0xe
 1280 0152 08       		.uleb128 0x8
 1281 0153 2A040000 		.4byte	.LASF40
 1282 0157 0F       		.byte	0xf
 1283 0158 08       		.uleb128 0x8
 1284 0159 93010000 		.4byte	.LASF41
 1285 015d 10       		.byte	0x10
 1286 015e 08       		.uleb128 0x8
 1287 015f 7D020000 		.4byte	.LASF42
 1288 0163 11       		.byte	0x11
 1289 0164 08       		.uleb128 0x8
 1290 0165 71080000 		.4byte	.LASF43
 1291 0169 12       		.byte	0x12
 1292 016a 08       		.uleb128 0x8
 1293 016b 30030000 		.4byte	.LASF44
 1294 016f 13       		.byte	0x13
 1295 0170 08       		.uleb128 0x8
 1296 0171 00000000 		.4byte	.LASF45
 1297 0175 14       		.byte	0x14
 1298 0176 08       		.uleb128 0x8
 1299 0177 77000000 		.4byte	.LASF46
 1300 017b 15       		.byte	0x15
 1301 017c 08       		.uleb128 0x8
 1302 017d 92080000 		.4byte	.LASF47
 1303 0181 16       		.byte	0x16
 1304 0182 08       		.uleb128 0x8
 1305 0183 A5010000 		.4byte	.LASF48
 1306 0187 17       		.byte	0x17
 1307 0188 08       		.uleb128 0x8
 1308 0189 62050000 		.4byte	.LASF49
 1309 018d 18       		.byte	0x18
 1310 018e 08       		.uleb128 0x8
 1311 018f ED030000 		.4byte	.LASF50
ARM GAS  /tmp/cc2rLMrL.s 			page 24


 1312 0193 19       		.byte	0x19
 1313 0194 08       		.uleb128 0x8
 1314 0195 B5050000 		.4byte	.LASF51
 1315 0199 1A       		.byte	0x1a
 1316 019a 08       		.uleb128 0x8
 1317 019b 89030000 		.4byte	.LASF52
 1318 019f 1B       		.byte	0x1b
 1319 01a0 08       		.uleb128 0x8
 1320 01a1 0C080000 		.4byte	.LASF53
 1321 01a5 1C       		.byte	0x1c
 1322 01a6 08       		.uleb128 0x8
 1323 01a7 C8080000 		.4byte	.LASF54
 1324 01ab 1D       		.byte	0x1d
 1325 01ac 08       		.uleb128 0x8
 1326 01ad B8000000 		.4byte	.LASF55
 1327 01b1 1E       		.byte	0x1e
 1328 01b2 08       		.uleb128 0x8
 1329 01b3 3B000000 		.4byte	.LASF56
 1330 01b7 1F       		.byte	0x1f
 1331 01b8 08       		.uleb128 0x8
 1332 01b9 D7070000 		.4byte	.LASF57
 1333 01bd 20       		.byte	0x20
 1334 01be 08       		.uleb128 0x8
 1335 01bf 86010000 		.4byte	.LASF58
 1336 01c3 21       		.byte	0x21
 1337 01c4 08       		.uleb128 0x8
 1338 01c5 AB000000 		.4byte	.LASF59
 1339 01c9 22       		.byte	0x22
 1340 01ca 08       		.uleb128 0x8
 1341 01cb 4C030000 		.4byte	.LASF60
 1342 01cf 23       		.byte	0x23
 1343 01d0 08       		.uleb128 0x8
 1344 01d1 6F040000 		.4byte	.LASF61
 1345 01d5 24       		.byte	0x24
 1346 01d6 08       		.uleb128 0x8
 1347 01d7 09050000 		.4byte	.LASF62
 1348 01db 25       		.byte	0x25
 1349 01dc 08       		.uleb128 0x8
 1350 01dd DA060000 		.4byte	.LASF63
 1351 01e1 26       		.byte	0x26
 1352 01e2 08       		.uleb128 0x8
 1353 01e3 F6070000 		.4byte	.LASF64
 1354 01e7 27       		.byte	0x27
 1355 01e8 08       		.uleb128 0x8
 1356 01e9 3D030000 		.4byte	.LASF65
 1357 01ed 28       		.byte	0x28
 1358 01ee 08       		.uleb128 0x8
 1359 01ef 9C000000 		.4byte	.LASF66
 1360 01f3 29       		.byte	0x29
 1361 01f4 08       		.uleb128 0x8
 1362 01f5 22020000 		.4byte	.LASF67
 1363 01f9 2A       		.byte	0x2a
 1364 01fa 08       		.uleb128 0x8
 1365 01fb 68030000 		.4byte	.LASF68
 1366 01ff 2B       		.byte	0x2b
 1367 0200 08       		.uleb128 0x8
 1368 0201 F6010000 		.4byte	.LASF69
ARM GAS  /tmp/cc2rLMrL.s 			page 25


 1369 0205 2C       		.byte	0x2c
 1370 0206 08       		.uleb128 0x8
 1371 0207 96030000 		.4byte	.LASF70
 1372 020b 2D       		.byte	0x2d
 1373 020c 08       		.uleb128 0x8
 1374 020d F5000000 		.4byte	.LASF71
 1375 0211 2E       		.byte	0x2e
 1376 0212 08       		.uleb128 0x8
 1377 0213 1D070000 		.4byte	.LASF72
 1378 0217 2F       		.byte	0x2f
 1379 0218 08       		.uleb128 0x8
 1380 0219 31050000 		.4byte	.LASF73
 1381 021d 30       		.byte	0x30
 1382 021e 08       		.uleb128 0x8
 1383 021f DA000000 		.4byte	.LASF74
 1384 0223 31       		.byte	0x31
 1385 0224 08       		.uleb128 0x8
 1386 0225 5A040000 		.4byte	.LASF75
 1387 0229 32       		.byte	0x32
 1388 022a 08       		.uleb128 0x8
 1389 022b 15050000 		.4byte	.LASF76
 1390 022f 33       		.byte	0x33
 1391 0230 08       		.uleb128 0x8
 1392 0231 CE010000 		.4byte	.LASF77
 1393 0235 34       		.byte	0x34
 1394 0236 08       		.uleb128 0x8
 1395 0237 AA050000 		.4byte	.LASF78
 1396 023b 35       		.byte	0x35
 1397 023c 08       		.uleb128 0x8
 1398 023d C0010000 		.4byte	.LASF79
 1399 0241 36       		.byte	0x36
 1400 0242 08       		.uleb128 0x8
 1401 0243 58070000 		.4byte	.LASF80
 1402 0247 37       		.byte	0x37
 1403 0248 08       		.uleb128 0x8
 1404 0249 E4070000 		.4byte	.LASF81
 1405 024d 38       		.byte	0x38
 1406 024e 08       		.uleb128 0x8
 1407 024f 7A080000 		.4byte	.LASF82
 1408 0253 39       		.byte	0x39
 1409 0254 08       		.uleb128 0x8
 1410 0255 3C040000 		.4byte	.LASF83
 1411 0259 3A       		.byte	0x3a
 1412 025a 08       		.uleb128 0x8
 1413 025b 18040000 		.4byte	.LASF84
 1414 025f 3B       		.byte	0x3b
 1415 0260 08       		.uleb128 0x8
 1416 0261 1F050000 		.4byte	.LASF85
 1417 0265 3C       		.byte	0x3c
 1418 0266 08       		.uleb128 0x8
 1419 0267 C2030000 		.4byte	.LASF86
 1420 026b 3D       		.byte	0x3d
 1421 026c 08       		.uleb128 0x8
 1422 026d B2010000 		.4byte	.LASF87
 1423 0271 3E       		.byte	0x3e
 1424 0272 08       		.uleb128 0x8
 1425 0273 8B040000 		.4byte	.LASF88
ARM GAS  /tmp/cc2rLMrL.s 			page 26


 1426 0277 3F       		.byte	0x3f
 1427 0278 08       		.uleb128 0x8
 1428 0279 17000000 		.4byte	.LASF89
 1429 027d 40       		.byte	0x40
 1430 027e 08       		.uleb128 0x8
 1431 027f 1C010000 		.4byte	.LASF90
 1432 0283 41       		.byte	0x41
 1433 0284 08       		.uleb128 0x8
 1434 0285 A0080000 		.4byte	.LASF91
 1435 0289 42       		.byte	0x42
 1436 028a 08       		.uleb128 0x8
 1437 028b 98040000 		.4byte	.LASF92
 1438 028f 43       		.byte	0x43
 1439 0290 08       		.uleb128 0x8
 1440 0291 55000000 		.4byte	.LASF93
 1441 0295 44       		.byte	0x44
 1442 0296 08       		.uleb128 0x8
 1443 0297 2A010000 		.4byte	.LASF94
 1444 029b 45       		.byte	0x45
 1445 029c 08       		.uleb128 0x8
 1446 029d 33020000 		.4byte	.LASF95
 1447 02a1 46       		.byte	0x46
 1448 02a2 08       		.uleb128 0x8
 1449 02a3 4E040000 		.4byte	.LASF96
 1450 02a7 47       		.byte	0x47
 1451 02a8 08       		.uleb128 0x8
 1452 02a9 AA020000 		.4byte	.LASF97
 1453 02ad 48       		.byte	0x48
 1454 02ae 08       		.uleb128 0x8
 1455 02af 2E000000 		.4byte	.LASF98
 1456 02b3 49       		.byte	0x49
 1457 02b4 08       		.uleb128 0x8
 1458 02b5 E5020000 		.4byte	.LASF99
 1459 02b9 4A       		.byte	0x4a
 1460 02ba 08       		.uleb128 0x8
 1461 02bb A6070000 		.4byte	.LASF100
 1462 02bf 4B       		.byte	0x4b
 1463 02c0 08       		.uleb128 0x8
 1464 02c1 B7080000 		.4byte	.LASF101
 1465 02c5 4C       		.byte	0x4c
 1466 02c6 08       		.uleb128 0x8
 1467 02c7 CF040000 		.4byte	.LASF102
 1468 02cb 4D       		.byte	0x4d
 1469 02cc 08       		.uleb128 0x8
 1470 02cd 35080000 		.4byte	.LASF103
 1471 02d1 4E       		.byte	0x4e
 1472 02d2 08       		.uleb128 0x8
 1473 02d3 39070000 		.4byte	.LASF104
 1474 02d7 4F       		.byte	0x4f
 1475 02d8 08       		.uleb128 0x8
 1476 02d9 92050000 		.4byte	.LASF105
 1477 02dd 50       		.byte	0x50
 1478 02de 08       		.uleb128 0x8
 1479 02df 49080000 		.4byte	.LASF106
 1480 02e3 51       		.byte	0x51
 1481 02e4 00       		.byte	0
 1482 02e5 05       		.uleb128 0x5
ARM GAS  /tmp/cc2rLMrL.s 			page 27


 1483 02e6 88000000 		.4byte	0x88
 1484 02ea 09       		.uleb128 0x9
 1485 02eb 18       		.byte	0x18
 1486 02ec 04       		.byte	0x4
 1487 02ed 3003     		.2byte	0x330
 1488 02ef 41030000 		.4byte	0x341
 1489 02f3 0A       		.uleb128 0xa
 1490 02f4 494D5200 		.ascii	"IMR\000"
 1491 02f8 04       		.byte	0x4
 1492 02f9 3203     		.2byte	0x332
 1493 02fb A5000000 		.4byte	0xa5
 1494 02ff 00       		.byte	0
 1495 0300 0A       		.uleb128 0xa
 1496 0301 454D5200 		.ascii	"EMR\000"
 1497 0305 04       		.byte	0x4
 1498 0306 3303     		.2byte	0x333
 1499 0308 A5000000 		.4byte	0xa5
 1500 030c 04       		.byte	0x4
 1501 030d 0B       		.uleb128 0xb
 1502 030e 8F020000 		.4byte	.LASF107
 1503 0312 04       		.byte	0x4
 1504 0313 3403     		.2byte	0x334
 1505 0315 A5000000 		.4byte	0xa5
 1506 0319 08       		.byte	0x8
 1507 031a 0B       		.uleb128 0xb
 1508 031b 82050000 		.4byte	.LASF108
 1509 031f 04       		.byte	0x4
 1510 0320 3503     		.2byte	0x335
 1511 0322 A5000000 		.4byte	0xa5
 1512 0326 0C       		.byte	0xc
 1513 0327 0B       		.uleb128 0xb
 1514 0328 67000000 		.4byte	.LASF109
 1515 032c 04       		.byte	0x4
 1516 032d 3603     		.2byte	0x336
 1517 032f A5000000 		.4byte	0xa5
 1518 0333 10       		.byte	0x10
 1519 0334 0A       		.uleb128 0xa
 1520 0335 505200   		.ascii	"PR\000"
 1521 0338 04       		.byte	0x4
 1522 0339 3703     		.2byte	0x337
 1523 033b A5000000 		.4byte	0xa5
 1524 033f 14       		.byte	0x14
 1525 0340 00       		.byte	0
 1526 0341 0C       		.uleb128 0xc
 1527 0342 64080000 		.4byte	.LASF110
 1528 0346 04       		.byte	0x4
 1529 0347 3803     		.2byte	0x338
 1530 0349 EA020000 		.4byte	0x2ea
 1531 034d 0D       		.uleb128 0xd
 1532 034e 01       		.byte	0x1
 1533 034f 48000000 		.4byte	0x48
 1534 0353 05       		.byte	0x5
 1535 0354 4A       		.byte	0x4a
 1536 0355 6C030000 		.4byte	0x36c
 1537 0359 08       		.uleb128 0x8
 1538 035a 57050000 		.4byte	.LASF111
 1539 035e 00       		.byte	0
ARM GAS  /tmp/cc2rLMrL.s 			page 28


 1540 035f 08       		.uleb128 0x8
 1541 0360 14070000 		.4byte	.LASF112
 1542 0364 01       		.byte	0x1
 1543 0365 08       		.uleb128 0x8
 1544 0366 AE030000 		.4byte	.LASF113
 1545 036a 02       		.byte	0x2
 1546 036b 00       		.byte	0
 1547 036c 04       		.uleb128 0x4
 1548 036d E2030000 		.4byte	.LASF114
 1549 0371 05       		.byte	0x5
 1550 0372 4E       		.byte	0x4e
 1551 0373 4D030000 		.4byte	0x34d
 1552 0377 04       		.uleb128 0x4
 1553 0378 02080000 		.4byte	.LASF115
 1554 037c 05       		.byte	0x5
 1555 037d 53       		.byte	0x53
 1556 037e 82030000 		.4byte	0x382
 1557 0382 0E       		.uleb128 0xe
 1558 0383 02080000 		.4byte	.LASF115
 1559 0387 08       		.byte	0x8
 1560 0388 06       		.byte	0x6
 1561 0389 71       		.byte	0x71
 1562 038a A7030000 		.4byte	0x3a7
 1563 038e 0F       		.uleb128 0xf
 1564 038f 6E010000 		.4byte	.LASF116
 1565 0393 06       		.byte	0x6
 1566 0394 75       		.byte	0x75
 1567 0395 6C030000 		.4byte	0x36c
 1568 0399 00       		.byte	0
 1569 039a 0F       		.uleb128 0xf
 1570 039b 43070000 		.4byte	.LASF117
 1571 039f 06       		.byte	0x6
 1572 03a0 79       		.byte	0x79
 1573 03a1 34040000 		.4byte	0x434
 1574 03a5 04       		.byte	0x4
 1575 03a6 00       		.byte	0
 1576 03a7 04       		.uleb128 0x4
 1577 03a8 48000000 		.4byte	.LASF118
 1578 03ac 06       		.byte	0x6
 1579 03ad 47       		.byte	0x47
 1580 03ae 93000000 		.4byte	0x93
 1581 03b2 04       		.uleb128 0x4
 1582 03b3 4A070000 		.4byte	.LASF119
 1583 03b7 06       		.byte	0x6
 1584 03b8 4F       		.byte	0x4f
 1585 03b9 BD030000 		.4byte	0x3bd
 1586 03bd 10       		.uleb128 0x10
 1587 03be 04       		.byte	0x4
 1588 03bf C3030000 		.4byte	0x3c3
 1589 03c3 11       		.uleb128 0x11
 1590 03c4 D3030000 		.4byte	0x3d3
 1591 03c8 12       		.uleb128 0x12
 1592 03c9 D3030000 		.4byte	0x3d3
 1593 03cd 12       		.uleb128 0x12
 1594 03ce A7030000 		.4byte	0x3a7
 1595 03d2 00       		.byte	0
 1596 03d3 10       		.uleb128 0x10
ARM GAS  /tmp/cc2rLMrL.s 			page 29


 1597 03d4 04       		.byte	0x4
 1598 03d5 77030000 		.4byte	0x377
 1599 03d9 13       		.uleb128 0x13
 1600 03da 08       		.byte	0x8
 1601 03db 06       		.byte	0x6
 1602 03dc 54       		.byte	0x54
 1603 03dd F9030000 		.4byte	0x3f9
 1604 03e1 0F       		.uleb128 0xf
 1605 03e2 34070000 		.4byte	.LASF120
 1606 03e6 06       		.byte	0x6
 1607 03e7 58       		.byte	0x58
 1608 03e8 93000000 		.4byte	0x93
 1609 03ec 00       		.byte	0
 1610 03ed 14       		.uleb128 0x14
 1611 03ee 636200   		.ascii	"cb\000"
 1612 03f1 06       		.byte	0x6
 1613 03f2 5F       		.byte	0x5f
 1614 03f3 B2030000 		.4byte	0x3b2
 1615 03f7 04       		.byte	0x4
 1616 03f8 00       		.byte	0
 1617 03f9 04       		.uleb128 0x4
 1618 03fa D9010000 		.4byte	.LASF121
 1619 03fe 06       		.byte	0x6
 1620 03ff 60       		.byte	0x60
 1621 0400 D9030000 		.4byte	0x3d9
 1622 0404 13       		.uleb128 0x13
 1623 0405 B8       		.byte	0xb8
 1624 0406 06       		.byte	0x6
 1625 0407 66       		.byte	0x66
 1626 0408 19040000 		.4byte	0x419
 1627 040c 0F       		.uleb128 0xf
 1628 040d 74010000 		.4byte	.LASF122
 1629 0411 06       		.byte	0x6
 1630 0412 6A       		.byte	0x6a
 1631 0413 19040000 		.4byte	0x419
 1632 0417 00       		.byte	0
 1633 0418 00       		.byte	0
 1634 0419 15       		.uleb128 0x15
 1635 041a F9030000 		.4byte	0x3f9
 1636 041e 29040000 		.4byte	0x429
 1637 0422 16       		.uleb128 0x16
 1638 0423 AA000000 		.4byte	0xaa
 1639 0427 16       		.byte	0x16
 1640 0428 00       		.byte	0
 1641 0429 04       		.uleb128 0x4
 1642 042a 3F080000 		.4byte	.LASF123
 1643 042e 06       		.byte	0x6
 1644 042f 6C       		.byte	0x6c
 1645 0430 04040000 		.4byte	0x404
 1646 0434 10       		.uleb128 0x10
 1647 0435 04       		.byte	0x4
 1648 0436 3A040000 		.4byte	0x43a
 1649 043a 17       		.uleb128 0x17
 1650 043b 29040000 		.4byte	0x429
 1651 043f 18       		.uleb128 0x18
 1652 0440 B9030000 		.4byte	.LASF124
 1653 0444 01       		.byte	0x1
ARM GAS  /tmp/cc2rLMrL.s 			page 30


 1654 0445 39       		.byte	0x39
 1655 0446 00000000 		.4byte	.LFB111
 1656 044a 2C000000 		.4byte	.LFE111-.LFB111
 1657 044e 01       		.uleb128 0x1
 1658 044f 9C       		.byte	0x9c
 1659 0450 7F040000 		.4byte	0x47f
 1660 0454 19       		.uleb128 0x19
 1661 0455 06000000 		.4byte	.LVL0
 1662 0459 0B0B0000 		.4byte	0xb0b
 1663 045d 1A       		.uleb128 0x1a
 1664 045e 16000000 		.4byte	.LVL1
 1665 0462 6C040000 		.4byte	0x46c
 1666 0466 1B       		.uleb128 0x1b
 1667 0467 01       		.uleb128 0x1
 1668 0468 51       		.byte	0x51
 1669 0469 01       		.uleb128 0x1
 1670 046a 30       		.byte	0x30
 1671 046b 00       		.byte	0
 1672 046c 19       		.uleb128 0x19
 1673 046d 1A000000 		.4byte	.LVL2
 1674 0471 160B0000 		.4byte	0xb16
 1675 0475 1C       		.uleb128 0x1c
 1676 0476 22000000 		.4byte	.LVL3
 1677 047a 210B0000 		.4byte	0xb21
 1678 047e 00       		.byte	0
 1679 047f 18       		.uleb128 0x18
 1680 0480 D0030000 		.4byte	.LASF125
 1681 0484 01       		.byte	0x1
 1682 0485 48       		.byte	0x48
 1683 0486 00000000 		.4byte	.LFB112
 1684 048a 2C000000 		.4byte	.LFE112-.LFB112
 1685 048e 01       		.uleb128 0x1
 1686 048f 9C       		.byte	0x9c
 1687 0490 BF040000 		.4byte	0x4bf
 1688 0494 19       		.uleb128 0x19
 1689 0495 06000000 		.4byte	.LVL4
 1690 0499 0B0B0000 		.4byte	0xb0b
 1691 049d 1A       		.uleb128 0x1a
 1692 049e 16000000 		.4byte	.LVL5
 1693 04a2 AC040000 		.4byte	0x4ac
 1694 04a6 1B       		.uleb128 0x1b
 1695 04a7 01       		.uleb128 0x1
 1696 04a8 51       		.byte	0x51
 1697 04a9 01       		.uleb128 0x1
 1698 04aa 31       		.byte	0x31
 1699 04ab 00       		.byte	0
 1700 04ac 19       		.uleb128 0x19
 1701 04ad 1A000000 		.4byte	.LVL6
 1702 04b1 160B0000 		.4byte	0xb16
 1703 04b5 1C       		.uleb128 0x1c
 1704 04b6 22000000 		.4byte	.LVL7
 1705 04ba 210B0000 		.4byte	0xb21
 1706 04be 00       		.byte	0
 1707 04bf 18       		.uleb128 0x18
 1708 04c0 EE040000 		.4byte	.LASF126
 1709 04c4 01       		.byte	0x1
 1710 04c5 57       		.byte	0x57
ARM GAS  /tmp/cc2rLMrL.s 			page 31


 1711 04c6 00000000 		.4byte	.LFB113
 1712 04ca 2C000000 		.4byte	.LFE113-.LFB113
 1713 04ce 01       		.uleb128 0x1
 1714 04cf 9C       		.byte	0x9c
 1715 04d0 FF040000 		.4byte	0x4ff
 1716 04d4 19       		.uleb128 0x19
 1717 04d5 06000000 		.4byte	.LVL8
 1718 04d9 0B0B0000 		.4byte	0xb0b
 1719 04dd 1A       		.uleb128 0x1a
 1720 04de 16000000 		.4byte	.LVL9
 1721 04e2 EC040000 		.4byte	0x4ec
 1722 04e6 1B       		.uleb128 0x1b
 1723 04e7 01       		.uleb128 0x1
 1724 04e8 51       		.byte	0x51
 1725 04e9 01       		.uleb128 0x1
 1726 04ea 32       		.byte	0x32
 1727 04eb 00       		.byte	0
 1728 04ec 19       		.uleb128 0x19
 1729 04ed 1A000000 		.4byte	.LVL10
 1730 04f1 160B0000 		.4byte	0xb16
 1731 04f5 1C       		.uleb128 0x1c
 1732 04f6 22000000 		.4byte	.LVL11
 1733 04fa 210B0000 		.4byte	0xb21
 1734 04fe 00       		.byte	0
 1735 04ff 18       		.uleb128 0x18
 1736 0500 F7040000 		.4byte	.LASF127
 1737 0504 01       		.byte	0x1
 1738 0505 66       		.byte	0x66
 1739 0506 00000000 		.4byte	.LFB114
 1740 050a 2C000000 		.4byte	.LFE114-.LFB114
 1741 050e 01       		.uleb128 0x1
 1742 050f 9C       		.byte	0x9c
 1743 0510 3F050000 		.4byte	0x53f
 1744 0514 19       		.uleb128 0x19
 1745 0515 06000000 		.4byte	.LVL12
 1746 0519 0B0B0000 		.4byte	0xb0b
 1747 051d 1A       		.uleb128 0x1a
 1748 051e 16000000 		.4byte	.LVL13
 1749 0522 2C050000 		.4byte	0x52c
 1750 0526 1B       		.uleb128 0x1b
 1751 0527 01       		.uleb128 0x1
 1752 0528 51       		.byte	0x51
 1753 0529 01       		.uleb128 0x1
 1754 052a 33       		.byte	0x33
 1755 052b 00       		.byte	0
 1756 052c 19       		.uleb128 0x19
 1757 052d 1A000000 		.4byte	.LVL14
 1758 0531 160B0000 		.4byte	0xb16
 1759 0535 1C       		.uleb128 0x1c
 1760 0536 22000000 		.4byte	.LVL15
 1761 053a 210B0000 		.4byte	0xb21
 1762 053e 00       		.byte	0
 1763 053f 18       		.uleb128 0x18
 1764 0540 00050000 		.4byte	.LASF128
 1765 0544 01       		.byte	0x1
 1766 0545 75       		.byte	0x75
 1767 0546 00000000 		.4byte	.LFB115
ARM GAS  /tmp/cc2rLMrL.s 			page 32


 1768 054a 2C000000 		.4byte	.LFE115-.LFB115
 1769 054e 01       		.uleb128 0x1
 1770 054f 9C       		.byte	0x9c
 1771 0550 7F050000 		.4byte	0x57f
 1772 0554 19       		.uleb128 0x19
 1773 0555 06000000 		.4byte	.LVL16
 1774 0559 0B0B0000 		.4byte	0xb0b
 1775 055d 1A       		.uleb128 0x1a
 1776 055e 16000000 		.4byte	.LVL17
 1777 0562 6C050000 		.4byte	0x56c
 1778 0566 1B       		.uleb128 0x1b
 1779 0567 01       		.uleb128 0x1
 1780 0568 51       		.byte	0x51
 1781 0569 01       		.uleb128 0x1
 1782 056a 34       		.byte	0x34
 1783 056b 00       		.byte	0
 1784 056c 19       		.uleb128 0x19
 1785 056d 1A000000 		.4byte	.LVL18
 1786 0571 160B0000 		.4byte	0xb16
 1787 0575 1C       		.uleb128 0x1c
 1788 0576 22000000 		.4byte	.LVL19
 1789 057a 210B0000 		.4byte	0xb21
 1790 057e 00       		.byte	0
 1791 057f 18       		.uleb128 0x18
 1792 0580 25000000 		.4byte	.LASF129
 1793 0584 01       		.byte	0x1
 1794 0585 84       		.byte	0x84
 1795 0586 00000000 		.4byte	.LFB116
 1796 058a 74000000 		.4byte	.LFE116-.LFB116
 1797 058e 01       		.uleb128 0x1
 1798 058f 9C       		.byte	0x9c
 1799 0590 05060000 		.4byte	0x605
 1800 0594 1D       		.uleb128 0x1d
 1801 0595 707200   		.ascii	"pr\000"
 1802 0598 01       		.byte	0x1
 1803 0599 85       		.byte	0x85
 1804 059a 93000000 		.4byte	0x93
 1805 059e 00000000 		.4byte	.LLST0
 1806 05a2 19       		.uleb128 0x19
 1807 05a3 06000000 		.4byte	.LVL20
 1808 05a7 0B0B0000 		.4byte	0xb0b
 1809 05ab 1A       		.uleb128 0x1a
 1810 05ac 2E000000 		.4byte	.LVL23
 1811 05b0 BA050000 		.4byte	0x5ba
 1812 05b4 1B       		.uleb128 0x1b
 1813 05b5 01       		.uleb128 0x1
 1814 05b6 51       		.byte	0x51
 1815 05b7 01       		.uleb128 0x1
 1816 05b8 39       		.byte	0x39
 1817 05b9 00       		.byte	0
 1818 05ba 19       		.uleb128 0x19
 1819 05bb 32000000 		.4byte	.LVL24
 1820 05bf 160B0000 		.4byte	0xb16
 1821 05c3 1C       		.uleb128 0x1c
 1822 05c4 3A000000 		.4byte	.LVL26
 1823 05c8 210B0000 		.4byte	0xb21
 1824 05cc 1A       		.uleb128 0x1a
ARM GAS  /tmp/cc2rLMrL.s 			page 33


 1825 05cd 44000000 		.4byte	.LVL27
 1826 05d1 DB050000 		.4byte	0x5db
 1827 05d5 1B       		.uleb128 0x1b
 1828 05d6 01       		.uleb128 0x1
 1829 05d7 51       		.byte	0x51
 1830 05d8 01       		.uleb128 0x1
 1831 05d9 38       		.byte	0x38
 1832 05da 00       		.byte	0
 1833 05db 1A       		.uleb128 0x1a
 1834 05dc 50000000 		.4byte	.LVL28
 1835 05e0 EA050000 		.4byte	0x5ea
 1836 05e4 1B       		.uleb128 0x1b
 1837 05e5 01       		.uleb128 0x1
 1838 05e6 51       		.byte	0x51
 1839 05e7 01       		.uleb128 0x1
 1840 05e8 37       		.byte	0x37
 1841 05e9 00       		.byte	0
 1842 05ea 1A       		.uleb128 0x1a
 1843 05eb 5C000000 		.4byte	.LVL29
 1844 05ef F9050000 		.4byte	0x5f9
 1845 05f3 1B       		.uleb128 0x1b
 1846 05f4 01       		.uleb128 0x1
 1847 05f5 51       		.byte	0x51
 1848 05f6 01       		.uleb128 0x1
 1849 05f7 36       		.byte	0x36
 1850 05f8 00       		.byte	0
 1851 05f9 1E       		.uleb128 0x1e
 1852 05fa 68000000 		.4byte	.LVL31
 1853 05fe 1B       		.uleb128 0x1b
 1854 05ff 01       		.uleb128 0x1
 1855 0600 51       		.byte	0x51
 1856 0601 01       		.uleb128 0x1
 1857 0602 35       		.byte	0x35
 1858 0603 00       		.byte	0
 1859 0604 00       		.byte	0
 1860 0605 18       		.uleb128 0x18
 1861 0606 AD040000 		.4byte	.LASF130
 1862 060a 01       		.byte	0x1
 1863 060b 9E       		.byte	0x9e
 1864 060c 00000000 		.4byte	.LFB117
 1865 0610 84000000 		.4byte	.LFE117-.LFB117
 1866 0614 01       		.uleb128 0x1
 1867 0615 9C       		.byte	0x9c
 1868 0616 9A060000 		.4byte	0x69a
 1869 061a 1D       		.uleb128 0x1d
 1870 061b 707200   		.ascii	"pr\000"
 1871 061e 01       		.byte	0x1
 1872 061f 9F       		.byte	0x9f
 1873 0620 93000000 		.4byte	0x93
 1874 0624 51000000 		.4byte	.LLST1
 1875 0628 19       		.uleb128 0x19
 1876 0629 06000000 		.4byte	.LVL32
 1877 062d 0B0B0000 		.4byte	0xb0b
 1878 0631 1A       		.uleb128 0x1a
 1879 0632 32000000 		.4byte	.LVL36
 1880 0636 40060000 		.4byte	0x640
 1881 063a 1B       		.uleb128 0x1b
ARM GAS  /tmp/cc2rLMrL.s 			page 34


 1882 063b 01       		.uleb128 0x1
 1883 063c 51       		.byte	0x51
 1884 063d 01       		.uleb128 0x1
 1885 063e 3F       		.byte	0x3f
 1886 063f 00       		.byte	0
 1887 0640 19       		.uleb128 0x19
 1888 0641 36000000 		.4byte	.LVL37
 1889 0645 160B0000 		.4byte	0xb16
 1890 0649 1C       		.uleb128 0x1c
 1891 064a 3E000000 		.4byte	.LVL39
 1892 064e 210B0000 		.4byte	0xb21
 1893 0652 1A       		.uleb128 0x1a
 1894 0653 48000000 		.4byte	.LVL40
 1895 0657 61060000 		.4byte	0x661
 1896 065b 1B       		.uleb128 0x1b
 1897 065c 01       		.uleb128 0x1
 1898 065d 51       		.byte	0x51
 1899 065e 01       		.uleb128 0x1
 1900 065f 3E       		.byte	0x3e
 1901 0660 00       		.byte	0
 1902 0661 1A       		.uleb128 0x1a
 1903 0662 54000000 		.4byte	.LVL41
 1904 0666 70060000 		.4byte	0x670
 1905 066a 1B       		.uleb128 0x1b
 1906 066b 01       		.uleb128 0x1
 1907 066c 51       		.byte	0x51
 1908 066d 01       		.uleb128 0x1
 1909 066e 3D       		.byte	0x3d
 1910 066f 00       		.byte	0
 1911 0670 1A       		.uleb128 0x1a
 1912 0671 60000000 		.4byte	.LVL42
 1913 0675 7F060000 		.4byte	0x67f
 1914 0679 1B       		.uleb128 0x1b
 1915 067a 01       		.uleb128 0x1
 1916 067b 51       		.byte	0x51
 1917 067c 01       		.uleb128 0x1
 1918 067d 3C       		.byte	0x3c
 1919 067e 00       		.byte	0
 1920 067f 1A       		.uleb128 0x1a
 1921 0680 6C000000 		.4byte	.LVL43
 1922 0684 8E060000 		.4byte	0x68e
 1923 0688 1B       		.uleb128 0x1b
 1924 0689 01       		.uleb128 0x1
 1925 068a 51       		.byte	0x51
 1926 068b 01       		.uleb128 0x1
 1927 068c 3B       		.byte	0x3b
 1928 068d 00       		.byte	0
 1929 068e 1E       		.uleb128 0x1e
 1930 068f 78000000 		.4byte	.LVL46
 1931 0693 1B       		.uleb128 0x1b
 1932 0694 01       		.uleb128 0x1
 1933 0695 51       		.byte	0x51
 1934 0696 01       		.uleb128 0x1
 1935 0697 3A       		.byte	0x3a
 1936 0698 00       		.byte	0
 1937 0699 00       		.byte	0
 1938 069a 18       		.uleb128 0x18
ARM GAS  /tmp/cc2rLMrL.s 			page 35


 1939 069b A4040000 		.4byte	.LASF131
 1940 069f 01       		.byte	0x1
 1941 06a0 BB       		.byte	0xbb
 1942 06a1 00000000 		.4byte	.LFB118
 1943 06a5 30000000 		.4byte	.LFE118-.LFB118
 1944 06a9 01       		.uleb128 0x1
 1945 06aa 9C       		.byte	0x9c
 1946 06ab DA060000 		.4byte	0x6da
 1947 06af 19       		.uleb128 0x19
 1948 06b0 06000000 		.4byte	.LVL47
 1949 06b4 0B0B0000 		.4byte	0xb0b
 1950 06b8 1A       		.uleb128 0x1a
 1951 06b9 1A000000 		.4byte	.LVL48
 1952 06bd C7060000 		.4byte	0x6c7
 1953 06c1 1B       		.uleb128 0x1b
 1954 06c2 01       		.uleb128 0x1
 1955 06c3 51       		.byte	0x51
 1956 06c4 01       		.uleb128 0x1
 1957 06c5 40       		.byte	0x40
 1958 06c6 00       		.byte	0
 1959 06c7 19       		.uleb128 0x19
 1960 06c8 1E000000 		.4byte	.LVL49
 1961 06cc 160B0000 		.4byte	0xb16
 1962 06d0 1C       		.uleb128 0x1c
 1963 06d1 26000000 		.4byte	.LVL50
 1964 06d5 210B0000 		.4byte	0xb21
 1965 06d9 00       		.byte	0
 1966 06da 18       		.uleb128 0x18
 1967 06db B6040000 		.4byte	.LASF132
 1968 06df 01       		.byte	0x1
 1969 06e0 CA       		.byte	0xca
 1970 06e1 00000000 		.4byte	.LFB119
 1971 06e5 30000000 		.4byte	.LFE119-.LFB119
 1972 06e9 01       		.uleb128 0x1
 1973 06ea 9C       		.byte	0x9c
 1974 06eb 1A070000 		.4byte	0x71a
 1975 06ef 19       		.uleb128 0x19
 1976 06f0 06000000 		.4byte	.LVL51
 1977 06f4 0B0B0000 		.4byte	0xb0b
 1978 06f8 1A       		.uleb128 0x1a
 1979 06f9 1A000000 		.4byte	.LVL52
 1980 06fd 07070000 		.4byte	0x707
 1981 0701 1B       		.uleb128 0x1b
 1982 0702 01       		.uleb128 0x1
 1983 0703 51       		.byte	0x51
 1984 0704 01       		.uleb128 0x1
 1985 0705 41       		.byte	0x41
 1986 0706 00       		.byte	0
 1987 0707 19       		.uleb128 0x19
 1988 0708 1E000000 		.4byte	.LVL53
 1989 070c 160B0000 		.4byte	0xb16
 1990 0710 1C       		.uleb128 0x1c
 1991 0711 26000000 		.4byte	.LVL54
 1992 0715 210B0000 		.4byte	0xb21
 1993 0719 00       		.byte	0
 1994 071a 18       		.uleb128 0x18
 1995 071b DB040000 		.4byte	.LASF133
ARM GAS  /tmp/cc2rLMrL.s 			page 36


 1996 071f 01       		.byte	0x1
 1997 0720 D9       		.byte	0xd9
 1998 0721 00000000 		.4byte	.LFB120
 1999 0725 30000000 		.4byte	.LFE120-.LFB120
 2000 0729 01       		.uleb128 0x1
 2001 072a 9C       		.byte	0x9c
 2002 072b 5A070000 		.4byte	0x75a
 2003 072f 19       		.uleb128 0x19
 2004 0730 06000000 		.4byte	.LVL55
 2005 0734 0B0B0000 		.4byte	0xb0b
 2006 0738 1A       		.uleb128 0x1a
 2007 0739 1A000000 		.4byte	.LVL56
 2008 073d 47070000 		.4byte	0x747
 2009 0741 1B       		.uleb128 0x1b
 2010 0742 01       		.uleb128 0x1
 2011 0743 51       		.byte	0x51
 2012 0744 01       		.uleb128 0x1
 2013 0745 42       		.byte	0x42
 2014 0746 00       		.byte	0
 2015 0747 19       		.uleb128 0x19
 2016 0748 1E000000 		.4byte	.LVL57
 2017 074c 160B0000 		.4byte	0xb16
 2018 0750 1C       		.uleb128 0x1c
 2019 0751 26000000 		.4byte	.LVL58
 2020 0755 210B0000 		.4byte	0xb21
 2021 0759 00       		.byte	0
 2022 075a 18       		.uleb128 0x18
 2023 075b 6D000000 		.4byte	.LASF134
 2024 075f 01       		.byte	0x1
 2025 0760 E8       		.byte	0xe8
 2026 0761 00000000 		.4byte	.LFB121
 2027 0765 30000000 		.4byte	.LFE121-.LFB121
 2028 0769 01       		.uleb128 0x1
 2029 076a 9C       		.byte	0x9c
 2030 076b 9A070000 		.4byte	0x79a
 2031 076f 19       		.uleb128 0x19
 2032 0770 06000000 		.4byte	.LVL59
 2033 0774 0B0B0000 		.4byte	0xb0b
 2034 0778 1A       		.uleb128 0x1a
 2035 0779 1A000000 		.4byte	.LVL60
 2036 077d 87070000 		.4byte	0x787
 2037 0781 1B       		.uleb128 0x1b
 2038 0782 01       		.uleb128 0x1
 2039 0783 51       		.byte	0x51
 2040 0784 01       		.uleb128 0x1
 2041 0785 43       		.byte	0x43
 2042 0786 00       		.byte	0
 2043 0787 19       		.uleb128 0x19
 2044 0788 1E000000 		.4byte	.LVL61
 2045 078c 160B0000 		.4byte	0xb16
 2046 0790 1C       		.uleb128 0x1c
 2047 0791 26000000 		.4byte	.LVL62
 2048 0795 210B0000 		.4byte	0xb21
 2049 0799 00       		.byte	0
 2050 079a 18       		.uleb128 0x18
 2051 079b E4040000 		.4byte	.LASF135
 2052 079f 01       		.byte	0x1
ARM GAS  /tmp/cc2rLMrL.s 			page 37


 2053 07a0 F8       		.byte	0xf8
 2054 07a1 00000000 		.4byte	.LFB122
 2055 07a5 30000000 		.4byte	.LFE122-.LFB122
 2056 07a9 01       		.uleb128 0x1
 2057 07aa 9C       		.byte	0x9c
 2058 07ab DA070000 		.4byte	0x7da
 2059 07af 19       		.uleb128 0x19
 2060 07b0 06000000 		.4byte	.LVL63
 2061 07b4 0B0B0000 		.4byte	0xb0b
 2062 07b8 1A       		.uleb128 0x1a
 2063 07b9 1A000000 		.4byte	.LVL64
 2064 07bd C7070000 		.4byte	0x7c7
 2065 07c1 1B       		.uleb128 0x1b
 2066 07c2 01       		.uleb128 0x1
 2067 07c3 51       		.byte	0x51
 2068 07c4 01       		.uleb128 0x1
 2069 07c5 44       		.byte	0x44
 2070 07c6 00       		.byte	0
 2071 07c7 19       		.uleb128 0x19
 2072 07c8 1E000000 		.4byte	.LVL65
 2073 07cc 160B0000 		.4byte	0xb16
 2074 07d0 1C       		.uleb128 0x1c
 2075 07d1 26000000 		.4byte	.LVL66
 2076 07d5 210B0000 		.4byte	0xb21
 2077 07d9 00       		.byte	0
 2078 07da 1F       		.uleb128 0x1f
 2079 07db 00040000 		.4byte	.LASF136
 2080 07df 01       		.byte	0x1
 2081 07e0 0701     		.2byte	0x107
 2082 07e2 00000000 		.4byte	.LFB123
 2083 07e6 30000000 		.4byte	.LFE123-.LFB123
 2084 07ea 01       		.uleb128 0x1
 2085 07eb 9C       		.byte	0x9c
 2086 07ec 1B080000 		.4byte	0x81b
 2087 07f0 19       		.uleb128 0x19
 2088 07f1 06000000 		.4byte	.LVL67
 2089 07f5 0B0B0000 		.4byte	0xb0b
 2090 07f9 1A       		.uleb128 0x1a
 2091 07fa 1A000000 		.4byte	.LVL68
 2092 07fe 08080000 		.4byte	0x808
 2093 0802 1B       		.uleb128 0x1b
 2094 0803 01       		.uleb128 0x1
 2095 0804 51       		.byte	0x51
 2096 0805 01       		.uleb128 0x1
 2097 0806 45       		.byte	0x45
 2098 0807 00       		.byte	0
 2099 0808 19       		.uleb128 0x19
 2100 0809 1E000000 		.4byte	.LVL69
 2101 080d 160B0000 		.4byte	0xb16
 2102 0811 1C       		.uleb128 0x1c
 2103 0812 26000000 		.4byte	.LVL70
 2104 0816 210B0000 		.4byte	0xb21
 2105 081a 00       		.byte	0
 2106 081b 1F       		.uleb128 0x1f
 2107 081c DC020000 		.4byte	.LASF137
 2108 0820 01       		.byte	0x1
 2109 0821 1701     		.2byte	0x117
ARM GAS  /tmp/cc2rLMrL.s 			page 38


 2110 0823 00000000 		.4byte	.LFB124
 2111 0827 30000000 		.4byte	.LFE124-.LFB124
 2112 082b 01       		.uleb128 0x1
 2113 082c 9C       		.byte	0x9c
 2114 082d 5C080000 		.4byte	0x85c
 2115 0831 19       		.uleb128 0x19
 2116 0832 06000000 		.4byte	.LVL71
 2117 0836 0B0B0000 		.4byte	0xb0b
 2118 083a 1A       		.uleb128 0x1a
 2119 083b 1A000000 		.4byte	.LVL72
 2120 083f 49080000 		.4byte	0x849
 2121 0843 1B       		.uleb128 0x1b
 2122 0844 01       		.uleb128 0x1
 2123 0845 51       		.byte	0x51
 2124 0846 01       		.uleb128 0x1
 2125 0847 46       		.byte	0x46
 2126 0848 00       		.byte	0
 2127 0849 19       		.uleb128 0x19
 2128 084a 1E000000 		.4byte	.LVL73
 2129 084e 160B0000 		.4byte	0xb16
 2130 0852 1C       		.uleb128 0x1c
 2131 0853 26000000 		.4byte	.LVL74
 2132 0857 210B0000 		.4byte	0xb21
 2133 085b 00       		.byte	0
 2134 085c 1F       		.uleb128 0x1f
 2135 085d 18030000 		.4byte	.LASF138
 2136 0861 01       		.byte	0x1
 2137 0862 2A01     		.2byte	0x12a
 2138 0864 00000000 		.4byte	.LFB125
 2139 0868 76000000 		.4byte	.LFE125-.LFB125
 2140 086c 01       		.uleb128 0x1
 2141 086d 9C       		.byte	0x9c
 2142 086e D2090000 		.4byte	0x9d2
 2143 0872 20       		.uleb128 0x20
 2144 0873 0A000000 		.4byte	.LVL75
 2145 0877 2D0B0000 		.4byte	0xb2d
 2146 087b 8B080000 		.4byte	0x88b
 2147 087f 1B       		.uleb128 0x1b
 2148 0880 01       		.uleb128 0x1
 2149 0881 50       		.byte	0x50
 2150 0882 01       		.uleb128 0x1
 2151 0883 36       		.byte	0x36
 2152 0884 1B       		.uleb128 0x1b
 2153 0885 01       		.uleb128 0x1
 2154 0886 51       		.byte	0x51
 2155 0887 02       		.uleb128 0x2
 2156 0888 08       		.byte	0x8
 2157 0889 60       		.byte	0x60
 2158 088a 00       		.byte	0
 2159 088b 20       		.uleb128 0x20
 2160 088c 12000000 		.4byte	.LVL76
 2161 0890 2D0B0000 		.4byte	0xb2d
 2162 0894 A4080000 		.4byte	0x8a4
 2163 0898 1B       		.uleb128 0x1b
 2164 0899 01       		.uleb128 0x1
 2165 089a 50       		.byte	0x50
 2166 089b 01       		.uleb128 0x1
ARM GAS  /tmp/cc2rLMrL.s 			page 39


 2167 089c 37       		.byte	0x37
 2168 089d 1B       		.uleb128 0x1b
 2169 089e 01       		.uleb128 0x1
 2170 089f 51       		.byte	0x51
 2171 08a0 02       		.uleb128 0x2
 2172 08a1 08       		.byte	0x8
 2173 08a2 60       		.byte	0x60
 2174 08a3 00       		.byte	0
 2175 08a4 20       		.uleb128 0x20
 2176 08a5 1A000000 		.4byte	.LVL77
 2177 08a9 2D0B0000 		.4byte	0xb2d
 2178 08ad BD080000 		.4byte	0x8bd
 2179 08b1 1B       		.uleb128 0x1b
 2180 08b2 01       		.uleb128 0x1
 2181 08b3 50       		.byte	0x50
 2182 08b4 01       		.uleb128 0x1
 2183 08b5 38       		.byte	0x38
 2184 08b6 1B       		.uleb128 0x1b
 2185 08b7 01       		.uleb128 0x1
 2186 08b8 51       		.byte	0x51
 2187 08b9 02       		.uleb128 0x2
 2188 08ba 08       		.byte	0x8
 2189 08bb 60       		.byte	0x60
 2190 08bc 00       		.byte	0
 2191 08bd 20       		.uleb128 0x20
 2192 08be 22000000 		.4byte	.LVL78
 2193 08c2 2D0B0000 		.4byte	0xb2d
 2194 08c6 D6080000 		.4byte	0x8d6
 2195 08ca 1B       		.uleb128 0x1b
 2196 08cb 01       		.uleb128 0x1
 2197 08cc 50       		.byte	0x50
 2198 08cd 01       		.uleb128 0x1
 2199 08ce 39       		.byte	0x39
 2200 08cf 1B       		.uleb128 0x1b
 2201 08d0 01       		.uleb128 0x1
 2202 08d1 51       		.byte	0x51
 2203 08d2 02       		.uleb128 0x2
 2204 08d3 08       		.byte	0x8
 2205 08d4 60       		.byte	0x60
 2206 08d5 00       		.byte	0
 2207 08d6 20       		.uleb128 0x20
 2208 08d7 2A000000 		.4byte	.LVL79
 2209 08db 2D0B0000 		.4byte	0xb2d
 2210 08df EF080000 		.4byte	0x8ef
 2211 08e3 1B       		.uleb128 0x1b
 2212 08e4 01       		.uleb128 0x1
 2213 08e5 50       		.byte	0x50
 2214 08e6 01       		.uleb128 0x1
 2215 08e7 3A       		.byte	0x3a
 2216 08e8 1B       		.uleb128 0x1b
 2217 08e9 01       		.uleb128 0x1
 2218 08ea 51       		.byte	0x51
 2219 08eb 02       		.uleb128 0x2
 2220 08ec 08       		.byte	0x8
 2221 08ed 60       		.byte	0x60
 2222 08ee 00       		.byte	0
 2223 08ef 20       		.uleb128 0x20
ARM GAS  /tmp/cc2rLMrL.s 			page 40


 2224 08f0 32000000 		.4byte	.LVL80
 2225 08f4 2D0B0000 		.4byte	0xb2d
 2226 08f8 08090000 		.4byte	0x908
 2227 08fc 1B       		.uleb128 0x1b
 2228 08fd 01       		.uleb128 0x1
 2229 08fe 50       		.byte	0x50
 2230 08ff 01       		.uleb128 0x1
 2231 0900 47       		.byte	0x47
 2232 0901 1B       		.uleb128 0x1b
 2233 0902 01       		.uleb128 0x1
 2234 0903 51       		.byte	0x51
 2235 0904 02       		.uleb128 0x2
 2236 0905 08       		.byte	0x8
 2237 0906 60       		.byte	0x60
 2238 0907 00       		.byte	0
 2239 0908 20       		.uleb128 0x20
 2240 0909 3A000000 		.4byte	.LVL81
 2241 090d 2D0B0000 		.4byte	0xb2d
 2242 0911 22090000 		.4byte	0x922
 2243 0915 1B       		.uleb128 0x1b
 2244 0916 01       		.uleb128 0x1
 2245 0917 50       		.byte	0x50
 2246 0918 02       		.uleb128 0x2
 2247 0919 08       		.byte	0x8
 2248 091a 28       		.byte	0x28
 2249 091b 1B       		.uleb128 0x1b
 2250 091c 01       		.uleb128 0x1
 2251 091d 51       		.byte	0x51
 2252 091e 02       		.uleb128 0x2
 2253 091f 08       		.byte	0x8
 2254 0920 60       		.byte	0x60
 2255 0921 00       		.byte	0
 2256 0922 20       		.uleb128 0x20
 2257 0923 42000000 		.4byte	.LVL82
 2258 0927 2D0B0000 		.4byte	0xb2d
 2259 092b 3B090000 		.4byte	0x93b
 2260 092f 1B       		.uleb128 0x1b
 2261 0930 01       		.uleb128 0x1
 2262 0931 50       		.byte	0x50
 2263 0932 01       		.uleb128 0x1
 2264 0933 31       		.byte	0x31
 2265 0934 1B       		.uleb128 0x1b
 2266 0935 01       		.uleb128 0x1
 2267 0936 51       		.byte	0x51
 2268 0937 02       		.uleb128 0x2
 2269 0938 08       		.byte	0x8
 2270 0939 60       		.byte	0x60
 2271 093a 00       		.byte	0
 2272 093b 20       		.uleb128 0x20
 2273 093c 4A000000 		.4byte	.LVL83
 2274 0940 2D0B0000 		.4byte	0xb2d
 2275 0944 55090000 		.4byte	0x955
 2276 0948 1B       		.uleb128 0x1b
 2277 0949 01       		.uleb128 0x1
 2278 094a 50       		.byte	0x50
 2279 094b 02       		.uleb128 0x2
 2280 094c 08       		.byte	0x8
ARM GAS  /tmp/cc2rLMrL.s 			page 41


 2281 094d 29       		.byte	0x29
 2282 094e 1B       		.uleb128 0x1b
 2283 094f 01       		.uleb128 0x1
 2284 0950 51       		.byte	0x51
 2285 0951 02       		.uleb128 0x2
 2286 0952 08       		.byte	0x8
 2287 0953 F0       		.byte	0xf0
 2288 0954 00       		.byte	0
 2289 0955 20       		.uleb128 0x20
 2290 0956 52000000 		.4byte	.LVL84
 2291 095a 2D0B0000 		.4byte	0xb2d
 2292 095e 6F090000 		.4byte	0x96f
 2293 0962 1B       		.uleb128 0x1b
 2294 0963 01       		.uleb128 0x1
 2295 0964 50       		.byte	0x50
 2296 0965 02       		.uleb128 0x2
 2297 0966 08       		.byte	0x8
 2298 0967 2A       		.byte	0x2a
 2299 0968 1B       		.uleb128 0x1b
 2300 0969 01       		.uleb128 0x1
 2301 096a 51       		.byte	0x51
 2302 096b 02       		.uleb128 0x2
 2303 096c 08       		.byte	0x8
 2304 096d 60       		.byte	0x60
 2305 096e 00       		.byte	0
 2306 096f 20       		.uleb128 0x20
 2307 0970 5A000000 		.4byte	.LVL85
 2308 0974 2D0B0000 		.4byte	0xb2d
 2309 0978 89090000 		.4byte	0x989
 2310 097c 1B       		.uleb128 0x1b
 2311 097d 01       		.uleb128 0x1
 2312 097e 50       		.byte	0x50
 2313 097f 02       		.uleb128 0x2
 2314 0980 08       		.byte	0x8
 2315 0981 3E       		.byte	0x3e
 2316 0982 1B       		.uleb128 0x1b
 2317 0983 01       		.uleb128 0x1
 2318 0984 51       		.byte	0x51
 2319 0985 02       		.uleb128 0x2
 2320 0986 08       		.byte	0x8
 2321 0987 60       		.byte	0x60
 2322 0988 00       		.byte	0
 2323 0989 20       		.uleb128 0x20
 2324 098a 62000000 		.4byte	.LVL86
 2325 098e 2D0B0000 		.4byte	0xb2d
 2326 0992 A3090000 		.4byte	0x9a3
 2327 0996 1B       		.uleb128 0x1b
 2328 0997 01       		.uleb128 0x1
 2329 0998 50       		.byte	0x50
 2330 0999 02       		.uleb128 0x2
 2331 099a 08       		.byte	0x8
 2332 099b 4C       		.byte	0x4c
 2333 099c 1B       		.uleb128 0x1b
 2334 099d 01       		.uleb128 0x1
 2335 099e 51       		.byte	0x51
 2336 099f 02       		.uleb128 0x2
 2337 09a0 08       		.byte	0x8
ARM GAS  /tmp/cc2rLMrL.s 			page 42


 2338 09a1 60       		.byte	0x60
 2339 09a2 00       		.byte	0
 2340 09a3 20       		.uleb128 0x20
 2341 09a4 6A000000 		.4byte	.LVL87
 2342 09a8 2D0B0000 		.4byte	0xb2d
 2343 09ac BC090000 		.4byte	0x9bc
 2344 09b0 1B       		.uleb128 0x1b
 2345 09b1 01       		.uleb128 0x1
 2346 09b2 50       		.byte	0x50
 2347 09b3 01       		.uleb128 0x1
 2348 09b4 32       		.byte	0x32
 2349 09b5 1B       		.uleb128 0x1b
 2350 09b6 01       		.uleb128 0x1
 2351 09b7 51       		.byte	0x51
 2352 09b8 02       		.uleb128 0x2
 2353 09b9 08       		.byte	0x8
 2354 09ba F0       		.byte	0xf0
 2355 09bb 00       		.byte	0
 2356 09bc 21       		.uleb128 0x21
 2357 09bd 76000000 		.4byte	.LVL88
 2358 09c1 2D0B0000 		.4byte	0xb2d
 2359 09c5 1B       		.uleb128 0x1b
 2360 09c6 01       		.uleb128 0x1
 2361 09c7 50       		.byte	0x50
 2362 09c8 01       		.uleb128 0x1
 2363 09c9 33       		.byte	0x33
 2364 09ca 1B       		.uleb128 0x1b
 2365 09cb 01       		.uleb128 0x1
 2366 09cc 51       		.byte	0x51
 2367 09cd 02       		.uleb128 0x2
 2368 09ce 08       		.byte	0x8
 2369 09cf F0       		.byte	0xf0
 2370 09d0 00       		.byte	0
 2371 09d1 00       		.byte	0
 2372 09d2 1F       		.uleb128 0x1f
 2373 09d3 45020000 		.4byte	.LASF139
 2374 09d7 01       		.byte	0x1
 2375 09d8 5101     		.2byte	0x151
 2376 09da 00000000 		.4byte	.LFB126
 2377 09de 5A000000 		.4byte	.LFE126-.LFB126
 2378 09e2 01       		.uleb128 0x1
 2379 09e3 9C       		.byte	0x9c
 2380 09e4 F40A0000 		.4byte	0xaf4
 2381 09e8 20       		.uleb128 0x20
 2382 09e9 08000000 		.4byte	.LVL89
 2383 09ed 390B0000 		.4byte	0xb39
 2384 09f1 FB090000 		.4byte	0x9fb
 2385 09f5 1B       		.uleb128 0x1b
 2386 09f6 01       		.uleb128 0x1
 2387 09f7 50       		.byte	0x50
 2388 09f8 01       		.uleb128 0x1
 2389 09f9 36       		.byte	0x36
 2390 09fa 00       		.byte	0
 2391 09fb 20       		.uleb128 0x20
 2392 09fc 0E000000 		.4byte	.LVL90
 2393 0a00 390B0000 		.4byte	0xb39
 2394 0a04 0E0A0000 		.4byte	0xa0e
ARM GAS  /tmp/cc2rLMrL.s 			page 43


 2395 0a08 1B       		.uleb128 0x1b
 2396 0a09 01       		.uleb128 0x1
 2397 0a0a 50       		.byte	0x50
 2398 0a0b 01       		.uleb128 0x1
 2399 0a0c 37       		.byte	0x37
 2400 0a0d 00       		.byte	0
 2401 0a0e 20       		.uleb128 0x20
 2402 0a0f 14000000 		.4byte	.LVL91
 2403 0a13 390B0000 		.4byte	0xb39
 2404 0a17 210A0000 		.4byte	0xa21
 2405 0a1b 1B       		.uleb128 0x1b
 2406 0a1c 01       		.uleb128 0x1
 2407 0a1d 50       		.byte	0x50
 2408 0a1e 01       		.uleb128 0x1
 2409 0a1f 38       		.byte	0x38
 2410 0a20 00       		.byte	0
 2411 0a21 20       		.uleb128 0x20
 2412 0a22 1A000000 		.4byte	.LVL92
 2413 0a26 390B0000 		.4byte	0xb39
 2414 0a2a 340A0000 		.4byte	0xa34
 2415 0a2e 1B       		.uleb128 0x1b
 2416 0a2f 01       		.uleb128 0x1
 2417 0a30 50       		.byte	0x50
 2418 0a31 01       		.uleb128 0x1
 2419 0a32 39       		.byte	0x39
 2420 0a33 00       		.byte	0
 2421 0a34 20       		.uleb128 0x20
 2422 0a35 20000000 		.4byte	.LVL93
 2423 0a39 390B0000 		.4byte	0xb39
 2424 0a3d 470A0000 		.4byte	0xa47
 2425 0a41 1B       		.uleb128 0x1b
 2426 0a42 01       		.uleb128 0x1
 2427 0a43 50       		.byte	0x50
 2428 0a44 01       		.uleb128 0x1
 2429 0a45 3A       		.byte	0x3a
 2430 0a46 00       		.byte	0
 2431 0a47 20       		.uleb128 0x20
 2432 0a48 26000000 		.4byte	.LVL94
 2433 0a4c 390B0000 		.4byte	0xb39
 2434 0a50 5A0A0000 		.4byte	0xa5a
 2435 0a54 1B       		.uleb128 0x1b
 2436 0a55 01       		.uleb128 0x1
 2437 0a56 50       		.byte	0x50
 2438 0a57 01       		.uleb128 0x1
 2439 0a58 47       		.byte	0x47
 2440 0a59 00       		.byte	0
 2441 0a5a 20       		.uleb128 0x20
 2442 0a5b 2C000000 		.4byte	.LVL95
 2443 0a5f 390B0000 		.4byte	0xb39
 2444 0a63 6E0A0000 		.4byte	0xa6e
 2445 0a67 1B       		.uleb128 0x1b
 2446 0a68 01       		.uleb128 0x1
 2447 0a69 50       		.byte	0x50
 2448 0a6a 02       		.uleb128 0x2
 2449 0a6b 08       		.byte	0x8
 2450 0a6c 28       		.byte	0x28
 2451 0a6d 00       		.byte	0
ARM GAS  /tmp/cc2rLMrL.s 			page 44


 2452 0a6e 20       		.uleb128 0x20
 2453 0a6f 32000000 		.4byte	.LVL96
 2454 0a73 390B0000 		.4byte	0xb39
 2455 0a77 810A0000 		.4byte	0xa81
 2456 0a7b 1B       		.uleb128 0x1b
 2457 0a7c 01       		.uleb128 0x1
 2458 0a7d 50       		.byte	0x50
 2459 0a7e 01       		.uleb128 0x1
 2460 0a7f 31       		.byte	0x31
 2461 0a80 00       		.byte	0
 2462 0a81 20       		.uleb128 0x20
 2463 0a82 38000000 		.4byte	.LVL97
 2464 0a86 390B0000 		.4byte	0xb39
 2465 0a8a 950A0000 		.4byte	0xa95
 2466 0a8e 1B       		.uleb128 0x1b
 2467 0a8f 01       		.uleb128 0x1
 2468 0a90 50       		.byte	0x50
 2469 0a91 02       		.uleb128 0x2
 2470 0a92 08       		.byte	0x8
 2471 0a93 29       		.byte	0x29
 2472 0a94 00       		.byte	0
 2473 0a95 20       		.uleb128 0x20
 2474 0a96 3E000000 		.4byte	.LVL98
 2475 0a9a 390B0000 		.4byte	0xb39
 2476 0a9e A90A0000 		.4byte	0xaa9
 2477 0aa2 1B       		.uleb128 0x1b
 2478 0aa3 01       		.uleb128 0x1
 2479 0aa4 50       		.byte	0x50
 2480 0aa5 02       		.uleb128 0x2
 2481 0aa6 08       		.byte	0x8
 2482 0aa7 2A       		.byte	0x2a
 2483 0aa8 00       		.byte	0
 2484 0aa9 20       		.uleb128 0x20
 2485 0aaa 44000000 		.4byte	.LVL99
 2486 0aae 390B0000 		.4byte	0xb39
 2487 0ab2 BD0A0000 		.4byte	0xabd
 2488 0ab6 1B       		.uleb128 0x1b
 2489 0ab7 01       		.uleb128 0x1
 2490 0ab8 50       		.byte	0x50
 2491 0ab9 02       		.uleb128 0x2
 2492 0aba 08       		.byte	0x8
 2493 0abb 3E       		.byte	0x3e
 2494 0abc 00       		.byte	0
 2495 0abd 20       		.uleb128 0x20
 2496 0abe 4A000000 		.4byte	.LVL100
 2497 0ac2 390B0000 		.4byte	0xb39
 2498 0ac6 D10A0000 		.4byte	0xad1
 2499 0aca 1B       		.uleb128 0x1b
 2500 0acb 01       		.uleb128 0x1
 2501 0acc 50       		.byte	0x50
 2502 0acd 02       		.uleb128 0x2
 2503 0ace 08       		.byte	0x8
 2504 0acf 4C       		.byte	0x4c
 2505 0ad0 00       		.byte	0
 2506 0ad1 20       		.uleb128 0x20
 2507 0ad2 50000000 		.4byte	.LVL101
 2508 0ad6 390B0000 		.4byte	0xb39
ARM GAS  /tmp/cc2rLMrL.s 			page 45


 2509 0ada E40A0000 		.4byte	0xae4
 2510 0ade 1B       		.uleb128 0x1b
 2511 0adf 01       		.uleb128 0x1
 2512 0ae0 50       		.byte	0x50
 2513 0ae1 01       		.uleb128 0x1
 2514 0ae2 32       		.byte	0x32
 2515 0ae3 00       		.byte	0
 2516 0ae4 21       		.uleb128 0x21
 2517 0ae5 5A000000 		.4byte	.LVL102
 2518 0ae9 390B0000 		.4byte	0xb39
 2519 0aed 1B       		.uleb128 0x1b
 2520 0aee 01       		.uleb128 0x1
 2521 0aef 50       		.byte	0x50
 2522 0af0 01       		.uleb128 0x1
 2523 0af1 33       		.byte	0x33
 2524 0af2 00       		.byte	0
 2525 0af3 00       		.byte	0
 2526 0af4 22       		.uleb128 0x22
 2527 0af5 75050000 		.4byte	.LASF140
 2528 0af9 07       		.byte	0x7
 2529 0afa 9806     		.2byte	0x698
 2530 0afc E5020000 		.4byte	0x2e5
 2531 0b00 23       		.uleb128 0x23
 2532 0b01 8C080000 		.4byte	.LASF141
 2533 0b05 06       		.byte	0x6
 2534 0b06 86       		.byte	0x86
 2535 0b07 77030000 		.4byte	0x377
 2536 0b0b 24       		.uleb128 0x24
 2537 0b0c 21080000 		.4byte	.LASF142
 2538 0b10 21080000 		.4byte	.LASF142
 2539 0b14 08       		.byte	0x8
 2540 0b15 EB       		.byte	0xeb
 2541 0b16 24       		.uleb128 0x24
 2542 0b17 CD050000 		.4byte	.LASF143
 2543 0b1b CD050000 		.4byte	.LASF143
 2544 0b1f 08       		.byte	0x8
 2545 0b20 EC       		.byte	0xec
 2546 0b21 25       		.uleb128 0x25
 2547 0b22 C9020000 		.4byte	.LASF144
 2548 0b26 C9020000 		.4byte	.LASF144
 2549 0b2a 09       		.byte	0x9
 2550 0b2b 0302     		.2byte	0x203
 2551 0b2d 25       		.uleb128 0x25
 2552 0b2e E4000000 		.4byte	.LASF145
 2553 0b32 E4000000 		.4byte	.LASF145
 2554 0b36 0A       		.byte	0xa
 2555 0b37 2301     		.2byte	0x123
 2556 0b39 25       		.uleb128 0x25
 2557 0b3a F6060000 		.4byte	.LASF146
 2558 0b3e F6060000 		.4byte	.LASF146
 2559 0b42 0A       		.byte	0xa
 2560 0b43 2401     		.2byte	0x124
 2561 0b45 00       		.byte	0
 2562              		.section	.debug_abbrev,"",%progbits
 2563              	.Ldebug_abbrev0:
 2564 0000 01       		.uleb128 0x1
 2565 0001 11       		.uleb128 0x11
ARM GAS  /tmp/cc2rLMrL.s 			page 46


 2566 0002 01       		.byte	0x1
 2567 0003 25       		.uleb128 0x25
 2568 0004 0E       		.uleb128 0xe
 2569 0005 13       		.uleb128 0x13
 2570 0006 0B       		.uleb128 0xb
 2571 0007 03       		.uleb128 0x3
 2572 0008 0E       		.uleb128 0xe
 2573 0009 1B       		.uleb128 0x1b
 2574 000a 0E       		.uleb128 0xe
 2575 000b 55       		.uleb128 0x55
 2576 000c 17       		.uleb128 0x17
 2577 000d 11       		.uleb128 0x11
 2578 000e 01       		.uleb128 0x1
 2579 000f 10       		.uleb128 0x10
 2580 0010 17       		.uleb128 0x17
 2581 0011 00       		.byte	0
 2582 0012 00       		.byte	0
 2583 0013 02       		.uleb128 0x2
 2584 0014 24       		.uleb128 0x24
 2585 0015 00       		.byte	0
 2586 0016 0B       		.uleb128 0xb
 2587 0017 0B       		.uleb128 0xb
 2588 0018 3E       		.uleb128 0x3e
 2589 0019 0B       		.uleb128 0xb
 2590 001a 03       		.uleb128 0x3
 2591 001b 08       		.uleb128 0x8
 2592 001c 00       		.byte	0
 2593 001d 00       		.byte	0
 2594 001e 03       		.uleb128 0x3
 2595 001f 24       		.uleb128 0x24
 2596 0020 00       		.byte	0
 2597 0021 0B       		.uleb128 0xb
 2598 0022 0B       		.uleb128 0xb
 2599 0023 3E       		.uleb128 0x3e
 2600 0024 0B       		.uleb128 0xb
 2601 0025 03       		.uleb128 0x3
 2602 0026 0E       		.uleb128 0xe
 2603 0027 00       		.byte	0
 2604 0028 00       		.byte	0
 2605 0029 04       		.uleb128 0x4
 2606 002a 16       		.uleb128 0x16
 2607 002b 00       		.byte	0
 2608 002c 03       		.uleb128 0x3
 2609 002d 0E       		.uleb128 0xe
 2610 002e 3A       		.uleb128 0x3a
 2611 002f 0B       		.uleb128 0xb
 2612 0030 3B       		.uleb128 0x3b
 2613 0031 0B       		.uleb128 0xb
 2614 0032 49       		.uleb128 0x49
 2615 0033 13       		.uleb128 0x13
 2616 0034 00       		.byte	0
 2617 0035 00       		.byte	0
 2618 0036 05       		.uleb128 0x5
 2619 0037 35       		.uleb128 0x35
 2620 0038 00       		.byte	0
 2621 0039 49       		.uleb128 0x49
 2622 003a 13       		.uleb128 0x13
ARM GAS  /tmp/cc2rLMrL.s 			page 47


 2623 003b 00       		.byte	0
 2624 003c 00       		.byte	0
 2625 003d 06       		.uleb128 0x6
 2626 003e 04       		.uleb128 0x4
 2627 003f 01       		.byte	0x1
 2628 0040 03       		.uleb128 0x3
 2629 0041 0E       		.uleb128 0xe
 2630 0042 0B       		.uleb128 0xb
 2631 0043 0B       		.uleb128 0xb
 2632 0044 49       		.uleb128 0x49
 2633 0045 13       		.uleb128 0x13
 2634 0046 3A       		.uleb128 0x3a
 2635 0047 0B       		.uleb128 0xb
 2636 0048 3B       		.uleb128 0x3b
 2637 0049 0B       		.uleb128 0xb
 2638 004a 01       		.uleb128 0x1
 2639 004b 13       		.uleb128 0x13
 2640 004c 00       		.byte	0
 2641 004d 00       		.byte	0
 2642 004e 07       		.uleb128 0x7
 2643 004f 28       		.uleb128 0x28
 2644 0050 00       		.byte	0
 2645 0051 03       		.uleb128 0x3
 2646 0052 0E       		.uleb128 0xe
 2647 0053 1C       		.uleb128 0x1c
 2648 0054 0D       		.uleb128 0xd
 2649 0055 00       		.byte	0
 2650 0056 00       		.byte	0
 2651 0057 08       		.uleb128 0x8
 2652 0058 28       		.uleb128 0x28
 2653 0059 00       		.byte	0
 2654 005a 03       		.uleb128 0x3
 2655 005b 0E       		.uleb128 0xe
 2656 005c 1C       		.uleb128 0x1c
 2657 005d 0B       		.uleb128 0xb
 2658 005e 00       		.byte	0
 2659 005f 00       		.byte	0
 2660 0060 09       		.uleb128 0x9
 2661 0061 13       		.uleb128 0x13
 2662 0062 01       		.byte	0x1
 2663 0063 0B       		.uleb128 0xb
 2664 0064 0B       		.uleb128 0xb
 2665 0065 3A       		.uleb128 0x3a
 2666 0066 0B       		.uleb128 0xb
 2667 0067 3B       		.uleb128 0x3b
 2668 0068 05       		.uleb128 0x5
 2669 0069 01       		.uleb128 0x1
 2670 006a 13       		.uleb128 0x13
 2671 006b 00       		.byte	0
 2672 006c 00       		.byte	0
 2673 006d 0A       		.uleb128 0xa
 2674 006e 0D       		.uleb128 0xd
 2675 006f 00       		.byte	0
 2676 0070 03       		.uleb128 0x3
 2677 0071 08       		.uleb128 0x8
 2678 0072 3A       		.uleb128 0x3a
 2679 0073 0B       		.uleb128 0xb
ARM GAS  /tmp/cc2rLMrL.s 			page 48


 2680 0074 3B       		.uleb128 0x3b
 2681 0075 05       		.uleb128 0x5
 2682 0076 49       		.uleb128 0x49
 2683 0077 13       		.uleb128 0x13
 2684 0078 38       		.uleb128 0x38
 2685 0079 0B       		.uleb128 0xb
 2686 007a 00       		.byte	0
 2687 007b 00       		.byte	0
 2688 007c 0B       		.uleb128 0xb
 2689 007d 0D       		.uleb128 0xd
 2690 007e 00       		.byte	0
 2691 007f 03       		.uleb128 0x3
 2692 0080 0E       		.uleb128 0xe
 2693 0081 3A       		.uleb128 0x3a
 2694 0082 0B       		.uleb128 0xb
 2695 0083 3B       		.uleb128 0x3b
 2696 0084 05       		.uleb128 0x5
 2697 0085 49       		.uleb128 0x49
 2698 0086 13       		.uleb128 0x13
 2699 0087 38       		.uleb128 0x38
 2700 0088 0B       		.uleb128 0xb
 2701 0089 00       		.byte	0
 2702 008a 00       		.byte	0
 2703 008b 0C       		.uleb128 0xc
 2704 008c 16       		.uleb128 0x16
 2705 008d 00       		.byte	0
 2706 008e 03       		.uleb128 0x3
 2707 008f 0E       		.uleb128 0xe
 2708 0090 3A       		.uleb128 0x3a
 2709 0091 0B       		.uleb128 0xb
 2710 0092 3B       		.uleb128 0x3b
 2711 0093 05       		.uleb128 0x5
 2712 0094 49       		.uleb128 0x49
 2713 0095 13       		.uleb128 0x13
 2714 0096 00       		.byte	0
 2715 0097 00       		.byte	0
 2716 0098 0D       		.uleb128 0xd
 2717 0099 04       		.uleb128 0x4
 2718 009a 01       		.byte	0x1
 2719 009b 0B       		.uleb128 0xb
 2720 009c 0B       		.uleb128 0xb
 2721 009d 49       		.uleb128 0x49
 2722 009e 13       		.uleb128 0x13
 2723 009f 3A       		.uleb128 0x3a
 2724 00a0 0B       		.uleb128 0xb
 2725 00a1 3B       		.uleb128 0x3b
 2726 00a2 0B       		.uleb128 0xb
 2727 00a3 01       		.uleb128 0x1
 2728 00a4 13       		.uleb128 0x13
 2729 00a5 00       		.byte	0
 2730 00a6 00       		.byte	0
 2731 00a7 0E       		.uleb128 0xe
 2732 00a8 13       		.uleb128 0x13
 2733 00a9 01       		.byte	0x1
 2734 00aa 03       		.uleb128 0x3
 2735 00ab 0E       		.uleb128 0xe
 2736 00ac 0B       		.uleb128 0xb
ARM GAS  /tmp/cc2rLMrL.s 			page 49


 2737 00ad 0B       		.uleb128 0xb
 2738 00ae 3A       		.uleb128 0x3a
 2739 00af 0B       		.uleb128 0xb
 2740 00b0 3B       		.uleb128 0x3b
 2741 00b1 0B       		.uleb128 0xb
 2742 00b2 01       		.uleb128 0x1
 2743 00b3 13       		.uleb128 0x13
 2744 00b4 00       		.byte	0
 2745 00b5 00       		.byte	0
 2746 00b6 0F       		.uleb128 0xf
 2747 00b7 0D       		.uleb128 0xd
 2748 00b8 00       		.byte	0
 2749 00b9 03       		.uleb128 0x3
 2750 00ba 0E       		.uleb128 0xe
 2751 00bb 3A       		.uleb128 0x3a
 2752 00bc 0B       		.uleb128 0xb
 2753 00bd 3B       		.uleb128 0x3b
 2754 00be 0B       		.uleb128 0xb
 2755 00bf 49       		.uleb128 0x49
 2756 00c0 13       		.uleb128 0x13
 2757 00c1 38       		.uleb128 0x38
 2758 00c2 0B       		.uleb128 0xb
 2759 00c3 00       		.byte	0
 2760 00c4 00       		.byte	0
 2761 00c5 10       		.uleb128 0x10
 2762 00c6 0F       		.uleb128 0xf
 2763 00c7 00       		.byte	0
 2764 00c8 0B       		.uleb128 0xb
 2765 00c9 0B       		.uleb128 0xb
 2766 00ca 49       		.uleb128 0x49
 2767 00cb 13       		.uleb128 0x13
 2768 00cc 00       		.byte	0
 2769 00cd 00       		.byte	0
 2770 00ce 11       		.uleb128 0x11
 2771 00cf 15       		.uleb128 0x15
 2772 00d0 01       		.byte	0x1
 2773 00d1 27       		.uleb128 0x27
 2774 00d2 19       		.uleb128 0x19
 2775 00d3 01       		.uleb128 0x1
 2776 00d4 13       		.uleb128 0x13
 2777 00d5 00       		.byte	0
 2778 00d6 00       		.byte	0
 2779 00d7 12       		.uleb128 0x12
 2780 00d8 05       		.uleb128 0x5
 2781 00d9 00       		.byte	0
 2782 00da 49       		.uleb128 0x49
 2783 00db 13       		.uleb128 0x13
 2784 00dc 00       		.byte	0
 2785 00dd 00       		.byte	0
 2786 00de 13       		.uleb128 0x13
 2787 00df 13       		.uleb128 0x13
 2788 00e0 01       		.byte	0x1
 2789 00e1 0B       		.uleb128 0xb
 2790 00e2 0B       		.uleb128 0xb
 2791 00e3 3A       		.uleb128 0x3a
 2792 00e4 0B       		.uleb128 0xb
 2793 00e5 3B       		.uleb128 0x3b
ARM GAS  /tmp/cc2rLMrL.s 			page 50


 2794 00e6 0B       		.uleb128 0xb
 2795 00e7 01       		.uleb128 0x1
 2796 00e8 13       		.uleb128 0x13
 2797 00e9 00       		.byte	0
 2798 00ea 00       		.byte	0
 2799 00eb 14       		.uleb128 0x14
 2800 00ec 0D       		.uleb128 0xd
 2801 00ed 00       		.byte	0
 2802 00ee 03       		.uleb128 0x3
 2803 00ef 08       		.uleb128 0x8
 2804 00f0 3A       		.uleb128 0x3a
 2805 00f1 0B       		.uleb128 0xb
 2806 00f2 3B       		.uleb128 0x3b
 2807 00f3 0B       		.uleb128 0xb
 2808 00f4 49       		.uleb128 0x49
 2809 00f5 13       		.uleb128 0x13
 2810 00f6 38       		.uleb128 0x38
 2811 00f7 0B       		.uleb128 0xb
 2812 00f8 00       		.byte	0
 2813 00f9 00       		.byte	0
 2814 00fa 15       		.uleb128 0x15
 2815 00fb 01       		.uleb128 0x1
 2816 00fc 01       		.byte	0x1
 2817 00fd 49       		.uleb128 0x49
 2818 00fe 13       		.uleb128 0x13
 2819 00ff 01       		.uleb128 0x1
 2820 0100 13       		.uleb128 0x13
 2821 0101 00       		.byte	0
 2822 0102 00       		.byte	0
 2823 0103 16       		.uleb128 0x16
 2824 0104 21       		.uleb128 0x21
 2825 0105 00       		.byte	0
 2826 0106 49       		.uleb128 0x49
 2827 0107 13       		.uleb128 0x13
 2828 0108 2F       		.uleb128 0x2f
 2829 0109 0B       		.uleb128 0xb
 2830 010a 00       		.byte	0
 2831 010b 00       		.byte	0
 2832 010c 17       		.uleb128 0x17
 2833 010d 26       		.uleb128 0x26
 2834 010e 00       		.byte	0
 2835 010f 49       		.uleb128 0x49
 2836 0110 13       		.uleb128 0x13
 2837 0111 00       		.byte	0
 2838 0112 00       		.byte	0
 2839 0113 18       		.uleb128 0x18
 2840 0114 2E       		.uleb128 0x2e
 2841 0115 01       		.byte	0x1
 2842 0116 3F       		.uleb128 0x3f
 2843 0117 19       		.uleb128 0x19
 2844 0118 03       		.uleb128 0x3
 2845 0119 0E       		.uleb128 0xe
 2846 011a 3A       		.uleb128 0x3a
 2847 011b 0B       		.uleb128 0xb
 2848 011c 3B       		.uleb128 0x3b
 2849 011d 0B       		.uleb128 0xb
 2850 011e 27       		.uleb128 0x27
ARM GAS  /tmp/cc2rLMrL.s 			page 51


 2851 011f 19       		.uleb128 0x19
 2852 0120 11       		.uleb128 0x11
 2853 0121 01       		.uleb128 0x1
 2854 0122 12       		.uleb128 0x12
 2855 0123 06       		.uleb128 0x6
 2856 0124 40       		.uleb128 0x40
 2857 0125 18       		.uleb128 0x18
 2858 0126 9742     		.uleb128 0x2117
 2859 0128 19       		.uleb128 0x19
 2860 0129 01       		.uleb128 0x1
 2861 012a 13       		.uleb128 0x13
 2862 012b 00       		.byte	0
 2863 012c 00       		.byte	0
 2864 012d 19       		.uleb128 0x19
 2865 012e 898201   		.uleb128 0x4109
 2866 0131 00       		.byte	0
 2867 0132 11       		.uleb128 0x11
 2868 0133 01       		.uleb128 0x1
 2869 0134 31       		.uleb128 0x31
 2870 0135 13       		.uleb128 0x13
 2871 0136 00       		.byte	0
 2872 0137 00       		.byte	0
 2873 0138 1A       		.uleb128 0x1a
 2874 0139 898201   		.uleb128 0x4109
 2875 013c 01       		.byte	0x1
 2876 013d 11       		.uleb128 0x11
 2877 013e 01       		.uleb128 0x1
 2878 013f 01       		.uleb128 0x1
 2879 0140 13       		.uleb128 0x13
 2880 0141 00       		.byte	0
 2881 0142 00       		.byte	0
 2882 0143 1B       		.uleb128 0x1b
 2883 0144 8A8201   		.uleb128 0x410a
 2884 0147 00       		.byte	0
 2885 0148 02       		.uleb128 0x2
 2886 0149 18       		.uleb128 0x18
 2887 014a 9142     		.uleb128 0x2111
 2888 014c 18       		.uleb128 0x18
 2889 014d 00       		.byte	0
 2890 014e 00       		.byte	0
 2891 014f 1C       		.uleb128 0x1c
 2892 0150 898201   		.uleb128 0x4109
 2893 0153 00       		.byte	0
 2894 0154 11       		.uleb128 0x11
 2895 0155 01       		.uleb128 0x1
 2896 0156 9542     		.uleb128 0x2115
 2897 0158 19       		.uleb128 0x19
 2898 0159 31       		.uleb128 0x31
 2899 015a 13       		.uleb128 0x13
 2900 015b 00       		.byte	0
 2901 015c 00       		.byte	0
 2902 015d 1D       		.uleb128 0x1d
 2903 015e 34       		.uleb128 0x34
 2904 015f 00       		.byte	0
 2905 0160 03       		.uleb128 0x3
 2906 0161 08       		.uleb128 0x8
 2907 0162 3A       		.uleb128 0x3a
ARM GAS  /tmp/cc2rLMrL.s 			page 52


 2908 0163 0B       		.uleb128 0xb
 2909 0164 3B       		.uleb128 0x3b
 2910 0165 0B       		.uleb128 0xb
 2911 0166 49       		.uleb128 0x49
 2912 0167 13       		.uleb128 0x13
 2913 0168 02       		.uleb128 0x2
 2914 0169 17       		.uleb128 0x17
 2915 016a 00       		.byte	0
 2916 016b 00       		.byte	0
 2917 016c 1E       		.uleb128 0x1e
 2918 016d 898201   		.uleb128 0x4109
 2919 0170 01       		.byte	0x1
 2920 0171 11       		.uleb128 0x11
 2921 0172 01       		.uleb128 0x1
 2922 0173 00       		.byte	0
 2923 0174 00       		.byte	0
 2924 0175 1F       		.uleb128 0x1f
 2925 0176 2E       		.uleb128 0x2e
 2926 0177 01       		.byte	0x1
 2927 0178 3F       		.uleb128 0x3f
 2928 0179 19       		.uleb128 0x19
 2929 017a 03       		.uleb128 0x3
 2930 017b 0E       		.uleb128 0xe
 2931 017c 3A       		.uleb128 0x3a
 2932 017d 0B       		.uleb128 0xb
 2933 017e 3B       		.uleb128 0x3b
 2934 017f 05       		.uleb128 0x5
 2935 0180 27       		.uleb128 0x27
 2936 0181 19       		.uleb128 0x19
 2937 0182 11       		.uleb128 0x11
 2938 0183 01       		.uleb128 0x1
 2939 0184 12       		.uleb128 0x12
 2940 0185 06       		.uleb128 0x6
 2941 0186 40       		.uleb128 0x40
 2942 0187 18       		.uleb128 0x18
 2943 0188 9742     		.uleb128 0x2117
 2944 018a 19       		.uleb128 0x19
 2945 018b 01       		.uleb128 0x1
 2946 018c 13       		.uleb128 0x13
 2947 018d 00       		.byte	0
 2948 018e 00       		.byte	0
 2949 018f 20       		.uleb128 0x20
 2950 0190 898201   		.uleb128 0x4109
 2951 0193 01       		.byte	0x1
 2952 0194 11       		.uleb128 0x11
 2953 0195 01       		.uleb128 0x1
 2954 0196 31       		.uleb128 0x31
 2955 0197 13       		.uleb128 0x13
 2956 0198 01       		.uleb128 0x1
 2957 0199 13       		.uleb128 0x13
 2958 019a 00       		.byte	0
 2959 019b 00       		.byte	0
 2960 019c 21       		.uleb128 0x21
 2961 019d 898201   		.uleb128 0x4109
 2962 01a0 01       		.byte	0x1
 2963 01a1 11       		.uleb128 0x11
 2964 01a2 01       		.uleb128 0x1
ARM GAS  /tmp/cc2rLMrL.s 			page 53


 2965 01a3 9542     		.uleb128 0x2115
 2966 01a5 19       		.uleb128 0x19
 2967 01a6 31       		.uleb128 0x31
 2968 01a7 13       		.uleb128 0x13
 2969 01a8 00       		.byte	0
 2970 01a9 00       		.byte	0
 2971 01aa 22       		.uleb128 0x22
 2972 01ab 34       		.uleb128 0x34
 2973 01ac 00       		.byte	0
 2974 01ad 03       		.uleb128 0x3
 2975 01ae 0E       		.uleb128 0xe
 2976 01af 3A       		.uleb128 0x3a
 2977 01b0 0B       		.uleb128 0xb
 2978 01b1 3B       		.uleb128 0x3b
 2979 01b2 05       		.uleb128 0x5
 2980 01b3 49       		.uleb128 0x49
 2981 01b4 13       		.uleb128 0x13
 2982 01b5 3F       		.uleb128 0x3f
 2983 01b6 19       		.uleb128 0x19
 2984 01b7 3C       		.uleb128 0x3c
 2985 01b8 19       		.uleb128 0x19
 2986 01b9 00       		.byte	0
 2987 01ba 00       		.byte	0
 2988 01bb 23       		.uleb128 0x23
 2989 01bc 34       		.uleb128 0x34
 2990 01bd 00       		.byte	0
 2991 01be 03       		.uleb128 0x3
 2992 01bf 0E       		.uleb128 0xe
 2993 01c0 3A       		.uleb128 0x3a
 2994 01c1 0B       		.uleb128 0xb
 2995 01c2 3B       		.uleb128 0x3b
 2996 01c3 0B       		.uleb128 0xb
 2997 01c4 49       		.uleb128 0x49
 2998 01c5 13       		.uleb128 0x13
 2999 01c6 3F       		.uleb128 0x3f
 3000 01c7 19       		.uleb128 0x19
 3001 01c8 3C       		.uleb128 0x3c
 3002 01c9 19       		.uleb128 0x19
 3003 01ca 00       		.byte	0
 3004 01cb 00       		.byte	0
 3005 01cc 24       		.uleb128 0x24
 3006 01cd 2E       		.uleb128 0x2e
 3007 01ce 00       		.byte	0
 3008 01cf 3F       		.uleb128 0x3f
 3009 01d0 19       		.uleb128 0x19
 3010 01d1 3C       		.uleb128 0x3c
 3011 01d2 19       		.uleb128 0x19
 3012 01d3 6E       		.uleb128 0x6e
 3013 01d4 0E       		.uleb128 0xe
 3014 01d5 03       		.uleb128 0x3
 3015 01d6 0E       		.uleb128 0xe
 3016 01d7 3A       		.uleb128 0x3a
 3017 01d8 0B       		.uleb128 0xb
 3018 01d9 3B       		.uleb128 0x3b
 3019 01da 0B       		.uleb128 0xb
 3020 01db 00       		.byte	0
 3021 01dc 00       		.byte	0
ARM GAS  /tmp/cc2rLMrL.s 			page 54


 3022 01dd 25       		.uleb128 0x25
 3023 01de 2E       		.uleb128 0x2e
 3024 01df 00       		.byte	0
 3025 01e0 3F       		.uleb128 0x3f
 3026 01e1 19       		.uleb128 0x19
 3027 01e2 3C       		.uleb128 0x3c
 3028 01e3 19       		.uleb128 0x19
 3029 01e4 6E       		.uleb128 0x6e
 3030 01e5 0E       		.uleb128 0xe
 3031 01e6 03       		.uleb128 0x3
 3032 01e7 0E       		.uleb128 0xe
 3033 01e8 3A       		.uleb128 0x3a
 3034 01e9 0B       		.uleb128 0xb
 3035 01ea 3B       		.uleb128 0x3b
 3036 01eb 05       		.uleb128 0x5
 3037 01ec 00       		.byte	0
 3038 01ed 00       		.byte	0
 3039 01ee 00       		.byte	0
 3040              		.section	.debug_loc,"",%progbits
 3041              	.Ldebug_loc0:
 3042              	.LLST0:
 3043 0000 0E000000 		.4byte	.LVL21
 3044 0004 14000000 		.4byte	.LVL22
 3045 0008 0100     		.2byte	0x1
 3046 000a 52       		.byte	0x52
 3047 000b 14000000 		.4byte	.LVL22
 3048 000f 36000000 		.4byte	.LVL25
 3049 0013 0700     		.2byte	0x7
 3050 0015 74       		.byte	0x74
 3051 0016 00       		.sleb128 0
 3052 0017 0A       		.byte	0xa
 3053 0018 E003     		.2byte	0x3e0
 3054 001a 1A       		.byte	0x1a
 3055 001b 9F       		.byte	0x9f
 3056 001c 3A000000 		.4byte	.LVL26
 3057 0020 5E000000 		.4byte	.LVL30
 3058 0024 0700     		.2byte	0x7
 3059 0026 74       		.byte	0x74
 3060 0027 00       		.sleb128 0
 3061 0028 0A       		.byte	0xa
 3062 0029 E003     		.2byte	0x3e0
 3063 002b 1A       		.byte	0x1a
 3064 002c 9F       		.byte	0x9f
 3065 002d 5E000000 		.4byte	.LVL30
 3066 0031 67000000 		.4byte	.LVL31-1
 3067 0035 0100     		.2byte	0x1
 3068 0037 52       		.byte	0x52
 3069 0038 67000000 		.4byte	.LVL31-1
 3070 003c 74000000 		.4byte	.LFE116
 3071 0040 0700     		.2byte	0x7
 3072 0042 74       		.byte	0x74
 3073 0043 00       		.sleb128 0
 3074 0044 0A       		.byte	0xa
 3075 0045 E003     		.2byte	0x3e0
 3076 0047 1A       		.byte	0x1a
 3077 0048 9F       		.byte	0x9f
 3078 0049 00000000 		.4byte	0
ARM GAS  /tmp/cc2rLMrL.s 			page 55


 3079 004d 00000000 		.4byte	0
 3080              	.LLST1:
 3081 0051 0E000000 		.4byte	.LVL33
 3082 0055 12000000 		.4byte	.LVL34
 3083 0059 0100     		.2byte	0x1
 3084 005b 52       		.byte	0x52
 3085 005c 12000000 		.4byte	.LVL34
 3086 0060 14000000 		.4byte	.LVL35
 3087 0064 0200     		.2byte	0x2
 3088 0066 73       		.byte	0x73
 3089 0067 14       		.sleb128 20
 3090 0068 14000000 		.4byte	.LVL35
 3091 006c 3A000000 		.4byte	.LVL38
 3092 0070 0700     		.2byte	0x7
 3093 0072 74       		.byte	0x74
 3094 0073 00       		.sleb128 0
 3095 0074 0A       		.byte	0xa
 3096 0075 00FC     		.2byte	0xfc00
 3097 0077 1A       		.byte	0x1a
 3098 0078 9F       		.byte	0x9f
 3099 0079 3E000000 		.4byte	.LVL39
 3100 007d 6E000000 		.4byte	.LVL44
 3101 0081 0700     		.2byte	0x7
 3102 0083 74       		.byte	0x74
 3103 0084 00       		.sleb128 0
 3104 0085 0A       		.byte	0xa
 3105 0086 00FC     		.2byte	0xfc00
 3106 0088 1A       		.byte	0x1a
 3107 0089 9F       		.byte	0x9f
 3108 008a 6E000000 		.4byte	.LVL44
 3109 008e 72000000 		.4byte	.LVL45
 3110 0092 0200     		.2byte	0x2
 3111 0094 73       		.byte	0x73
 3112 0095 14       		.sleb128 20
 3113 0096 72000000 		.4byte	.LVL45
 3114 009a 77000000 		.4byte	.LVL46-1
 3115 009e 0500     		.2byte	0x5
 3116 00a0 0C       		.byte	0xc
 3117 00a1 143C0140 		.4byte	0x40013c14
 3118 00a5 77000000 		.4byte	.LVL46-1
 3119 00a9 84000000 		.4byte	.LFE117
 3120 00ad 0700     		.2byte	0x7
 3121 00af 74       		.byte	0x74
 3122 00b0 00       		.sleb128 0
 3123 00b1 0A       		.byte	0xa
 3124 00b2 00FC     		.2byte	0xfc00
 3125 00b4 1A       		.byte	0x1a
 3126 00b5 9F       		.byte	0x9f
 3127 00b6 00000000 		.4byte	0
 3128 00ba 00000000 		.4byte	0
 3129              		.section	.debug_aranges,"",%progbits
 3130 0000 94000000 		.4byte	0x94
 3131 0004 0200     		.2byte	0x2
 3132 0006 00000000 		.4byte	.Ldebug_info0
 3133 000a 04       		.byte	0x4
 3134 000b 00       		.byte	0
 3135 000c 0000     		.2byte	0
ARM GAS  /tmp/cc2rLMrL.s 			page 56


 3136 000e 0000     		.2byte	0
 3137 0010 00000000 		.4byte	.LFB111
 3138 0014 2C000000 		.4byte	.LFE111-.LFB111
 3139 0018 00000000 		.4byte	.LFB112
 3140 001c 2C000000 		.4byte	.LFE112-.LFB112
 3141 0020 00000000 		.4byte	.LFB113
 3142 0024 2C000000 		.4byte	.LFE113-.LFB113
 3143 0028 00000000 		.4byte	.LFB114
 3144 002c 2C000000 		.4byte	.LFE114-.LFB114
 3145 0030 00000000 		.4byte	.LFB115
 3146 0034 2C000000 		.4byte	.LFE115-.LFB115
 3147 0038 00000000 		.4byte	.LFB116
 3148 003c 74000000 		.4byte	.LFE116-.LFB116
 3149 0040 00000000 		.4byte	.LFB117
 3150 0044 84000000 		.4byte	.LFE117-.LFB117
 3151 0048 00000000 		.4byte	.LFB118
 3152 004c 30000000 		.4byte	.LFE118-.LFB118
 3153 0050 00000000 		.4byte	.LFB119
 3154 0054 30000000 		.4byte	.LFE119-.LFB119
 3155 0058 00000000 		.4byte	.LFB120
 3156 005c 30000000 		.4byte	.LFE120-.LFB120
 3157 0060 00000000 		.4byte	.LFB121
 3158 0064 30000000 		.4byte	.LFE121-.LFB121
 3159 0068 00000000 		.4byte	.LFB122
 3160 006c 30000000 		.4byte	.LFE122-.LFB122
 3161 0070 00000000 		.4byte	.LFB123
 3162 0074 30000000 		.4byte	.LFE123-.LFB123
 3163 0078 00000000 		.4byte	.LFB124
 3164 007c 30000000 		.4byte	.LFE124-.LFB124
 3165 0080 00000000 		.4byte	.LFB125
 3166 0084 76000000 		.4byte	.LFE125-.LFB125
 3167 0088 00000000 		.4byte	.LFB126
 3168 008c 5A000000 		.4byte	.LFE126-.LFB126
 3169 0090 00000000 		.4byte	0
 3170 0094 00000000 		.4byte	0
 3171              		.section	.debug_ranges,"",%progbits
 3172              	.Ldebug_ranges0:
 3173 0000 00000000 		.4byte	.LFB111
 3174 0004 2C000000 		.4byte	.LFE111
 3175 0008 00000000 		.4byte	.LFB112
 3176 000c 2C000000 		.4byte	.LFE112
 3177 0010 00000000 		.4byte	.LFB113
 3178 0014 2C000000 		.4byte	.LFE113
 3179 0018 00000000 		.4byte	.LFB114
 3180 001c 2C000000 		.4byte	.LFE114
 3181 0020 00000000 		.4byte	.LFB115
 3182 0024 2C000000 		.4byte	.LFE115
 3183 0028 00000000 		.4byte	.LFB116
 3184 002c 74000000 		.4byte	.LFE116
 3185 0030 00000000 		.4byte	.LFB117
 3186 0034 84000000 		.4byte	.LFE117
 3187 0038 00000000 		.4byte	.LFB118
 3188 003c 30000000 		.4byte	.LFE118
 3189 0040 00000000 		.4byte	.LFB119
 3190 0044 30000000 		.4byte	.LFE119
 3191 0048 00000000 		.4byte	.LFB120
 3192 004c 30000000 		.4byte	.LFE120
ARM GAS  /tmp/cc2rLMrL.s 			page 57


 3193 0050 00000000 		.4byte	.LFB121
 3194 0054 30000000 		.4byte	.LFE121
 3195 0058 00000000 		.4byte	.LFB122
 3196 005c 30000000 		.4byte	.LFE122
 3197 0060 00000000 		.4byte	.LFB123
 3198 0064 30000000 		.4byte	.LFE123
 3199 0068 00000000 		.4byte	.LFB124
 3200 006c 30000000 		.4byte	.LFE124
 3201 0070 00000000 		.4byte	.LFB125
 3202 0074 76000000 		.4byte	.LFE125
 3203 0078 00000000 		.4byte	.LFB126
 3204 007c 5A000000 		.4byte	.LFE126
 3205 0080 00000000 		.4byte	0
 3206 0084 00000000 		.4byte	0
 3207              		.section	.debug_line,"",%progbits
 3208              	.Ldebug_line0:
 3209 0000 64040000 		.section	.debug_str,"MS",%progbits,1
 3209      02009902 
 3209      00000201 
 3209      FB0E0D00 
 3209      01010101 
 3210              	.LASF45:
 3211 0000 43414E31 		.ascii	"CAN1_RX0_IRQn\000"
 3211      5F525830 
 3211      5F495251 
 3211      6E00
 3212              	.LASF26:
 3213 000e 5056445F 		.ascii	"PVD_IRQn\000"
 3213      4952516E 
 3213      00
 3214              	.LASF89:
 3215 0017 43414E32 		.ascii	"CAN2_RX0_IRQn\000"
 3215      5F525830 
 3215      5F495251 
 3215      6E00
 3216              	.LASF129:
 3217 0025 56656374 		.ascii	"Vector9C\000"
 3217      6F723943 
 3217      00
 3218              	.LASF98:
 3219 002e 49324333 		.ascii	"I2C3_ER_IRQn\000"
 3219      5F45525F 
 3219      4952516E 
 3219      00
 3220              	.LASF56:
 3221 003b 49324331 		.ascii	"I2C1_EV_IRQn\000"
 3221      5F45565F 
 3221      4952516E 
 3221      00
 3222              	.LASF118:
 3223 0048 65787063 		.ascii	"expchannel_t\000"
 3223      68616E6E 
 3223      656C5F74 
 3223      00
 3224              	.LASF93:
 3225 0055 444D4132 		.ascii	"DMA2_Stream5_IRQn\000"
 3225      5F537472 
ARM GAS  /tmp/cc2rLMrL.s 			page 58


 3225      65616D35 
 3225      5F495251 
 3225      6E00
 3226              	.LASF109:
 3227 0067 53574945 		.ascii	"SWIER\000"
 3227      5200
 3228              	.LASF134:
 3229 006d 56656374 		.ascii	"Vector138\000"
 3229      6F723133 
 3229      3800
 3230              	.LASF46:
 3231 0077 43414E31 		.ascii	"CAN1_RX1_IRQn\000"
 3231      5F525831 
 3231      5F495251 
 3231      6E00
 3232              	.LASF11:
 3233 0085 6C6F6E67 		.ascii	"long long unsigned int\000"
 3233      206C6F6E 
 3233      6720756E 
 3233      7369676E 
 3233      65642069 
 3234              	.LASF66:
 3235 009c 5254435F 		.ascii	"RTC_Alarm_IRQn\000"
 3235      416C6172 
 3235      6D5F4952 
 3235      516E00
 3236              	.LASF59:
 3237 00ab 49324332 		.ascii	"I2C2_ER_IRQn\000"
 3237      5F45525F 
 3237      4952516E 
 3237      00
 3238              	.LASF55:
 3239 00b8 54494D34 		.ascii	"TIM4_IRQn\000"
 3239      5F495251 
 3239      6E00
 3240              	.LASF28:
 3241 00c2 5254435F 		.ascii	"RTC_WKUP_IRQn\000"
 3241      574B5550 
 3241      5F495251 
 3241      6E00
 3242              	.LASF25:
 3243 00d0 57574447 		.ascii	"WWDG_IRQn\000"
 3243      5F495251 
 3243      6E00
 3244              	.LASF74:
 3245 00da 5344494F 		.ascii	"SDIO_IRQn\000"
 3245      5F495251 
 3245      6E00
 3246              	.LASF145:
 3247 00e4 6E766963 		.ascii	"nvicEnableVector\000"
 3247      456E6162 
 3247      6C655665 
 3247      63746F72 
 3247      00
 3248              	.LASF71:
 3249 00f5 54494D38 		.ascii	"TIM8_CC_IRQn\000"
 3249      5F43435F 
ARM GAS  /tmp/cc2rLMrL.s 			page 59


 3249      4952516E 
 3249      00
 3250              	.LASF1:
 3251 0102 6C6F6E67 		.ascii	"long long int\000"
 3251      206C6F6E 
 3251      6720696E 
 3251      7400
 3252              	.LASF3:
 3253 0110 7369676E 		.ascii	"signed char\000"
 3253      65642063 
 3253      68617200 
 3254              	.LASF90:
 3255 011c 43414E32 		.ascii	"CAN2_RX1_IRQn\000"
 3255      5F525831 
 3255      5F495251 
 3255      6E00
 3256              	.LASF94:
 3257 012a 444D4132 		.ascii	"DMA2_Stream6_IRQn\000"
 3257      5F537472 
 3257      65616D36 
 3257      5F495251 
 3257      6E00
 3258              	.LASF148:
 3259 013c 2E2E2F2E 		.ascii	"../../../os/hal/platforms/STM32F4xx/ext_lld_isr.c\000"
 3259      2E2F2E2E 
 3259      2F6F732F 
 3259      68616C2F 
 3259      706C6174 
 3260              	.LASF116:
 3261 016e 73746174 		.ascii	"state\000"
 3261      6500
 3262              	.LASF122:
 3263 0174 6368616E 		.ascii	"channels\000"
 3263      6E656C73 
 3263      00
 3264              	.LASF7:
 3265 017d 6C6F6E67 		.ascii	"long int\000"
 3265      20696E74 
 3265      00
 3266              	.LASF58:
 3267 0186 49324332 		.ascii	"I2C2_EV_IRQn\000"
 3267      5F45565F 
 3267      4952516E 
 3267      00
 3268              	.LASF41:
 3269 0193 444D4131 		.ascii	"DMA1_Stream5_IRQn\000"
 3269      5F537472 
 3269      65616D35 
 3269      5F495251 
 3269      6E00
 3270              	.LASF48:
 3271 01a5 45585449 		.ascii	"EXTI9_5_IRQn\000"
 3271      395F355F 
 3271      4952516E 
 3271      00
 3272              	.LASF87:
 3273 01b2 4554485F 		.ascii	"ETH_WKUP_IRQn\000"
ARM GAS  /tmp/cc2rLMrL.s 			page 60


 3273      574B5550 
 3273      5F495251 
 3273      6E00
 3274              	.LASF79:
 3275 01c0 54494D36 		.ascii	"TIM6_DAC_IRQn\000"
 3275      5F444143 
 3275      5F495251 
 3275      6E00
 3276              	.LASF77:
 3277 01ce 55415254 		.ascii	"UART4_IRQn\000"
 3277      345F4952 
 3277      516E00
 3278              	.LASF121:
 3279 01d9 45585443 		.ascii	"EXTChannelConfig\000"
 3279      68616E6E 
 3279      656C436F 
 3279      6E666967 
 3279      00
 3280              	.LASF23:
 3281 01ea 50656E64 		.ascii	"PendSV_IRQn\000"
 3281      53565F49 
 3281      52516E00 
 3282              	.LASF69:
 3283 01f6 54494D38 		.ascii	"TIM8_UP_TIM13_IRQn\000"
 3283      5F55505F 
 3283      54494D31 
 3283      335F4952 
 3283      516E00
 3284              	.LASF9:
 3285 0209 5F5F7569 		.ascii	"__uint32_t\000"
 3285      6E743332 
 3285      5F7400
 3286              	.LASF19:
 3287 0214 42757346 		.ascii	"BusFault_IRQn\000"
 3287      61756C74 
 3287      5F495251 
 3287      6E00
 3288              	.LASF67:
 3289 0222 4F54475F 		.ascii	"OTG_FS_WKUP_IRQn\000"
 3289      46535F57 
 3289      4B55505F 
 3289      4952516E 
 3289      00
 3290              	.LASF95:
 3291 0233 444D4132 		.ascii	"DMA2_Stream7_IRQn\000"
 3291      5F537472 
 3291      65616D37 
 3291      5F495251 
 3291      6E00
 3292              	.LASF139:
 3293 0245 6578745F 		.ascii	"ext_lld_exti_irq_disable\000"
 3293      6C6C645F 
 3293      65787469 
 3293      5F697271 
 3293      5F646973 
 3294              	.LASF0:
 3295 025e 756E7369 		.ascii	"unsigned int\000"
ARM GAS  /tmp/cc2rLMrL.s 			page 61


 3295      676E6564 
 3295      20696E74 
 3295      00
 3296              	.LASF39:
 3297 026b 444D4131 		.ascii	"DMA1_Stream3_IRQn\000"
 3297      5F537472 
 3297      65616D33 
 3297      5F495251 
 3297      6E00
 3298              	.LASF42:
 3299 027d 444D4131 		.ascii	"DMA1_Stream6_IRQn\000"
 3299      5F537472 
 3299      65616D36 
 3299      5F495251 
 3299      6E00
 3300              	.LASF107:
 3301 028f 52545352 		.ascii	"RTSR\000"
 3301      00
 3302              	.LASF18:
 3303 0294 4D656D6F 		.ascii	"MemoryManagement_IRQn\000"
 3303      72794D61 
 3303      6E616765 
 3303      6D656E74 
 3303      5F495251 
 3304              	.LASF97:
 3305 02aa 49324333 		.ascii	"I2C3_EV_IRQn\000"
 3305      5F45565F 
 3305      4952516E 
 3305      00
 3306              	.LASF10:
 3307 02b7 6C6F6E67 		.ascii	"long unsigned int\000"
 3307      20756E73 
 3307      69676E65 
 3307      6420696E 
 3307      7400
 3308              	.LASF144:
 3309 02c9 5F706F72 		.ascii	"_port_irq_epilogue\000"
 3309      745F6972 
 3309      715F6570 
 3309      696C6F67 
 3309      756500
 3310              	.LASF137:
 3311 02dc 56656374 		.ascii	"Vector4C\000"
 3311      6F723443 
 3311      00
 3312              	.LASF99:
 3313 02e5 4F54475F 		.ascii	"OTG_HS_EP1_OUT_IRQn\000"
 3313      48535F45 
 3313      50315F4F 
 3313      55545F49 
 3313      52516E00 
 3314              	.LASF21:
 3315 02f9 53564361 		.ascii	"SVCall_IRQn\000"
 3315      6C6C5F49 
 3315      52516E00 
 3316              	.LASF6:
 3317 0305 73686F72 		.ascii	"short unsigned int\000"
ARM GAS  /tmp/cc2rLMrL.s 			page 62


 3317      7420756E 
 3317      7369676E 
 3317      65642069 
 3317      6E7400
 3318              	.LASF138:
 3319 0318 6578745F 		.ascii	"ext_lld_exti_irq_enable\000"
 3319      6C6C645F 
 3319      65787469 
 3319      5F697271 
 3319      5F656E61 
 3320              	.LASF44:
 3321 0330 43414E31 		.ascii	"CAN1_TX_IRQn\000"
 3321      5F54585F 
 3321      4952516E 
 3321      00
 3322              	.LASF65:
 3323 033d 45585449 		.ascii	"EXTI15_10_IRQn\000"
 3323      31355F31 
 3323      305F4952 
 3323      516E00
 3324              	.LASF60:
 3325 034c 53504931 		.ascii	"SPI1_IRQn\000"
 3325      5F495251 
 3325      6E00
 3326              	.LASF37:
 3327 0356 444D4131 		.ascii	"DMA1_Stream1_IRQn\000"
 3327      5F537472 
 3327      65616D31 
 3327      5F495251 
 3327      6E00
 3328              	.LASF68:
 3329 0368 54494D38 		.ascii	"TIM8_BRK_TIM12_IRQn\000"
 3329      5F42524B 
 3329      5F54494D 
 3329      31325F49 
 3329      52516E00 
 3330              	.LASF24:
 3331 037c 53797354 		.ascii	"SysTick_IRQn\000"
 3331      69636B5F 
 3331      4952516E 
 3331      00
 3332              	.LASF52:
 3333 0389 54494D31 		.ascii	"TIM1_CC_IRQn\000"
 3333      5F43435F 
 3333      4952516E 
 3333      00
 3334              	.LASF70:
 3335 0396 54494D38 		.ascii	"TIM8_TRG_COM_TIM14_IRQn\000"
 3335      5F545247 
 3335      5F434F4D 
 3335      5F54494D 
 3335      31345F49 
 3336              	.LASF113:
 3337 03ae 4558545F 		.ascii	"EXT_ACTIVE\000"
 3337      41435449 
 3337      564500
 3338              	.LASF124:
ARM GAS  /tmp/cc2rLMrL.s 			page 63


 3339 03b9 56656374 		.ascii	"Vector58\000"
 3339      6F723538 
 3339      00
 3340              	.LASF86:
 3341 03c2 4554485F 		.ascii	"ETH_IRQn\000"
 3341      4952516E 
 3341      00
 3342              	.LASF150:
 3343 03cb 4952516E 		.ascii	"IRQn\000"
 3343      00
 3344              	.LASF125:
 3345 03d0 56656374 		.ascii	"Vector5C\000"
 3345      6F723543 
 3345      00
 3346              	.LASF15:
 3347 03d9 73697A65 		.ascii	"sizetype\000"
 3347      74797065 
 3347      00
 3348              	.LASF114:
 3349 03e2 65787473 		.ascii	"extstate_t\000"
 3349      74617465 
 3349      5F7400
 3350              	.LASF50:
 3351 03ed 54494D31 		.ascii	"TIM1_UP_TIM10_IRQn\000"
 3351      5F55505F 
 3351      54494D31 
 3351      305F4952 
 3351      516E00
 3352              	.LASF136:
 3353 0400 54414D50 		.ascii	"TAMPER_STAMP_IRQHandler\000"
 3353      45525F53 
 3353      54414D50 
 3353      5F495251 
 3353      48616E64 
 3354              	.LASF84:
 3355 0418 444D4132 		.ascii	"DMA2_Stream3_IRQn\000"
 3355      5F537472 
 3355      65616D33 
 3355      5F495251 
 3355      6E00
 3356              	.LASF40:
 3357 042a 444D4131 		.ascii	"DMA1_Stream4_IRQn\000"
 3357      5F537472 
 3357      65616D34 
 3357      5F495251 
 3357      6E00
 3358              	.LASF83:
 3359 043c 444D4132 		.ascii	"DMA2_Stream2_IRQn\000"
 3359      5F537472 
 3359      65616D32 
 3359      5F495251 
 3359      6E00
 3360              	.LASF96:
 3361 044e 55534152 		.ascii	"USART6_IRQn\000"
 3361      54365F49 
 3361      52516E00 
 3362              	.LASF75:
ARM GAS  /tmp/cc2rLMrL.s 			page 64


 3363 045a 54494D35 		.ascii	"TIM5_IRQn\000"
 3363      5F495251 
 3363      6E00
 3364              	.LASF34:
 3365 0464 45585449 		.ascii	"EXTI3_IRQn\000"
 3365      335F4952 
 3365      516E00
 3366              	.LASF61:
 3367 046f 53504932 		.ascii	"SPI2_IRQn\000"
 3367      5F495251 
 3367      6E00
 3368              	.LASF38:
 3369 0479 444D4131 		.ascii	"DMA1_Stream2_IRQn\000"
 3369      5F537472 
 3369      65616D32 
 3369      5F495251 
 3369      6E00
 3370              	.LASF88:
 3371 048b 43414E32 		.ascii	"CAN2_TX_IRQn\000"
 3371      5F54585F 
 3371      4952516E 
 3371      00
 3372              	.LASF92:
 3373 0498 4F54475F 		.ascii	"OTG_FS_IRQn\000"
 3373      46535F49 
 3373      52516E00 
 3374              	.LASF131:
 3375 04a4 56656374 		.ascii	"Vector44\000"
 3375      6F723434 
 3375      00
 3376              	.LASF130:
 3377 04ad 56656374 		.ascii	"VectorE0\000"
 3377      6F724530 
 3377      00
 3378              	.LASF132:
 3379 04b6 56656374 		.ascii	"VectorE4\000"
 3379      6F724534 
 3379      00
 3380              	.LASF27:
 3381 04bf 54414D50 		.ascii	"TAMP_STAMP_IRQn\000"
 3381      5F535441 
 3381      4D505F49 
 3381      52516E00 
 3382              	.LASF102:
 3383 04cf 4F54475F 		.ascii	"OTG_HS_IRQn\000"
 3383      48535F49 
 3383      52516E00 
 3384              	.LASF133:
 3385 04db 56656374 		.ascii	"VectorE8\000"
 3385      6F724538 
 3385      00
 3386              	.LASF135:
 3387 04e4 56656374 		.ascii	"Vector170\000"
 3387      6F723137 
 3387      3000
 3388              	.LASF126:
 3389 04ee 56656374 		.ascii	"Vector60\000"
ARM GAS  /tmp/cc2rLMrL.s 			page 65


 3389      6F723630 
 3389      00
 3390              	.LASF127:
 3391 04f7 56656374 		.ascii	"Vector64\000"
 3391      6F723634 
 3391      00
 3392              	.LASF128:
 3393 0500 56656374 		.ascii	"Vector68\000"
 3393      6F723638 
 3393      00
 3394              	.LASF62:
 3395 0509 55534152 		.ascii	"USART1_IRQn\000"
 3395      54315F49 
 3395      52516E00 
 3396              	.LASF76:
 3397 0515 53504933 		.ascii	"SPI3_IRQn\000"
 3397      5F495251 
 3397      6E00
 3398              	.LASF85:
 3399 051f 444D4132 		.ascii	"DMA2_Stream4_IRQn\000"
 3399      5F537472 
 3399      65616D34 
 3399      5F495251 
 3399      6E00
 3400              	.LASF73:
 3401 0531 46534D43 		.ascii	"FSMC_IRQn\000"
 3401      5F495251 
 3401      6E00
 3402              	.LASF14:
 3403 053b 5F426F6F 		.ascii	"_Bool\000"
 3403      6C00
 3404              	.LASF12:
 3405 0541 696E7433 		.ascii	"int32_t\000"
 3405      325F7400 
 3406              	.LASF4:
 3407 0549 756E7369 		.ascii	"unsigned char\000"
 3407      676E6564 
 3407      20636861 
 3407      7200
 3408              	.LASF111:
 3409 0557 4558545F 		.ascii	"EXT_UNINIT\000"
 3409      554E494E 
 3409      495400
 3410              	.LASF49:
 3411 0562 54494D31 		.ascii	"TIM1_BRK_TIM9_IRQn\000"
 3411      5F42524B 
 3411      5F54494D 
 3411      395F4952 
 3411      516E00
 3412              	.LASF140:
 3413 0575 49544D5F 		.ascii	"ITM_RxBuffer\000"
 3413      52784275 
 3413      66666572 
 3413      00
 3414              	.LASF108:
 3415 0582 46545352 		.ascii	"FTSR\000"
 3415      00
ARM GAS  /tmp/cc2rLMrL.s 			page 66


 3416              	.LASF35:
 3417 0587 45585449 		.ascii	"EXTI4_IRQn\000"
 3417      345F4952 
 3417      516E00
 3418              	.LASF105:
 3419 0592 48415348 		.ascii	"HASH_RNG_IRQn\000"
 3419      5F524E47 
 3419      5F495251 
 3419      6E00
 3420              	.LASF5:
 3421 05a0 73686F72 		.ascii	"short int\000"
 3421      7420696E 
 3421      7400
 3422              	.LASF78:
 3423 05aa 55415254 		.ascii	"UART5_IRQn\000"
 3423      355F4952 
 3423      516E00
 3424              	.LASF51:
 3425 05b5 54494D31 		.ascii	"TIM1_TRG_COM_TIM11_IRQn\000"
 3425      5F545247 
 3425      5F434F4D 
 3425      5F54494D 
 3425      31315F49 
 3426              	.LASF143:
 3427 05cd 6462675F 		.ascii	"dbg_check_leave_isr\000"
 3427      63686563 
 3427      6B5F6C65 
 3427      6176655F 
 3427      69737200 
 3428              	.LASF33:
 3429 05e1 45585449 		.ascii	"EXTI2_IRQn\000"
 3429      325F4952 
 3429      516E00
 3430              	.LASF29:
 3431 05ec 464C4153 		.ascii	"FLASH_IRQn\000"
 3431      485F4952 
 3431      516E00
 3432              	.LASF147:
 3433 05f7 474E5520 		.ascii	"GNU C11 5.2.1 20151202 (release) [ARM/embedded-5-br"
 3433      43313120 
 3433      352E322E 
 3433      31203230 
 3433      31353132 
 3434 062a 616E6368 		.ascii	"anch revision 231848] -mcpu=cortex-m4 -mno-thumb-in"
 3434      20726576 
 3434      6973696F 
 3434      6E203233 
 3434      31383438 
 3435 065d 74657277 		.ascii	"terwork -mthumb -ggdb -O2 -fomit-frame-pointer -fal"
 3435      6F726B20 
 3435      2D6D7468 
 3435      756D6220 
 3435      2D676764 
 3436 0690 69676E2D 		.ascii	"ign-functions=16 -ffunction-sections -fdata-section"
 3436      66756E63 
 3436      74696F6E 
 3436      733D3136 
ARM GAS  /tmp/cc2rLMrL.s 			page 67


 3436      202D6666 
 3437 06c3 73202D66 		.ascii	"s -fno-common\000"
 3437      6E6F2D63 
 3437      6F6D6D6F 
 3437      6E00
 3438              	.LASF13:
 3439 06d1 75696E74 		.ascii	"uint32_t\000"
 3439      33325F74 
 3439      00
 3440              	.LASF63:
 3441 06da 55534152 		.ascii	"USART2_IRQn\000"
 3441      54325F49 
 3441      52516E00 
 3442              	.LASF20:
 3443 06e6 55736167 		.ascii	"UsageFault_IRQn\000"
 3443      65466175 
 3443      6C745F49 
 3443      52516E00 
 3444              	.LASF146:
 3445 06f6 6E766963 		.ascii	"nvicDisableVector\000"
 3445      44697361 
 3445      626C6556 
 3445      6563746F 
 3445      7200
 3446              	.LASF2:
 3447 0708 6C6F6E67 		.ascii	"long double\000"
 3447      20646F75 
 3447      626C6500 
 3448              	.LASF112:
 3449 0714 4558545F 		.ascii	"EXT_STOP\000"
 3449      53544F50 
 3449      00
 3450              	.LASF72:
 3451 071d 444D4131 		.ascii	"DMA1_Stream7_IRQn\000"
 3451      5F537472 
 3451      65616D37 
 3451      5F495251 
 3451      6E00
 3452              	.LASF16:
 3453 072f 63686172 		.ascii	"char\000"
 3453      00
 3454              	.LASF120:
 3455 0734 6D6F6465 		.ascii	"mode\000"
 3455      00
 3456              	.LASF104:
 3457 0739 43525950 		.ascii	"CRYP_IRQn\000"
 3457      5F495251 
 3457      6E00
 3458              	.LASF117:
 3459 0743 636F6E66 		.ascii	"config\000"
 3459      696700
 3460              	.LASF119:
 3461 074a 65787463 		.ascii	"extcallback_t\000"
 3461      616C6C62 
 3461      61636B5F 
 3461      7400
 3462              	.LASF80:
ARM GAS  /tmp/cc2rLMrL.s 			page 68


 3463 0758 54494D37 		.ascii	"TIM7_IRQn\000"
 3463      5F495251 
 3463      6E00
 3464              	.LASF149:
 3465 0762 2F686F6D 		.ascii	"/home/z80/projects/stm32f238.git/firmware/testhal/S"
 3465      652F7A38 
 3465      302F7072 
 3465      6F6A6563 
 3465      74732F73 
 3466 0795 544D3332 		.ascii	"TM32F4xx/_serial\000"
 3466      46347878 
 3466      2F5F7365 
 3466      7269616C 
 3466      00
 3467              	.LASF100:
 3468 07a6 4F54475F 		.ascii	"OTG_HS_EP1_IN_IRQn\000"
 3468      48535F45 
 3468      50315F49 
 3468      4E5F4952 
 3468      516E00
 3469              	.LASF17:
 3470 07b9 4E6F6E4D 		.ascii	"NonMaskableInt_IRQn\000"
 3470      61736B61 
 3470      626C6549 
 3470      6E745F49 
 3470      52516E00 
 3471              	.LASF8:
 3472 07cd 5F5F696E 		.ascii	"__int32_t\000"
 3472      7433325F 
 3472      7400
 3473              	.LASF57:
 3474 07d7 49324331 		.ascii	"I2C1_ER_IRQn\000"
 3474      5F45525F 
 3474      4952516E 
 3474      00
 3475              	.LASF81:
 3476 07e4 444D4132 		.ascii	"DMA2_Stream0_IRQn\000"
 3476      5F537472 
 3476      65616D30 
 3476      5F495251 
 3476      6E00
 3477              	.LASF64:
 3478 07f6 55534152 		.ascii	"USART3_IRQn\000"
 3478      54335F49 
 3478      52516E00 
 3479              	.LASF115:
 3480 0802 45585444 		.ascii	"EXTDriver\000"
 3480      72697665 
 3480      7200
 3481              	.LASF53:
 3482 080c 54494D32 		.ascii	"TIM2_IRQn\000"
 3482      5F495251 
 3482      6E00
 3483              	.LASF31:
 3484 0816 45585449 		.ascii	"EXTI0_IRQn\000"
 3484      305F4952 
 3484      516E00
ARM GAS  /tmp/cc2rLMrL.s 			page 69


 3485              	.LASF142:
 3486 0821 6462675F 		.ascii	"dbg_check_enter_isr\000"
 3486      63686563 
 3486      6B5F656E 
 3486      7465725F 
 3486      69737200 
 3487              	.LASF103:
 3488 0835 44434D49 		.ascii	"DCMI_IRQn\000"
 3488      5F495251 
 3488      6E00
 3489              	.LASF123:
 3490 083f 45585443 		.ascii	"EXTConfig\000"
 3490      6F6E6669 
 3490      6700
 3491              	.LASF106:
 3492 0849 4650555F 		.ascii	"FPU_IRQn\000"
 3492      4952516E 
 3492      00
 3493              	.LASF22:
 3494 0852 44656275 		.ascii	"DebugMonitor_IRQn\000"
 3494      674D6F6E 
 3494      69746F72 
 3494      5F495251 
 3494      6E00
 3495              	.LASF110:
 3496 0864 45585449 		.ascii	"EXTI_TypeDef\000"
 3496      5F547970 
 3496      65446566 
 3496      00
 3497              	.LASF43:
 3498 0871 4144435F 		.ascii	"ADC_IRQn\000"
 3498      4952516E 
 3498      00
 3499              	.LASF82:
 3500 087a 444D4132 		.ascii	"DMA2_Stream1_IRQn\000"
 3500      5F537472 
 3500      65616D31 
 3500      5F495251 
 3500      6E00
 3501              	.LASF141:
 3502 088c 45585444 		.ascii	"EXTD1\000"
 3502      3100
 3503              	.LASF47:
 3504 0892 43414E31 		.ascii	"CAN1_SCE_IRQn\000"
 3504      5F534345 
 3504      5F495251 
 3504      6E00
 3505              	.LASF91:
 3506 08a0 43414E32 		.ascii	"CAN2_SCE_IRQn\000"
 3506      5F534345 
 3506      5F495251 
 3506      6E00
 3507              	.LASF30:
 3508 08ae 5243435F 		.ascii	"RCC_IRQn\000"
 3508      4952516E 
 3508      00
 3509              	.LASF101:
ARM GAS  /tmp/cc2rLMrL.s 			page 70


 3510 08b7 4F54475F 		.ascii	"OTG_HS_WKUP_IRQn\000"
 3510      48535F57 
 3510      4B55505F 
 3510      4952516E 
 3510      00
 3511              	.LASF54:
 3512 08c8 54494D33 		.ascii	"TIM3_IRQn\000"
 3512      5F495251 
 3512      6E00
 3513              	.LASF32:
 3514 08d2 45585449 		.ascii	"EXTI1_IRQn\000"
 3514      315F4952 
 3514      516E00
 3515              	.LASF36:
 3516 08dd 444D4131 		.ascii	"DMA1_Stream0_IRQn\000"
 3516      5F537472 
 3516      65616D30 
 3516      5F495251 
 3516      6E00
 3517              		.ident	"GCC: (GNU Tools for ARM Embedded Processors) 5.2.1 20151202 (release) [ARM/embedded-5-bran
ARM GAS  /tmp/cc2rLMrL.s 			page 71


DEFINED SYMBOLS
                            *ABS*:00000000 ext_lld_isr.c
     /tmp/cc2rLMrL.s:20     .text.Vector58:00000000 $t
     /tmp/cc2rLMrL.s:26     .text.Vector58:00000000 Vector58
     /tmp/cc2rLMrL.s:70     .text.Vector58:00000024 $d
     /tmp/cc2rLMrL.s:76     .text.Vector5C:00000000 $t
     /tmp/cc2rLMrL.s:82     .text.Vector5C:00000000 Vector5C
     /tmp/cc2rLMrL.s:125    .text.Vector5C:00000024 $d
     /tmp/cc2rLMrL.s:131    .text.Vector60:00000000 $t
     /tmp/cc2rLMrL.s:137    .text.Vector60:00000000 Vector60
     /tmp/cc2rLMrL.s:180    .text.Vector60:00000024 $d
     /tmp/cc2rLMrL.s:186    .text.Vector64:00000000 $t
     /tmp/cc2rLMrL.s:192    .text.Vector64:00000000 Vector64
     /tmp/cc2rLMrL.s:235    .text.Vector64:00000024 $d
     /tmp/cc2rLMrL.s:241    .text.Vector68:00000000 $t
     /tmp/cc2rLMrL.s:247    .text.Vector68:00000000 Vector68
     /tmp/cc2rLMrL.s:290    .text.Vector68:00000024 $d
     /tmp/cc2rLMrL.s:296    .text.Vector9C:00000000 $t
     /tmp/cc2rLMrL.s:302    .text.Vector9C:00000000 Vector9C
     /tmp/cc2rLMrL.s:404    .text.Vector9C:0000006c $d
     /tmp/cc2rLMrL.s:410    .text.VectorE0:00000000 $t
     /tmp/cc2rLMrL.s:416    .text.VectorE0:00000000 VectorE0
     /tmp/cc2rLMrL.s:533    .text.VectorE0:0000007c $d
     /tmp/cc2rLMrL.s:539    .text.Vector44:00000000 $t
     /tmp/cc2rLMrL.s:545    .text.Vector44:00000000 Vector44
     /tmp/cc2rLMrL.s:588    .text.Vector44:00000028 $d
     /tmp/cc2rLMrL.s:594    .text.VectorE4:00000000 $t
     /tmp/cc2rLMrL.s:600    .text.VectorE4:00000000 VectorE4
     /tmp/cc2rLMrL.s:643    .text.VectorE4:00000028 $d
     /tmp/cc2rLMrL.s:649    .text.VectorE8:00000000 $t
     /tmp/cc2rLMrL.s:655    .text.VectorE8:00000000 VectorE8
     /tmp/cc2rLMrL.s:698    .text.VectorE8:00000028 $d
     /tmp/cc2rLMrL.s:704    .text.Vector138:00000000 $t
     /tmp/cc2rLMrL.s:710    .text.Vector138:00000000 Vector138
     /tmp/cc2rLMrL.s:753    .text.Vector138:00000028 $d
     /tmp/cc2rLMrL.s:759    .text.Vector170:00000000 $t
     /tmp/cc2rLMrL.s:765    .text.Vector170:00000000 Vector170
     /tmp/cc2rLMrL.s:808    .text.Vector170:00000028 $d
     /tmp/cc2rLMrL.s:814    .text.TAMPER_STAMP_IRQHandler:00000000 $t
     /tmp/cc2rLMrL.s:820    .text.TAMPER_STAMP_IRQHandler:00000000 TAMPER_STAMP_IRQHandler
     /tmp/cc2rLMrL.s:863    .text.TAMPER_STAMP_IRQHandler:00000028 $d
     /tmp/cc2rLMrL.s:869    .text.Vector4C:00000000 $t
     /tmp/cc2rLMrL.s:875    .text.Vector4C:00000000 Vector4C
     /tmp/cc2rLMrL.s:918    .text.Vector4C:00000028 $d
     /tmp/cc2rLMrL.s:924    .text.ext_lld_exti_irq_enable:00000000 $t
     /tmp/cc2rLMrL.s:930    .text.ext_lld_exti_irq_enable:00000000 ext_lld_exti_irq_enable
     /tmp/cc2rLMrL.s:1020   .text.ext_lld_exti_irq_disable:00000000 $t
     /tmp/cc2rLMrL.s:1026   .text.ext_lld_exti_irq_disable:00000000 ext_lld_exti_irq_disable
                     .debug_frame:00000010 $d

UNDEFINED SYMBOLS
dbg_check_enter_isr
dbg_check_leave_isr
_port_irq_epilogue
EXTD1
nvicEnableVector
nvicDisableVector
ARM GAS  /tmp/cc2rLMrL.s 			page 72


