ARM GAS  /tmp/ccQfcfz2.s 			page 1


   1              		.syntax unified
   2              		.cpu cortex-m4
   3              		.fpu softvfp
   4              		.eabi_attribute 20, 1
   5              		.eabi_attribute 21, 1
   6              		.eabi_attribute 23, 3
   7              		.eabi_attribute 24, 1
   8              		.eabi_attribute 25, 1
   9              		.eabi_attribute 26, 1
  10              		.eabi_attribute 30, 2
  11              		.eabi_attribute 34, 1
  12              		.eabi_attribute 18, 4
  13              		.thumb
  14              		.syntax unified
  15              		.file	"ext_lld.c"
  16              		.text
  17              	.Ltext0:
  18              		.cfi_sections	.debug_frame
  19              		.section	.text.ext_lld_init,"ax",%progbits
  20              		.align	2
  21              		.p2align 4,,15
  22              		.global	ext_lld_init
  23              		.thumb
  24              		.thumb_func
  25              		.type	ext_lld_init, %function
  26              	ext_lld_init:
  27              	.LFB111:
  28              		.file 1 "../../../os/hal/platforms/STM32/ext_lld.c"
  29              		.loc 1 66 0
  30              		.cfi_startproc
  31              		@ args = 0, pretend = 0, frame = 0
  32              		@ frame_needed = 0, uses_anonymous_args = 0
  33              		@ link register save eliminated.
  34              		.loc 1 69 0
  35 0000 0148     		ldr	r0, .L2
  36 0002 FFF7FEBF 		b	extObjectInit
  37              	.LVL0:
  38              	.L3:
  39 0006 00BF     		.align	2
  40              	.L2:
  41 0008 00000000 		.word	.LANCHOR0
  42              		.cfi_endproc
  43              	.LFE111:
  44              		.size	ext_lld_init, .-ext_lld_init
  45              		.section	.text.ext_lld_stop,"ax",%progbits
  46              		.align	2
  47              		.p2align 4,,15
  48              		.global	ext_lld_stop
  49              		.thumb
  50              		.thumb_func
  51              		.type	ext_lld_stop, %function
  52              	ext_lld_stop:
  53              	.LFB113:
  54              		.loc 1 100 0
  55              		.cfi_startproc
  56              		@ args = 0, pretend = 0, frame = 0
  57              		@ frame_needed = 0, uses_anonymous_args = 0
ARM GAS  /tmp/ccQfcfz2.s 			page 2


  58              	.LVL1:
  59 0000 08B5     		push	{r3, lr}
  60              		.cfi_def_cfa_offset 8
  61              		.cfi_offset 3, -8
  62              		.cfi_offset 14, -4
  63              		.loc 1 102 0
  64 0002 0378     		ldrb	r3, [r0]	@ zero_extendqisi2
  65 0004 022B     		cmp	r3, #2
  66 0006 07D0     		beq	.L8
  67              	.LVL2:
  68              	.L5:
  69              		.loc 1 105 0
  70 0008 054B     		ldr	r3, .L9
  71 000a 0022     		movs	r2, #0
  72              		.loc 1 107 0
  73 000c 4FF0FF31 		mov	r1, #-1
  74              		.loc 1 105 0
  75 0010 5A60     		str	r2, [r3, #4]
  76              		.loc 1 106 0
  77 0012 1A60     		str	r2, [r3]
  78              		.loc 1 107 0
  79 0014 5961     		str	r1, [r3, #20]
  80 0016 08BD     		pop	{r3, pc}
  81              	.LVL3:
  82              	.L8:
  83              		.loc 1 103 0
  84 0018 FFF7FEFF 		bl	ext_lld_exti_irq_disable
  85              	.LVL4:
  86 001c F4E7     		b	.L5
  87              	.L10:
  88 001e 00BF     		.align	2
  89              	.L9:
  90 0020 003C0140 		.word	1073822720
  91              		.cfi_endproc
  92              	.LFE113:
  93              		.size	ext_lld_stop, .-ext_lld_stop
  94              		.section	.text.ext_lld_channel_enable,"ax",%progbits
  95              		.align	2
  96              		.p2align 4,,15
  97              		.global	ext_lld_channel_enable
  98              		.thumb
  99              		.thumb_func
 100              		.type	ext_lld_channel_enable, %function
 101              	ext_lld_channel_enable:
 102              	.LFB114:
 103              		.loc 1 121 0
 104              		.cfi_startproc
 105              		@ args = 0, pretend = 0, frame = 0
 106              		@ frame_needed = 0, uses_anonymous_args = 0
 107              		@ link register save eliminated.
 108              	.LVL5:
 109              		.loc 1 124 0
 110 0000 0F29     		cmp	r1, #15
 111              		.loc 1 121 0
 112 0002 F0B4     		push	{r4, r5, r6, r7}
 113              		.cfi_def_cfa_offset 16
 114              		.cfi_offset 4, -16
ARM GAS  /tmp/ccQfcfz2.s 			page 3


 115              		.cfi_offset 5, -12
 116              		.cfi_offset 6, -8
 117              		.cfi_offset 7, -4
 118              		.loc 1 124 0
 119 0004 21D9     		bls	.L12
 120 0006 4068     		ldr	r0, [r0, #4]
 121              	.LVL6:
 122 0008 50F83120 		ldr	r2, [r0, r1, lsl #3]
 123              		.loc 1 145 0
 124 000c D307     		lsls	r3, r2, #31
 125 000e 35D5     		bpl	.L14
 126              	.L21:
 127              		.loc 1 146 0
 128 0010 234D     		ldr	r5, .L22
 129 0012 0123     		movs	r3, #1
 130 0014 AC68     		ldr	r4, [r5, #8]
 131 0016 8B40     		lsls	r3, r3, r1
 132 0018 1C43     		orrs	r4, r4, r3
 133 001a AC60     		str	r4, [r5, #8]
 134 001c DC43     		mvns	r4, r3
 135              	.L15:
 136              		.loc 1 150 0
 137 001e 204D     		ldr	r5, .L22
 138              		.loc 1 149 0
 139 0020 12F0020F 		tst	r2, #2
 140              		.loc 1 150 0
 141 0024 EA68     		ldr	r2, [r5, #12]
 142              		.loc 1 155 0
 143 0026 00EBC101 		add	r1, r0, r1, lsl #3
 144              	.LVL7:
 145              		.loc 1 150 0
 146 002a 14BF     		ite	ne
 147 002c 1A43     		orrne	r2, r2, r3
 148              		.loc 1 152 0
 149 002e 2240     		andeq	r2, r2, r4
 150 0030 EA60     		str	r2, [r5, #12]
 151              		.loc 1 155 0
 152 0032 4A68     		ldr	r2, [r1, #4]
 153 0034 52B3     		cbz	r2, .L18
 154              		.loc 1 156 0
 155 0036 1A4A     		ldr	r2, .L22
 156 0038 1168     		ldr	r1, [r2]
 157 003a 1943     		orrs	r1, r1, r3
 158 003c 1160     		str	r1, [r2]
 159              		.loc 1 157 0
 160 003e 5168     		ldr	r1, [r2, #4]
 161 0040 01EA0403 		and	r3, r1, r4
 162 0044 5360     		str	r3, [r2, #4]
 163              		.loc 1 187 0
 164 0046 F0BC     		pop	{r4, r5, r6, r7}
 165              		.cfi_remember_state
 166              		.cfi_restore 7
 167              		.cfi_restore 6
 168              		.cfi_restore 5
 169              		.cfi_restore 4
 170              		.cfi_def_cfa_offset 0
 171 0048 7047     		bx	lr
ARM GAS  /tmp/ccQfcfz2.s 			page 4


 172              	.LVL8:
 173              	.L12:
 174              		.cfi_restore_state
 175 004a 21F00303 		bic	r3, r1, #3
 176              	.LBB4:
 177              		.loc 1 127 0
 178 004e 4068     		ldr	r0, [r0, #4]
 179              	.LVL9:
 180 0050 03F18043 		add	r3, r3, #1073741824
 181 0054 03F59C33 		add	r3, r3, #79872
 182 0058 50F83120 		ldr	r2, [r0, r1, lsl #3]
 183              		.loc 1 137 0
 184 005c 9E68     		ldr	r6, [r3, #8]
 185              		.loc 1 126 0
 186 005e 01F00304 		and	r4, r1, #3
 187 0062 A400     		lsls	r4, r4, #2
 188              	.LVL10:
 189              		.loc 1 137 0
 190 0064 0F25     		movs	r5, #15
 191 0066 A540     		lsls	r5, r5, r4
 192 0068 C2F30317 		ubfx	r7, r2, #4, #4
 193 006c 26EA0505 		bic	r5, r6, r5
 194 0070 07FA04F4 		lsl	r4, r7, r4
 195              	.LVL11:
 196 0074 2C43     		orrs	r4, r4, r5
 197 0076 9C60     		str	r4, [r3, #8]
 198              	.LBE4:
 199              		.loc 1 145 0
 200 0078 D307     		lsls	r3, r2, #31
 201 007a C9D4     		bmi	.L21
 202              	.LVL12:
 203              	.L14:
 204              		.loc 1 148 0
 205 007c 084E     		ldr	r6, .L22
 206 007e 0123     		movs	r3, #1
 207 0080 B568     		ldr	r5, [r6, #8]
 208 0082 8B40     		lsls	r3, r3, r1
 209 0084 DC43     		mvns	r4, r3
 210 0086 2540     		ands	r5, r5, r4
 211 0088 B560     		str	r5, [r6, #8]
 212 008a C8E7     		b	.L15
 213              	.LVL13:
 214              	.L18:
 215              		.loc 1 160 0
 216 008c 044A     		ldr	r2, .L22
 217 008e 5168     		ldr	r1, [r2, #4]
 218 0090 0B43     		orrs	r3, r3, r1
 219 0092 5360     		str	r3, [r2, #4]
 220              		.loc 1 161 0
 221 0094 1368     		ldr	r3, [r2]
 222 0096 2340     		ands	r3, r3, r4
 223 0098 1360     		str	r3, [r2]
 224              		.loc 1 187 0
 225 009a F0BC     		pop	{r4, r5, r6, r7}
 226              		.cfi_restore 4
 227              		.cfi_restore 5
 228              		.cfi_restore 6
ARM GAS  /tmp/ccQfcfz2.s 			page 5


 229              		.cfi_restore 7
 230              		.cfi_def_cfa_offset 0
 231 009c 7047     		bx	lr
 232              	.L23:
 233 009e 00BF     		.align	2
 234              	.L22:
 235 00a0 003C0140 		.word	1073822720
 236              		.cfi_endproc
 237              	.LFE114:
 238              		.size	ext_lld_channel_enable, .-ext_lld_channel_enable
 239              		.section	.text.ext_lld_start,"ax",%progbits
 240              		.align	2
 241              		.p2align 4,,15
 242              		.global	ext_lld_start
 243              		.thumb
 244              		.thumb_func
 245              		.type	ext_lld_start, %function
 246              	ext_lld_start:
 247              	.LFB112:
 248              		.loc 1 79 0
 249              		.cfi_startproc
 250              		@ args = 0, pretend = 0, frame = 0
 251              		@ frame_needed = 0, uses_anonymous_args = 0
 252              	.LVL14:
 253 0000 F8B5     		push	{r3, r4, r5, r6, r7, lr}
 254              		.cfi_def_cfa_offset 24
 255              		.cfi_offset 3, -24
 256              		.cfi_offset 4, -20
 257              		.cfi_offset 5, -16
 258              		.cfi_offset 6, -12
 259              		.cfi_offset 7, -8
 260              		.cfi_offset 14, -4
 261              		.loc 1 82 0
 262 0002 0378     		ldrb	r3, [r0]	@ zero_extendqisi2
 263 0004 012B     		cmp	r3, #1
 264              		.loc 1 79 0
 265 0006 0646     		mov	r6, r0
 266              		.loc 1 82 0
 267 0008 24D0     		beq	.L31
 268              	.LVL15:
 269              	.L25:
 270              	.LBB5:
 271              	.LBB6:
 272              		.loc 1 204 0 discriminator 1
 273 000a 144C     		ldr	r4, .L33
 274              	.LBE6:
 275              	.LBE5:
 276              		.loc 1 79 0 discriminator 1
 277 000c 0025     		movs	r5, #0
 278              	.LBB12:
 279              	.LBB7:
 280              		.loc 1 204 0 discriminator 1
 281 000e 0127     		movs	r7, #1
 282 0010 0FE0     		b	.L28
 283              	.LVL16:
 284              	.L26:
 285              		.loc 1 204 0 is_stmt 0
ARM GAS  /tmp/ccQfcfz2.s 			page 6


 286 0012 2268     		ldr	r2, [r4]
 287 0014 1A40     		ands	r2, r2, r3
 288 0016 2260     		str	r2, [r4]
 289              		.loc 1 205 0 is_stmt 1
 290 0018 6268     		ldr	r2, [r4, #4]
 291 001a 1A40     		ands	r2, r2, r3
 292 001c 6260     		str	r2, [r4, #4]
 293              		.loc 1 206 0
 294 001e A268     		ldr	r2, [r4, #8]
 295 0020 1A40     		ands	r2, r2, r3
 296 0022 A260     		str	r2, [r4, #8]
 297              		.loc 1 207 0
 298 0024 E268     		ldr	r2, [r4, #12]
 299              	.LBE7:
 300              	.LBE12:
 301              		.loc 1 86 0
 302 0026 0135     		adds	r5, r5, #1
 303              	.LVL17:
 304              	.LBB13:
 305              	.LBB8:
 306              		.loc 1 207 0
 307 0028 1340     		ands	r3, r3, r2
 308              	.LBE8:
 309              	.LBE13:
 310              		.loc 1 86 0
 311 002a 172D     		cmp	r5, #23
 312              	.LBB14:
 313              	.LBB9:
 314              		.loc 1 207 0
 315 002c E360     		str	r3, [r4, #12]
 316              		.loc 1 208 0
 317 002e 6161     		str	r1, [r4, #20]
 318              	.LBE9:
 319              	.LBE14:
 320              		.loc 1 86 0
 321 0030 0FD0     		beq	.L32
 322              	.LVL18:
 323              	.L28:
 324              		.loc 1 87 0
 325 0032 7268     		ldr	r2, [r6, #4]
 326 0034 52F83520 		ldr	r2, [r2, r5, lsl #3]
 327              	.LBB15:
 328              	.LBB10:
 329              		.loc 1 204 0
 330 0038 07FA05F1 		lsl	r1, r7, r5
 331              	.LBE10:
 332              	.LBE15:
 333              		.loc 1 87 0
 334 003c 5207     		lsls	r2, r2, #29
 335              	.LBB16:
 336              	.LBB11:
 337              		.loc 1 204 0
 338 003e 6FEA0103 		mvn	r3, r1
 339              	.LBE11:
 340              	.LBE16:
 341              		.loc 1 87 0
 342 0042 E6D5     		bpl	.L26
ARM GAS  /tmp/ccQfcfz2.s 			page 7


 343              		.loc 1 88 0
 344 0044 2946     		mov	r1, r5
 345 0046 3046     		mov	r0, r6
 346              		.loc 1 86 0
 347 0048 0135     		adds	r5, r5, #1
 348              	.LVL19:
 349              		.loc 1 88 0
 350 004a FFF7FEFF 		bl	ext_lld_channel_enable
 351              	.LVL20:
 352              		.loc 1 86 0
 353 004e 172D     		cmp	r5, #23
 354 0050 EFD1     		bne	.L28
 355              	.LVL21:
 356              	.L32:
 357              		.loc 1 91 0
 358 0052 F8BD     		pop	{r3, r4, r5, r6, r7, pc}
 359              	.LVL22:
 360              	.L31:
 361              		.loc 1 83 0
 362 0054 FFF7FEFF 		bl	ext_lld_exti_irq_enable
 363              	.LVL23:
 364 0058 D7E7     		b	.L25
 365              	.L34:
 366 005a 00BF     		.align	2
 367              	.L33:
 368 005c 003C0140 		.word	1073822720
 369              		.cfi_endproc
 370              	.LFE112:
 371              		.size	ext_lld_start, .-ext_lld_start
 372              		.section	.text.ext_lld_channel_disable,"ax",%progbits
 373              		.align	2
 374              		.p2align 4,,15
 375              		.global	ext_lld_channel_disable
 376              		.thumb
 377              		.thumb_func
 378              		.type	ext_lld_channel_disable, %function
 379              	ext_lld_channel_disable:
 380              	.LFB115:
 381              		.loc 1 197 0
 382              		.cfi_startproc
 383              		@ args = 0, pretend = 0, frame = 0
 384              		@ frame_needed = 0, uses_anonymous_args = 0
 385              		@ link register save eliminated.
 386              	.LVL24:
 387              		.loc 1 204 0
 388 0000 094B     		ldr	r3, .L36
 389 0002 0122     		movs	r2, #1
 390 0004 1868     		ldr	r0, [r3]
 391              	.LVL25:
 392 0006 02FA01F1 		lsl	r1, r2, r1
 393              	.LVL26:
 394 000a CA43     		mvns	r2, r1
 395 000c 1040     		ands	r0, r0, r2
 396 000e 1860     		str	r0, [r3]
 397              		.loc 1 205 0
 398 0010 5868     		ldr	r0, [r3, #4]
 399 0012 1040     		ands	r0, r0, r2
ARM GAS  /tmp/ccQfcfz2.s 			page 8


 400 0014 5860     		str	r0, [r3, #4]
 401              		.loc 1 206 0
 402 0016 9868     		ldr	r0, [r3, #8]
 403 0018 1040     		ands	r0, r0, r2
 404 001a 9860     		str	r0, [r3, #8]
 405              		.loc 1 207 0
 406 001c D868     		ldr	r0, [r3, #12]
 407 001e 0240     		ands	r2, r2, r0
 408 0020 DA60     		str	r2, [r3, #12]
 409              		.loc 1 208 0
 410 0022 5961     		str	r1, [r3, #20]
 411 0024 7047     		bx	lr
 412              	.L37:
 413 0026 00BF     		.align	2
 414              	.L36:
 415 0028 003C0140 		.word	1073822720
 416              		.cfi_endproc
 417              	.LFE115:
 418              		.size	ext_lld_channel_disable, .-ext_lld_channel_disable
 419              		.global	EXTD1
 420              		.section	.bss.EXTD1,"aw",%nobits
 421              		.align	2
 422              		.set	.LANCHOR0,. + 0
 423              		.type	EXTD1, %object
 424              		.size	EXTD1, 8
 425              	EXTD1:
 426 0000 00000000 		.space	8
 426      00000000 
 427              		.text
 428              	.Letext0:
 429              		.file 2 "/home/z80/programs/sw4stm32/plugins/fr.ac6.mcu.externaltools.arm-none.linux32_1.7.0.20160
 430              		.file 3 "/home/z80/programs/sw4stm32/plugins/fr.ac6.mcu.externaltools.arm-none.linux32_1.7.0.20160
 431              		.file 4 "../../../os/hal/platforms/STM32F4xx/stm32f4xx.h"
 432              		.file 5 "../../../os/hal/include/ext.h"
 433              		.file 6 "../../../os/hal/platforms/STM32/ext_lld.h"
 434              		.file 7 "../../../os/ports/common/ARMCMx/CMSIS/include/core_cm4.h"
 435              		.file 8 "../../../os/hal/platforms/STM32F4xx/ext_lld_isr.h"