ARM GAS  /tmp/cc2rLMrL.s 			page 1


   1              		.syntax unified
   2              		.cpu cortex-m4
   3              		.fpu softvfp
   4              		.eabi_attribute 20, 1
   5              		.eabi_attribute 21, 1
   6              		.eabi_attribute 23, 3
   7              		.eabi_attribute 24, 1
   8              		.eabi_attribute 25, 1
   9              		.eabi_attribute 26, 1
  10              		.eabi_attribute 30, 2
  11              		.eabi_attribute 34, 1
  12              		.eabi_attribute 18, 4
  13              		.thumb
  14              		.syntax unified
  15              		.file	"ext_lld_isr.c"
  16              		.text
  17              	.Ltext0:
  18              		.cfi_sections	.debug_frame
  19              		.section	.text.Vector58,"ax",%progbits
  20              		.align	2
  21              		.p2align 4,,15
  22              		.global	Vector58
  23              		.thumb
  24              		.thumb_func
  25              		.type	Vector58, %function
  26              	Vector58:
  27              	.LFB111:
  28              		.file 1 "../../../os/hal/platforms/STM32F4xx/ext_lld_isr.c"
  29              		.loc 1 57 0
  30              		.cfi_startproc
  31              		@ args = 0, pretend = 0, frame = 0
  32              		@ frame_needed = 0, uses_anonymous_args = 0
  33 0000 08B5     		push	{r3, lr}
  34              		.cfi_def_cfa_offset 8
  35              		.cfi_offset 3, -8
  36              		.cfi_offset 14, -4
  37              		.loc 1 59 0
  38 0002 FFF7FEFF 		bl	dbg_check_enter_isr
  39              	.LVL0:
  40              		.loc 1 62 0
  41 0006 0748     		ldr	r0, .L3
  42              		.loc 1 61 0
  43 0008 074A     		ldr	r2, .L3+4
  44              		.loc 1 62 0
  45 000a 4368     		ldr	r3, [r0, #4]
  46              		.loc 1 61 0
  47 000c 0121     		movs	r1, #1
  48              		.loc 1 62 0
  49 000e 5B68     		ldr	r3, [r3, #4]
  50              		.loc 1 61 0
  51 0010 5161     		str	r1, [r2, #20]
  52              		.loc 1 62 0
  53 0012 0021     		movs	r1, #0
  54 0014 9847     		blx	r3
  55              	.LVL1:
  56              		.loc 1 64 0
  57 0016 FFF7FEFF 		bl	dbg_check_leave_isr
ARM GAS  /tmp/cc2rLMrL.s 			page 2


  58              	.LVL2:
  59              		.loc 1 65 0
  60 001a BDE80840 		pop	{r3, lr}
  61              		.cfi_restore 14
  62              		.cfi_restore 3
  63              		.cfi_def_cfa_offset 0
  64              		.loc 1 64 0
  65 001e FFF7FEBF 		b	_port_irq_epilogue
  66              	.LVL3:
  67              	.L4:
  68 0022 00BF     		.align	2
  69              	.L3:
  70 0024 00000000 		.word	EXTD1
  71 0028 003C0140 		.word	1073822720
  72              		.cfi_endproc
  73              	.LFE111:
  74              		.size	Vector58, .-Vector58
  75              		.section	.text.Vector5C,"ax",%progbits
  76              		.align	2
  77              		.p2align 4,,15
  78              		.global	Vector5C
  79              		.thumb
  80              		.thumb_func
  81              		.type	Vector5C, %function
  82              	Vector5C:
  83              	.LFB112:
  84              		.loc 1 72 0
  85              		.cfi_startproc
  86              		@ args = 0, pretend = 0, frame = 0
  87              		@ frame_needed = 0, uses_anonymous_args = 0
  88 0000 08B5     		push	{r3, lr}
  89              		.cfi_def_cfa_offset 8
  90              		.cfi_offset 3, -8
  91              		.cfi_offset 14, -4
  92              		.loc 1 74 0
  93 0002 FFF7FEFF 		bl	dbg_check_enter_isr
  94              	.LVL4:
  95              		.loc 1 77 0
  96 0006 0748     		ldr	r0, .L7
  97              		.loc 1 76 0
  98 0008 074A     		ldr	r2, .L7+4
  99              		.loc 1 77 0
 100 000a 4368     		ldr	r3, [r0, #4]
 101              		.loc 1 76 0
 102 000c 0221     		movs	r1, #2
 103              		.loc 1 77 0
 104 000e DB68     		ldr	r3, [r3, #12]
 105              		.loc 1 76 0
 106 0010 5161     		str	r1, [r2, #20]
 107              		.loc 1 77 0
 108 0012 0121     		movs	r1, #1
 109 0014 9847     		blx	r3
 110              	.LVL5:
 111              		.loc 1 79 0
 112 0016 FFF7FEFF 		bl	dbg_check_leave_isr
 113              	.LVL6:
 114              		.loc 1 80 0
ARM GAS  /tmp/cc2rLMrL.s 			page 3


 115 001a BDE80840 		pop	{r3, lr}
 116              		.cfi_restore 14
 117              		.cfi_restore 3
 118              		.cfi_def_cfa_offset 0
 119              		.loc 1 79 0
 120 001e FFF7FEBF 		b	_port_irq_epilogue
 121              	.LVL7:
 122              	.L8:
 123 0022 00BF     		.align	2
 124              	.L7:
 125 0024 00000000 		.word	EXTD1
 126 0028 003C0140 		.word	1073822720
 127              		.cfi_endproc
 128              	.LFE112:
 129              		.size	Vector5C, .-Vector5C
 130              		.section	.text.Vector60,"ax",%progbits
 131              		.align	2
 132              		.p2align 4,,15
 133              		.global	Vector60
 134              		.thumb
 135              		.thumb_func
 136              		.type	Vector60, %function
 137              	Vector60:
 138              	.LFB113:
 139              		.loc 1 87 0
 140              		.cfi_startproc
 141              		@ args = 0, pretend = 0, frame = 0
 142              		@ frame_needed = 0, uses_anonymous_args = 0
 143 0000 08B5     		push	{r3, lr}
 144              		.cfi_def_cfa_offset 8
 145              		.cfi_offset 3, -8
 146              		.cfi_offset 14, -4
 147              		.loc 1 89 0
 148 0002 FFF7FEFF 		bl	dbg_check_enter_isr
 149              	.LVL8:
 150              		.loc 1 92 0
 151 0006 0748     		ldr	r0, .L11
 152              		.loc 1 91 0
 153 0008 074A     		ldr	r2, .L11+4
 154              		.loc 1 92 0
 155 000a 4368     		ldr	r3, [r0, #4]
 156              		.loc 1 91 0
 157 000c 0421     		movs	r1, #4
 158              		.loc 1 92 0
 159 000e 5B69     		ldr	r3, [r3, #20]
 160              		.loc 1 91 0
 161 0010 5161     		str	r1, [r2, #20]
 162              		.loc 1 92 0
 163 0012 0221     		movs	r1, #2
 164 0014 9847     		blx	r3
 165              	.LVL9:
 166              		.loc 1 94 0
 167 0016 FFF7FEFF 		bl	dbg_check_leave_isr
 168              	.LVL10:
 169              		.loc 1 95 0
 170 001a BDE80840 		pop	{r3, lr}
 171              		.cfi_restore 14
ARM GAS  /tmp/cc2rLMrL.s 			page 4


 172              		.cfi_restore 3
 173              		.cfi_def_cfa_offset 0
 174              		.loc 1 94 0
 175 001e FFF7FEBF 		b	_port_irq_epilogue
 176              	.LVL11:
 177              	.L12:
 178 0022 00BF     		.align	2
 179              	.L11:
 180 0024 00000000 		.word	EXTD1
 181 0028 003C0140 		.word	1073822720
 182              		.cfi_endproc
 183              	.LFE113:
 184              		.size	Vector60, .-Vector60
 185              		.section	.text.Vector64,"ax",%progbits
 186              		.align	2
 187              		.p2align 4,,15
 188              		.global	Vector64
 189              		.thumb
 190              		.thumb_func
 191              		.type	Vector64, %function
 192              	Vector64:
 193              	.LFB114:
 194              		.loc 1 102 0
 195              		.cfi_startproc
 196              		@ args = 0, pretend = 0, frame = 0
 197              		@ frame_needed = 0, uses_anonymous_args = 0
 198 0000 08B5     		push	{r3, lr}
 199              		.cfi_def_cfa_offset 8
 200              		.cfi_offset 3, -8
 201              		.cfi_offset 14, -4
 202              		.loc 1 104 0
 203 0002 FFF7FEFF 		bl	dbg_check_enter_isr
 204              	.LVL12:
 205              		.loc 1 107 0
 206 0006 0748     		ldr	r0, .L15
 207              		.loc 1 106 0
 208 0008 074A     		ldr	r2, .L15+4
 209              		.loc 1 107 0
 210 000a 4368     		ldr	r3, [r0, #4]
 211              		.loc 1 106 0
 212 000c 0821     		movs	r1, #8
 213              		.loc 1 107 0
 214 000e DB69     		ldr	r3, [r3, #28]
 215              		.loc 1 106 0
 216 0010 5161     		str	r1, [r2, #20]
 217              		.loc 1 107 0
 218 0012 0321     		movs	r1, #3
 219 0014 9847     		blx	r3
 220              	.LVL13:
 221              		.loc 1 109 0
 222 0016 FFF7FEFF 		bl	dbg_check_leave_isr
 223              	.LVL14:
 224              		.loc 1 110 0
 225 001a BDE80840 		pop	{r3, lr}
 226              		.cfi_restore 14
 227              		.cfi_restore 3
 228              		.cfi_def_cfa_offset 0
ARM GAS  /tmp/cc2rLMrL.s 			page 5


 229              		.loc 1 109 0
 230 001e FFF7FEBF 		b	_port_irq_epilogue
 231              	.LVL15:
 232              	.L16:
 233 0022 00BF     		.align	2
 234              	.L15:
 235 0024 00000000 		.word	EXTD1
 236 0028 003C0140 		.word	1073822720
 237              		.cfi_endproc
 238              	.LFE114:
 239              		.size	Vector64, .-Vector64
 240              		.section	.text.Vector68,"ax",%progbits
 241              		.align	2
 242              		.p2align 4,,15
 243              		.global	Vector68
 244              		.thumb
 245              		.thumb_func
 246              		.type	Vector68, %function
 247              	Vector68:
 248              	.LFB115:
 249              		.loc 1 117 0
 250              		.cfi_startproc
 251              		@ args = 0, pretend = 0, frame = 0
 252              		@ frame_needed = 0, uses_anonymous_args = 0
 253 0000 08B5     		push	{r3, lr}
 254              		.cfi_def_cfa_offset 8
 255              		.cfi_offset 3, -8
 256              		.cfi_offset 14, -4
 257              		.loc 1 119 0
 258 0002 FFF7FEFF 		bl	dbg_check_enter_isr
 259              	.LVL16:
 260              		.loc 1 122 0
 261 0006 0748     		ldr	r0, .L19
 262              		.loc 1 121 0
 263 0008 074A     		ldr	r2, .L19+4
 264              		.loc 1 122 0
 265 000a 4368     		ldr	r3, [r0, #4]
 266              		.loc 1 121 0
 267 000c 1021     		movs	r1, #16
 268              		.loc 1 122 0
 269 000e 5B6A     		ldr	r3, [r3, #36]
 270              		.loc 1 121 0
 271 0010 5161     		str	r1, [r2, #20]
 272              		.loc 1 122 0
 273 0012 0421     		movs	r1, #4
 274 0014 9847     		blx	r3
 275              	.LVL17:
 276              		.loc 1 124 0
 277 0016 FFF7FEFF 		bl	dbg_check_leave_isr
 278              	.LVL18:
 279              		.loc 1 125 0
 280 001a BDE80840 		pop	{r3, lr}
 281              		.cfi_restore 14
 282              		.cfi_restore 3
 283              		.cfi_def_cfa_offset 0
 284              		.loc 1 124 0
 285 001e FFF7FEBF 		b	_port_irq_epilogue
ARM GAS  /tmp/cc2rLMrL.s 			page 6


 286              	.LVL19:
 287              	.L20:
 288 0022 00BF     		.align	2
 289              	.L19:
 290 0024 00000000 		.word	EXTD1
 291 0028 003C0140 		.word	1073822720
 292              		.cfi_endproc
 293              	.LFE115:
 294              		.size	Vector68, .-Vector68
 295              		.section	.text.Vector9C,"ax",%progbits
 296              		.align	2
 297              		.p2align 4,,15
 298              		.global	Vector9C
 299              		.thumb
 300              		.thumb_func
 301              		.type	Vector9C, %function
 302              	Vector9C:
 303              	.LFB116:
 304              		.loc 1 132 0
 305              		.cfi_startproc
 306              		@ args = 0, pretend = 0, frame = 0
 307              		@ frame_needed = 0, uses_anonymous_args = 0
 308 0000 10B5     		push	{r4, lr}
 309              		.cfi_def_cfa_offset 8
 310              		.cfi_offset 4, -8
 311              		.cfi_offset 14, -4
 312              		.loc 1 135 0
 313 0002 FFF7FEFF 		bl	dbg_check_enter_isr
 314              	.LVL20:
 315              		.loc 1 137 0
 316 0006 194B     		ldr	r3, .L48
 317 0008 5C69     		ldr	r4, [r3, #20]
 318 000a 04F47872 		and	r2, r4, #992
 319              	.LVL21:
 320              		.loc 1 138 0
 321 000e 5A61     		str	r2, [r3, #20]
 322              		.loc 1 139 0
 323 0010 A306     		lsls	r3, r4, #26
 324 0012 24D4     		bmi	.L44
 325              	.LVL22:
 326              	.L22:
 327              		.loc 1 141 0
 328 0014 6006     		lsls	r0, r4, #25
 329 0016 1CD4     		bmi	.L45
 330              	.L23:
 331              		.loc 1 143 0
 332 0018 2106     		lsls	r1, r4, #24
 333 001a 14D4     		bmi	.L46
 334              	.L24:
 335              		.loc 1 145 0
 336 001c E205     		lsls	r2, r4, #23
 337 001e 0CD4     		bmi	.L47
 338              	.L25:
 339              		.loc 1 147 0
 340 0020 A305     		lsls	r3, r4, #22
 341 0022 04D5     		bpl	.L26
 342              		.loc 1 148 0
ARM GAS  /tmp/cc2rLMrL.s 			page 7


 343 0024 1248     		ldr	r0, .L48+4
 344 0026 4368     		ldr	r3, [r0, #4]
 345 0028 0921     		movs	r1, #9
 346 002a DB6C     		ldr	r3, [r3, #76]
 347 002c 9847     		blx	r3
 348              	.LVL23:
 349              	.L26:
 350              		.loc 1 150 0
 351 002e FFF7FEFF 		bl	dbg_check_leave_isr
 352              	.LVL24:
 353              		.loc 1 151 0
 354 0032 BDE81040 		pop	{r4, lr}
 355              		.cfi_remember_state
 356              		.cfi_restore 14
 357              		.cfi_restore 4
 358              		.cfi_def_cfa_offset 0
 359              	.LVL25:
 360              		.loc 1 150 0
 361 0036 FFF7FEBF 		b	_port_irq_epilogue
 362              	.LVL26:
 363              	.L47:
 364              		.cfi_restore_state
 365              		.loc 1 146 0
 366 003a 0D48     		ldr	r0, .L48+4
 367 003c 4368     		ldr	r3, [r0, #4]
 368 003e 0821     		movs	r1, #8
 369 0040 5B6C     		ldr	r3, [r3, #68]
 370 0042 9847     		blx	r3
 371              	.LVL27:
 372 0044 ECE7     		b	.L25
 373              	.L46:
 374              		.loc 1 144 0
 375 0046 0A48     		ldr	r0, .L48+4
 376 0048 4368     		ldr	r3, [r0, #4]
 377 004a 0721     		movs	r1, #7
 378 004c DB6B     		ldr	r3, [r3, #60]
 379 004e 9847     		blx	r3
 380              	.LVL28:
 381 0050 E4E7     		b	.L24
 382              	.L45:
 383              		.loc 1 142 0
 384 0052 0748     		ldr	r0, .L48+4
 385 0054 4368     		ldr	r3, [r0, #4]
 386 0056 0621     		movs	r1, #6
 387 0058 5B6B     		ldr	r3, [r3, #52]
 388 005a 9847     		blx	r3
 389              	.LVL29:
 390 005c DCE7     		b	.L23
 391              	.LVL30:
 392              	.L44:
 393              		.loc 1 140 0
 394 005e 0448     		ldr	r0, .L48+4
 395 0060 4368     		ldr	r3, [r0, #4]
 396 0062 0521     		movs	r1, #5
 397 0064 DB6A     		ldr	r3, [r3, #44]
 398 0066 9847     		blx	r3
 399              	.LVL31:
ARM GAS  /tmp/cc2rLMrL.s 			page 8


 400 0068 D4E7     		b	.L22
 401              	.L49:
 402 006a 00BF     		.align	2
 403              	.L48:
 404 006c 003C0140 		.word	1073822720
 405 0070 00000000 		.word	EXTD1
 406              		.cfi_endproc
 407              	.LFE116:
 408              		.size	Vector9C, .-Vector9C
 409              		.section	.text.VectorE0,"ax",%progbits
 410              		.align	2
 411              		.p2align 4,,15
 412              		.global	VectorE0
 413              		.thumb
 414              		.thumb_func
 415              		.type	VectorE0, %function
 416              	VectorE0:
 417              	.LFB117:
 418              		.loc 1 158 0
 419              		.cfi_startproc
 420              		@ args = 0, pretend = 0, frame = 0
 421              		@ frame_needed = 0, uses_anonymous_args = 0
 422 0000 10B5     		push	{r4, lr}
 423              		.cfi_def_cfa_offset 8
 424              		.cfi_offset 4, -8
 425              		.cfi_offset 14, -4
 426              		.loc 1 161 0
 427 0002 FFF7FEFF 		bl	dbg_check_enter_isr
 428              	.LVL32:
 429              		.loc 1 163 0
 430 0006 1D4B     		ldr	r3, .L81
 431 0008 5C69     		ldr	r4, [r3, #20]
 432 000a 04F47C42 		and	r2, r4, #64512
 433              	.LVL33:
 434              		.loc 1 165 0
 435 000e 5A61     		str	r2, [r3, #20]
 436              		.loc 1 166 0
 437 0010 6205     		lsls	r2, r4, #21
 438              	.LVL34:
 439 0012 2CD4     		bmi	.L76
 440              	.LVL35:
 441              	.L51:
 442              		.loc 1 168 0
 443 0014 2305     		lsls	r3, r4, #20
 444 0016 24D4     		bmi	.L77
 445              	.L52:
 446              		.loc 1 170 0
 447 0018 E004     		lsls	r0, r4, #19
 448 001a 1CD4     		bmi	.L78
 449              	.L53:
 450              		.loc 1 172 0
 451 001c A104     		lsls	r1, r4, #18
 452 001e 14D4     		bmi	.L79
 453              	.L54:
 454              		.loc 1 174 0
 455 0020 6204     		lsls	r2, r4, #17
 456 0022 0CD4     		bmi	.L80
ARM GAS  /tmp/cc2rLMrL.s 			page 9


 457              	.L55:
 458              		.loc 1 176 0
 459 0024 2304     		lsls	r3, r4, #16
 460 0026 04D5     		bpl	.L56
 461              		.loc 1 177 0
 462 0028 1548     		ldr	r0, .L81+4
 463 002a 4368     		ldr	r3, [r0, #4]
 464 002c 0F21     		movs	r1, #15
 465 002e DB6F     		ldr	r3, [r3, #124]
 466 0030 9847     		blx	r3
 467              	.LVL36:
 468              	.L56:
 469              		.loc 1 179 0
 470 0032 FFF7FEFF 		bl	dbg_check_leave_isr
 471              	.LVL37:
 472              		.loc 1 180 0
 473 0036 BDE81040 		pop	{r4, lr}
 474              		.cfi_remember_state
 475              		.cfi_restore 14
 476              		.cfi_restore 4
 477              		.cfi_def_cfa_offset 0
 478              	.LVL38:
 479              		.loc 1 179 0
 480 003a FFF7FEBF 		b	_port_irq_epilogue
 481              	.LVL39:
 482              	.L80:
 483              		.cfi_restore_state
 484              		.loc 1 175 0
 485 003e 1048     		ldr	r0, .L81+4
 486 0040 4368     		ldr	r3, [r0, #4]
 487 0042 0E21     		movs	r1, #14
 488 0044 5B6F     		ldr	r3, [r3, #116]
 489 0046 9847     		blx	r3
 490              	.LVL40:
 491 0048 ECE7     		b	.L55
 492              	.L79:
 493              		.loc 1 173 0
 494 004a 0D48     		ldr	r0, .L81+4
 495 004c 4368     		ldr	r3, [r0, #4]
 496 004e 0D21     		movs	r1, #13
 497 0050 DB6E     		ldr	r3, [r3, #108]
 498 0052 9847     		blx	r3
 499              	.LVL41:
 500 0054 E4E7     		b	.L54
 501              	.L78:
 502              		.loc 1 171 0
 503 0056 0A48     		ldr	r0, .L81+4
 504 0058 4368     		ldr	r3, [r0, #4]
 505 005a 0C21     		movs	r1, #12
 506 005c 5B6E     		ldr	r3, [r3, #100]
 507 005e 9847     		blx	r3
 508              	.LVL42:
 509 0060 DCE7     		b	.L53
 510              	.L77:
 511              		.loc 1 169 0
 512 0062 0748     		ldr	r0, .L81+4
 513 0064 4368     		ldr	r3, [r0, #4]
ARM GAS  /tmp/cc2rLMrL.s 			page 10


 514 0066 0B21     		movs	r1, #11
 515 0068 DB6D     		ldr	r3, [r3, #92]
 516 006a 9847     		blx	r3
 517              	.LVL43:
 518 006c D4E7     		b	.L52
 519              	.LVL44:
 520              	.L76:
 521              		.loc 1 167 0
 522 006e 0448     		ldr	r0, .L81+4
 523 0070 4368     		ldr	r3, [r0, #4]
 524              	.LVL45:
 525 0072 0A21     		movs	r1, #10
 526 0074 5B6D     		ldr	r3, [r3, #84]
 527 0076 9847     		blx	r3
 528              	.LVL46:
 529 0078 CCE7     		b	.L51
 530              	.L82:
 531 007a 00BF     		.align	2
 532              	.L81:
 533 007c 003C0140 		.word	1073822720
 534 0080 00000000 		.word	EXTD1
 535              		.cfi_endproc
 536              	.LFE117:
 537              		.size	VectorE0, .-VectorE0
 538              		.section	.text.Vector44,"ax",%progbits
 539              		.align	2
 540              		.p2align 4,,15
 541              		.global	Vector44
 542              		.thumb
 543              		.thumb_func
 544              		.type	Vector44, %function
 545              	Vector44:
 546              	.LFB118:
 547              		.loc 1 187 0
 548              		.cfi_startproc
 549              		@ args = 0, pretend = 0, frame = 0
 550              		@ frame_needed = 0, uses_anonymous_args = 0
 551 0000 08B5     		push	{r3, lr}
 552              		.cfi_def_cfa_offset 8
 553              		.cfi_offset 3, -8
 554              		.cfi_offset 14, -4
 555              		.loc 1 189 0
 556 0002 FFF7FEFF 		bl	dbg_check_enter_isr
 557              	.LVL47:
 558              		.loc 1 192 0
 559 0006 0848     		ldr	r0, .L85
 560              		.loc 1 191 0
 561 0008 084A     		ldr	r2, .L85+4
 562              		.loc 1 192 0
 563 000a 4368     		ldr	r3, [r0, #4]
 564              		.loc 1 191 0
 565 000c 4FF48031 		mov	r1, #65536
 566              		.loc 1 192 0
 567 0010 D3F88430 		ldr	r3, [r3, #132]
 568              		.loc 1 191 0
 569 0014 5161     		str	r1, [r2, #20]
 570              		.loc 1 192 0
ARM GAS  /tmp/cc2rLMrL.s 			page 11


 571 0016 1021     		movs	r1, #16
 572 0018 9847     		blx	r3
 573              	.LVL48:
 574              		.loc 1 194 0
 575 001a FFF7FEFF 		bl	dbg_check_leave_isr
 576              	.LVL49:
 577              		.loc 1 195 0
 578 001e BDE80840 		pop	{r3, lr}
 579              		.cfi_restore 14
 580              		.cfi_restore 3
 581              		.cfi_def_cfa_offset 0
 582              		.loc 1 194 0
 583 0022 FFF7FEBF 		b	_port_irq_epilogue
 584              	.LVL50:
 585              	.L86:
 586 0026 00BF     		.align	2
 587              	.L85:
 588 0028 00000000 		.word	EXTD1
 589 002c 003C0140 		.word	1073822720
 590              		.cfi_endproc
 591              	.LFE118:
 592              		.size	Vector44, .-Vector44
 593              		.section	.text.VectorE4,"ax",%progbits
 594              		.align	2
 595              		.p2align 4,,15
 596              		.global	VectorE4
 597              		.thumb
 598              		.thumb_func
 599              		.type	VectorE4, %function
 600              	VectorE4:
 601              	.LFB119:
 602              		.loc 1 202 0
 603              		.cfi_startproc
 604              		@ args = 0, pretend = 0, frame = 0
 605              		@ frame_needed = 0, uses_anonymous_args = 0
 606 0000 08B5     		push	{r3, lr}
 607              		.cfi_def_cfa_offset 8
 608              		.cfi_offset 3, -8
 609              		.cfi_offset 14, -4
 610              		.loc 1 204 0
 611 0002 FFF7FEFF 		bl	dbg_check_enter_isr
 612              	.LVL51:
 613              		.loc 1 207 0
 614 0006 0848     		ldr	r0, .L89
 615              		.loc 1 206 0
 616 0008 084A     		ldr	r2, .L89+4
 617              		.loc 1 207 0
 618 000a 4368     		ldr	r3, [r0, #4]
 619              		.loc 1 206 0
 620 000c 4FF40031 		mov	r1, #131072
 621              		.loc 1 207 0
 622 0010 D3F88C30 		ldr	r3, [r3, #140]
 623              		.loc 1 206 0
 624 0014 5161     		str	r1, [r2, #20]
 625              		.loc 1 207 0
 626 0016 1121     		movs	r1, #17
 627 0018 9847     		blx	r3
ARM GAS  /tmp/cc2rLMrL.s 			page 12


 628              	.LVL52:
 629              		.loc 1 209 0
 630 001a FFF7FEFF 		bl	dbg_check_leave_isr
 631              	.LVL53:
 632              		.loc 1 210 0
 633 001e BDE80840 		pop	{r3, lr}
 634              		.cfi_restore 14
 635              		.cfi_restore 3
 636              		.cfi_def_cfa_offset 0
 637              		.loc 1 209 0
 638 0022 FFF7FEBF 		b	_port_irq_epilogue
 639              	.LVL54:
 640              	.L90:
 641 0026 00BF     		.align	2
 642              	.L89:
 643 0028 00000000 		.word	EXTD1
 644 002c 003C0140 		.word	1073822720
 645              		.cfi_endproc
 646              	.LFE119:
 647              		.size	VectorE4, .-VectorE4
 648              		.section	.text.VectorE8,"ax",%progbits
 649              		.align	2
 650              		.p2align 4,,15
 651              		.global	VectorE8
 652              		.thumb
 653              		.thumb_func
 654              		.type	VectorE8, %function
 655              	VectorE8:
 656              	.LFB120:
 657              		.loc 1 217 0
 658              		.cfi_startproc
 659              		@ args = 0, pretend = 0, frame = 0
 660              		@ frame_needed = 0, uses_anonymous_args = 0
 661 0000 08B5     		push	{r3, lr}
 662              		.cfi_def_cfa_offset 8
 663              		.cfi_offset 3, -8
 664              		.cfi_offset 14, -4
 665              		.loc 1 219 0
 666 0002 FFF7FEFF 		bl	dbg_check_enter_isr
 667              	.LVL55:
 668              		.loc 1 222 0
 669 0006 0848     		ldr	r0, .L93
 670              		.loc 1 221 0
 671 0008 084A     		ldr	r2, .L93+4
 672              		.loc 1 222 0
 673 000a 4368     		ldr	r3, [r0, #4]
 674              		.loc 1 221 0
 675 000c 4FF48021 		mov	r1, #262144
 676              		.loc 1 222 0
 677 0010 D3F89430 		ldr	r3, [r3, #148]
 678              		.loc 1 221 0
 679 0014 5161     		str	r1, [r2, #20]
 680              		.loc 1 222 0
 681 0016 1221     		movs	r1, #18
 682 0018 9847     		blx	r3
 683              	.LVL56:
 684              		.loc 1 224 0
ARM GAS  /tmp/cc2rLMrL.s 			page 13


 685 001a FFF7FEFF 		bl	dbg_check_leave_isr
 686              	.LVL57:
 687              		.loc 1 225 0
 688 001e BDE80840 		pop	{r3, lr}
 689              		.cfi_restore 14
 690              		.cfi_restore 3
 691              		.cfi_def_cfa_offset 0
 692              		.loc 1 224 0
 693 0022 FFF7FEBF 		b	_port_irq_epilogue
 694              	.LVL58:
 695              	.L94:
 696 0026 00BF     		.align	2
 697              	.L93:
 698 0028 00000000 		.word	EXTD1
 699 002c 003C0140 		.word	1073822720
 700              		.cfi_endproc
 701              	.LFE120:
 702              		.size	VectorE8, .-VectorE8
 703              		.section	.text.Vector138,"ax",%progbits
 704              		.align	2
 705              		.p2align 4,,15
 706              		.global	Vector138
 707              		.thumb
 708              		.thumb_func
 709              		.type	Vector138, %function
 710              	Vector138:
 711              	.LFB121:
 712              		.loc 1 232 0
 713              		.cfi_startproc
 714              		@ args = 0, pretend = 0, frame = 0
 715              		@ frame_needed = 0, uses_anonymous_args = 0
 716 0000 08B5     		push	{r3, lr}
 717              		.cfi_def_cfa_offset 8
 718              		.cfi_offset 3, -8
 719              		.cfi_offset 14, -4
 720              		.loc 1 234 0
 721 0002 FFF7FEFF 		bl	dbg_check_enter_isr
 722              	.LVL59:
 723              		.loc 1 237 0
 724 0006 0848     		ldr	r0, .L97
 725              		.loc 1 236 0
 726 0008 084A     		ldr	r2, .L97+4
 727              		.loc 1 237 0
 728 000a 4368     		ldr	r3, [r0, #4]
 729              		.loc 1 236 0
 730 000c 4FF40021 		mov	r1, #524288
 731              		.loc 1 237 0
 732 0010 D3F89C30 		ldr	r3, [r3, #156]
 733              		.loc 1 236 0
 734 0014 5161     		str	r1, [r2, #20]
 735              		.loc 1 237 0
 736 0016 1321     		movs	r1, #19
 737 0018 9847     		blx	r3
 738              	.LVL60:
 739              		.loc 1 239 0
 740 001a FFF7FEFF 		bl	dbg_check_leave_isr
 741              	.LVL61:
ARM GAS  /tmp/cc2rLMrL.s 			page 14


 742              		.loc 1 240 0
 743 001e BDE80840 		pop	{r3, lr}
 744              		.cfi_restore 14
 745              		.cfi_restore 3
 746              		.cfi_def_cfa_offset 0
 747              		.loc 1 239 0
 748 0022 FFF7FEBF 		b	_port_irq_epilogue
 749              	.LVL62:
 750              	.L98:
 751 0026 00BF     		.align	2
 752              	.L97:
 753 0028 00000000 		.word	EXTD1
 754 002c 003C0140 		.word	1073822720
 755              		.cfi_endproc
 756              	.LFE121:
 757              		.size	Vector138, .-Vector138
 758              		.section	.text.Vector170,"ax",%progbits
 759              		.align	2
 760              		.p2align 4,,15
 761              		.global	Vector170
 762              		.thumb
 763              		.thumb_func
 764              		.type	Vector170, %function
 765              	Vector170:
 766              	.LFB122:
 767              		.loc 1 248 0
 768              		.cfi_startproc
 769              		@ args = 0, pretend = 0, frame = 0
 770              		@ frame_needed = 0, uses_anonymous_args = 0
 771 0000 08B5     		push	{r3, lr}
 772              		.cfi_def_cfa_offset 8
 773              		.cfi_offset 3, -8
 774              		.cfi_offset 14, -4
 775              		.loc 1 250 0
 776 0002 FFF7FEFF 		bl	dbg_check_enter_isr
 777              	.LVL63:
 778              		.loc 1 253 0
 779 0006 0848     		ldr	r0, .L101
 780              		.loc 1 252 0
 781 0008 084A     		ldr	r2, .L101+4
 782              		.loc 1 253 0
 783 000a 4368     		ldr	r3, [r0, #4]
 784              		.loc 1 252 0
 785 000c 4FF48011 		mov	r1, #1048576
 786              		.loc 1 253 0
 787 0010 D3F8A430 		ldr	r3, [r3, #164]
 788              		.loc 1 252 0
 789 0014 5161     		str	r1, [r2, #20]
 790              		.loc 1 253 0
 791 0016 1421     		movs	r1, #20
 792 0018 9847     		blx	r3
 793              	.LVL64:
 794              		.loc 1 255 0
 795 001a FFF7FEFF 		bl	dbg_check_leave_isr
 796              	.LVL65:
 797              		.loc 1 256 0
 798 001e BDE80840 		pop	{r3, lr}
ARM GAS  /tmp/cc2rLMrL.s 			page 15


 799              		.cfi_restore 14
 800              		.cfi_restore 3
 801              		.cfi_def_cfa_offset 0
 802              		.loc 1 255 0
 803 0022 FFF7FEBF 		b	_port_irq_epilogue
 804              	.LVL66:
 805              	.L102:
 806 0026 00BF     		.align	2
 807              	.L101:
 808 0028 00000000 		.word	EXTD1
 809 002c 003C0140 		.word	1073822720
 810              		.cfi_endproc
 811              	.LFE122:
 812              		.size	Vector170, .-Vector170
 813              		.section	.text.TAMPER_STAMP_IRQHandler,"ax",%progbits
 814              		.align	2
 815              		.p2align 4,,15
 816              		.global	TAMPER_STAMP_IRQHandler
 817              		.thumb
 818              		.thumb_func
 819              		.type	TAMPER_STAMP_IRQHandler, %function
 820              	TAMPER_STAMP_IRQHandler:
 821              	.LFB123:
 822              		.loc 1 263 0
 823              		.cfi_startproc
 824              		@ args = 0, pretend = 0, frame = 0
 825              		@ frame_needed = 0, uses_anonymous_args = 0
 826 0000 08B5     		push	{r3, lr}
 827              		.cfi_def_cfa_offset 8
 828              		.cfi_offset 3, -8
 829              		.cfi_offset 14, -4
 830              		.loc 1 265 0
 831 0002 FFF7FEFF 		bl	dbg_check_enter_isr
 832              	.LVL67:
 833              		.loc 1 268 0
 834 0006 0848     		ldr	r0, .L105
 835              		.loc 1 267 0
 836 0008 084A     		ldr	r2, .L105+4
 837              		.loc 1 268 0
 838 000a 4368     		ldr	r3, [r0, #4]
 839              		.loc 1 267 0
 840 000c 4FF40011 		mov	r1, #2097152
 841              		.loc 1 268 0
 842 0010 D3F8AC30 		ldr	r3, [r3, #172]
 843              		.loc 1 267 0
 844 0014 5161     		str	r1, [r2, #20]
 845              		.loc 1 268 0
 846 0016 1521     		movs	r1, #21
 847 0018 9847     		blx	r3
 848              	.LVL68:
 849              		.loc 1 270 0
 850 001a FFF7FEFF 		bl	dbg_check_leave_isr
 851              	.LVL69:
 852              		.loc 1 271 0
 853 001e BDE80840 		pop	{r3, lr}
 854              		.cfi_restore 14
 855              		.cfi_restore 3
ARM GAS  /tmp/cc2rLMrL.s 			page 16


 856              		.cfi_def_cfa_offset 0
 857              		.loc 1 270 0
 858 0022 FFF7FEBF 		b	_port_irq_epilogue
 859              	.LVL70:
 860              	.L106:
 861 0026 00BF     		.align	2
 862              	.L105:
 863 0028 00000000 		.word	EXTD1
 864 002c 003C0140 		.word	1073822720
 865              		.cfi_endproc
 866              	.LFE123:
 867              		.size	TAMPER_STAMP_IRQHandler, .-TAMPER_STAMP_IRQHandler
 868              		.section	.text.Vector4C,"ax",%progbits
 869              		.align	2
 870              		.p2align 4,,15
 871              		.global	Vector4C
 872              		.thumb
 873              		.thumb_func
 874              		.type	Vector4C, %function
 875              	Vector4C:
 876              	.LFB124:
 877              		.loc 1 279 0
 878              		.cfi_startproc
 879              		@ args = 0, pretend = 0, frame = 0
 880              		@ frame_needed = 0, uses_anonymous_args = 0
 881 0000 08B5     		push	{r3, lr}
 882              		.cfi_def_cfa_offset 8
 883              		.cfi_offset 3, -8
 884              		.cfi_offset 14, -4
 885              		.loc 1 281 0
 886 0002 FFF7FEFF 		bl	dbg_check_enter_isr
 887              	.LVL71:
 888              		.loc 1 284 0
 889 0006 0848     		ldr	r0, .L109
 890              		.loc 1 283 0
 891 0008 084A     		ldr	r2, .L109+4
 892              		.loc 1 284 0
 893 000a 4368     		ldr	r3, [r0, #4]
 894              		.loc 1 283 0
 895 000c 4FF48001 		mov	r1, #4194304
 896              		.loc 1 284 0
 897 0010 D3F8B430 		ldr	r3, [r3, #180]
 898              		.loc 1 283 0
 899 0014 5161     		str	r1, [r2, #20]
 900              		.loc 1 284 0
 901 0016 1621     		movs	r1, #22
 902 0018 9847     		blx	r3
 903              	.LVL72:
 904              		.loc 1 286 0
 905 001a FFF7FEFF 		bl	dbg_check_leave_isr
 906              	.LVL73:
 907              		.loc 1 287 0
 908 001e BDE80840 		pop	{r3, lr}
 909              		.cfi_restore 14
 910              		.cfi_restore 3
 911              		.cfi_def_cfa_offset 0
 912              		.loc 1 286 0
ARM GAS  /tmp/cc2rLMrL.s 			page 17


 913 0022 FFF7FEBF 		b	_port_irq_epilogue
 914              	.LVL74:
 915              	.L110:
 916 0026 00BF     		.align	2
 917              	.L109:
 918 0028 00000000 		.word	EXTD1
 919 002c 003C0140 		.word	1073822720
 920              		.cfi_endproc
 921              	.LFE124:
 922              		.size	Vector4C, .-Vector4C
 923              		.section	.text.ext_lld_exti_irq_enable,"ax",%progbits
 924              		.align	2
 925              		.p2align 4,,15
 926              		.global	ext_lld_exti_irq_enable
 927              		.thumb
 928              		.thumb_func
 929              		.type	ext_lld_exti_irq_enable, %function
 930              	ext_lld_exti_irq_enable:
 931              	.LFB125:
 932              		.loc 1 298 0
 933              		.cfi_startproc
 934              		@ args = 0, pretend = 0, frame = 0
 935              		@ frame_needed = 0, uses_anonymous_args = 0
 936 0000 08B5     		push	{r3, lr}
 937              		.cfi_def_cfa_offset 8
 938              		.cfi_offset 3, -8
 939              		.cfi_offset 14, -4
 940              		.loc 1 300 0
 941 0002 6021     		movs	r1, #96
 942 0004 0620     		movs	r0, #6
 943 0006 FFF7FEFF 		bl	nvicEnableVector
 944              	.LVL75:
 945              		.loc 1 302 0
 946 000a 6021     		movs	r1, #96
 947 000c 0720     		movs	r0, #7
 948 000e FFF7FEFF 		bl	nvicEnableVector
 949              	.LVL76:
 950              		.loc 1 304 0
 951 0012 6021     		movs	r1, #96
 952 0014 0820     		movs	r0, #8
 953 0016 FFF7FEFF 		bl	nvicEnableVector
 954              	.LVL77:
 955              		.loc 1 306 0
 956 001a 6021     		movs	r1, #96
 957 001c 0920     		movs	r0, #9
 958 001e FFF7FEFF 		bl	nvicEnableVector
 959              	.LVL78:
 960              		.loc 1 308 0
 961 0022 6021     		movs	r1, #96
 962 0024 0A20     		movs	r0, #10
 963 0026 FFF7FEFF 		bl	nvicEnableVector
 964              	.LVL79:
 965              		.loc 1 310 0
 966 002a 6021     		movs	r1, #96
 967 002c 1720     		movs	r0, #23
 968 002e FFF7FEFF 		bl	nvicEnableVector
 969              	.LVL80:
ARM GAS  /tmp/cc2rLMrL.s 			page 18


 970              		.loc 1 312 0
 971 0032 6021     		movs	r1, #96
 972 0034 2820     		movs	r0, #40
 973 0036 FFF7FEFF 		bl	nvicEnableVector
 974              	.LVL81:
 975              		.loc 1 314 0
 976 003a 6021     		movs	r1, #96
 977 003c 0120     		movs	r0, #1
 978 003e FFF7FEFF 		bl	nvicEnableVector
 979              	.LVL82:
 980              		.loc 1 316 0
 981 0042 F021     		movs	r1, #240
 982 0044 2920     		movs	r0, #41
 983 0046 FFF7FEFF 		bl	nvicEnableVector
 984              	.LVL83:
 985              		.loc 1 318 0
 986 004a 6021     		movs	r1, #96
 987 004c 2A20     		movs	r0, #42
 988 004e FFF7FEFF 		bl	nvicEnableVector
 989              	.LVL84:
 990              		.loc 1 320 0
 991 0052 6021     		movs	r1, #96
 992 0054 3E20     		movs	r0, #62
 993 0056 FFF7FEFF 		bl	nvicEnableVector
 994              	.LVL85:
 995              		.loc 1 323 0
 996 005a 6021     		movs	r1, #96
 997 005c 4C20     		movs	r0, #76
 998 005e FFF7FEFF 		bl	nvicEnableVector
 999              	.LVL86:
 1000              		.loc 1 325 0
 1001 0062 F021     		movs	r1, #240
 1002 0064 0220     		movs	r0, #2
 1003 0066 FFF7FEFF 		bl	nvicEnableVector
 1004              	.LVL87:
 1005              		.loc 1 328 0
 1006 006a F021     		movs	r1, #240
 1007 006c 0320     		movs	r0, #3
 1008              		.loc 1 330 0
 1009 006e BDE80840 		pop	{r3, lr}
 1010              		.cfi_restore 14
 1011              		.cfi_restore 3
 1012              		.cfi_def_cfa_offset 0
 1013              		.loc 1 328 0
 1014 0072 FFF7FEBF 		b	nvicEnableVector
 1015              	.LVL88:
 1016              		.cfi_endproc
 1017              	.LFE125:
 1018              		.size	ext_lld_exti_irq_enable, .-ext_lld_exti_irq_enable
 1019 0076 00BF     		.section	.text.ext_lld_exti_irq_disable,"ax",%progbits
 1020              		.align	2
 1021              		.p2align 4,,15
 1022              		.global	ext_lld_exti_irq_disable
 1023              		.thumb
 1024              		.thumb_func
 1025              		.type	ext_lld_exti_irq_disable, %function
 1026              	ext_lld_exti_irq_disable:
ARM GAS  /tmp/cc2rLMrL.s 			page 19


 1027              	.LFB126:
 1028              		.loc 1 337 0
 1029              		.cfi_startproc
 1030              		@ args = 0, pretend = 0, frame = 0
 1031              		@ frame_needed = 0, uses_anonymous_args = 0
 1032 0000 08B5     		push	{r3, lr}
 1033              		.cfi_def_cfa_offset 8
 1034              		.cfi_offset 3, -8
 1035              		.cfi_offset 14, -4
 1036              		.loc 1 339 0
 1037 0002 0620     		movs	r0, #6
 1038 0004 FFF7FEFF 		bl	nvicDisableVector
 1039              	.LVL89:
 1040              		.loc 1 340 0
 1041 0008 0720     		movs	r0, #7
 1042 000a FFF7FEFF 		bl	nvicDisableVector
 1043              	.LVL90:
 1044              		.loc 1 341 0
 1045 000e 0820     		movs	r0, #8
 1046 0010 FFF7FEFF 		bl	nvicDisableVector
 1047              	.LVL91:
 1048              		.loc 1 342 0
 1049 0014 0920     		movs	r0, #9
 1050 0016 FFF7FEFF 		bl	nvicDisableVector
 1051              	.LVL92:
 1052              		.loc 1 343 0
 1053 001a 0A20     		movs	r0, #10
 1054 001c FFF7FEFF 		bl	nvicDisableVector
 1055              	.LVL93:
 1056              		.loc 1 344 0
 1057 0020 1720     		movs	r0, #23
 1058 0022 FFF7FEFF 		bl	nvicDisableVector
 1059              	.LVL94:
 1060              		.loc 1 345 0
 1061 0026 2820     		movs	r0, #40
 1062 0028 FFF7FEFF 		bl	nvicDisableVector
 1063              	.LVL95:
 1064              		.loc 1 346 0
 1065 002c 0120     		movs	r0, #1
 1066 002e FFF7FEFF 		bl	nvicDisableVector
 1067              	.LVL96:
 1068              		.loc 1 347 0
 1069 0032 2920     		movs	r0, #41
 1070 0034 FFF7FEFF 		bl	nvicDisableVector
 1071              	.LVL97:
 1072              		.loc 1 348 0
 1073 0038 2A20     		movs	r0, #42
 1074 003a FFF7FEFF 		bl	nvicDisableVector
 1075              	.LVL98:
 1076              		.loc 1 349 0
 1077 003e 3E20     		movs	r0, #62
 1078 0040 FFF7FEFF 		bl	nvicDisableVector
 1079              	.LVL99:
 1080              		.loc 1 351 0
 1081 0044 4C20     		movs	r0, #76
 1082 0046 FFF7FEFF 		bl	nvicDisableVector
 1083              	.LVL100:
ARM GAS  /tmp/cc2rLMrL.s 			page 20


 1084              		.loc 1 352 0
 1085 004a 0220     		movs	r0, #2
 1086 004c FFF7FEFF 		bl	nvicDisableVector
 1087              	.LVL101:
 1088              		.loc 1 354 0
 1089 0050 0320     		movs	r0, #3
 1090              		.loc 1 355 0
 1091 0052 BDE80840 		pop	{r3, lr}
 1092              		.cfi_restore 14
 1093              		.cfi_restore 3
 1094              		.cfi_def_cfa_offset 0
 1095              		.loc 1 354 0
 1096 0056 FFF7FEBF 		b	nvicDisableVector
 1097              	.LVL102:
 1098              		.cfi_endproc
 1099              	.LFE126:
 1100              		.size	ext_lld_exti_irq_disable, .-ext_lld_exti_irq_disable
 1101 005a 00BF     		.text
 1102              	.Letext0:
 1103              		.file 2 "/home/z80/programs/sw4stm32/plugins/fr.ac6.mcu.externaltools.arm-none.linux32_1.7.0.20160
 1104              		.file 3 "/home/z80/programs/sw4stm32/plugins/fr.ac6.mcu.externaltools.arm-none.linux32_1.7.0.20160
 1105              		.file 4 "../../../os/hal/platforms/STM32F4xx/stm32f4xx.h"
 1106              		.file 5 "../../../os/hal/include/ext.h"
 1107              		.file 6 "../../../os/hal/platforms/STM32/ext_lld.h"
 1108              		.file 7 "../../../os/ports/common/ARMCMx/CMSIS/include/core_cm4.h"
 1109              		.file 8 "../../../os/kernel/include/chdebug.h"
 1110              		.file 9 "../../../os/ports/GCC/ARMCMx/chcore_v7m.h"
 1111              		.file 10 "../../../os/ports/common/ARMCMx/nvic.h"