ARM GAS  /tmp/ccQfcfz2.s 			page 1


   1              		.syntax unified
   2              		.cpu cortex-m4
   3              		.fpu softvfp
   4              		.eabi_attribute 20, 1
   5              		.eabi_attribute 21, 1
   6              		.eabi_attribute 23, 3
   7              		.eabi_attribute 24, 1
   8              		.eabi_attribute 25, 1
   9              		.eabi_attribute 26, 1
  10              		.eabi_attribute 30, 2
  11              		.eabi_attribute 34, 1
  12              		.eabi_attribute 18, 4
  13              		.thumb
  14              		.syntax unified
  15              		.file	"ext_lld.c"
  16              		.text
  17              	.Ltext0:
  18              		.cfi_sections	.debug_frame
  19              		.section	.text.ext_lld_init,"ax",%progbits
  20              		.align	2
  21              		.p2align 4,,15
  22              		.global	ext_lld_init
  23              		.thumb
  24              		.thumb_func
  25              		.type	ext_lld_init, %function
  26              	ext_lld_init:
  27              	.LFB111:
  28              		.file 1 "../../../os/hal/platforms/STM32/ext_lld.c"
  29              		.loc 1 66 0
  30              		.cfi_startproc
  31              		@ args = 0, pretend = 0, frame = 0
  32              		@ frame_needed = 0, uses_anonymous_args = 0
  33              		@ link register save eliminated.
  34              		.loc 1 69 0
  35 0000 0148     		ldr	r0, .L2
  36 0002 FFF7FEBF 		b	extObjectInit
  37              	.LVL0:
  38              	.L3:
  39 0006 00BF     		.align	2
  40              	.L2:
  41 0008 00000000 		.word	.LANCHOR0
  42              		.cfi_endproc
  43              	.LFE111:
  44              		.size	ext_lld_init, .-ext_lld_init
  45              		.section	.text.ext_lld_stop,"ax",%progbits
  46              		.align	2
  47              		.p2align 4,,15
  48              		.global	ext_lld_stop
  49              		.thumb
  50              		.thumb_func
  51              		.type	ext_lld_stop, %function
  52              	ext_lld_stop:
  53              	.LFB113:
  54              		.loc 1 100 0
  55              		.cfi_startproc
  56              		@ args = 0, pretend = 0, frame = 0
  57              		@ frame_needed = 0, uses_anonymous_args = 0
ARM GAS  /tmp/ccQfcfz2.s 			page 2


  58              	.LVL1:
  59 0000 08B5     		push	{r3, lr}
  60              		.cfi_def_cfa_offset 8
  61              		.cfi_offset 3, -8
  62              		.cfi_offset 14, -4
  63              		.loc 1 102 0
  64 0002 0378     		ldrb	r3, [r0]	@ zero_extendqisi2
  65 0004 022B     		cmp	r3, #2
  66 0006 07D0     		beq	.L8
  67              	.LVL2:
  68              	.L5:
  69              		.loc 1 105 0
  70 0008 054B     		ldr	r3, .L9
  71 000a 0022     		movs	r2, #0
  72              		.loc 1 107 0
  73 000c 4FF0FF31 		mov	r1, #-1
  74              		.loc 1 105 0
  75 0010 5A60     		str	r2, [r3, #4]
  76              		.loc 1 106 0
  77 0012 1A60     		str	r2, [r3]
  78              		.loc 1 107 0
  79 0014 5961     		str	r1, [r3, #20]
  80 0016 08BD     		pop	{r3, pc}
  81              	.LVL3:
  82              	.L8:
  83              		.loc 1 103 0
  84 0018 FFF7FEFF 		bl	ext_lld_exti_irq_disable
  85              	.LVL4:
  86 001c F4E7     		b	.L5
  87              	.L10:
  88 001e 00BF     		.align	2
  89              	.L9:
  90 0020 003C0140 		.word	1073822720
  91              		.cfi_endproc
  92              	.LFE113:
  93              		.size	ext_lld_stop, .-ext_lld_stop
  94              		.section	.text.ext_lld_channel_enable,"ax",%progbits
  95              		.align	2
  96              		.p2align 4,,15
  97              		.global	ext_lld_channel_enable
  98              		.thumb
  99              		.thumb_func
 100              		.type	ext_lld_channel_enable, %function
 101              	ext_lld_channel_enable:
 102              	.LFB114:
 103              		.loc 1 121 0
 104              		.cfi_startproc
 105              		@ args = 0, pretend = 0, frame = 0
 106              		@ frame_needed = 0, uses_anonymous_args = 0
 107              		@ link register save eliminated.
 108              	.LVL5:
 109              		.loc 1 124 0
 110 0000 0F29     		cmp	r1, #15
 111              		.loc 1 121 0
 112 0002 F0B4     		push	{r4, r5, r6, r7}
 113              		.cfi_def_cfa_offset 16
 114              		.cfi_offset 4, -16
ARM GAS  /tmp/ccQfcfz2.s 			page 3


 115              		.cfi_offset 5, -12
 116              		.cfi_offset 6, -8
 117              		.cfi_offset 7, -4
 118              		.loc 1 124 0
 119 0004 21D9     		bls	.L12
 120 0006 4068     		ldr	r0, [r0, #4]
 121              	.LVL6:
 122 0008 50F83120 		ldr	r2, [r0, r1, lsl #3]
 123              		.loc 1 145 0
 124 000c D307     		lsls	r3, r2, #31
 125 000e 35D5     		bpl	.L14
 126              	.L21:
 127              		.loc 1 146 0
 128 0010 234D     		ldr	r5, .L22
 129 0012 0123     		movs	r3, #1
 130 0014 AC68     		ldr	r4, [r5, #8]
 131 0016 8B40     		lsls	r3, r3, r1
 132 0018 1C43     		orrs	r4, r4, r3
 133 001a AC60     		str	r4, [r5, #8]
 134 001c DC43     		mvns	r4, r3
 135              	.L15:
 136              		.loc 1 150 0
 137 001e 204D     		ldr	r5, .L22
 138              		.loc 1 149 0
 139 0020 12F0020F 		tst	r2, #2
 140              		.loc 1 150 0
 141 0024 EA68     		ldr	r2, [r5, #12]
 142              		.loc 1 155 0
 143 0026 00EBC101 		add	r1, r0, r1, lsl #3
 144              	.LVL7:
 145              		.loc 1 150 0
 146 002a 14BF     		ite	ne
 147 002c 1A43     		orrne	r2, r2, r3
 148              		.loc 1 152 0
 149 002e 2240     		andeq	r2, r2, r4
 150 0030 EA60     		str	r2, [r5, #12]
 151              		.loc 1 155 0
 152 0032 4A68     		ldr	r2, [r1, #4]
 153 0034 52B3     		cbz	r2, .L18
 154              		.loc 1 156 0
 155 0036 1A4A     		ldr	r2, .L22
 156 0038 1168     		ldr	r1, [r2]
 157 003a 1943     		orrs	r1, r1, r3
 158 003c 1160     		str	r1, [r2]
 159              		.loc 1 157 0
 160 003e 5168     		ldr	r1, [r2, #4]
 161 0040 01EA0403 		and	r3, r1, r4
 162 0044 5360     		str	r3, [r2, #4]
 163              		.loc 1 187 0
 164 0046 F0BC     		pop	{r4, r5, r6, r7}
 165              		.cfi_remember_state
 166              		.cfi_restore 7
 167              		.cfi_restore 6
 168              		.cfi_restore 5
 169              		.cfi_restore 4
 170              		.cfi_def_cfa_offset 0
 171 0048 7047     		bx	lr
ARM GAS  /tmp/ccQfcfz2.s 			page 4


 172              	.LVL8:
 173              	.L12:
 174              		.cfi_restore_state
 175 004a 21F00303 		bic	r3, r1, #3
 176              	.LBB4:
 177              		.loc 1 127 0
 178 004e 4068     		ldr	r0, [r0, #4]
 179              	.LVL9:
 180 0050 03F18043 		add	r3, r3, #1073741824
 181 0054 03F59C33 		add	r3, r3, #79872
 182 0058 50F83120 		ldr	r2, [r0, r1, lsl #3]
 183              		.loc 1 137 0
 184 005c 9E68     		ldr	r6, [r3, #8]
 185              		.loc 1 126 0
 186 005e 01F00304 		and	r4, r1, #3
 187 0062 A400     		lsls	r4, r4, #2
 188              	.LVL10:
 189              		.loc 1 137 0
 190 0064 0F25     		movs	r5, #15
 191 0066 A540     		lsls	r5, r5, r4
 192 0068 C2F30317 		ubfx	r7, r2, #4, #4
 193 006c 26EA0505 		bic	r5, r6, r5
 194 0070 07FA04F4 		lsl	r4, r7, r4
 195              	.LVL11:
 196 0074 2C43     		orrs	r4, r4, r5
 197 0076 9C60     		str	r4, [r3, #8]
 198              	.LBE4:
 199              		.loc 1 145 0
 200 0078 D307     		lsls	r3, r2, #31
 201 007a C9D4     		bmi	.L21
 202              	.LVL12:
 203              	.L14:
 204              		.loc 1 148 0
 205 007c 084E     		ldr	r6, .L22
 206 007e 0123     		movs	r3, #1
 207 0080 B568     		ldr	r5, [r6, #8]
 208 0082 8B40     		lsls	r3, r3, r1
 209 0084 DC43     		mvns	r4, r3
 210 0086 2540     		ands	r5, r5, r4
 211 0088 B560     		str	r5, [r6, #8]
 212 008a C8E7     		b	.L15
 213              	.LVL13:
 214              	.L18:
 215              		.loc 1 160 0
 216 008c 044A     		ldr	r2, .L22
 217 008e 5168     		ldr	r1, [r2, #4]
 218 0090 0B43     		orrs	r3, r3, r1
 219 0092 5360     		str	r3, [r2, #4]
 220              		.loc 1 161 0
 221 0094 1368     		ldr	r3, [r2]
 222 0096 2340     		ands	r3, r3, r4
 223 0098 1360     		str	r3, [r2]
 224              		.loc 1 187 0
 225 009a F0BC     		pop	{r4, r5, r6, r7}
 226              		.cfi_restore 4
 227              		.cfi_restore 5
 228              		.cfi_restore 6
ARM GAS  /tmp/ccQfcfz2.s 			page 5


 229              		.cfi_restore 7
 230              		.cfi_def_cfa_offset 0
 231 009c 7047     		bx	lr
 232              	.L23:
 233 009e 00BF     		.align	2
 234              	.L22:
 235 00a0 003C0140 		.word	1073822720
 236              		.cfi_endproc
 237              	.LFE114:
 238              		.size	ext_lld_channel_enable, .-ext_lld_channel_enable
 239              		.section	.text.ext_lld_start,"ax",%progbits
 240              		.align	2
 241              		.p2align 4,,15
 242              		.global	ext_lld_start
 243              		.thumb
 244              		.thumb_func
 245              		.type	ext_lld_start, %function
 246              	ext_lld_start:
 247              	.LFB112:
 248              		.loc 1 79 0
 249              		.cfi_startproc
 250              		@ args = 0, pretend = 0, frame = 0
 251              		@ frame_needed = 0, uses_anonymous_args = 0
 252              	.LVL14:
 253 0000 F8B5     		push	{r3, r4, r5, r6, r7, lr}
 254              		.cfi_def_cfa_offset 24
 255              		.cfi_offset 3, -24
 256              		.cfi_offset 4, -20
 257              		.cfi_offset 5, -16
 258              		.cfi_offset 6, -12
 259              		.cfi_offset 7, -8
 260              		.cfi_offset 14, -4
 261              		.loc 1 82 0
 262 0002 0378     		ldrb	r3, [r0]	@ zero_extendqisi2
 263 0004 012B     		cmp	r3, #1
 264              		.loc 1 79 0
 265 0006 0646     		mov	r6, r0
 266              		.loc 1 82 0
 267 0008 24D0     		beq	.L31
 268              	.LVL15:
 269              	.L25:
 270              	.LBB5:
 271              	.LBB6:
 272              		.loc 1 204 0 discriminator 1
 273 000a 144C     		ldr	r4, .L33
 274              	.LBE6:
 275              	.LBE5:
 276              		.loc 1 79 0 discriminator 1
 277 000c 0025     		movs	r5, #0
 278              	.LBB12:
 279              	.LBB7:
 280              		.loc 1 204 0 discriminator 1
 281 000e 0127     		movs	r7, #1
 282 0010 0FE0     		b	.L28
 283              	.LVL16:
 284              	.L26:
 285              		.loc 1 204 0 is_stmt 0
ARM GAS  /tmp/ccQfcfz2.s 			page 6


 286 0012 2268     		ldr	r2, [r4]
 287 0014 1A40     		ands	r2, r2, r3
 288 0016 2260     		str	r2, [r4]
 289              		.loc 1 205 0 is_stmt 1
 290 0018 6268     		ldr	r2, [r4, #4]
 291 001a 1A40     		ands	r2, r2, r3
 292 001c 6260     		str	r2, [r4, #4]
 293              		.loc 1 206 0
 294 001e A268     		ldr	r2, [r4, #8]
 295 0020 1A40     		ands	r2, r2, r3
 296 0022 A260     		str	r2, [r4, #8]
 297              		.loc 1 207 0
 298 0024 E268     		ldr	r2, [r4, #12]
 299              	.LBE7:
 300              	.LBE12:
 301              		.loc 1 86 0
 302 0026 0135     		adds	r5, r5, #1
 303              	.LVL17:
 304              	.LBB13:
 305              	.LBB8:
 306              		.loc 1 207 0
 307 0028 1340     		ands	r3, r3, r2
 308              	.LBE8:
 309              	.LBE13:
 310              		.loc 1 86 0
 311 002a 172D     		cmp	r5, #23
 312              	.LBB14:
 313              	.LBB9:
 314              		.loc 1 207 0
 315 002c E360     		str	r3, [r4, #12]
 316              		.loc 1 208 0
 317 002e 6161     		str	r1, [r4, #20]
 318              	.LBE9:
 319              	.LBE14:
 320              		.loc 1 86 0
 321 0030 0FD0     		beq	.L32
 322              	.LVL18:
 323              	.L28:
 324              		.loc 1 87 0
 325 0032 7268     		ldr	r2, [r6, #4]
 326 0034 52F83520 		ldr	r2, [r2, r5, lsl #3]
 327              	.LBB15:
 328              	.LBB10:
 329              		.loc 1 204 0
 330 0038 07FA05F1 		lsl	r1, r7, r5
 331              	.LBE10:
 332              	.LBE15:
 333              		.loc 1 87 0
 334 003c 5207     		lsls	r2, r2, #29
 335              	.LBB16:
 336              	.LBB11:
 337              		.loc 1 204 0
 338 003e 6FEA0103 		mvn	r3, r1
 339              	.LBE11:
 340              	.LBE16:
 341              		.loc 1 87 0
 342 0042 E6D5     		bpl	.L26
ARM GAS  /tmp/ccQfcfz2.s 			page 7


 343              		.loc 1 88 0
 344 0044 2946     		mov	r1, r5
 345 0046 3046     		mov	r0, r6
 346              		.loc 1 86 0
 347 0048 0135     		adds	r5, r5, #1
 348              	.LVL19:
 349              		.loc 1 88 0
 350 004a FFF7FEFF 		bl	ext_lld_channel_enable
 351              	.LVL20:
 352              		.loc 1 86 0
 353 004e 172D     		cmp	r5, #23
 354 0050 EFD1     		bne	.L28
 355              	.LVL21:
 356              	.L32:
 357              		.loc 1 91 0
 358 0052 F8BD     		pop	{r3, r4, r5, r6, r7, pc}
 359              	.LVL22:
 360              	.L31:
 361              		.loc 1 83 0
 362 0054 FFF7FEFF 		bl	ext_lld_exti_irq_enable
 363              	.LVL23:
 364 0058 D7E7     		b	.L25
 365              	.L34:
 366 005a 00BF     		.align	2
 367              	.L33:
 368 005c 003C0140 		.word	1073822720
 369              		.cfi_endproc
 370              	.LFE112:
 371              		.size	ext_lld_start, .-ext_lld_start
 372              		.section	.text.ext_lld_channel_disable,"ax",%progbits
 373              		.align	2
 374              		.p2align 4,,15
 375              		.global	ext_lld_channel_disable
 376              		.thumb
 377              		.thumb_func
 378              		.type	ext_lld_channel_disable, %function
 379              	ext_lld_channel_disable:
 380              	.LFB115:
 381              		.loc 1 197 0
 382              		.cfi_startproc
 383              		@ args = 0, pretend = 0, frame = 0
 384              		@ frame_needed = 0, uses_anonymous_args = 0
 385              		@ link register save eliminated.
 386              	.LVL24:
 387              		.loc 1 204 0
 388 0000 094B     		ldr	r3, .L36
 389 0002 0122     		movs	r2, #1
 390 0004 1868     		ldr	r0, [r3]
 391              	.LVL25:
 392 0006 02FA01F1 		lsl	r1, r2, r1
 393              	.LVL26:
 394 000a CA43     		mvns	r2, r1
 395 000c 1040     		ands	r0, r0, r2
 396 000e 1860     		str	r0, [r3]
 397              		.loc 1 205 0
 398 0010 5868     		ldr	r0, [r3, #4]
 399 0012 1040     		ands	r0, r0, r2
ARM GAS  /tmp/ccQfcfz2.s 			page 8


 400 0014 5860     		str	r0, [r3, #4]
 401              		.loc 1 206 0
 402 0016 9868     		ldr	r0, [r3, #8]
 403 0018 1040     		ands	r0, r0, r2
 404 001a 9860     		str	r0, [r3, #8]
 405              		.loc 1 207 0
 406 001c D868     		ldr	r0, [r3, #12]
 407 001e 0240     		ands	r2, r2, r0
 408 0020 DA60     		str	r2, [r3, #12]
 409              		.loc 1 208 0
 410 0022 5961     		str	r1, [r3, #20]
 411 0024 7047     		bx	lr
 412              	.L37:
 413 0026 00BF     		.align	2
 414              	.L36:
 415 0028 003C0140 		.word	1073822720
 416              		.cfi_endproc
 417              	.LFE115:
 418              		.size	ext_lld_channel_disable, .-ext_lld_channel_disable
 419              		.global	EXTD1
 420              		.section	.bss.EXTD1,"aw",%nobits
 421              		.align	2
 422              		.set	.LANCHOR0,. + 0
 423              		.type	EXTD1, %object
 424              		.size	EXTD1, 8
 425              	EXTD1:
 426 0000 00000000 		.space	8
 426      00000000 
 427              		.text
 428              	.Letext0:
 429              		.file 2 "/home/z80/programs/sw4stm32/plugins/fr.ac6.mcu.externaltools.arm-none.linux32_1.7.0.20160
 430              		.file 3 "/home/z80/programs/sw4stm32/plugins/fr.ac6.mcu.externaltools.arm-none.linux32_1.7.0.20160
 431              		.file 4 "../../../os/hal/platforms/STM32F4xx/stm32f4xx.h"
 432              		.file 5 "../../../os/hal/include/ext.h"
 433              		.file 6 "../../../os/hal/platforms/STM32/ext_lld.h"
 434              		.file 7 "../../../os/ports/common/ARMCMx/CMSIS/include/core_cm4.h"
 435              		.file 8 "../../../os/hal/platforms/STM32F4xx/ext_lld_isr.h"
 436              		.section	.debug_info,"",%progbits
 437              	.Ldebug_info0:
 438 0000 49040000 		.4byte	0x449
 439 0004 0400     		.2byte	0x4
 440 0006 00000000 		.4byte	.Ldebug_abbrev0
 441 000a 04       		.byte	0x4
 442 000b 01       		.uleb128 0x1
 443 000c 4A000000 		.4byte	.LASF52
 444 0010 0C       		.byte	0xc
 445 0011 35020000 		.4byte	.LASF53
 446 0015 84010000 		.4byte	.LASF54
 447 0019 38000000 		.4byte	.Ldebug_ranges0+0x38
 448 001d 00000000 		.4byte	0
 449 0021 00000000 		.4byte	.Ldebug_line0
 450 0025 02       		.uleb128 0x2
 451 0026 04       		.byte	0x4
 452 0027 05       		.byte	0x5
 453 0028 696E7400 		.ascii	"int\000"
 454 002c 03       		.uleb128 0x3
 455 002d 04       		.byte	0x4
ARM GAS  /tmp/ccQfcfz2.s 			page 9


 456 002e 07       		.byte	0x7
 457 002f 96020000 		.4byte	.LASF0
 458 0033 03       		.uleb128 0x3
 459 0034 08       		.byte	0x8
 460 0035 05       		.byte	0x5
 461 0036 38010000 		.4byte	.LASF1
 462 003a 03       		.uleb128 0x3
 463 003b 08       		.byte	0x8
 464 003c 04       		.byte	0x4
 465 003d 04020000 		.4byte	.LASF2
 466 0041 03       		.uleb128 0x3
 467 0042 01       		.byte	0x1
 468 0043 06       		.byte	0x6
 469 0044 6A020000 		.4byte	.LASF3
 470 0048 03       		.uleb128 0x3
 471 0049 01       		.byte	0x1
 472 004a 08       		.byte	0x8
 473 004b 27020000 		.4byte	.LASF4
 474 004f 03       		.uleb128 0x3
 475 0050 02       		.byte	0x2
 476 0051 05       		.byte	0x5
 477 0052 40000000 		.4byte	.LASF5
 478 0056 03       		.uleb128 0x3
 479 0057 02       		.byte	0x2
 480 0058 07       		.byte	0x7
 481 0059 A8020000 		.4byte	.LASF6
 482 005d 04       		.uleb128 0x4
 483 005e 56030000 		.4byte	.LASF8
 484 0062 02       		.byte	0x2
 485 0063 3F       		.byte	0x3f
 486 0064 68000000 		.4byte	0x68
 487 0068 03       		.uleb128 0x3
 488 0069 04       		.byte	0x4
 489 006a 05       		.byte	0x5
 490 006b D5010000 		.4byte	.LASF7
 491 006f 04       		.uleb128 0x4
 492 0070 46010000 		.4byte	.LASF9
 493 0074 02       		.byte	0x2
 494 0075 41       		.byte	0x41
 495 0076 7A000000 		.4byte	0x7a
 496 007a 03       		.uleb128 0x3
 497 007b 04       		.byte	0x4
 498 007c 07       		.byte	0x7
 499 007d 26030000 		.4byte	.LASF10
 500 0081 03       		.uleb128 0x3
 501 0082 08       		.byte	0x8
 502 0083 07       		.byte	0x7
 503 0084 76020000 		.4byte	.LASF11
 504 0088 04       		.uleb128 0x4
 505 0089 DF020000 		.4byte	.LASF12
 506 008d 03       		.byte	0x3
 507 008e 1F       		.byte	0x1f
 508 008f 5D000000 		.4byte	0x5d
 509 0093 04       		.uleb128 0x4
 510 0094 8D020000 		.4byte	.LASF13
 511 0098 03       		.byte	0x3
 512 0099 20       		.byte	0x20
ARM GAS  /tmp/ccQfcfz2.s 			page 10


 513 009a 6F000000 		.4byte	0x6f
 514 009e 03       		.uleb128 0x3
 515 009f 01       		.byte	0x1
 516 00a0 02       		.byte	0x2
 517 00a1 0A030000 		.4byte	.LASF14
 518 00a5 05       		.uleb128 0x5
 519 00a6 93000000 		.4byte	0x93
 520 00aa 03       		.uleb128 0x3
 521 00ab 04       		.byte	0x4
 522 00ac 07       		.byte	0x7
 523 00ad 24010000 		.4byte	.LASF15
 524 00b1 03       		.uleb128 0x3
 525 00b2 01       		.byte	0x1
 526 00b3 08       		.byte	0x8
 527 00b4 CC020000 		.4byte	.LASF16
 528 00b8 06       		.uleb128 0x6
 529 00b9 93000000 		.4byte	0x93
 530 00bd C8000000 		.4byte	0xc8
 531 00c1 07       		.uleb128 0x7
 532 00c2 AA000000 		.4byte	0xaa
 533 00c6 01       		.byte	0x1
 534 00c7 00       		.byte	0
 535 00c8 06       		.uleb128 0x6
 536 00c9 93000000 		.4byte	0x93
 537 00cd D8000000 		.4byte	0xd8
 538 00d1 07       		.uleb128 0x7
 539 00d2 AA000000 		.4byte	0xaa
 540 00d6 03       		.byte	0x3
 541 00d7 00       		.byte	0
 542 00d8 05       		.uleb128 0x5
 543 00d9 88000000 		.4byte	0x88
 544 00dd 08       		.uleb128 0x8
 545 00de 18       		.byte	0x18
 546 00df 04       		.byte	0x4
 547 00e0 3003     		.2byte	0x330
 548 00e2 34010000 		.4byte	0x134
 549 00e6 09       		.uleb128 0x9
 550 00e7 494D5200 		.ascii	"IMR\000"
 551 00eb 04       		.byte	0x4
 552 00ec 3203     		.2byte	0x332
 553 00ee A5000000 		.4byte	0xa5
 554 00f2 00       		.byte	0
 555 00f3 09       		.uleb128 0x9
 556 00f4 454D5200 		.ascii	"EMR\000"
 557 00f8 04       		.byte	0x4
 558 00f9 3303     		.2byte	0x333
 559 00fb A5000000 		.4byte	0xa5
 560 00ff 04       		.byte	0x4
 561 0100 0A       		.uleb128 0xa
 562 0101 05030000 		.4byte	.LASF17
 563 0105 04       		.byte	0x4
 564 0106 3403     		.2byte	0x334
 565 0108 A5000000 		.4byte	0xa5
 566 010c 08       		.byte	0x8
 567 010d 0A       		.uleb128 0xa
 568 010e A3020000 		.4byte	.LASF18
 569 0112 04       		.byte	0x4
ARM GAS  /tmp/ccQfcfz2.s 			page 11


 570 0113 3503     		.2byte	0x335
 571 0115 A5000000 		.4byte	0xa5
 572 0119 0C       		.byte	0xc
 573 011a 0A       		.uleb128 0xa
 574 011b 9A030000 		.4byte	.LASF19
 575 011f 04       		.byte	0x4
 576 0120 3603     		.2byte	0x336
 577 0122 A5000000 		.4byte	0xa5
 578 0126 10       		.byte	0x10
 579 0127 09       		.uleb128 0x9
 580 0128 505200   		.ascii	"PR\000"
 581 012b 04       		.byte	0x4
 582 012c 3703     		.2byte	0x337
 583 012e A5000000 		.4byte	0xa5
 584 0132 14       		.byte	0x14
 585 0133 00       		.byte	0
 586 0134 0B       		.uleb128 0xb
 587 0135 C8010000 		.4byte	.LASF20
 588 0139 04       		.byte	0x4
 589 013a 3803     		.2byte	0x338
 590 013c DD000000 		.4byte	0xdd
 591 0140 08       		.uleb128 0x8
 592 0141 24       		.byte	0x24
 593 0142 04       		.byte	0x4
 594 0143 E903     		.2byte	0x3e9
 595 0145 8B010000 		.4byte	0x18b
 596 0149 0A       		.uleb128 0xa
 597 014a 7D010000 		.4byte	.LASF21
 598 014e 04       		.byte	0x4
 599 014f EB03     		.2byte	0x3eb
 600 0151 A5000000 		.4byte	0xa5
 601 0155 00       		.byte	0
 602 0156 09       		.uleb128 0x9
 603 0157 504D4300 		.ascii	"PMC\000"
 604 015b 04       		.byte	0x4
 605 015c EC03     		.2byte	0x3ec
 606 015e A5000000 		.4byte	0xa5
 607 0162 04       		.byte	0x4
 608 0163 0A       		.uleb128 0xa
 609 0164 76010000 		.4byte	.LASF22
 610 0168 04       		.byte	0x4
 611 0169 ED03     		.2byte	0x3ed
 612 016b 8B010000 		.4byte	0x18b
 613 016f 08       		.byte	0x8
 614 0170 0A       		.uleb128 0xa
 615 0171 77030000 		.4byte	.LASF23
 616 0175 04       		.byte	0x4
 617 0176 EE03     		.2byte	0x3ee
 618 0178 B8000000 		.4byte	0xb8
 619 017c 18       		.byte	0x18
 620 017d 0A       		.uleb128 0xa
 621 017e F1010000 		.4byte	.LASF24
 622 0182 04       		.byte	0x4
 623 0183 EF03     		.2byte	0x3ef
 624 0185 A5000000 		.4byte	0xa5
 625 0189 20       		.byte	0x20
 626 018a 00       		.byte	0
ARM GAS  /tmp/ccQfcfz2.s 			page 12


 627 018b 05       		.uleb128 0x5
 628 018c C8000000 		.4byte	0xc8
 629 0190 0B       		.uleb128 0xb
 630 0191 0A000000 		.4byte	.LASF25
 631 0195 04       		.byte	0x4
 632 0196 F003     		.2byte	0x3f0
 633 0198 40010000 		.4byte	0x140
 634 019c 0C       		.uleb128 0xc
 635 019d 01       		.byte	0x1
 636 019e 48000000 		.4byte	0x48
 637 01a2 05       		.byte	0x5
 638 01a3 4A       		.byte	0x4a
 639 01a4 BB010000 		.4byte	0x1bb
 640 01a8 0D       		.uleb128 0xd
 641 01a9 5F020000 		.4byte	.LASF26
 642 01ad 00       		.byte	0
 643 01ae 0D       		.uleb128 0xd
 644 01af 31000000 		.4byte	.LASF27
 645 01b3 01       		.byte	0x1
 646 01b4 0D       		.uleb128 0xd
 647 01b5 2D010000 		.4byte	.LASF28
 648 01b9 02       		.byte	0x2
 649 01ba 00       		.byte	0
 650 01bb 04       		.uleb128 0x4
 651 01bc 38030000 		.4byte	.LASF29
 652 01c0 05       		.byte	0x5
 653 01c1 4E       		.byte	0x4e
 654 01c2 9C010000 		.4byte	0x19c
 655 01c6 04       		.uleb128 0x4
 656 01c7 6D030000 		.4byte	.LASF30
 657 01cb 05       		.byte	0x5
 658 01cc 53       		.byte	0x53
 659 01cd D1010000 		.4byte	0x1d1
 660 01d1 0E       		.uleb128 0xe
 661 01d2 6D030000 		.4byte	.LASF30
 662 01d6 08       		.byte	0x8
 663 01d7 06       		.byte	0x6
 664 01d8 71       		.byte	0x71
 665 01d9 F6010000 		.4byte	0x1f6
 666 01dd 0F       		.uleb128 0xf
 667 01de 3A000000 		.4byte	.LASF31
 668 01e2 06       		.byte	0x6
 669 01e3 75       		.byte	0x75
 670 01e4 BB010000 		.4byte	0x1bb
 671 01e8 00       		.byte	0
 672 01e9 0F       		.uleb128 0xf
 673 01ea 6F010000 		.4byte	.LASF32
 674 01ee 06       		.byte	0x6
 675 01ef 79       		.byte	0x79
 676 01f0 83020000 		.4byte	0x283
 677 01f4 04       		.byte	0x4
 678 01f5 00       		.byte	0
 679 01f6 04       		.uleb128 0x4
 680 01f7 60030000 		.4byte	.LASF33
 681 01fb 06       		.byte	0x6
 682 01fc 47       		.byte	0x47
 683 01fd 93000000 		.4byte	0x93
ARM GAS  /tmp/ccQfcfz2.s 			page 13


 684 0201 04       		.uleb128 0x4
 685 0202 E3010000 		.4byte	.LASF34
 686 0206 06       		.byte	0x6
 687 0207 4F       		.byte	0x4f
 688 0208 0C020000 		.4byte	0x20c
 689 020c 10       		.uleb128 0x10
 690 020d 04       		.byte	0x4
 691 020e 12020000 		.4byte	0x212
 692 0212 11       		.uleb128 0x11
 693 0213 22020000 		.4byte	0x222
 694 0217 12       		.uleb128 0x12
 695 0218 22020000 		.4byte	0x222
 696 021c 12       		.uleb128 0x12
 697 021d F6010000 		.4byte	0x1f6
 698 0221 00       		.byte	0
 699 0222 10       		.uleb128 0x10
 700 0223 04       		.byte	0x4
 701 0224 C6010000 		.4byte	0x1c6
 702 0228 13       		.uleb128 0x13
 703 0229 08       		.byte	0x8
 704 022a 06       		.byte	0x6
 705 022b 54       		.byte	0x54
 706 022c 48020000 		.4byte	0x248
 707 0230 0F       		.uleb128 0xf
 708 0231 51010000 		.4byte	.LASF35
 709 0235 06       		.byte	0x6
 710 0236 58       		.byte	0x58
 711 0237 93000000 		.4byte	0x93
 712 023b 00       		.byte	0
 713 023c 14       		.uleb128 0x14
 714 023d 636200   		.ascii	"cb\000"
 715 0240 06       		.byte	0x6
 716 0241 5F       		.byte	0x5f
 717 0242 01020000 		.4byte	0x201
 718 0246 04       		.byte	0x4
 719 0247 00       		.byte	0
 720 0248 04       		.uleb128 0x4
 721 0249 BB020000 		.4byte	.LASF36
 722 024d 06       		.byte	0x6
 723 024e 60       		.byte	0x60
 724 024f 28020000 		.4byte	0x228
 725 0253 13       		.uleb128 0x13
 726 0254 B8       		.byte	0xb8
 727 0255 06       		.byte	0x6
 728 0256 66       		.byte	0x66
 729 0257 68020000 		.4byte	0x268
 730 025b 0F       		.uleb128 0xf
 731 025c 18030000 		.4byte	.LASF37
 732 0260 06       		.byte	0x6
 733 0261 6A       		.byte	0x6a
 734 0262 68020000 		.4byte	0x268
 735 0266 00       		.byte	0
 736 0267 00       		.byte	0
 737 0268 06       		.uleb128 0x6
 738 0269 48020000 		.4byte	0x248
 739 026d 78020000 		.4byte	0x278
 740 0271 07       		.uleb128 0x7
ARM GAS  /tmp/ccQfcfz2.s 			page 14


 741 0272 AA000000 		.4byte	0xaa
 742 0276 16       		.byte	0x16
 743 0277 00       		.byte	0
 744 0278 04       		.uleb128 0x4
 745 0279 00000000 		.4byte	.LASF38
 746 027d 06       		.byte	0x6
 747 027e 6C       		.byte	0x6c
 748 027f 53020000 		.4byte	0x253
 749 0283 10       		.uleb128 0x10
 750 0284 04       		.byte	0x4
 751 0285 89020000 		.4byte	0x289
 752 0289 15       		.uleb128 0x15
 753 028a 78020000 		.4byte	0x278
 754 028e 16       		.uleb128 0x16
 755 028f 19000000 		.4byte	.LASF55
 756 0293 01       		.byte	0x1
 757 0294 C5       		.byte	0xc5
 758 0295 01       		.byte	0x1
 759 0296 B1020000 		.4byte	0x2b1
 760 029a 17       		.uleb128 0x17
 761 029b DE010000 		.4byte	.LASF39
 762 029f 01       		.byte	0x1
 763 02a0 C5       		.byte	0xc5
 764 02a1 22020000 		.4byte	0x222
 765 02a5 17       		.uleb128 0x17
 766 02a6 10030000 		.4byte	.LASF40
 767 02aa 01       		.byte	0x1
 768 02ab C5       		.byte	0xc5
 769 02ac F6010000 		.4byte	0x1f6
 770 02b0 00       		.byte	0
 771 02b1 18       		.uleb128 0x18
 772 02b2 8D030000 		.4byte	.LASF41
 773 02b6 01       		.byte	0x1
 774 02b7 42       		.byte	0x42
 775 02b8 00000000 		.4byte	.LFB111
 776 02bc 0C000000 		.4byte	.LFE111-.LFB111
 777 02c0 01       		.uleb128 0x1
 778 02c1 9C       		.byte	0x9c
 779 02c2 DA020000 		.4byte	0x2da
 780 02c6 19       		.uleb128 0x19
 781 02c7 06000000 		.4byte	.LVL0
 782 02cb 2B040000 		.4byte	0x42b
 783 02cf 1A       		.uleb128 0x1a
 784 02d0 01       		.uleb128 0x1
 785 02d1 50       		.byte	0x50
 786 02d2 05       		.uleb128 0x5
 787 02d3 03       		.byte	0x3
 788 02d4 00000000 		.4byte	.LANCHOR0
 789 02d8 00       		.byte	0
 790 02d9 00       		.byte	0
 791 02da 18       		.uleb128 0x18
 792 02db F7010000 		.4byte	.LASF42
 793 02df 01       		.byte	0x1
 794 02e0 64       		.byte	0x64
 795 02e1 00000000 		.4byte	.LFB113
 796 02e5 24000000 		.4byte	.LFE113-.LFB113
 797 02e9 01       		.uleb128 0x1
ARM GAS  /tmp/ccQfcfz2.s 			page 15


 798 02ea 9C       		.byte	0x9c
 799 02eb 08030000 		.4byte	0x308
 800 02ef 1B       		.uleb128 0x1b
 801 02f0 DE010000 		.4byte	.LASF39
 802 02f4 01       		.byte	0x1
 803 02f5 64       		.byte	0x64
 804 02f6 22020000 		.4byte	0x222
 805 02fa 00000000 		.4byte	.LLST0
 806 02fe 1C       		.uleb128 0x1c
 807 02ff 1C000000 		.4byte	.LVL4
 808 0303 36040000 		.4byte	0x436
 809 0307 00       		.byte	0
 810 0308 18       		.uleb128 0x18
 811 0309 10020000 		.4byte	.LASF43
 812 030d 01       		.byte	0x1
 813 030e 79       		.byte	0x79
 814 030f 00000000 		.4byte	.LFB114
 815 0313 A4000000 		.4byte	.LFE114-.LFB114
 816 0317 01       		.uleb128 0x1
 817 0318 9C       		.byte	0x9c
 818 0319 71030000 		.4byte	0x371
 819 031d 1B       		.uleb128 0x1b
 820 031e DE010000 		.4byte	.LASF39
 821 0322 01       		.byte	0x1
 822 0323 79       		.byte	0x79
 823 0324 22020000 		.4byte	0x222
 824 0328 3A000000 		.4byte	.LLST1
 825 032c 1B       		.uleb128 0x1b
 826 032d 10030000 		.4byte	.LASF40
 827 0331 01       		.byte	0x1
 828 0332 79       		.byte	0x79
 829 0333 F6010000 		.4byte	0x1f6
 830 0337 74000000 		.4byte	.LLST2
 831 033b 1D       		.uleb128 0x1d
 832 033c 4E000000 		.4byte	.LBB4
 833 0340 2A000000 		.4byte	.LBE4-.LBB4
 834 0344 1E       		.uleb128 0x1e
 835 0345 6E00     		.ascii	"n\000"
 836 0347 01       		.byte	0x1
 837 0348 7D       		.byte	0x7d
 838 0349 93000000 		.4byte	0x93
 839 034d AE000000 		.4byte	.LLST3
 840 0351 1F       		.uleb128 0x1f
 841 0352 51030000 		.4byte	.LASF44
 842 0356 01       		.byte	0x1
 843 0357 7E       		.byte	0x7e
 844 0358 93000000 		.4byte	0x93
 845 035c C5000000 		.4byte	.LLST4
 846 0360 1F       		.uleb128 0x1f
 847 0361 21030000 		.4byte	.LASF45
 848 0365 01       		.byte	0x1
 849 0366 7F       		.byte	0x7f
 850 0367 93000000 		.4byte	0x93
 851 036b F1000000 		.4byte	.LLST5
 852 036f 00       		.byte	0
 853 0370 00       		.byte	0
 854 0371 18       		.uleb128 0x18
ARM GAS  /tmp/ccQfcfz2.s 			page 16


 855 0372 43030000 		.4byte	.LASF46
 856 0376 01       		.byte	0x1
 857 0377 4F       		.byte	0x4f
 858 0378 00000000 		.4byte	.LFB112
 859 037c 60000000 		.4byte	.LFE112-.LFB112
 860 0380 01       		.uleb128 0x1
 861 0381 9C       		.byte	0x9c
 862 0382 E8030000 		.4byte	0x3e8
 863 0386 1B       		.uleb128 0x1b
 864 0387 DE010000 		.4byte	.LASF39
 865 038b 01       		.byte	0x1
 866 038c 4F       		.byte	0x4f
 867 038d 22020000 		.4byte	0x222
 868 0391 25010000 		.4byte	.LLST6
 869 0395 1E       		.uleb128 0x1e
 870 0396 6900     		.ascii	"i\000"
 871 0398 01       		.byte	0x1
 872 0399 50       		.byte	0x50
 873 039a 2C000000 		.4byte	0x2c
 874 039e 59010000 		.4byte	.LLST7
 875 03a2 20       		.uleb128 0x20
 876 03a3 8E020000 		.4byte	0x28e
 877 03a7 0A000000 		.4byte	.LBB5
 878 03ab 00000000 		.4byte	.Ldebug_ranges0+0
 879 03af 01       		.byte	0x1
 880 03b0 5A       		.byte	0x5a
 881 03b1 C4030000 		.4byte	0x3c4
 882 03b5 21       		.uleb128 0x21
 883 03b6 A5020000 		.4byte	0x2a5
 884 03ba 9B010000 		.4byte	.LLST8
 885 03be 22       		.uleb128 0x22
 886 03bf 9A020000 		.4byte	0x29a
 887 03c3 00       		.byte	0
 888 03c4 23       		.uleb128 0x23
 889 03c5 4E000000 		.4byte	.LVL20
 890 03c9 08030000 		.4byte	0x308
 891 03cd DE030000 		.4byte	0x3de
 892 03d1 1A       		.uleb128 0x1a
 893 03d2 01       		.uleb128 0x1
 894 03d3 50       		.byte	0x50
 895 03d4 02       		.uleb128 0x2
 896 03d5 76       		.byte	0x76
 897 03d6 00       		.sleb128 0
 898 03d7 1A       		.uleb128 0x1a
 899 03d8 01       		.uleb128 0x1
 900 03d9 51       		.byte	0x51
 901 03da 02       		.uleb128 0x2
 902 03db 75       		.byte	0x75
 903 03dc 7F       		.sleb128 -1
 904 03dd 00       		.byte	0
 905 03de 1C       		.uleb128 0x1c
 906 03df 58000000 		.4byte	.LVL23
 907 03e3 41040000 		.4byte	0x441
 908 03e7 00       		.byte	0
 909 03e8 24       		.uleb128 0x24
 910 03e9 8E020000 		.4byte	0x28e
 911 03ed 00000000 		.4byte	.LFB115
ARM GAS  /tmp/ccQfcfz2.s 			page 17


 912 03f1 2C000000 		.4byte	.LFE115-.LFB115
 913 03f5 01       		.uleb128 0x1
 914 03f6 9C       		.byte	0x9c
 915 03f7 0E040000 		.4byte	0x40e
 916 03fb 21       		.uleb128 0x21
 917 03fc 9A020000 		.4byte	0x29a
 918 0400 DE010000 		.4byte	.LLST9
 919 0404 21       		.uleb128 0x21
 920 0405 A5020000 		.4byte	0x2a5
 921 0409 FF010000 		.4byte	.LLST10
 922 040d 00       		.byte	0
 923 040e 25       		.uleb128 0x25
 924 040f 80030000 		.4byte	.LASF47
 925 0413 07       		.byte	0x7
 926 0414 9806     		.2byte	0x698
 927 0416 D8000000 		.4byte	0xd8
 928 041a 26       		.uleb128 0x26
 929 041b FF020000 		.4byte	.LASF48
 930 041f 01       		.byte	0x1
 931 0420 2B       		.byte	0x2b
 932 0421 C6010000 		.4byte	0x1c6
 933 0425 05       		.uleb128 0x5
 934 0426 03       		.byte	0x3
 935 0427 00000000 		.4byte	EXTD1
 936 042b 27       		.uleb128 0x27
 937 042c D1020000 		.4byte	.LASF49
 938 0430 D1020000 		.4byte	.LASF49
 939 0434 05       		.byte	0x5
 940 0435 91       		.byte	0x91
 941 0436 27       		.uleb128 0x27
 942 0437 56010000 		.4byte	.LASF50
 943 043b 56010000 		.4byte	.LASF50
 944 043f 08       		.byte	0x8
 945 0440 A1       		.byte	0xa1
 946 0441 27       		.uleb128 0x27
 947 0442 E7020000 		.4byte	.LASF51
 948 0446 E7020000 		.4byte	.LASF51
 949 044a 08       		.byte	0x8
 950 044b A0       		.byte	0xa0
 951 044c 00       		.byte	0
 952              		.section	.debug_abbrev,"",%progbits
 953              	.Ldebug_abbrev0:
 954 0000 01       		.uleb128 0x1
 955 0001 11       		.uleb128 0x11
 956 0002 01       		.byte	0x1
 957 0003 25       		.uleb128 0x25
 958 0004 0E       		.uleb128 0xe
 959 0005 13       		.uleb128 0x13
 960 0006 0B       		.uleb128 0xb
 961 0007 03       		.uleb128 0x3
 962 0008 0E       		.uleb128 0xe
 963 0009 1B       		.uleb128 0x1b
 964 000a 0E       		.uleb128 0xe
 965 000b 55       		.uleb128 0x55
 966 000c 17       		.uleb128 0x17
 967 000d 11       		.uleb128 0x11
 968 000e 01       		.uleb128 0x1
ARM GAS  /tmp/ccQfcfz2.s 			page 18


 969 000f 10       		.uleb128 0x10
 970 0010 17       		.uleb128 0x17
 971 0011 00       		.byte	0
 972 0012 00       		.byte	0
 973 0013 02       		.uleb128 0x2
 974 0014 24       		.uleb128 0x24
 975 0015 00       		.byte	0
 976 0016 0B       		.uleb128 0xb
 977 0017 0B       		.uleb128 0xb
 978 0018 3E       		.uleb128 0x3e
 979 0019 0B       		.uleb128 0xb
 980 001a 03       		.uleb128 0x3
 981 001b 08       		.uleb128 0x8
 982 001c 00       		.byte	0
 983 001d 00       		.byte	0
 984 001e 03       		.uleb128 0x3
 985 001f 24       		.uleb128 0x24
 986 0020 00       		.byte	0
 987 0021 0B       		.uleb128 0xb
 988 0022 0B       		.uleb128 0xb
 989 0023 3E       		.uleb128 0x3e
 990 0024 0B       		.uleb128 0xb
 991 0025 03       		.uleb128 0x3
 992 0026 0E       		.uleb128 0xe
 993 0027 00       		.byte	0
 994 0028 00       		.byte	0
 995 0029 04       		.uleb128 0x4
 996 002a 16       		.uleb128 0x16
 997 002b 00       		.byte	0
 998 002c 03       		.uleb128 0x3
 999 002d 0E       		.uleb128 0xe
 1000 002e 3A       		.uleb128 0x3a
 1001 002f 0B       		.uleb128 0xb
 1002 0030 3B       		.uleb128 0x3b
 1003 0031 0B       		.uleb128 0xb
 1004 0032 49       		.uleb128 0x49
 1005 0033 13       		.uleb128 0x13
 1006 0034 00       		.byte	0
 1007 0035 00       		.byte	0
 1008 0036 05       		.uleb128 0x5
 1009 0037 35       		.uleb128 0x35
 1010 0038 00       		.byte	0
 1011 0039 49       		.uleb128 0x49
 1012 003a 13       		.uleb128 0x13
 1013 003b 00       		.byte	0
 1014 003c 00       		.byte	0
 1015 003d 06       		.uleb128 0x6
 1016 003e 01       		.uleb128 0x1
 1017 003f 01       		.byte	0x1
 1018 0040 49       		.uleb128 0x49
 1019 0041 13       		.uleb128 0x13
 1020 0042 01       		.uleb128 0x1
 1021 0043 13       		.uleb128 0x13
 1022 0044 00       		.byte	0
 1023 0045 00       		.byte	0
 1024 0046 07       		.uleb128 0x7
 1025 0047 21       		.uleb128 0x21
ARM GAS  /tmp/ccQfcfz2.s 			page 19


 1026 0048 00       		.byte	0
 1027 0049 49       		.uleb128 0x49
 1028 004a 13       		.uleb128 0x13
 1029 004b 2F       		.uleb128 0x2f
 1030 004c 0B       		.uleb128 0xb
 1031 004d 00       		.byte	0
 1032 004e 00       		.byte	0
 1033 004f 08       		.uleb128 0x8
 1034 0050 13       		.uleb128 0x13
 1035 0051 01       		.byte	0x1
 1036 0052 0B       		.uleb128 0xb
 1037 0053 0B       		.uleb128 0xb
 1038 0054 3A       		.uleb128 0x3a
 1039 0055 0B       		.uleb128 0xb
 1040 0056 3B       		.uleb128 0x3b
 1041 0057 05       		.uleb128 0x5
 1042 0058 01       		.uleb128 0x1
 1043 0059 13       		.uleb128 0x13
 1044 005a 00       		.byte	0
 1045 005b 00       		.byte	0
 1046 005c 09       		.uleb128 0x9
 1047 005d 0D       		.uleb128 0xd
 1048 005e 00       		.byte	0
 1049 005f 03       		.uleb128 0x3
 1050 0060 08       		.uleb128 0x8
 1051 0061 3A       		.uleb128 0x3a
 1052 0062 0B       		.uleb128 0xb
 1053 0063 3B       		.uleb128 0x3b
 1054 0064 05       		.uleb128 0x5
 1055 0065 49       		.uleb128 0x49
 1056 0066 13       		.uleb128 0x13
 1057 0067 38       		.uleb128 0x38
 1058 0068 0B       		.uleb128 0xb
 1059 0069 00       		.byte	0
 1060 006a 00       		.byte	0
 1061 006b 0A       		.uleb128 0xa
 1062 006c 0D       		.uleb128 0xd
 1063 006d 00       		.byte	0
 1064 006e 03       		.uleb128 0x3
 1065 006f 0E       		.uleb128 0xe
 1066 0070 3A       		.uleb128 0x3a
 1067 0071 0B       		.uleb128 0xb
 1068 0072 3B       		.uleb128 0x3b
 1069 0073 05       		.uleb128 0x5
 1070 0074 49       		.uleb128 0x49
 1071 0075 13       		.uleb128 0x13
 1072 0076 38       		.uleb128 0x38
 1073 0077 0B       		.uleb128 0xb
 1074 0078 00       		.byte	0
 1075 0079 00       		.byte	0
 1076 007a 0B       		.uleb128 0xb
 1077 007b 16       		.uleb128 0x16
 1078 007c 00       		.byte	0
 1079 007d 03       		.uleb128 0x3
 1080 007e 0E       		.uleb128 0xe
 1081 007f 3A       		.uleb128 0x3a
 1082 0080 0B       		.uleb128 0xb
ARM GAS  /tmp/ccQfcfz2.s 			page 20


 1083 0081 3B       		.uleb128 0x3b
 1084 0082 05       		.uleb128 0x5
 1085 0083 49       		.uleb128 0x49
 1086 0084 13       		.uleb128 0x13
 1087 0085 00       		.byte	0
 1088 0086 00       		.byte	0
 1089 0087 0C       		.uleb128 0xc
 1090 0088 04       		.uleb128 0x4
 1091 0089 01       		.byte	0x1
 1092 008a 0B       		.uleb128 0xb
 1093 008b 0B       		.uleb128 0xb
 1094 008c 49       		.uleb128 0x49
 1095 008d 13       		.uleb128 0x13
 1096 008e 3A       		.uleb128 0x3a
 1097 008f 0B       		.uleb128 0xb
 1098 0090 3B       		.uleb128 0x3b
 1099 0091 0B       		.uleb128 0xb
 1100 0092 01       		.uleb128 0x1
 1101 0093 13       		.uleb128 0x13
 1102 0094 00       		.byte	0
 1103 0095 00       		.byte	0
 1104 0096 0D       		.uleb128 0xd
 1105 0097 28       		.uleb128 0x28
 1106 0098 00       		.byte	0
 1107 0099 03       		.uleb128 0x3
 1108 009a 0E       		.uleb128 0xe
 1109 009b 1C       		.uleb128 0x1c
 1110 009c 0B       		.uleb128 0xb
 1111 009d 00       		.byte	0
 1112 009e 00       		.byte	0
 1113 009f 0E       		.uleb128 0xe
 1114 00a0 13       		.uleb128 0x13
 1115 00a1 01       		.byte	0x1
 1116 00a2 03       		.uleb128 0x3
 1117 00a3 0E       		.uleb128 0xe
 1118 00a4 0B       		.uleb128 0xb
 1119 00a5 0B       		.uleb128 0xb
 1120 00a6 3A       		.uleb128 0x3a
 1121 00a7 0B       		.uleb128 0xb
 1122 00a8 3B       		.uleb128 0x3b
 1123 00a9 0B       		.uleb128 0xb
 1124 00aa 01       		.uleb128 0x1
 1125 00ab 13       		.uleb128 0x13
 1126 00ac 00       		.byte	0
 1127 00ad 00       		.byte	0
 1128 00ae 0F       		.uleb128 0xf
 1129 00af 0D       		.uleb128 0xd
 1130 00b0 00       		.byte	0
 1131 00b1 03       		.uleb128 0x3
 1132 00b2 0E       		.uleb128 0xe
 1133 00b3 3A       		.uleb128 0x3a
 1134 00b4 0B       		.uleb128 0xb
 1135 00b5 3B       		.uleb128 0x3b
 1136 00b6 0B       		.uleb128 0xb
 1137 00b7 49       		.uleb128 0x49
 1138 00b8 13       		.uleb128 0x13
 1139 00b9 38       		.uleb128 0x38
ARM GAS  /tmp/ccQfcfz2.s 			page 21


 1140 00ba 0B       		.uleb128 0xb
 1141 00bb 00       		.byte	0
 1142 00bc 00       		.byte	0
 1143 00bd 10       		.uleb128 0x10
 1144 00be 0F       		.uleb128 0xf
 1145 00bf 00       		.byte	0
 1146 00c0 0B       		.uleb128 0xb
 1147 00c1 0B       		.uleb128 0xb
 1148 00c2 49       		.uleb128 0x49
 1149 00c3 13       		.uleb128 0x13
 1150 00c4 00       		.byte	0
 1151 00c5 00       		.byte	0
 1152 00c6 11       		.uleb128 0x11
 1153 00c7 15       		.uleb128 0x15
 1154 00c8 01       		.byte	0x1
 1155 00c9 27       		.uleb128 0x27
 1156 00ca 19       		.uleb128 0x19
 1157 00cb 01       		.uleb128 0x1
 1158 00cc 13       		.uleb128 0x13
 1159 00cd 00       		.byte	0
 1160 00ce 00       		.byte	0
 1161 00cf 12       		.uleb128 0x12
 1162 00d0 05       		.uleb128 0x5
 1163 00d1 00       		.byte	0
 1164 00d2 49       		.uleb128 0x49
 1165 00d3 13       		.uleb128 0x13
 1166 00d4 00       		.byte	0
 1167 00d5 00       		.byte	0
 1168 00d6 13       		.uleb128 0x13
 1169 00d7 13       		.uleb128 0x13
 1170 00d8 01       		.byte	0x1
 1171 00d9 0B       		.uleb128 0xb
 1172 00da 0B       		.uleb128 0xb
 1173 00db 3A       		.uleb128 0x3a
 1174 00dc 0B       		.uleb128 0xb
 1175 00dd 3B       		.uleb128 0x3b
 1176 00de 0B       		.uleb128 0xb
 1177 00df 01       		.uleb128 0x1
 1178 00e0 13       		.uleb128 0x13
 1179 00e1 00       		.byte	0
 1180 00e2 00       		.byte	0
 1181 00e3 14       		.uleb128 0x14
 1182 00e4 0D       		.uleb128 0xd
 1183 00e5 00       		.byte	0
 1184 00e6 03       		.uleb128 0x3
 1185 00e7 08       		.uleb128 0x8
 1186 00e8 3A       		.uleb128 0x3a
 1187 00e9 0B       		.uleb128 0xb
 1188 00ea 3B       		.uleb128 0x3b
 1189 00eb 0B       		.uleb128 0xb
 1190 00ec 49       		.uleb128 0x49
 1191 00ed 13       		.uleb128 0x13
 1192 00ee 38       		.uleb128 0x38
 1193 00ef 0B       		.uleb128 0xb
 1194 00f0 00       		.byte	0
 1195 00f1 00       		.byte	0
 1196 00f2 15       		.uleb128 0x15
ARM GAS  /tmp/ccQfcfz2.s 			page 22


 1197 00f3 26       		.uleb128 0x26
 1198 00f4 00       		.byte	0
 1199 00f5 49       		.uleb128 0x49
 1200 00f6 13       		.uleb128 0x13
 1201 00f7 00       		.byte	0
 1202 00f8 00       		.byte	0
 1203 00f9 16       		.uleb128 0x16
 1204 00fa 2E       		.uleb128 0x2e
 1205 00fb 01       		.byte	0x1
 1206 00fc 3F       		.uleb128 0x3f
 1207 00fd 19       		.uleb128 0x19
 1208 00fe 03       		.uleb128 0x3
 1209 00ff 0E       		.uleb128 0xe
 1210 0100 3A       		.uleb128 0x3a
 1211 0101 0B       		.uleb128 0xb
 1212 0102 3B       		.uleb128 0x3b
 1213 0103 0B       		.uleb128 0xb
 1214 0104 27       		.uleb128 0x27
 1215 0105 19       		.uleb128 0x19
 1216 0106 20       		.uleb128 0x20
 1217 0107 0B       		.uleb128 0xb
 1218 0108 01       		.uleb128 0x1
 1219 0109 13       		.uleb128 0x13
 1220 010a 00       		.byte	0
 1221 010b 00       		.byte	0
 1222 010c 17       		.uleb128 0x17
 1223 010d 05       		.uleb128 0x5
 1224 010e 00       		.byte	0
 1225 010f 03       		.uleb128 0x3
 1226 0110 0E       		.uleb128 0xe
 1227 0111 3A       		.uleb128 0x3a
 1228 0112 0B       		.uleb128 0xb
 1229 0113 3B       		.uleb128 0x3b
 1230 0114 0B       		.uleb128 0xb
 1231 0115 49       		.uleb128 0x49
 1232 0116 13       		.uleb128 0x13
 1233 0117 00       		.byte	0
 1234 0118 00       		.byte	0
 1235 0119 18       		.uleb128 0x18
 1236 011a 2E       		.uleb128 0x2e
 1237 011b 01       		.byte	0x1
 1238 011c 3F       		.uleb128 0x3f
 1239 011d 19       		.uleb128 0x19
 1240 011e 03       		.uleb128 0x3
 1241 011f 0E       		.uleb128 0xe
 1242 0120 3A       		.uleb128 0x3a
 1243 0121 0B       		.uleb128 0xb
 1244 0122 3B       		.uleb128 0x3b
 1245 0123 0B       		.uleb128 0xb
 1246 0124 27       		.uleb128 0x27
 1247 0125 19       		.uleb128 0x19
 1248 0126 11       		.uleb128 0x11
 1249 0127 01       		.uleb128 0x1
 1250 0128 12       		.uleb128 0x12
 1251 0129 06       		.uleb128 0x6
 1252 012a 40       		.uleb128 0x40
 1253 012b 18       		.uleb128 0x18
ARM GAS  /tmp/ccQfcfz2.s 			page 23


 1254 012c 9742     		.uleb128 0x2117
 1255 012e 19       		.uleb128 0x19
 1256 012f 01       		.uleb128 0x1
 1257 0130 13       		.uleb128 0x13
 1258 0131 00       		.byte	0
 1259 0132 00       		.byte	0
 1260 0133 19       		.uleb128 0x19
 1261 0134 898201   		.uleb128 0x4109
 1262 0137 01       		.byte	0x1
 1263 0138 11       		.uleb128 0x11
 1264 0139 01       		.uleb128 0x1
 1265 013a 9542     		.uleb128 0x2115
 1266 013c 19       		.uleb128 0x19
 1267 013d 31       		.uleb128 0x31
 1268 013e 13       		.uleb128 0x13
 1269 013f 00       		.byte	0
 1270 0140 00       		.byte	0
 1271 0141 1A       		.uleb128 0x1a
 1272 0142 8A8201   		.uleb128 0x410a
 1273 0145 00       		.byte	0
 1274 0146 02       		.uleb128 0x2
 1275 0147 18       		.uleb128 0x18
 1276 0148 9142     		.uleb128 0x2111
 1277 014a 18       		.uleb128 0x18
 1278 014b 00       		.byte	0
 1279 014c 00       		.byte	0
 1280 014d 1B       		.uleb128 0x1b
 1281 014e 05       		.uleb128 0x5
 1282 014f 00       		.byte	0
 1283 0150 03       		.uleb128 0x3
 1284 0151 0E       		.uleb128 0xe
 1285 0152 3A       		.uleb128 0x3a
 1286 0153 0B       		.uleb128 0xb
 1287 0154 3B       		.uleb128 0x3b
 1288 0155 0B       		.uleb128 0xb
 1289 0156 49       		.uleb128 0x49
 1290 0157 13       		.uleb128 0x13
 1291 0158 02       		.uleb128 0x2
 1292 0159 17       		.uleb128 0x17
 1293 015a 00       		.byte	0
 1294 015b 00       		.byte	0
 1295 015c 1C       		.uleb128 0x1c
 1296 015d 898201   		.uleb128 0x4109
 1297 0160 00       		.byte	0
 1298 0161 11       		.uleb128 0x11
 1299 0162 01       		.uleb128 0x1
 1300 0163 31       		.uleb128 0x31
 1301 0164 13       		.uleb128 0x13
 1302 0165 00       		.byte	0
 1303 0166 00       		.byte	0
 1304 0167 1D       		.uleb128 0x1d
 1305 0168 0B       		.uleb128 0xb
 1306 0169 01       		.byte	0x1
 1307 016a 11       		.uleb128 0x11
 1308 016b 01       		.uleb128 0x1
 1309 016c 12       		.uleb128 0x12
 1310 016d 06       		.uleb128 0x6
ARM GAS  /tmp/ccQfcfz2.s 			page 24


 1311 016e 00       		.byte	0
 1312 016f 00       		.byte	0
 1313 0170 1E       		.uleb128 0x1e
 1314 0171 34       		.uleb128 0x34
 1315 0172 00       		.byte	0
 1316 0173 03       		.uleb128 0x3
 1317 0174 08       		.uleb128 0x8
 1318 0175 3A       		.uleb128 0x3a
 1319 0176 0B       		.uleb128 0xb
 1320 0177 3B       		.uleb128 0x3b
 1321 0178 0B       		.uleb128 0xb
 1322 0179 49       		.uleb128 0x49
 1323 017a 13       		.uleb128 0x13
 1324 017b 02       		.uleb128 0x2
 1325 017c 17       		.uleb128 0x17
 1326 017d 00       		.byte	0
 1327 017e 00       		.byte	0
 1328 017f 1F       		.uleb128 0x1f
 1329 0180 34       		.uleb128 0x34
 1330 0181 00       		.byte	0
 1331 0182 03       		.uleb128 0x3
 1332 0183 0E       		.uleb128 0xe
 1333 0184 3A       		.uleb128 0x3a
 1334 0185 0B       		.uleb128 0xb
 1335 0186 3B       		.uleb128 0x3b
 1336 0187 0B       		.uleb128 0xb
 1337 0188 49       		.uleb128 0x49
 1338 0189 13       		.uleb128 0x13
 1339 018a 02       		.uleb128 0x2
 1340 018b 17       		.uleb128 0x17
 1341 018c 00       		.byte	0
 1342 018d 00       		.byte	0
 1343 018e 20       		.uleb128 0x20
 1344 018f 1D       		.uleb128 0x1d
 1345 0190 01       		.byte	0x1
 1346 0191 31       		.uleb128 0x31
 1347 0192 13       		.uleb128 0x13
 1348 0193 52       		.uleb128 0x52
 1349 0194 01       		.uleb128 0x1
 1350 0195 55       		.uleb128 0x55
 1351 0196 17       		.uleb128 0x17
 1352 0197 58       		.uleb128 0x58
 1353 0198 0B       		.uleb128 0xb
 1354 0199 59       		.uleb128 0x59
 1355 019a 0B       		.uleb128 0xb
 1356 019b 01       		.uleb128 0x1
 1357 019c 13       		.uleb128 0x13
 1358 019d 00       		.byte	0
 1359 019e 00       		.byte	0
 1360 019f 21       		.uleb128 0x21
 1361 01a0 05       		.uleb128 0x5
 1362 01a1 00       		.byte	0
 1363 01a2 31       		.uleb128 0x31
 1364 01a3 13       		.uleb128 0x13
 1365 01a4 02       		.uleb128 0x2
 1366 01a5 17       		.uleb128 0x17
 1367 01a6 00       		.byte	0
ARM GAS  /tmp/ccQfcfz2.s 			page 25


 1368 01a7 00       		.byte	0
 1369 01a8 22       		.uleb128 0x22
 1370 01a9 05       		.uleb128 0x5
 1371 01aa 00       		.byte	0
 1372 01ab 31       		.uleb128 0x31
 1373 01ac 13       		.uleb128 0x13
 1374 01ad 00       		.byte	0
 1375 01ae 00       		.byte	0
 1376 01af 23       		.uleb128 0x23
 1377 01b0 898201   		.uleb128 0x4109
 1378 01b3 01       		.byte	0x1
 1379 01b4 11       		.uleb128 0x11
 1380 01b5 01       		.uleb128 0x1
 1381 01b6 31       		.uleb128 0x31
 1382 01b7 13       		.uleb128 0x13
 1383 01b8 01       		.uleb128 0x1
 1384 01b9 13       		.uleb128 0x13
 1385 01ba 00       		.byte	0
 1386 01bb 00       		.byte	0
 1387 01bc 24       		.uleb128 0x24
 1388 01bd 2E       		.uleb128 0x2e
 1389 01be 01       		.byte	0x1
 1390 01bf 31       		.uleb128 0x31
 1391 01c0 13       		.uleb128 0x13
 1392 01c1 11       		.uleb128 0x11
 1393 01c2 01       		.uleb128 0x1
 1394 01c3 12       		.uleb128 0x12
 1395 01c4 06       		.uleb128 0x6
 1396 01c5 40       		.uleb128 0x40
 1397 01c6 18       		.uleb128 0x18
 1398 01c7 9742     		.uleb128 0x2117
 1399 01c9 19       		.uleb128 0x19
 1400 01ca 01       		.uleb128 0x1
 1401 01cb 13       		.uleb128 0x13
 1402 01cc 00       		.byte	0
 1403 01cd 00       		.byte	0
 1404 01ce 25       		.uleb128 0x25
 1405 01cf 34       		.uleb128 0x34
 1406 01d0 00       		.byte	0
 1407 01d1 03       		.uleb128 0x3
 1408 01d2 0E       		.uleb128 0xe
 1409 01d3 3A       		.uleb128 0x3a
 1410 01d4 0B       		.uleb128 0xb
 1411 01d5 3B       		.uleb128 0x3b
 1412 01d6 05       		.uleb128 0x5
 1413 01d7 49       		.uleb128 0x49
 1414 01d8 13       		.uleb128 0x13
 1415 01d9 3F       		.uleb128 0x3f
 1416 01da 19       		.uleb128 0x19
 1417 01db 3C       		.uleb128 0x3c
 1418 01dc 19       		.uleb128 0x19
 1419 01dd 00       		.byte	0
 1420 01de 00       		.byte	0
 1421 01df 26       		.uleb128 0x26
 1422 01e0 34       		.uleb128 0x34
 1423 01e1 00       		.byte	0
 1424 01e2 03       		.uleb128 0x3
ARM GAS  /tmp/ccQfcfz2.s 			page 26


 1425 01e3 0E       		.uleb128 0xe
 1426 01e4 3A       		.uleb128 0x3a
 1427 01e5 0B       		.uleb128 0xb
 1428 01e6 3B       		.uleb128 0x3b
 1429 01e7 0B       		.uleb128 0xb
 1430 01e8 49       		.uleb128 0x49
 1431 01e9 13       		.uleb128 0x13
 1432 01ea 3F       		.uleb128 0x3f
 1433 01eb 19       		.uleb128 0x19
 1434 01ec 02       		.uleb128 0x2
 1435 01ed 18       		.uleb128 0x18
 1436 01ee 00       		.byte	0
 1437 01ef 00       		.byte	0
 1438 01f0 27       		.uleb128 0x27
 1439 01f1 2E       		.uleb128 0x2e
 1440 01f2 00       		.byte	0
 1441 01f3 3F       		.uleb128 0x3f
 1442 01f4 19       		.uleb128 0x19
 1443 01f5 3C       		.uleb128 0x3c
 1444 01f6 19       		.uleb128 0x19
 1445 01f7 6E       		.uleb128 0x6e
 1446 01f8 0E       		.uleb128 0xe
 1447 01f9 03       		.uleb128 0x3
 1448 01fa 0E       		.uleb128 0xe
 1449 01fb 3A       		.uleb128 0x3a
 1450 01fc 0B       		.uleb128 0xb
 1451 01fd 3B       		.uleb128 0x3b
 1452 01fe 0B       		.uleb128 0xb
 1453 01ff 00       		.byte	0
 1454 0200 00       		.byte	0
 1455 0201 00       		.byte	0
 1456              		.section	.debug_loc,"",%progbits
 1457              	.Ldebug_loc0:
 1458              	.LLST0:
 1459 0000 00000000 		.4byte	.LVL1
 1460 0004 08000000 		.4byte	.LVL2
 1461 0008 0100     		.2byte	0x1
 1462 000a 50       		.byte	0x50
 1463 000b 08000000 		.4byte	.LVL2
 1464 000f 18000000 		.4byte	.LVL3
 1465 0013 0400     		.2byte	0x4
 1466 0015 F3       		.byte	0xf3
 1467 0016 01       		.uleb128 0x1
 1468 0017 50       		.byte	0x50
 1469 0018 9F       		.byte	0x9f
 1470 0019 18000000 		.4byte	.LVL3
 1471 001d 1B000000 		.4byte	.LVL4-1
 1472 0021 0100     		.2byte	0x1
 1473 0023 50       		.byte	0x50
 1474 0024 1B000000 		.4byte	.LVL4-1
 1475 0028 24000000 		.4byte	.LFE113
 1476 002c 0400     		.2byte	0x4
 1477 002e F3       		.byte	0xf3
 1478 002f 01       		.uleb128 0x1
 1479 0030 50       		.byte	0x50
 1480 0031 9F       		.byte	0x9f
 1481 0032 00000000 		.4byte	0
ARM GAS  /tmp/ccQfcfz2.s 			page 27


 1482 0036 00000000 		.4byte	0
 1483              	.LLST1:
 1484 003a 00000000 		.4byte	.LVL5
 1485 003e 08000000 		.4byte	.LVL6
 1486 0042 0100     		.2byte	0x1
 1487 0044 50       		.byte	0x50
 1488 0045 08000000 		.4byte	.LVL6
 1489 0049 4A000000 		.4byte	.LVL8
 1490 004d 0400     		.2byte	0x4
 1491 004f F3       		.byte	0xf3
 1492 0050 01       		.uleb128 0x1
 1493 0051 50       		.byte	0x50
 1494 0052 9F       		.byte	0x9f
 1495 0053 4A000000 		.4byte	.LVL8
 1496 0057 50000000 		.4byte	.LVL9
 1497 005b 0100     		.2byte	0x1
 1498 005d 50       		.byte	0x50
 1499 005e 50000000 		.4byte	.LVL9
 1500 0062 A4000000 		.4byte	.LFE114
 1501 0066 0400     		.2byte	0x4
 1502 0068 F3       		.byte	0xf3
 1503 0069 01       		.uleb128 0x1
 1504 006a 50       		.byte	0x50
 1505 006b 9F       		.byte	0x9f
 1506 006c 00000000 		.4byte	0
 1507 0070 00000000 		.4byte	0
 1508              	.LLST2:
 1509 0074 00000000 		.4byte	.LVL5
 1510 0078 2A000000 		.4byte	.LVL7
 1511 007c 0100     		.2byte	0x1
 1512 007e 51       		.byte	0x51
 1513 007f 2A000000 		.4byte	.LVL7
 1514 0083 4A000000 		.4byte	.LVL8
 1515 0087 0400     		.2byte	0x4
 1516 0089 F3       		.byte	0xf3
 1517 008a 01       		.uleb128 0x1
 1518 008b 51       		.byte	0x51
 1519 008c 9F       		.byte	0x9f
 1520 008d 4A000000 		.4byte	.LVL8
 1521 0091 8C000000 		.4byte	.LVL13
 1522 0095 0100     		.2byte	0x1
 1523 0097 51       		.byte	0x51
 1524 0098 8C000000 		.4byte	.LVL13
 1525 009c A4000000 		.4byte	.LFE114
 1526 00a0 0400     		.2byte	0x4
 1527 00a2 F3       		.byte	0xf3
 1528 00a3 01       		.uleb128 0x1
 1529 00a4 51       		.byte	0x51
 1530 00a5 9F       		.byte	0x9f
 1531 00a6 00000000 		.4byte	0
 1532 00aa 00000000 		.4byte	0
 1533              	.LLST3:
 1534 00ae 4A000000 		.4byte	.LVL8
 1535 00b2 7C000000 		.4byte	.LVL12
 1536 00b6 0500     		.2byte	0x5
 1537 00b8 71       		.byte	0x71
 1538 00b9 00       		.sleb128 0
ARM GAS  /tmp/ccQfcfz2.s 			page 28


 1539 00ba 32       		.byte	0x32
 1540 00bb 25       		.byte	0x25
 1541 00bc 9F       		.byte	0x9f
 1542 00bd 00000000 		.4byte	0
 1543 00c1 00000000 		.4byte	0
 1544              	.LLST4:
 1545 00c5 64000000 		.4byte	.LVL10
 1546 00c9 74000000 		.4byte	.LVL11
 1547 00cd 0600     		.2byte	0x6
 1548 00cf 3F       		.byte	0x3f
 1549 00d0 74       		.byte	0x74
 1550 00d1 00       		.sleb128 0
 1551 00d2 24       		.byte	0x24
 1552 00d3 20       		.byte	0x20
 1553 00d4 9F       		.byte	0x9f
 1554 00d5 74000000 		.4byte	.LVL11
 1555 00d9 7C000000 		.4byte	.LVL12
 1556 00dd 0A00     		.2byte	0xa
 1557 00df 3F       		.byte	0x3f
 1558 00e0 71       		.byte	0x71
 1559 00e1 00       		.sleb128 0
 1560 00e2 33       		.byte	0x33
 1561 00e3 1A       		.byte	0x1a
 1562 00e4 32       		.byte	0x32
 1563 00e5 24       		.byte	0x24
 1564 00e6 24       		.byte	0x24
 1565 00e7 20       		.byte	0x20
 1566 00e8 9F       		.byte	0x9f
 1567 00e9 00000000 		.4byte	0
 1568 00ed 00000000 		.4byte	0
 1569              	.LLST5:
 1570 00f1 64000000 		.4byte	.LVL10
 1571 00f5 74000000 		.4byte	.LVL11
 1572 00f9 0A00     		.2byte	0xa
 1573 00fb 72       		.byte	0x72
 1574 00fc 00       		.sleb128 0
 1575 00fd 34       		.byte	0x34
 1576 00fe 25       		.byte	0x25
 1577 00ff 3F       		.byte	0x3f
 1578 0100 1A       		.byte	0x1a
 1579 0101 74       		.byte	0x74
 1580 0102 00       		.sleb128 0
 1581 0103 24       		.byte	0x24
 1582 0104 9F       		.byte	0x9f
 1583 0105 74000000 		.4byte	.LVL11
 1584 0109 7C000000 		.4byte	.LVL12
 1585 010d 0E00     		.2byte	0xe
 1586 010f 72       		.byte	0x72
 1587 0110 00       		.sleb128 0
 1588 0111 34       		.byte	0x34
 1589 0112 25       		.byte	0x25
 1590 0113 3F       		.byte	0x3f
 1591 0114 1A       		.byte	0x1a
 1592 0115 71       		.byte	0x71
 1593 0116 00       		.sleb128 0
 1594 0117 33       		.byte	0x33
 1595 0118 1A       		.byte	0x1a
ARM GAS  /tmp/ccQfcfz2.s 			page 29


 1596 0119 32       		.byte	0x32
 1597 011a 24       		.byte	0x24
 1598 011b 24       		.byte	0x24
 1599 011c 9F       		.byte	0x9f
 1600 011d 00000000 		.4byte	0
 1601 0121 00000000 		.4byte	0
 1602              	.LLST6:
 1603 0125 00000000 		.4byte	.LVL14
 1604 0129 0A000000 		.4byte	.LVL15
 1605 012d 0100     		.2byte	0x1
 1606 012f 50       		.byte	0x50
 1607 0130 0A000000 		.4byte	.LVL15
 1608 0134 54000000 		.4byte	.LVL22
 1609 0138 0100     		.2byte	0x1
 1610 013a 56       		.byte	0x56
 1611 013b 54000000 		.4byte	.LVL22
 1612 013f 57000000 		.4byte	.LVL23-1
 1613 0143 0100     		.2byte	0x1
 1614 0145 50       		.byte	0x50
 1615 0146 57000000 		.4byte	.LVL23-1
 1616 014a 60000000 		.4byte	.LFE112
 1617 014e 0100     		.2byte	0x1
 1618 0150 56       		.byte	0x56
 1619 0151 00000000 		.4byte	0
 1620 0155 00000000 		.4byte	0
 1621              	.LLST7:
 1622 0159 0A000000 		.4byte	.LVL15
 1623 015d 12000000 		.4byte	.LVL16
 1624 0161 0200     		.2byte	0x2
 1625 0163 30       		.byte	0x30
 1626 0164 9F       		.byte	0x9f
 1627 0165 12000000 		.4byte	.LVL16
 1628 0169 4A000000 		.4byte	.LVL19
 1629 016d 0100     		.2byte	0x1
 1630 016f 55       		.byte	0x55
 1631 0170 4A000000 		.4byte	.LVL19
 1632 0174 4D000000 		.4byte	.LVL20-1
 1633 0178 0100     		.2byte	0x1
 1634 017a 51       		.byte	0x51
 1635 017b 4D000000 		.4byte	.LVL20-1
 1636 017f 4E000000 		.4byte	.LVL20
 1637 0183 0300     		.2byte	0x3
 1638 0185 75       		.byte	0x75
 1639 0186 7F       		.sleb128 -1
 1640 0187 9F       		.byte	0x9f
 1641 0188 4E000000 		.4byte	.LVL20
 1642 018c 54000000 		.4byte	.LVL22
 1643 0190 0100     		.2byte	0x1
 1644 0192 55       		.byte	0x55
 1645 0193 00000000 		.4byte	0
 1646 0197 00000000 		.4byte	0
 1647              	.LLST8:
 1648 019b 12000000 		.4byte	.LVL16
 1649 019f 28000000 		.4byte	.LVL17
 1650 01a3 0100     		.2byte	0x1
 1651 01a5 55       		.byte	0x55
 1652 01a6 28000000 		.4byte	.LVL17
ARM GAS  /tmp/ccQfcfz2.s 			page 30


 1653 01aa 32000000 		.4byte	.LVL18
 1654 01ae 0300     		.2byte	0x3
 1655 01b0 75       		.byte	0x75
 1656 01b1 7F       		.sleb128 -1
 1657 01b2 9F       		.byte	0x9f
 1658 01b3 32000000 		.4byte	.LVL18
 1659 01b7 4A000000 		.4byte	.LVL19
 1660 01bb 0100     		.2byte	0x1
 1661 01bd 55       		.byte	0x55
 1662 01be 4A000000 		.4byte	.LVL19
 1663 01c2 4D000000 		.4byte	.LVL20-1
 1664 01c6 0100     		.2byte	0x1
 1665 01c8 51       		.byte	0x51
 1666 01c9 4D000000 		.4byte	.LVL20-1
 1667 01cd 52000000 		.4byte	.LVL21
 1668 01d1 0300     		.2byte	0x3
 1669 01d3 75       		.byte	0x75
 1670 01d4 7F       		.sleb128 -1
 1671 01d5 9F       		.byte	0x9f
 1672 01d6 00000000 		.4byte	0
 1673 01da 00000000 		.4byte	0
 1674              	.LLST9:
 1675 01de 00000000 		.4byte	.LVL24
 1676 01e2 06000000 		.4byte	.LVL25
 1677 01e6 0100     		.2byte	0x1
 1678 01e8 50       		.byte	0x50
 1679 01e9 06000000 		.4byte	.LVL25
 1680 01ed 2C000000 		.4byte	.LFE115
 1681 01f1 0400     		.2byte	0x4
 1682 01f3 F3       		.byte	0xf3
 1683 01f4 01       		.uleb128 0x1
 1684 01f5 50       		.byte	0x50
 1685 01f6 9F       		.byte	0x9f
 1686 01f7 00000000 		.4byte	0
 1687 01fb 00000000 		.4byte	0
 1688              	.LLST10:
 1689 01ff 00000000 		.4byte	.LVL24
 1690 0203 0A000000 		.4byte	.LVL26
 1691 0207 0100     		.2byte	0x1
 1692 0209 51       		.byte	0x51
 1693 020a 0A000000 		.4byte	.LVL26
 1694 020e 2C000000 		.4byte	.LFE115
 1695 0212 0400     		.2byte	0x4
 1696 0214 F3       		.byte	0xf3
 1697 0215 01       		.uleb128 0x1
 1698 0216 51       		.byte	0x51
 1699 0217 9F       		.byte	0x9f
 1700 0218 00000000 		.4byte	0
 1701 021c 00000000 		.4byte	0
 1702              		.section	.debug_aranges,"",%progbits
 1703 0000 3C000000 		.4byte	0x3c
 1704 0004 0200     		.2byte	0x2
 1705 0006 00000000 		.4byte	.Ldebug_info0
 1706 000a 04       		.byte	0x4
 1707 000b 00       		.byte	0
 1708 000c 0000     		.2byte	0
 1709 000e 0000     		.2byte	0
ARM GAS  /tmp/ccQfcfz2.s 			page 31


 1710 0010 00000000 		.4byte	.LFB111
 1711 0014 0C000000 		.4byte	.LFE111-.LFB111
 1712 0018 00000000 		.4byte	.LFB113
 1713 001c 24000000 		.4byte	.LFE113-.LFB113
 1714 0020 00000000 		.4byte	.LFB114
 1715 0024 A4000000 		.4byte	.LFE114-.LFB114
 1716 0028 00000000 		.4byte	.LFB112
 1717 002c 60000000 		.4byte	.LFE112-.LFB112
 1718 0030 00000000 		.4byte	.LFB115
 1719 0034 2C000000 		.4byte	.LFE115-.LFB115
 1720 0038 00000000 		.4byte	0
 1721 003c 00000000 		.4byte	0
 1722              		.section	.debug_ranges,"",%progbits
 1723              	.Ldebug_ranges0:
 1724 0000 0A000000 		.4byte	.LBB5
 1725 0004 0C000000 		.4byte	.LBE5
 1726 0008 0E000000 		.4byte	.LBB12
 1727 000c 26000000 		.4byte	.LBE12
 1728 0010 28000000 		.4byte	.LBB13
 1729 0014 2A000000 		.4byte	.LBE13
 1730 0018 2C000000 		.4byte	.LBB14
 1731 001c 30000000 		.4byte	.LBE14
 1732 0020 38000000 		.4byte	.LBB15
 1733 0024 3C000000 		.4byte	.LBE15
 1734 0028 3E000000 		.4byte	.LBB16
 1735 002c 42000000 		.4byte	.LBE16
 1736 0030 00000000 		.4byte	0
 1737 0034 00000000 		.4byte	0
 1738 0038 00000000 		.4byte	.LFB111
 1739 003c 0C000000 		.4byte	.LFE111
 1740 0040 00000000 		.4byte	.LFB113
 1741 0044 24000000 		.4byte	.LFE113
 1742 0048 00000000 		.4byte	.LFB114
 1743 004c A4000000 		.4byte	.LFE114
 1744 0050 00000000 		.4byte	.LFB112
 1745 0054 60000000 		.4byte	.LFE112
 1746 0058 00000000 		.4byte	.LFB115
 1747 005c 2C000000 		.4byte	.LFE115
 1748 0060 00000000 		.4byte	0
 1749 0064 00000000 		.4byte	0
 1750              		.section	.debug_line,"",%progbits
 1751              	.Ldebug_line0:
 1752 0000 01030000 		.section	.debug_str,"MS",%progbits,1
 1752      02002702 
 1752      00000201 
 1752      FB0E0D00 
 1752      01010101 
 1753              	.LASF38:
 1754 0000 45585443 		.ascii	"EXTConfig\000"
 1754      6F6E6669 
 1754      6700
 1755              	.LASF25:
 1756 000a 53595343 		.ascii	"SYSCFG_TypeDef\000"
 1756      46475F54 
 1756      79706544 
 1756      656600
 1757              	.LASF55:
ARM GAS  /tmp/ccQfcfz2.s 			page 32


 1758 0019 6578745F 		.ascii	"ext_lld_channel_disable\000"
 1758      6C6C645F 
 1758      6368616E 
 1758      6E656C5F 
 1758      64697361 
 1759              	.LASF27:
 1760 0031 4558545F 		.ascii	"EXT_STOP\000"
 1760      53544F50 
 1760      00
 1761              	.LASF31:
 1762 003a 73746174 		.ascii	"state\000"
 1762      6500
 1763              	.LASF5:
 1764 0040 73686F72 		.ascii	"short int\000"
 1764      7420696E 
 1764      7400
 1765              	.LASF52:
 1766 004a 474E5520 		.ascii	"GNU C11 5.2.1 20151202 (release) [ARM/embedded-5-br"
 1766      43313120 
 1766      352E322E 
 1766      31203230 
 1766      31353132 
 1767 007d 616E6368 		.ascii	"anch revision 231848] -mcpu=cortex-m4 -mno-thumb-in"
 1767      20726576 
 1767      6973696F 
 1767      6E203233 
 1767      31383438 
 1768 00b0 74657277 		.ascii	"terwork -mthumb -ggdb -O2 -fomit-frame-pointer -fal"
 1768      6F726B20 
 1768      2D6D7468 
 1768      756D6220 
 1768      2D676764 
 1769 00e3 69676E2D 		.ascii	"ign-functions=16 -ffunction-sections -fdata-section"
 1769      66756E63 
 1769      74696F6E 
 1769      733D3136 
 1769      202D6666 
 1770 0116 73202D66 		.ascii	"s -fno-common\000"
 1770      6E6F2D63 
 1770      6F6D6D6F 
 1770      6E00
 1771              	.LASF15:
 1772 0124 73697A65 		.ascii	"sizetype\000"
 1772      74797065 
 1772      00
 1773              	.LASF28:
 1774 012d 4558545F 		.ascii	"EXT_ACTIVE\000"
 1774      41435449 
 1774      564500
 1775              	.LASF1:
 1776 0138 6C6F6E67 		.ascii	"long long int\000"
 1776      206C6F6E 
 1776      6720696E 
 1776      7400
 1777              	.LASF9:
 1778 0146 5F5F7569 		.ascii	"__uint32_t\000"
 1778      6E743332 
ARM GAS  /tmp/ccQfcfz2.s 			page 33


 1778      5F7400
 1779              	.LASF35:
 1780 0151 6D6F6465 		.ascii	"mode\000"
 1780      00
 1781              	.LASF50:
 1782 0156 6578745F 		.ascii	"ext_lld_exti_irq_disable\000"
 1782      6C6C645F 
 1782      65787469 
 1782      5F697271 
 1782      5F646973 
 1783              	.LASF32:
 1784 016f 636F6E66 		.ascii	"config\000"
 1784      696700
 1785              	.LASF22:
 1786 0176 45585449 		.ascii	"EXTICR\000"
 1786      435200
 1787              	.LASF21:
 1788 017d 4D454D52 		.ascii	"MEMRMP\000"
 1788      4D5000
 1789              	.LASF54:
 1790 0184 2F686F6D 		.ascii	"/home/z80/projects/stm32f238.git/firmware/testhal/S"
 1790      652F7A38 
 1790      302F7072 
 1790      6F6A6563 
 1790      74732F73 
 1791 01b7 544D3332 		.ascii	"TM32F4xx/_serial\000"
 1791      46347878 
 1791      2F5F7365 
 1791      7269616C 
 1791      00
 1792              	.LASF20:
 1793 01c8 45585449 		.ascii	"EXTI_TypeDef\000"
 1793      5F547970 
 1793      65446566 
 1793      00
 1794              	.LASF7:
 1795 01d5 6C6F6E67 		.ascii	"long int\000"
 1795      20696E74 
 1795      00
 1796              	.LASF39:
 1797 01de 65787470 		.ascii	"extp\000"
 1797      00
 1798              	.LASF34:
 1799 01e3 65787463 		.ascii	"extcallback_t\000"
 1799      616C6C62 
 1799      61636B5F 
 1799      7400
 1800              	.LASF24:
 1801 01f1 434D5043 		.ascii	"CMPCR\000"
 1801      5200
 1802              	.LASF42:
 1803 01f7 6578745F 		.ascii	"ext_lld_stop\000"
 1803      6C6C645F 
 1803      73746F70 
 1803      00
 1804              	.LASF2:
 1805 0204 6C6F6E67 		.ascii	"long double\000"
ARM GAS  /tmp/ccQfcfz2.s 			page 34


 1805      20646F75 
 1805      626C6500 
 1806              	.LASF43:
 1807 0210 6578745F 		.ascii	"ext_lld_channel_enable\000"
 1807      6C6C645F 
 1807      6368616E 
 1807      6E656C5F 
 1807      656E6162 
 1808              	.LASF4:
 1809 0227 756E7369 		.ascii	"unsigned char\000"
 1809      676E6564 
 1809      20636861 
 1809      7200
 1810              	.LASF53:
 1811 0235 2E2E2F2E 		.ascii	"../../../os/hal/platforms/STM32/ext_lld.c\000"
 1811      2E2F2E2E 
 1811      2F6F732F 
 1811      68616C2F 
 1811      706C6174 
 1812              	.LASF26:
 1813 025f 4558545F 		.ascii	"EXT_UNINIT\000"
 1813      554E494E 
 1813      495400
 1814              	.LASF3:
 1815 026a 7369676E 		.ascii	"signed char\000"
 1815      65642063 
 1815      68617200 
 1816              	.LASF11:
 1817 0276 6C6F6E67 		.ascii	"long long unsigned int\000"
 1817      206C6F6E 
 1817      6720756E 
 1817      7369676E 
 1817      65642069 
 1818              	.LASF13:
 1819 028d 75696E74 		.ascii	"uint32_t\000"
 1819      33325F74 
 1819      00
 1820              	.LASF0:
 1821 0296 756E7369 		.ascii	"unsigned int\000"
 1821      676E6564 
 1821      20696E74 
 1821      00
 1822              	.LASF18:
 1823 02a3 46545352 		.ascii	"FTSR\000"
 1823      00
 1824              	.LASF6:
 1825 02a8 73686F72 		.ascii	"short unsigned int\000"
 1825      7420756E 
 1825      7369676E 
 1825      65642069 
 1825      6E7400
 1826              	.LASF36:
 1827 02bb 45585443 		.ascii	"EXTChannelConfig\000"
 1827      68616E6E 
 1827      656C436F 
 1827      6E666967 
 1827      00
ARM GAS  /tmp/ccQfcfz2.s 			page 35


 1828              	.LASF16:
 1829 02cc 63686172 		.ascii	"char\000"
 1829      00
 1830              	.LASF49:
 1831 02d1 6578744F 		.ascii	"extObjectInit\000"
 1831      626A6563 
 1831      74496E69 
 1831      7400
 1832              	.LASF12:
 1833 02df 696E7433 		.ascii	"int32_t\000"
 1833      325F7400 
 1834              	.LASF51:
 1835 02e7 6578745F 		.ascii	"ext_lld_exti_irq_enable\000"
 1835      6C6C645F 
 1835      65787469 
 1835      5F697271 
 1835      5F656E61 
 1836              	.LASF48:
 1837 02ff 45585444 		.ascii	"EXTD1\000"
 1837      3100
 1838              	.LASF17:
 1839 0305 52545352 		.ascii	"RTSR\000"
 1839      00
 1840              	.LASF14:
 1841 030a 5F426F6F 		.ascii	"_Bool\000"
 1841      6C00
 1842              	.LASF40:
 1843 0310 6368616E 		.ascii	"channel\000"
 1843      6E656C00 
 1844              	.LASF37:
 1845 0318 6368616E 		.ascii	"channels\000"
 1845      6E656C73 
 1845      00
 1846              	.LASF45:
 1847 0321 706F7274 		.ascii	"port\000"
 1847      00
 1848              	.LASF10:
 1849 0326 6C6F6E67 		.ascii	"long unsigned int\000"
 1849      20756E73 
 1849      69676E65 
 1849      6420696E 
 1849      7400
 1850              	.LASF29:
 1851 0338 65787473 		.ascii	"extstate_t\000"
 1851      74617465 
 1851      5F7400
 1852              	.LASF46:
 1853 0343 6578745F 		.ascii	"ext_lld_start\000"
 1853      6C6C645F 
 1853      73746172 
 1853      7400
 1854              	.LASF44:
 1855 0351 6D61736B 		.ascii	"mask\000"
 1855      00
 1856              	.LASF8:
 1857 0356 5F5F696E 		.ascii	"__int32_t\000"
 1857      7433325F 
ARM GAS  /tmp/ccQfcfz2.s 			page 36


 1857      7400
 1858              	.LASF33:
 1859 0360 65787063 		.ascii	"expchannel_t\000"
 1859      68616E6E 
 1859      656C5F74 
 1859      00
 1860              	.LASF30:
 1861 036d 45585444 		.ascii	"EXTDriver\000"
 1861      72697665 
 1861      7200
 1862              	.LASF23:
 1863 0377 52455345 		.ascii	"RESERVED\000"
 1863      52564544 
 1863      00
 1864              	.LASF47:
 1865 0380 49544D5F 		.ascii	"ITM_RxBuffer\000"
 1865      52784275 
 1865      66666572 
 1865      00
 1866              	.LASF41:
 1867 038d 6578745F 		.ascii	"ext_lld_init\000"
 1867      6C6C645F 
 1867      696E6974 
 1867      00
 1868              	.LASF19:
 1869 039a 53574945 		.ascii	"SWIER\000"
 1869      5200
 1870              		.ident	"GCC: (GNU Tools for ARM Embedded Processors) 5.2.1 20151202 (release) [ARM/embedded-5-bran
ARM GAS  /tmp/ccQfcfz2.s 			page 37


DEFINED SYMBOLS
                            *ABS*:00000000 ext_lld.c
     /tmp/ccQfcfz2.s:20     .text.ext_lld_init:00000000 $t
     /tmp/ccQfcfz2.s:26     .text.ext_lld_init:00000000 ext_lld_init
     /tmp/ccQfcfz2.s:41     .text.ext_lld_init:00000008 $d
     /tmp/ccQfcfz2.s:46     .text.ext_lld_stop:00000000 $t
     /tmp/ccQfcfz2.s:52     .text.ext_lld_stop:00000000 ext_lld_stop
     /tmp/ccQfcfz2.s:90     .text.ext_lld_stop:00000020 $d
     /tmp/ccQfcfz2.s:95     .text.ext_lld_channel_enable:00000000 $t
     /tmp/ccQfcfz2.s:101    .text.ext_lld_channel_enable:00000000 ext_lld_channel_enable
     /tmp/ccQfcfz2.s:235    .text.ext_lld_channel_enable:000000a0 $d
     /tmp/ccQfcfz2.s:240    .text.ext_lld_start:00000000 $t
     /tmp/ccQfcfz2.s:246    .text.ext_lld_start:00000000 ext_lld_start
     /tmp/ccQfcfz2.s:368    .text.ext_lld_start:0000005c $d
     /tmp/ccQfcfz2.s:373    .text.ext_lld_channel_disable:00000000 $t
     /tmp/ccQfcfz2.s:379    .text.ext_lld_channel_disable:00000000 ext_lld_channel_disable
     /tmp/ccQfcfz2.s:415    .text.ext_lld_channel_disable:00000028 $d
     /tmp/ccQfcfz2.s:425    .bss.EXTD1:00000000 EXTD1
     /tmp/ccQfcfz2.s:421    .bss.EXTD1:00000000 $d
                     .debug_frame:00000010 $d

UNDEFINED SYMBOLS
extObjectInit
ext_lld_exti_irq_disable
ext_lld_exti_irq_enable
