ARM GAS  /tmp/ccD7ZzH1.s 			page 1


   1              		.syntax unified
   2              		.cpu cortex-m4
   3              		.fpu softvfp
   4              		.eabi_attribute 20, 1
   5              		.eabi_attribute 21, 1
   6              		.eabi_attribute 23, 3
   7              		.eabi_attribute 24, 1
   8              		.eabi_attribute 25, 1
   9              		.eabi_attribute 26, 1
  10              		.eabi_attribute 30, 2
  11              		.eabi_attribute 34, 1
  12              		.eabi_attribute 18, 4
  13              		.thumb
  14              		.syntax unified
  15              		.file	"hal.c"
  16              		.text
  17              	.Ltext0:
  18              		.cfi_sections	.debug_frame
  19              		.section	.text.halInit,"ax",%progbits
  20              		.align	2
  21              		.p2align 4,,15
  22              		.global	halInit
  23              		.thumb
  24              		.thumb_func
  25              		.type	halInit, %function
  26              	halInit:
  27              	.LFB111:
  28              		.file 1 "../../../os/hal/src/hal.c"
  29              		.loc 1 68 0
  30              		.cfi_startproc
  31              		@ args = 0, pretend = 0, frame = 0
  32              		@ frame_needed = 0, uses_anonymous_args = 0
  33 0000 08B5     		push	{r3, lr}
  34              		.cfi_def_cfa_offset 8
  35              		.cfi_offset 3, -8
  36              		.cfi_offset 14, -4
  37              		.loc 1 70 0
  38 0002 FFF7FEFF 		bl	hal_lld_init
  39              	.LVL0:
  40              		.loc 1 73 0
  41 0006 FFF7FEFF 		bl	tmInit
  42              	.LVL1:
  43              		.loc 1 76 0
  44 000a 0648     		ldr	r0, .L3
  45 000c FFF7FEFF 		bl	_pal_lld_init
  46              	.LVL2:
  47              		.loc 1 85 0
  48 0010 FFF7FEFF 		bl	extInit
  49              	.LVL3:
  50              		.loc 1 91 0
  51 0014 FFF7FEFF 		bl	i2cInit
  52              	.LVL4:
  53              		.loc 1 103 0
  54 0018 FFF7FEFF 		bl	sdInit
  55              	.LVL5:
  56              		.loc 1 128 0
  57 001c BDE80840 		pop	{r3, lr}
ARM GAS  /tmp/ccD7ZzH1.s 			page 2


  58              		.cfi_restore 14
  59              		.cfi_restore 3
  60              		.cfi_def_cfa_offset 0
  61              		.loc 1 127 0
  62 0020 FFF7FEBF 		b	boardInit
  63              	.LVL6:
  64              	.L4:
  65              		.align	2
  66              	.L3:
  67 0024 00000000 		.word	pal_default_config
  68              		.cfi_endproc
  69              	.LFE111:
  70              		.size	halInit, .-halInit
  71              		.section	.text.halIsCounterWithin,"ax",%progbits
  72              		.align	2
  73              		.p2align 4,,15
  74              		.global	halIsCounterWithin
  75              		.thumb
  76              		.thumb_func
  77              		.type	halIsCounterWithin, %function
  78              	halIsCounterWithin:
  79              	.LFB112:
  80              		.loc 1 174 0
  81              		.cfi_startproc
  82              		@ args = 0, pretend = 0, frame = 0
  83              		@ frame_needed = 0, uses_anonymous_args = 0
  84              		@ link register save eliminated.
  85              	.LVL7:
  86              		.loc 1 175 0
  87 0000 084B     		ldr	r3, .L15
  88              		.loc 1 177 0
  89 0002 8142     		cmp	r1, r0
  90              		.loc 1 175 0
  91 0004 5B68     		ldr	r3, [r3, #4]
  92              	.LVL8:
  93              		.loc 1 177 0
  94 0006 06D9     		bls	.L6
  95              		.loc 1 177 0 is_stmt 0 discriminator 1
  96 0008 8342     		cmp	r3, r0
  97 000a 08D3     		bcc	.L14
  98              	.L12:
  99 000c 8B42     		cmp	r3, r1
 100 000e 2CBF     		ite	cs
 101 0010 0020     		movcs	r0, #0
 102              	.LVL9:
 103 0012 0120     		movcc	r0, #1
 104 0014 7047     		bx	lr
 105              	.LVL10:
 106              	.L6:
 107              		.loc 1 178 0 is_stmt 1
 108 0016 8342     		cmp	r3, r0
 109 0018 F8D3     		bcc	.L12
 110 001a 0120     		movs	r0, #1
 111              	.LVL11:
 112              		.loc 1 179 0
 113 001c 7047     		bx	lr
 114              	.LVL12:
ARM GAS  /tmp/ccD7ZzH1.s 			page 3


 115              	.L14:
 116 001e 0020     		movs	r0, #0
 117              	.LVL13:
 118 0020 7047     		bx	lr
 119              	.L16:
 120 0022 00BF     		.align	2
 121              	.L15:
 122 0024 001000E0 		.word	-536866816
 123              		.cfi_endproc
 124              	.LFE112:
 125              		.size	halIsCounterWithin, .-halIsCounterWithin
 126              		.section	.text.halPolledDelay,"ax",%progbits
 127              		.align	2
 128              		.p2align 4,,15
 129              		.global	halPolledDelay
 130              		.thumb
 131              		.thumb_func
 132              		.type	halPolledDelay, %function
 133              	halPolledDelay:
 134              	.LFB113:
 135              		.loc 1 193 0
 136              		.cfi_startproc
 137              		@ args = 0, pretend = 0, frame = 0
 138              		@ frame_needed = 0, uses_anonymous_args = 0
 139              		@ link register save eliminated.
 140              	.LVL14:
 141              		.loc 1 194 0
 142 0000 0849     		ldr	r1, .L23
 143 0002 4A68     		ldr	r2, [r1, #4]
 144              	.LVL15:
 145              		.loc 1 195 0
 146 0004 1044     		add	r0, r0, r2
 147              	.LVL16:
 148              	.L21:
 149              	.LBB4:
 150              	.LBB5:
 151              		.loc 1 177 0 discriminator 1
 152 0006 8242     		cmp	r2, r0
 153              		.loc 1 175 0 discriminator 1
 154 0008 4B68     		ldr	r3, [r1, #4]
 155              	.LVL17:
 156              		.loc 1 177 0 discriminator 1
 157 000a 02D2     		bcs	.L18
 158              		.loc 1 177 0 is_stmt 0
 159 000c 9A42     		cmp	r2, r3
 160 000e 05D9     		bls	.L22
 161              	.LVL18:
 162              	.L17:
 163 0010 7047     		bx	lr
 164              	.LVL19:
 165              	.L18:
 166              		.loc 1 178 0 is_stmt 1
 167 0012 9A42     		cmp	r2, r3
 168 0014 F7D9     		bls	.L21
 169              	.LBE5:
 170              	.LBE4:
 171              		.loc 1 196 0
ARM GAS  /tmp/ccD7ZzH1.s 			page 4


 172 0016 9842     		cmp	r0, r3
 173 0018 F5D8     		bhi	.L21
 174 001a F9E7     		b	.L17
 175              	.LVL20:
 176              	.L22:
 177              	.LBB7:
 178              	.LBB6:
 179              		.loc 1 177 0
 180 001c 9842     		cmp	r0, r3
 181 001e F2D8     		bhi	.L21
 182 0020 7047     		bx	lr
 183              	.L24:
 184 0022 00BF     		.align	2
 185              	.L23:
 186 0024 001000E0 		.word	-536866816
 187              	.LBE6:
 188              	.LBE7:
 189              		.cfi_endproc
 190              	.LFE113:
 191              		.size	halPolledDelay, .-halPolledDelay
 192              		.text
 193              	.Letext0:
 194              		.file 2 "/home/z80/programs/sw4stm32/plugins/fr.ac6.mcu.externaltools.arm-none.linux32_1.7.0.20160
 195              		.file 3 "/home/z80/programs/sw4stm32/plugins/fr.ac6.mcu.externaltools.arm-none.linux32_1.7.0.20160
 196              		.file 4 "../../../os/ports/GCC/ARMCMx/chtypes.h"
 197              		.file 5 "../../../os/ports/common/ARMCMx/nvic.h"
 198              		.file 6 "../../../os/hal/platforms/STM32F4xx/hal_lld.h"
 199              		.file 7 "../../../os/hal/platforms/STM32/GPIOv2/pal_lld.h"
 200              		.file 8 "../../../os/ports/common/ARMCMx/CMSIS/include/core_cm4.h"
 201              		.file 9 "../../../os/hal/include/tm.h"
 202              		.file 10 "../../../os/hal/include/ext.h"
 203              		.file 11 "../../../os/hal/include/i2c.h"
 204              		.file 12 "../../../os/hal/include/serial.h"
 205              		.file 13 "../../../boards/NONSTANDARD_STM32F4_BARTHESS1/board.h"