ARM GAS  /tmp/cciY9x2v.s 			page 1


   1              		.syntax unified
   2              		.cpu cortex-m4
   3              		.fpu softvfp
   4              		.eabi_attribute 20, 1
   5              		.eabi_attribute 21, 1
   6              		.eabi_attribute 23, 3
   7              		.eabi_attribute 24, 1
   8              		.eabi_attribute 25, 1
   9              		.eabi_attribute 26, 1
  10              		.eabi_attribute 30, 2
  11              		.eabi_attribute 34, 1
  12              		.eabi_attribute 18, 4
  13              		.thumb
  14              		.syntax unified
  15              		.file	"hal_lld.c"
  16              		.text
  17              	.Ltext0:
  18              		.cfi_sections	.debug_frame
  19              		.section	.text.hal_lld_init,"ax",%progbits
  20              		.align	2
  21              		.p2align 4,,15
  22              		.global	hal_lld_init
  23              		.thumb
  24              		.thumb_func
  25              		.type	hal_lld_init, %function
  26              	hal_lld_init:
  27              	.LFB112:
  28              		.file 1 "../../../os/hal/platforms/STM32F4xx/hal_lld.c"
  29              		.loc 1 111 0
  30              		.cfi_startproc
  31              		@ args = 0, pretend = 0, frame = 0
  32              		@ frame_needed = 0, uses_anonymous_args = 0
  33              		.loc 1 115 0
  34 0000 1F4B     		ldr	r3, .L8
  35              		.loc 1 121 0
  36 0002 2049     		ldr	r1, .L8+4
  37              		.loc 1 115 0
  38 0004 1A69     		ldr	r2, [r3, #16]
  39 0006 4FF0FF30 		mov	r0, #-1
  40 000a 0022     		movs	r2, #0
  41              		.loc 1 111 0
  42 000c F0B5     		push	{r4, r5, r6, r7, lr}
  43              		.cfi_def_cfa_offset 20
  44              		.cfi_offset 4, -20
  45              		.cfi_offset 5, -16
  46              		.cfi_offset 6, -12
  47              		.cfi_offset 7, -8
  48              		.cfi_offset 14, -4
  49              		.loc 1 115 0
  50 000e 1861     		str	r0, [r3, #16]
  51 0010 1A61     		str	r2, [r3, #16]
  52              		.loc 1 116 0
  53 0012 5C69     		ldr	r4, [r3, #20]
  54 0014 5861     		str	r0, [r3, #20]
  55 0016 5A61     		str	r2, [r3, #20]
  56              		.loc 1 117 0
  57 0018 1C6A     		ldr	r4, [r3, #32]
ARM GAS  /tmp/cciY9x2v.s 			page 2


  58              		.loc 1 128 0
  59 001a 1B4E     		ldr	r6, .L8+8
  60              		.loc 1 121 0
  61 001c 1B4F     		ldr	r7, .L8+12
  62              		.loc 1 129 0
  63 001e 1C4D     		ldr	r5, .L8+16
  64              		.loc 1 117 0
  65 0020 64F08054 		orn	r4, r4, #268435456
  66 0024 1C62     		str	r4, [r3, #32]
  67 0026 1A62     		str	r2, [r3, #32]
  68              		.loc 1 123 0
  69 0028 0724     		movs	r4, #7
  70              		.loc 1 118 0
  71 002a D3F824E0 		ldr	lr, [r3, #36]
  72 002e 5862     		str	r0, [r3, #36]
  73 0030 5A62     		str	r2, [r3, #36]
  74              		.loc 1 121 0
  75 0032 4F60     		str	r7, [r1, #4]
  76              		.loc 1 122 0
  77 0034 8A60     		str	r2, [r1, #8]
  78              		.loc 1 123 0
  79 0036 0C60     		str	r4, [r1]
  80              		.loc 1 128 0
  81 0038 F168     		ldr	r1, [r6, #12]
  82              	.LBB4:
  83              	.LBB5:
  84              		.loc 1 54 0
  85 003a 1648     		ldr	r0, .L8+20
  86              	.LBE5:
  87              	.LBE4:
  88              		.loc 1 128 0
  89 003c 41F08071 		orr	r1, r1, #16777216
  90 0040 F160     		str	r1, [r6, #12]
  91              		.loc 1 129 0
  92 0042 2968     		ldr	r1, [r5]
  93 0044 41F00101 		orr	r1, r1, #1
  94 0048 2960     		str	r1, [r5]
  95              		.loc 1 132 0
  96 004a 196C     		ldr	r1, [r3, #64]
  97 004c 41F08051 		orr	r1, r1, #268435456
  98 0050 1964     		str	r1, [r3, #64]
  99              	.LBB7:
 100              	.LBB6:
 101              		.loc 1 54 0
 102 0052 0168     		ldr	r1, [r0]
 103 0054 41F48071 		orr	r1, r1, #256
 104 0058 0160     		str	r1, [r0]
 105              		.loc 1 57 0
 106 005a 196F     		ldr	r1, [r3, #112]
 107 005c 01F44071 		and	r1, r1, #768
 108 0060 B1F5007F 		cmp	r1, #512
 109 0064 03D0     		beq	.L2
 110              		.loc 1 59 0
 111 0066 4FF48031 		mov	r1, #65536
 112 006a 1967     		str	r1, [r3, #112]
 113              		.loc 1 60 0
 114 006c 1A67     		str	r2, [r3, #112]
ARM GAS  /tmp/cciY9x2v.s 			page 3


 115              	.L2:
 116              		.loc 1 94 0
 117 006e 094A     		ldr	r2, .L8+20
 118 0070 5368     		ldr	r3, [r2, #4]
 119 0072 23F40073 		bic	r3, r3, #512
 120 0076 5360     		str	r3, [r2, #4]
 121              	.LBE6:
 122              	.LBE7:
 123              		.loc 1 145 0
 124 0078 BDE8F040 		pop	{r4, r5, r6, r7, lr}
 125              		.cfi_restore 14
 126              		.cfi_restore 7
 127              		.cfi_restore 6
 128              		.cfi_restore 5
 129              		.cfi_restore 4
 130              		.cfi_def_cfa_offset 0
 131              		.loc 1 138 0
 132 007c FFF7FEBF 		b	dmaInit
 133              	.LVL0:
 134              	.L9:
 135              		.align	2
 136              	.L8:
 137 0080 00380240 		.word	1073887232
 138 0084 10E000E0 		.word	-536813552
 139 0088 F0ED00E0 		.word	-536810000
 140 008c 3F900200 		.word	167999
 141 0090 001000E0 		.word	-536866816
 142 0094 00700040 		.word	1073770496
 143              		.cfi_endproc
 144              	.LFE112:
 145              		.size	hal_lld_init, .-hal_lld_init
 146              		.section	.text.stm32_clock_init,"ax",%progbits
 147              		.align	2
 148              		.p2align 4,,15
 149              		.global	stm32_clock_init
 150              		.thumb
 151              		.thumb_func
 152              		.type	stm32_clock_init, %function
 153              	stm32_clock_init:
 154              	.LFB113:
 155              		.loc 1 154 0
 156              		.cfi_startproc
 157              		@ args = 0, pretend = 0, frame = 0
 158              		@ frame_needed = 0, uses_anonymous_args = 0
 159              		@ link register save eliminated.
 160              		.loc 1 158 0
 161 0000 2A4A     		ldr	r2, .L31
 162              		.loc 1 162 0
 163 0002 2B4B     		ldr	r3, .L31+4
 164              		.loc 1 158 0
 165 0004 4FF08050 		mov	r0, #268435456
 166              		.loc 1 162 0
 167 0008 4FF44041 		mov	r1, #49152
 168              		.loc 1 158 0
 169 000c 1064     		str	r0, [r2, #64]
 170              		.loc 1 162 0
 171 000e 1960     		str	r1, [r3]
ARM GAS  /tmp/cciY9x2v.s 			page 4


 172              		.loc 1 169 0
 173 0010 1368     		ldr	r3, [r2]
 174 0012 43F00103 		orr	r3, r3, #1
 175 0016 1360     		str	r3, [r2]
 176              	.L11:
 177              		.loc 1 170 0 discriminator 1
 178 0018 1368     		ldr	r3, [r2]
 179 001a 2449     		ldr	r1, .L31
 180 001c 9807     		lsls	r0, r3, #30
 181 001e FBD5     		bpl	.L11
 182              		.loc 1 172 0
 183 0020 0B68     		ldr	r3, [r1]
 184              		.loc 1 173 0
 185 0022 0022     		movs	r2, #0
 186              		.loc 1 172 0
 187 0024 03F0F903 		and	r3, r3, #249
 188 0028 0B60     		str	r3, [r1]
 189              		.loc 1 174 0
 190 002a 0846     		mov	r0, r1
 191              		.loc 1 173 0
 192 002c 8A60     		str	r2, [r1, #8]
 193              	.L12:
 194              		.loc 1 174 0 discriminator 1
 195 002e 8268     		ldr	r2, [r0, #8]
 196 0030 1E4B     		ldr	r3, .L31
 197 0032 12F00C0F 		tst	r2, #12
 198 0036 FAD1     		bne	.L12
 199              		.loc 1 184 0
 200 0038 1A68     		ldr	r2, [r3]
 201 003a 42F48032 		orr	r2, r2, #65536
 202 003e 1A60     		str	r2, [r3]
 203              		.loc 1 186 0
 204 0040 1A46     		mov	r2, r3
 205              	.L13:
 206              		.loc 1 186 0 is_stmt 0 discriminator 1
 207 0042 1168     		ldr	r1, [r2]
 208 0044 194B     		ldr	r3, .L31
 209 0046 8903     		lsls	r1, r1, #14
 210 0048 FBD5     		bpl	.L13
 211              		.loc 1 192 0 is_stmt 1
 212 004a 5A6F     		ldr	r2, [r3, #116]
 213 004c 42F00102 		orr	r2, r2, #1
 214 0050 5A67     		str	r2, [r3, #116]
 215              	.L14:
 216              		.loc 1 193 0 discriminator 1
 217 0052 5A6F     		ldr	r2, [r3, #116]
 218 0054 1549     		ldr	r1, .L31
 219 0056 9007     		lsls	r0, r2, #30
 220 0058 FBD5     		bpl	.L14
 221              		.loc 1 199 0
 222 005a 164B     		ldr	r3, .L31+8
 223 005c 4B60     		str	r3, [r1, #4]
 224              		.loc 1 201 0
 225 005e 0B68     		ldr	r3, [r1]
 226              		.loc 1 205 0
 227 0060 134A     		ldr	r2, .L31+4
 228              		.loc 1 201 0
ARM GAS  /tmp/cciY9x2v.s 			page 5


 229 0062 43F08073 		orr	r3, r3, #16777216
 230 0066 0B60     		str	r3, [r1]
 231              	.L15:
 232              		.loc 1 205 0 discriminator 1
 233 0068 5368     		ldr	r3, [r2, #4]
 234 006a 5904     		lsls	r1, r3, #17
 235 006c FCD5     		bpl	.L15
 236              		.loc 1 221 0 discriminator 1
 237 006e 0F49     		ldr	r1, .L31
 238              	.L25:
 239 0070 0A68     		ldr	r2, [r1]
 240 0072 0E4B     		ldr	r3, .L31
 241 0074 9201     		lsls	r2, r2, #6
 242 0076 FBD5     		bpl	.L25
 243              		.loc 1 249 0
 244 0078 0F4A     		ldr	r2, .L31+12
 245              		.loc 1 236 0
 246 007a 1049     		ldr	r1, .L31+16
 247 007c 9960     		str	r1, [r3, #8]
 248              		.loc 1 249 0
 249 007e 40F20571 		movw	r1, #1797
 250 0082 1160     		str	r1, [r2]
 251              		.loc 1 255 0
 252 0084 9A68     		ldr	r2, [r3, #8]
 253 0086 42F00202 		orr	r2, r2, #2
 254 008a 9A60     		str	r2, [r3, #8]
 255              		.loc 1 256 0
 256 008c 1A46     		mov	r2, r3
 257              	.L17:
 258              		.loc 1 256 0 is_stmt 0 discriminator 1
 259 008e 9368     		ldr	r3, [r2, #8]
 260 0090 0649     		ldr	r1, .L31
 261 0092 03F00C03 		and	r3, r3, #12
 262 0096 082B     		cmp	r3, #8
 263 0098 F9D1     		bne	.L17
 264              		.loc 1 263 0 is_stmt 1
 265 009a 4B6C     		ldr	r3, [r1, #68]
 266 009c 43F48043 		orr	r3, r3, #16384
 267 00a0 4B64     		str	r3, [r1, #68]
 268 00a2 4B6E     		ldr	r3, [r1, #100]
 269 00a4 43F48043 		orr	r3, r3, #16384
 270 00a8 4B66     		str	r3, [r1, #100]
 271 00aa 7047     		bx	lr
 272              	.L32:
 273              		.align	2
 274              	.L31:
 275 00ac 00380240 		.word	1073887232
 276 00b0 00700040 		.word	1073770496
 277 00b4 08544007 		.word	121656328
 278 00b8 003C0240 		.word	1073888256
 279 00bc 00940838 		.word	940086272
 280              		.cfi_endproc
 281              	.LFE113:
 282              		.size	stm32_clock_init, .-stm32_clock_init
 283              		.text
 284              	.Letext0:
 285              		.file 2 "/home/z80/programs/sw4stm32/plugins/fr.ac6.mcu.externaltools.arm-none.linux32_1.7.0.20160
ARM GAS  /tmp/cciY9x2v.s 			page 6


 286              		.file 3 "/home/z80/programs/sw4stm32/plugins/fr.ac6.mcu.externaltools.arm-none.linux32_1.7.0.20160
 287              		.file 4 "../../../os/ports/common/ARMCMx/nvic.h"
 288              		.file 5 "../../../os/ports/common/ARMCMx/CMSIS/include/core_cm4.h"
 289              		.file 6 "../../../os/hal/platforms/STM32F4xx/stm32f4xx.h"
 290              		.file 7 "../../../os/hal/platforms/STM32F4xx/stm32_dma.h"