ARM GAS  /tmp/ccaUfY9k.s 			page 1


   1              		.syntax unified
   2              		.cpu cortex-m4
   3              		.fpu softvfp
   4              		.eabi_attribute 20, 1
   5              		.eabi_attribute 21, 1
   6              		.eabi_attribute 23, 3
   7              		.eabi_attribute 24, 1
   8              		.eabi_attribute 25, 1
   9              		.eabi_attribute 26, 1
  10              		.eabi_attribute 30, 2
  11              		.eabi_attribute 34, 1
  12              		.eabi_attribute 18, 4
  13              		.thumb
  14              		.syntax unified
  15              		.file	"i2c.c"
  16              		.text
  17              	.Ltext0:
  18              		.cfi_sections	.debug_frame
  19              		.section	.text.i2cInit,"ax",%progbits
  20              		.align	2
  21              		.p2align 4,,15
  22              		.global	i2cInit
  23              		.thumb
  24              		.thumb_func
  25              		.type	i2cInit, %function
  26              	i2cInit:
  27              	.LFB111:
  28              		.file 1 "../../../os/hal/src/i2c.c"
  29              		.loc 1 71 0
  30              		.cfi_startproc
  31              		@ args = 0, pretend = 0, frame = 0
  32              		@ frame_needed = 0, uses_anonymous_args = 0
  33              		@ link register save eliminated.
  34              		.loc 1 72 0
  35 0000 FFF7FEBF 		b	i2c_lld_init
  36              	.LVL0:
  37              		.cfi_endproc
  38              	.LFE111:
  39              		.size	i2cInit, .-i2cInit
  40              		.section	.text.i2cObjectInit,"ax",%progbits
  41              		.align	2
  42              		.p2align 4,,15
  43              		.global	i2cObjectInit
  44              		.thumb
  45              		.thumb_func
  46              		.type	i2cObjectInit, %function
  47              	i2cObjectInit:
  48              	.LFB112:
  49              		.loc 1 82 0
  50              		.cfi_startproc
  51              		@ args = 0, pretend = 0, frame = 0
  52              		@ frame_needed = 0, uses_anonymous_args = 0
  53              		@ link register save eliminated.
  54              	.LVL1:
  55              		.loc 1 84 0
  56 0000 0122     		movs	r2, #1
  57              		.loc 1 85 0
ARM GAS  /tmp/ccaUfY9k.s 			page 2


  58 0002 0023     		movs	r3, #0
  59              		.loc 1 84 0
  60 0004 0270     		strb	r2, [r0]
  61              		.loc 1 85 0
  62 0006 4360     		str	r3, [r0, #4]
  63              		.loc 1 89 0
  64 0008 0C30     		adds	r0, r0, #12
  65              	.LVL2:
  66 000a FFF7FEBF 		b	chMtxInit
  67              	.LVL3:
  68              		.cfi_endproc
  69              	.LFE112:
  70              		.size	i2cObjectInit, .-i2cObjectInit
  71 000e 00BF     		.section	.text.i2cStart,"ax",%progbits
  72              		.align	2
  73              		.p2align 4,,15
  74              		.global	i2cStart
  75              		.thumb
  76              		.thumb_func
  77              		.type	i2cStart, %function
  78              	i2cStart:
  79              	.LFB113:
  80              		.loc 1 108 0
  81              		.cfi_startproc
  82              		@ args = 0, pretend = 0, frame = 0
  83              		@ frame_needed = 0, uses_anonymous_args = 0
  84              	.LVL4:
  85 0000 38B5     		push	{r3, r4, r5, lr}
  86              		.cfi_def_cfa_offset 16
  87              		.cfi_offset 3, -16
  88              		.cfi_offset 4, -12
  89              		.cfi_offset 5, -8
  90              		.cfi_offset 14, -4
  91              		.loc 1 108 0
  92 0002 0D46     		mov	r5, r1
  93              		.loc 1 110 0
  94 0004 0446     		mov	r4, r0
  95 0006 C0B1     		cbz	r0, .L4
  96              		.loc 1 110 0 is_stmt 0 discriminator 2
  97 0008 B9B1     		cbz	r1, .L4
  98              	.LVL5:
  99              	.L5:
 100              		.loc 1 111 0 is_stmt 1
 101 000a 2378     		ldrb	r3, [r4]	@ zero_extendqisi2
 102 000c 5A1E     		subs	r2, r3, #1
 103 000e 012A     		cmp	r2, #1
 104 0010 04D9     		bls	.L6
 105              		.loc 1 111 0 is_stmt 0 discriminator 1
 106 0012 052B     		cmp	r3, #5
 107 0014 02D0     		beq	.L6
 108              		.loc 1 111 0 discriminator 2
 109 0016 0B48     		ldr	r0, .L15
 110 0018 FFF7FEFF 		bl	chDbgPanic
 111              	.LVL6:
 112              	.L6:
 113              		.loc 1 116 0 is_stmt 1
 114              		.syntax unified
ARM GAS  /tmp/ccaUfY9k.s 			page 3


 115              	@ 116 "../../../os/hal/src/i2c.c" 1
 116 001c FFF7FEFF 		bl      _port_lock
 117              	@ 0 "" 2
 118              		.thumb
 119              		.syntax unified
 120 0020 FFF7FEFF 		bl	dbg_check_lock
 121              	.LVL7:
 122              		.loc 1 118 0
 123 0024 2046     		mov	r0, r4
 124              		.loc 1 117 0
 125 0026 6560     		str	r5, [r4, #4]
 126              		.loc 1 118 0
 127 0028 FFF7FEFF 		bl	i2c_lld_start
 128              	.LVL8:
 129              		.loc 1 119 0
 130 002c 0223     		movs	r3, #2
 131 002e 2370     		strb	r3, [r4]
 132              		.loc 1 120 0
 133 0030 FFF7FEFF 		bl	dbg_check_unlock
 134              	.LVL9:
 135              		.syntax unified
 136              	@ 120 "../../../os/hal/src/i2c.c" 1
 137 0034 FFF7FEFF 		bl      _port_unlock
 138              	@ 0 "" 2
 139              		.thumb
 140              		.syntax unified
 141 0038 38BD     		pop	{r3, r4, r5, pc}
 142              	.LVL10:
 143              	.L4:
 144              		.loc 1 110 0 discriminator 3
 145 003a 0348     		ldr	r0, .L15+4
 146              	.LVL11:
 147 003c FFF7FEFF 		bl	chDbgPanic
 148              	.LVL12:
 149 0040 E3E7     		b	.L5
 150              	.L16:
 151 0042 00BF     		.align	2
 152              	.L15:
 153 0044 10000000 		.word	.LC1
 154 0048 00000000 		.word	.LC0
 155              		.cfi_endproc
 156              	.LFE113:
 157              		.size	i2cStart, .-i2cStart
 158              		.section	.text.i2cStop,"ax",%progbits
 159              		.align	2
 160              		.p2align 4,,15
 161              		.global	i2cStop
 162              		.thumb
 163              		.thumb_func
 164              		.type	i2cStop, %function
 165              	i2cStop:
 166              	.LFB114:
 167              		.loc 1 130 0
 168              		.cfi_startproc
 169              		@ args = 0, pretend = 0, frame = 0
 170              		@ frame_needed = 0, uses_anonymous_args = 0
 171              	.LVL13:
ARM GAS  /tmp/ccaUfY9k.s 			page 4


 172 0000 10B5     		push	{r4, lr}
 173              		.cfi_def_cfa_offset 8
 174              		.cfi_offset 4, -8
 175              		.cfi_offset 14, -4
 176              		.loc 1 132 0
 177 0002 0446     		mov	r4, r0
 178 0004 B0B1     		cbz	r0, .L24
 179              	.LVL14:
 180              	.L18:
 181              		.loc 1 133 0
 182 0006 2378     		ldrb	r3, [r4]	@ zero_extendqisi2
 183 0008 5A1E     		subs	r2, r3, #1
 184 000a 012A     		cmp	r2, #1
 185 000c 04D9     		bls	.L19
 186              		.loc 1 133 0 is_stmt 0 discriminator 1
 187 000e 052B     		cmp	r3, #5
 188 0010 02D0     		beq	.L19
 189              		.loc 1 133 0 discriminator 2
 190 0012 0A48     		ldr	r0, .L25
 191 0014 FFF7FEFF 		bl	chDbgPanic
 192              	.LVL15:
 193              	.L19:
 194              		.loc 1 138 0 is_stmt 1
 195              		.syntax unified
 196              	@ 138 "../../../os/hal/src/i2c.c" 1
 197 0018 FFF7FEFF 		bl      _port_lock
 198              	@ 0 "" 2
 199              		.thumb
 200              		.syntax unified
 201 001c FFF7FEFF 		bl	dbg_check_lock
 202              	.LVL16:
 203              		.loc 1 139 0
 204 0020 2046     		mov	r0, r4
 205 0022 FFF7FEFF 		bl	i2c_lld_stop
 206              	.LVL17:
 207              		.loc 1 140 0
 208 0026 0123     		movs	r3, #1
 209 0028 2370     		strb	r3, [r4]
 210              		.loc 1 141 0
 211 002a FFF7FEFF 		bl	dbg_check_unlock
 212              	.LVL18:
 213              		.syntax unified
 214              	@ 141 "../../../os/hal/src/i2c.c" 1
 215 002e FFF7FEFF 		bl      _port_unlock
 216              	@ 0 "" 2
 217              		.thumb
 218              		.syntax unified
 219 0032 10BD     		pop	{r4, pc}
 220              	.LVL19:
 221              	.L24:
 222              		.loc 1 132 0 discriminator 1
 223 0034 0248     		ldr	r0, .L25+4
 224              	.LVL20:
 225 0036 FFF7FEFF 		bl	chDbgPanic
 226              	.LVL21:
 227 003a E4E7     		b	.L18
 228              	.L26:
ARM GAS  /tmp/ccaUfY9k.s 			page 5


 229              		.align	2
 230              	.L25:
 231 003c 2C000000 		.word	.LC3
 232 0040 20000000 		.word	.LC2
 233              		.cfi_endproc
 234              	.LFE114:
 235              		.size	i2cStop, .-i2cStop
 236              		.section	.text.i2cGetErrors,"ax",%progbits
 237              		.align	2
 238              		.p2align 4,,15
 239              		.global	i2cGetErrors
 240              		.thumb
 241              		.thumb_func
 242              		.type	i2cGetErrors, %function
 243              	i2cGetErrors:
 244              	.LFB115:
 245              		.loc 1 152 0
 246              		.cfi_startproc
 247              		@ args = 0, pretend = 0, frame = 0
 248              		@ frame_needed = 0, uses_anonymous_args = 0
 249              	.LVL22:
 250 0000 10B5     		push	{r4, lr}
 251              		.cfi_def_cfa_offset 8
 252              		.cfi_offset 4, -8
 253              		.cfi_offset 14, -4
 254              		.loc 1 154 0
 255 0002 0446     		mov	r4, r0
 256 0004 08B1     		cbz	r0, .L30
 257              		.loc 1 157 0
 258 0006 A068     		ldr	r0, [r4, #8]
 259              	.LVL23:
 260 0008 10BD     		pop	{r4, pc}
 261              	.LVL24:
 262              	.L30:
 263              		.loc 1 154 0 discriminator 1
 264 000a 0248     		ldr	r0, .L31
 265              	.LVL25:
 266 000c FFF7FEFF 		bl	chDbgPanic
 267              	.LVL26:
 268              		.loc 1 157 0 discriminator 1
 269 0010 A068     		ldr	r0, [r4, #8]
 270 0012 10BD     		pop	{r4, pc}
 271              	.LVL27:
 272              	.L32:
 273              		.align	2
 274              	.L31:
 275 0014 3C000000 		.word	.LC4
 276              		.cfi_endproc
 277              	.LFE115:
 278              		.size	i2cGetErrors, .-i2cGetErrors
 279              		.section	.text.i2cMasterTransmitTimeout,"ax",%progbits
 280              		.align	2
 281              		.p2align 4,,15
 282              		.global	i2cMasterTransmitTimeout
 283              		.thumb
 284              		.thumb_func
 285              		.type	i2cMasterTransmitTimeout, %function
ARM GAS  /tmp/ccaUfY9k.s 			page 6


 286              	i2cMasterTransmitTimeout:
 287              	.LFB116:
 288              		.loc 1 191 0
 289              		.cfi_startproc
 290              		@ args = 12, pretend = 0, frame = 0
 291              		@ frame_needed = 0, uses_anonymous_args = 0
 292              	.LVL28:
 293 0000 2DE9F046 		push	{r4, r5, r6, r7, r9, r10, lr}
 294              		.cfi_def_cfa_offset 28
 295              		.cfi_offset 4, -28
 296              		.cfi_offset 5, -24
 297              		.cfi_offset 6, -20
 298              		.cfi_offset 7, -16
 299              		.cfi_offset 9, -12
 300              		.cfi_offset 10, -8
 301              		.cfi_offset 14, -4
 302 0004 85B0     		sub	sp, sp, #20
 303              		.cfi_def_cfa_offset 48
 304              		.loc 1 191 0
 305 0006 0E46     		mov	r6, r1
 306 0008 9246     		mov	r10, r2
 307 000a 9946     		mov	r9, r3
 308 000c 0D9D     		ldr	r5, [sp, #52]
 309              		.loc 1 194 0
 310 000e 0446     		mov	r4, r0
 311 0010 00B1     		cbz	r0, .L34
 312              		.loc 1 194 0 is_stmt 0 discriminator 2
 313 0012 49BB     		cbnz	r1, .L62
 314              	.LVL29:
 315              	.L34:
 316              		.loc 1 194 0 discriminator 13
 317 0014 1A48     		ldr	r0, .L63
 318              	.LVL30:
 319 0016 FFF7FEFF 		bl	chDbgPanic
 320              	.LVL31:
 321              	.L36:
 322              		.loc 1 200 0 is_stmt 1
 323 001a 2378     		ldrb	r3, [r4]	@ zero_extendqisi2
 324 001c 022B     		cmp	r3, #2
 325 001e 02D0     		beq	.L37
 326              		.loc 1 200 0 is_stmt 0 discriminator 1
 327 0020 1848     		ldr	r0, .L63+4
 328 0022 FFF7FEFF 		bl	chDbgPanic
 329              	.LVL32:
 330              	.L37:
 331              		.loc 1 203 0 is_stmt 1
 332              		.syntax unified
 333              	@ 203 "../../../os/hal/src/i2c.c" 1
 334 0026 FFF7FEFF 		bl      _port_lock
 335              	@ 0 "" 2
 336              		.thumb
 337              		.syntax unified
 338 002a FFF7FEFF 		bl	dbg_check_lock
 339              	.LVL33:
 340              		.loc 1 204 0
 341 002e 0027     		movs	r7, #0
 342              		.loc 1 205 0
ARM GAS  /tmp/ccaUfY9k.s 			page 7


 343 0030 0320     		movs	r0, #3
 344 0032 2070     		strb	r0, [r4]
 345              		.loc 1 204 0
 346 0034 A760     		str	r7, [r4, #8]
 347              		.loc 1 206 0
 348 0036 3146     		mov	r1, r6
 349 0038 0195     		str	r5, [sp, #4]
 350 003a 0E9E     		ldr	r6, [sp, #56]
 351 003c 0C9D     		ldr	r5, [sp, #48]
 352 003e 0095     		str	r5, [sp]
 353 0040 4B46     		mov	r3, r9
 354 0042 5246     		mov	r2, r10
 355 0044 2046     		mov	r0, r4
 356 0046 0296     		str	r6, [sp, #8]
 357 0048 FFF7FEFF 		bl	i2c_lld_master_transmit_timeout
 358              	.LVL34:
 359              		.loc 1 208 0
 360 004c 431C     		adds	r3, r0, #1
 361              		.loc 1 209 0
 362 004e 0CBF     		ite	eq
 363 0050 0523     		moveq	r3, #5
 364              		.loc 1 211 0
 365 0052 0223     		movne	r3, #2
 366 0054 2370     		strb	r3, [r4]
 367              		.loc 1 206 0
 368 0056 0546     		mov	r5, r0
 369              	.LVL35:
 370              		.loc 1 212 0
 371 0058 FFF7FEFF 		bl	dbg_check_unlock
 372              	.LVL36:
 373              		.syntax unified
 374              	@ 212 "../../../os/hal/src/i2c.c" 1
 375 005c FFF7FEFF 		bl      _port_unlock
 376              	@ 0 "" 2
 377              		.loc 1 214 0
 378              		.thumb
 379              		.syntax unified
 380 0060 2846     		mov	r0, r5
 381 0062 05B0     		add	sp, sp, #20
 382              		.cfi_remember_state
 383              		.cfi_def_cfa_offset 28
 384              		@ sp needed
 385 0064 BDE8F086 		pop	{r4, r5, r6, r7, r9, r10, pc}
 386              	.LVL37:
 387              	.L62:
 388              		.cfi_restore_state
 389              		.loc 1 194 0 discriminator 4
 390 0068 002B     		cmp	r3, #0
 391 006a D3D0     		beq	.L34
 392              		.loc 1 194 0 is_stmt 0 discriminator 6
 393 006c 002A     		cmp	r2, #0
 394 006e D1D0     		beq	.L34
 395              		.loc 1 194 0 discriminator 8
 396 0070 15B1     		cbz	r5, .L35
 397              		.loc 1 194 0 discriminator 9
 398 0072 0C9B     		ldr	r3, [sp, #48]
 399              	.LVL38:
ARM GAS  /tmp/ccaUfY9k.s 			page 8


 400 0074 002B     		cmp	r3, #0
 401 0076 CDD0     		beq	.L34
 402              	.L35:
 403              		.loc 1 194 0 discriminator 12
 404 0078 0E9B     		ldr	r3, [sp, #56]
 405 007a 002B     		cmp	r3, #0
 406 007c CDD1     		bne	.L36
 407 007e C9E7     		b	.L34
 408              	.L64:
 409              		.align	2
 410              	.L63:
 411 0080 50000000 		.word	.LC5
 412 0084 70000000 		.word	.LC6
 413              		.cfi_endproc
 414              	.LFE116:
 415              		.size	i2cMasterTransmitTimeout, .-i2cMasterTransmitTimeout
 416              		.section	.text.i2cMasterReceiveTimeout,"ax",%progbits
 417              		.align	2
 418              		.p2align 4,,15
 419              		.global	i2cMasterReceiveTimeout
 420              		.thumb
 421              		.thumb_func
 422              		.type	i2cMasterReceiveTimeout, %function
 423              	i2cMasterReceiveTimeout:
 424              	.LFB117:
 425              		.loc 1 240 0 is_stmt 1
 426              		.cfi_startproc
 427              		@ args = 4, pretend = 0, frame = 0
 428              		@ frame_needed = 0, uses_anonymous_args = 0
 429              	.LVL39:
 430 0000 2DE9F041 		push	{r4, r5, r6, r7, r8, lr}
 431              		.cfi_def_cfa_offset 24
 432              		.cfi_offset 4, -24
 433              		.cfi_offset 5, -20
 434              		.cfi_offset 6, -16
 435              		.cfi_offset 7, -12
 436              		.cfi_offset 8, -8
 437              		.cfi_offset 14, -4
 438 0004 0D46     		mov	r5, r1
 439 0006 82B0     		sub	sp, sp, #8
 440              		.cfi_def_cfa_offset 32
 441              		.loc 1 240 0
 442 0008 9046     		mov	r8, r2
 443 000a 1E46     		mov	r6, r3
 444              		.loc 1 244 0
 445 000c 0446     		mov	r4, r0
 446 000e 00B1     		cbz	r0, .L66
 447              		.loc 1 244 0 is_stmt 0 discriminator 2
 448 0010 31BB     		cbnz	r1, .L87
 449              	.LVL40:
 450              	.L66:
 451              		.loc 1 244 0 discriminator 9
 452 0012 1748     		ldr	r0, .L88
 453              	.LVL41:
 454 0014 FFF7FEFF 		bl	chDbgPanic
 455              	.LVL42:
 456              	.L67:
ARM GAS  /tmp/ccaUfY9k.s 			page 9


 457              		.loc 1 249 0 is_stmt 1
 458 0018 2378     		ldrb	r3, [r4]	@ zero_extendqisi2
 459 001a 022B     		cmp	r3, #2
 460 001c 02D0     		beq	.L68
 461              		.loc 1 249 0 is_stmt 0 discriminator 1
 462 001e 1548     		ldr	r0, .L88+4
 463 0020 FFF7FEFF 		bl	chDbgPanic
 464              	.LVL43:
 465              	.L68:
 466              		.loc 1 252 0 is_stmt 1
 467              		.syntax unified
 468              	@ 252 "../../../os/hal/src/i2c.c" 1
 469 0024 FFF7FEFF 		bl      _port_lock
 470              	@ 0 "" 2
 471              		.thumb
 472              		.syntax unified
 473 0028 FFF7FEFF 		bl	dbg_check_lock
 474              	.LVL44:
 475              		.loc 1 253 0
 476 002c 0027     		movs	r7, #0
 477              		.loc 1 255 0
 478 002e 2946     		mov	r1, r5
 479              		.loc 1 254 0
 480 0030 0420     		movs	r0, #4
 481              		.loc 1 255 0
 482 0032 089D     		ldr	r5, [sp, #32]
 483              		.loc 1 254 0
 484 0034 2070     		strb	r0, [r4]
 485              		.loc 1 255 0
 486 0036 3346     		mov	r3, r6
 487 0038 4246     		mov	r2, r8
 488              		.loc 1 253 0
 489 003a A760     		str	r7, [r4, #8]
 490              		.loc 1 255 0
 491 003c 2046     		mov	r0, r4
 492 003e 0095     		str	r5, [sp]
 493 0040 FFF7FEFF 		bl	i2c_lld_master_receive_timeout
 494              	.LVL45:
 495              		.loc 1 256 0
 496 0044 431C     		adds	r3, r0, #1
 497              		.loc 1 257 0
 498 0046 0CBF     		ite	eq
 499 0048 0523     		moveq	r3, #5
 500              		.loc 1 259 0
 501 004a 0223     		movne	r3, #2
 502 004c 2370     		strb	r3, [r4]
 503              		.loc 1 255 0
 504 004e 0546     		mov	r5, r0
 505              	.LVL46:
 506              		.loc 1 260 0
 507 0050 FFF7FEFF 		bl	dbg_check_unlock
 508              	.LVL47:
 509              		.syntax unified
 510              	@ 260 "../../../os/hal/src/i2c.c" 1
 511 0054 FFF7FEFF 		bl      _port_unlock
 512              	@ 0 "" 2
 513              		.loc 1 262 0
ARM GAS  /tmp/ccaUfY9k.s 			page 10


 514              		.thumb
 515              		.syntax unified
 516 0058 2846     		mov	r0, r5
 517 005a 02B0     		add	sp, sp, #8
 518              		.cfi_remember_state
 519              		.cfi_def_cfa_offset 24
 520              		@ sp needed
 521 005c BDE8F081 		pop	{r4, r5, r6, r7, r8, pc}
 522              	.LVL48:
 523              	.L87:
 524              		.cfi_restore_state
 525              		.loc 1 244 0 discriminator 4
 526 0060 002B     		cmp	r3, #0
 527 0062 D6D0     		beq	.L66
 528              		.loc 1 244 0 is_stmt 0 discriminator 6
 529 0064 002A     		cmp	r2, #0
 530 0066 D4D0     		beq	.L66
 531              		.loc 1 244 0 discriminator 8
 532 0068 089B     		ldr	r3, [sp, #32]
 533              	.LVL49:
 534 006a 002B     		cmp	r3, #0
 535 006c D4D1     		bne	.L67
 536 006e D0E7     		b	.L66
 537              	.L89:
 538              		.align	2
 539              	.L88:
 540 0070 90000000 		.word	.LC7
 541 0074 AC000000 		.word	.LC8
 542              		.cfi_endproc
 543              	.LFE117:
 544              		.size	i2cMasterReceiveTimeout, .-i2cMasterReceiveTimeout
 545              		.section	.text.i2cAcquireBus,"ax",%progbits
 546              		.align	2
 547              		.p2align 4,,15
 548              		.global	i2cAcquireBus
 549              		.thumb
 550              		.thumb_func
 551              		.type	i2cAcquireBus, %function
 552              	i2cAcquireBus:
 553              	.LFB118:
 554              		.loc 1 276 0 is_stmt 1
 555              		.cfi_startproc
 556              		@ args = 0, pretend = 0, frame = 0
 557              		@ frame_needed = 0, uses_anonymous_args = 0
 558              	.LVL50:
 559 0000 10B5     		push	{r4, lr}
 560              		.cfi_def_cfa_offset 8
 561              		.cfi_offset 4, -8
 562              		.cfi_offset 14, -4
 563              		.loc 1 278 0
 564 0002 0446     		mov	r4, r0
 565 0004 28B1     		cbz	r0, .L93
 566              		.loc 1 281 0
 567 0006 04F10C00 		add	r0, r4, #12
 568              	.LVL51:
 569              		.loc 1 285 0
 570 000a BDE81040 		pop	{r4, lr}
ARM GAS  /tmp/ccaUfY9k.s 			page 11


 571              		.cfi_remember_state
 572              		.cfi_restore 14
 573              		.cfi_restore 4
 574              		.cfi_def_cfa_offset 0
 575              	.LVL52:
 576              		.loc 1 281 0
 577 000e FFF7FEBF 		b	chMtxLock
 578              	.LVL53:
 579              	.L93:
 580              		.cfi_restore_state
 581              		.loc 1 278 0 discriminator 1
 582 0012 0448     		ldr	r0, .L94
 583              	.LVL54:
 584 0014 FFF7FEFF 		bl	chDbgPanic
 585              	.LVL55:
 586              		.loc 1 281 0 discriminator 1
 587 0018 04F10C00 		add	r0, r4, #12
 588              		.loc 1 285 0 discriminator 1
 589 001c BDE81040 		pop	{r4, lr}
 590              		.cfi_restore 4
 591              		.cfi_restore 14
 592              		.cfi_def_cfa_offset 0
 593              	.LVL56:
 594              		.loc 1 281 0 discriminator 1
 595 0020 FFF7FEBF 		b	chMtxLock
 596              	.LVL57:
 597              	.L95:
 598              		.align	2
 599              	.L94:
 600 0024 C4000000 		.word	.LC9
 601              		.cfi_endproc
 602              	.LFE118:
 603              		.size	i2cAcquireBus, .-i2cAcquireBus
 604              		.section	.text.i2cReleaseBus,"ax",%progbits
 605              		.align	2
 606              		.p2align 4,,15
 607              		.global	i2cReleaseBus
 608              		.thumb
 609              		.thumb_func
 610              		.type	i2cReleaseBus, %function
 611              	i2cReleaseBus:
 612              	.LFB119:
 613              		.loc 1 296 0
 614              		.cfi_startproc
 615              		@ args = 0, pretend = 0, frame = 0
 616              		@ frame_needed = 0, uses_anonymous_args = 0
 617              	.LVL58:
 618              		.loc 1 298 0
 619 0000 08B1     		cbz	r0, .L100
 620              		.loc 1 301 0
 621 0002 FFF7FEBF 		b	chMtxUnlock
 622              	.LVL59:
 623              	.L100:
 624              		.loc 1 296 0 discriminator 1
 625 0006 08B5     		push	{r3, lr}
 626              		.cfi_def_cfa_offset 8
 627              		.cfi_offset 3, -8
ARM GAS  /tmp/ccaUfY9k.s 			page 12


 628              		.cfi_offset 14, -4
 629              		.loc 1 298 0 discriminator 1
 630 0008 0348     		ldr	r0, .L101
 631              	.LVL60:
 632 000a FFF7FEFF 		bl	chDbgPanic
 633              	.LVL61:
 634              		.loc 1 305 0 discriminator 1
 635 000e BDE80840 		pop	{r3, lr}
 636              		.cfi_restore 14
 637              		.cfi_restore 3
 638              		.cfi_def_cfa_offset 0
 639              		.loc 1 301 0 discriminator 1
 640 0012 FFF7FEBF 		b	chMtxUnlock
 641              	.LVL62:
 642              	.L102:
 643 0016 00BF     		.align	2
 644              	.L101:
 645 0018 D8000000 		.word	.LC10
 646              		.cfi_endproc
 647              	.LFE119:
 648              		.size	i2cReleaseBus, .-i2cReleaseBus
 649              		.section	.rodata.str1.4,"aMS",%progbits,1
 650              		.align	2
 651              	.LC0:
 652 0000 22693263 		.ascii	"\"i2cStart\"()\000"
 652      53746172 
 652      74222829 
 652      00
 653 000d 000000   		.space	3
 654              	.LC1:
 655 0010 69326353 		.ascii	"i2cStart(), #1\000"
 655      74617274 
 655      28292C20 
 655      233100
 656 001f 00       		.space	1
 657              	.LC2:
 658 0020 22693263 		.ascii	"\"i2cStop\"()\000"
 658      53746F70 
 658      22282900 
 659              	.LC3:
 660 002c 69326353 		.ascii	"i2cStop(), #1\000"
 660      746F7028 
 660      292C2023 
 660      3100
 661 003a 0000     		.space	2
 662              	.LC4:
 663 003c 22693263 		.ascii	"\"i2cGetErrors\"()\000"
 663      47657445 
 663      72726F72 
 663      73222829 
 663      00
 664 004d 000000   		.space	3
 665              	.LC5:
 666 0050 22693263 		.ascii	"\"i2cMasterTransmitTimeout\"()\000"
 666      4D617374 
 666      65725472 
 666      616E736D 
ARM GAS  /tmp/ccaUfY9k.s 			page 13


 666      69745469 
 667 006d 000000   		.space	3
 668              	.LC6:
 669 0070 6932634D 		.ascii	"i2cMasterTransmitTimeout(), #1\000"
 669      61737465 
 669      72547261 
 669      6E736D69 
 669      7454696D 
 670 008f 00       		.space	1
 671              	.LC7:
 672 0090 22693263 		.ascii	"\"i2cMasterReceiveTimeout\"()\000"
 672      4D617374 
 672      65725265 
 672      63656976 
 672      6554696D 
 673              	.LC8:
 674 00ac 6932634D 		.ascii	"i2cMasterReceive(), #1\000"
 674      61737465 
 674      72526563 
 674      65697665 
 674      28292C20 
 675 00c3 00       		.space	1
 676              	.LC9:
 677 00c4 22693263 		.ascii	"\"i2cAcquireBus\"()\000"
 677      41637175 
 677      69726542 
 677      75732228 
 677      2900
 678 00d6 0000     		.space	2
 679              	.LC10:
 680 00d8 22693263 		.ascii	"\"i2cReleaseBus\"()\000"
 680      52656C65 
 680      61736542 
 680      75732228 
 680      2900
 681              		.text
 682              	.Letext0:
 683              		.file 2 "/home/z80/programs/sw4stm32/plugins/fr.ac6.mcu.externaltools.arm-none.linux32_1.7.0.20160
 684              		.file 3 "/home/z80/programs/sw4stm32/plugins/fr.ac6.mcu.externaltools.arm-none.linux32_1.7.0.20160
 685              		.file 4 "/home/z80/programs/sw4stm32/plugins/fr.ac6.mcu.externaltools.arm-none.linux32_1.7.0.20160
 686              		.file 5 "../../../os/ports/GCC/ARMCMx/chtypes.h"
 687              		.file 6 "../../../os/kernel/include/chlists.h"
 688              		.file 7 "../../../os/kernel/include/chthreads.h"
 689              		.file 8 "../../../os/ports/GCC/ARMCMx/chcore_v7m.h"
 690              		.file 9 "../../../os/kernel/include/chmtx.h"
 691              		.file 10 "../../../os/hal/platforms/STM32F4xx/stm32f4xx.h"
 692              		.file 11 "../../../os/hal/platforms/STM32F4xx/stm32_dma.h"
 693              		.file 12 "../../../os/hal/include/i2c.h"
 694              		.file 13 "../../../os/hal/platforms/STM32/I2Cv1/i2c_lld.h"
 695              		.file 14 "../../../os/kernel/include/chdebug.h"
 696              		.file 15 "../../../os/ports/common/ARMCMx/CMSIS/include/core_cm4.h"