ARM GAS  /tmp/ccT30Fjp.s 			page 1


   1              		.syntax unified
   2              		.cpu cortex-m4
   3              		.fpu softvfp
   4              		.eabi_attribute 20, 1
   5              		.eabi_attribute 21, 1
   6              		.eabi_attribute 23, 3
   7              		.eabi_attribute 24, 1
   8              		.eabi_attribute 25, 1
   9              		.eabi_attribute 26, 1
  10              		.eabi_attribute 30, 2
  11              		.eabi_attribute 34, 1
  12              		.eabi_attribute 18, 4
  13              		.thumb
  14              		.syntax unified
  15              		.file	"i2c_lld.c"
  16              		.text
  17              	.Ltext0:
  18              		.cfi_sections	.debug_frame
  19              		.section	.text.i2c_lld_abort_operation,"ax",%progbits
  20              		.align	2
  21              		.p2align 4,,15
  22              		.thumb
  23              		.thumb_func
  24              		.type	i2c_lld_abort_operation, %function
  25              	i2c_lld_abort_operation:
  26              	.LFB111:
  27              		.file 1 "../../../os/hal/platforms/STM32/I2Cv1/i2c_lld.c"
  28              		.loc 1 142 0
  29              		.cfi_startproc
  30              		@ args = 0, pretend = 0, frame = 0
  31              		@ frame_needed = 0, uses_anonymous_args = 0
  32              		@ link register save eliminated.
  33              	.LVL0:
  34 0000 30B4     		push	{r4, r5}
  35              		.cfi_def_cfa_offset 8
  36              		.cfi_offset 4, -8
  37              		.cfi_offset 5, -4
  38              		.loc 1 143 0
  39 0002 436B     		ldr	r3, [r0, #52]
  40              	.LVL1:
  41              		.loc 1 152 0
  42 0004 046B     		ldr	r4, [r0, #48]
  43              		.loc 1 146 0
  44 0006 4FF40041 		mov	r1, #32768
  45              		.loc 1 152 0
  46 000a 2268     		ldr	r2, [r4]
  47              		.loc 1 146 0
  48 000c 1980     		strh	r1, [r3]	@ movhi
  49              		.loc 1 147 0
  50 000e 0021     		movs	r1, #0
  51 0010 1980     		strh	r1, [r3]	@ movhi
  52              		.loc 1 148 0
  53 0012 9980     		strh	r1, [r3, #4]	@ movhi
  54              		.loc 1 149 0
  55 0014 9982     		strh	r1, [r3, #20]	@ movhi
  56              		.loc 1 152 0
  57 0016 1368     		ldr	r3, [r2]
ARM GAS  /tmp/ccT30Fjp.s 			page 2


  58              	.LVL2:
  59 0018 23F01F03 		bic	r3, r3, #31
  60 001c 1360     		str	r3, [r2]
  61              	.L2:
  62              		.loc 1 152 0 is_stmt 0 discriminator 2
  63 001e 1368     		ldr	r3, [r2]
  64 0020 D907     		lsls	r1, r3, #31
  65 0022 FCD4     		bmi	.L2
  66              		.loc 1 153 0 is_stmt 1 discriminator 3
  67 0024 C16A     		ldr	r1, [r0, #44]
  68              		.loc 1 152 0 discriminator 3
  69 0026 257A     		ldrb	r5, [r4, #8]	@ zero_extendqisi2
  70 0028 6068     		ldr	r0, [r4, #4]
  71              	.LVL3:
  72              		.loc 1 153 0 discriminator 3
  73 002a 0A68     		ldr	r2, [r1]
  74              		.loc 1 152 0 discriminator 3
  75 002c 3D23     		movs	r3, #61
  76 002e AB40     		lsls	r3, r3, r5
  77 0030 0360     		str	r3, [r0]
  78              		.loc 1 153 0 discriminator 3
  79 0032 1368     		ldr	r3, [r2]
  80 0034 23F01F03 		bic	r3, r3, #31
  81 0038 1360     		str	r3, [r2]
  82              	.L3:
  83              		.loc 1 153 0 is_stmt 0 discriminator 2
  84 003a 1368     		ldr	r3, [r2]
  85 003c DB07     		lsls	r3, r3, #31
  86 003e FCD4     		bmi	.L3
  87              		.loc 1 153 0 discriminator 3
  88 0040 087A     		ldrb	r0, [r1, #8]	@ zero_extendqisi2
  89 0042 4A68     		ldr	r2, [r1, #4]
  90 0044 3D23     		movs	r3, #61
  91 0046 8340     		lsls	r3, r3, r0
  92 0048 1360     		str	r3, [r2]
  93              		.loc 1 154 0 is_stmt 1 discriminator 3
  94 004a 30BC     		pop	{r4, r5}
  95              		.cfi_restore 5
  96              		.cfi_restore 4
  97              		.cfi_def_cfa_offset 0
  98 004c 7047     		bx	lr
  99              		.cfi_endproc
 100              	.LFE111:
 101              		.size	i2c_lld_abort_operation, .-i2c_lld_abort_operation
 102 004e 00BF     		.section	.text.i2c_lld_serve_event_interrupt,"ax",%progbits
 103              		.align	2
 104              		.p2align 4,,15
 105              		.thumb
 106              		.thumb_func
 107              		.type	i2c_lld_serve_event_interrupt, %function
 108              	i2c_lld_serve_event_interrupt:
 109              	.LFB115:
 110              		.loc 1 293 0
 111              		.cfi_startproc
 112              		@ args = 0, pretend = 0, frame = 0
 113              		@ frame_needed = 0, uses_anonymous_args = 0
 114              	.LVL4:
ARM GAS  /tmp/ccT30Fjp.s 			page 3


 115 0000 F8B5     		push	{r3, r4, r5, r6, r7, lr}
 116              		.cfi_def_cfa_offset 24
 117              		.cfi_offset 3, -24
 118              		.cfi_offset 4, -20
 119              		.cfi_offset 5, -16
 120              		.cfi_offset 6, -12
 121              		.cfi_offset 7, -8
 122              		.cfi_offset 14, -4
 123              		.loc 1 294 0
 124 0002 446B     		ldr	r4, [r0, #52]
 125              	.LVL5:
 126              		.loc 1 301 0
 127 0004 434A     		ldr	r2, .L29
 128              		.loc 1 295 0
 129 0006 238B     		ldrh	r3, [r4, #24]
 130              	.LVL6:
 131              		.loc 1 296 0
 132 0008 A58A     		ldrh	r5, [r4, #20]
 133 000a ADB2     		uxth	r5, r5
 134              	.LVL7:
 135              		.loc 1 301 0
 136 000c 45EA0343 		orr	r3, r5, r3, lsl #16
 137              	.LVL8:
 138 0010 23F07F43 		bic	r3, r3, #-16777216
 139 0014 9342     		cmp	r3, r2
 140 0016 51D0     		beq	.L10
 141 0018 1ED8     		bhi	.L11
 142 001a 073A     		subs	r2, r2, #7
 143 001c 9342     		cmp	r3, r2
 144 001e 41D0     		beq	.L12
 145 0020 0132     		adds	r2, r2, #1
 146 0022 9342     		cmp	r3, r2
 147 0024 13D1     		bne	.L9
 148              		.loc 1 315 0
 149 0026 A388     		ldrh	r3, [r4, #4]
 150              		.loc 1 316 0
 151 0028 C26A     		ldr	r2, [r0, #44]
 152              		.loc 1 315 0
 153 002a 23F40073 		bic	r3, r3, #512
 154 002e 1B04     		lsls	r3, r3, #16
 155              		.loc 1 316 0
 156 0030 1268     		ldr	r2, [r2]
 157              		.loc 1 315 0
 158 0032 1B0C     		lsrs	r3, r3, #16
 159 0034 A380     		strh	r3, [r4, #4]	@ movhi
 160              		.loc 1 316 0
 161 0036 1368     		ldr	r3, [r2]
 162 0038 43F00103 		orr	r3, r3, #1
 163 003c 1360     		str	r3, [r2]
 164              		.loc 1 317 0
 165 003e A388     		ldrh	r3, [r4, #4]
 166 0040 9BB2     		uxth	r3, r3
 167 0042 43F48053 		orr	r3, r3, #4096
 168 0046 A380     		strh	r3, [r4, #4]	@ movhi
 169              		.loc 1 318 0
 170 0048 5368     		ldr	r3, [r2, #4]
 171 004a 012B     		cmp	r3, #1
ARM GAS  /tmp/ccT30Fjp.s 			page 4


 172 004c 5BD9     		bls	.L28
 173              	.LVL9:
 174              	.L9:
 175              		.loc 1 341 0
 176 004e 15F00A0F 		tst	r5, #10
 177              		.loc 1 342 0
 178 0052 18BF     		it	ne
 179 0054 238B     		ldrhne	r3, [r4, #24]
 180 0056 F8BD     		pop	{r3, r4, r5, r6, r7, pc}
 181              	.LVL10:
 182              	.L11:
 183              		.loc 1 301 0
 184 0058 2F4A     		ldr	r2, .L29+4
 185 005a 9342     		cmp	r3, r2
 186 005c 11D0     		beq	.L14
 187 005e 0232     		adds	r2, r2, #2
 188 0060 9342     		cmp	r3, r2
 189 0062 F4D1     		bne	.L9
 190              		.loc 1 327 0
 191 0064 C36A     		ldr	r3, [r0, #44]
 192 0066 1B68     		ldr	r3, [r3]
 193 0068 5F68     		ldr	r7, [r3, #4]
 194 006a 002F     		cmp	r7, #0
 195 006c 2FD0     		beq	.L17
 196              		.loc 1 330 0
 197 006e 2388     		ldrh	r3, [r4]
 198              		.loc 1 329 0
 199 0070 028C     		ldrh	r2, [r0, #32]
 200              		.loc 1 330 0
 201 0072 9BB2     		uxth	r3, r3
 202 0074 43F4A063 		orr	r3, r3, #1280
 203              		.loc 1 329 0
 204 0078 42F00102 		orr	r2, r2, #1
 205 007c 0284     		strh	r2, [r0, #32]	@ movhi
 206              		.loc 1 330 0
 207 007e 2380     		strh	r3, [r4]	@ movhi
 208              		.loc 1 331 0
 209 0080 F8BD     		pop	{r3, r4, r5, r6, r7, pc}
 210              	.LVL11:
 211              	.L14:
 212              		.loc 1 322 0
 213 0082 A388     		ldrh	r3, [r4, #4]
 214              		.loc 1 323 0
 215 0084 026B     		ldr	r2, [r0, #48]
 216              		.loc 1 322 0
 217 0086 23F40073 		bic	r3, r3, #512
 218 008a 1B04     		lsls	r3, r3, #16
 219              		.loc 1 323 0
 220 008c 1268     		ldr	r2, [r2]
 221              		.loc 1 322 0
 222 008e 1B0C     		lsrs	r3, r3, #16
 223 0090 A380     		strh	r3, [r4, #4]	@ movhi
 224              		.loc 1 323 0
 225 0092 1368     		ldr	r3, [r2]
 226 0094 43F00103 		orr	r3, r3, #1
 227 0098 1360     		str	r3, [r2]
 228              		.loc 1 341 0
ARM GAS  /tmp/ccT30Fjp.s 			page 5


 229 009a 15F00A0F 		tst	r5, #10
 230              		.loc 1 342 0
 231 009e 18BF     		it	ne
 232 00a0 238B     		ldrhne	r3, [r4, #24]
 233 00a2 F8BD     		pop	{r3, r4, r5, r6, r7, pc}
 234              	.LVL12:
 235              	.L12:
 236              		.loc 1 303 0
 237 00a4 038C     		ldrh	r3, [r0, #32]
 238 00a6 1A0A     		lsrs	r2, r3, #8
 239 00a8 0BD0     		beq	.L27
 240              		.loc 1 305 0
 241 00aa 03F00103 		and	r3, r3, #1
 242 00ae 43F0F003 		orr	r3, r3, #240
 243 00b2 02F00602 		and	r2, r2, #6
 244 00b6 1343     		orrs	r3, r3, r2
 245 00b8 2382     		strh	r3, [r4, #16]	@ movhi
 246 00ba C8E7     		b	.L9
 247              	.L10:
 248              		.loc 1 312 0
 249 00bc 038C     		ldrh	r3, [r0, #32]
 250 00be C3F34703 		ubfx	r3, r3, #1, #8
 251              	.L27:
 252 00c2 2382     		strh	r3, [r4, #16]	@ movhi
 253              		.loc 1 341 0
 254 00c4 15F00A0F 		tst	r5, #10
 255              		.loc 1 342 0
 256 00c8 18BF     		it	ne
 257 00ca 238B     		ldrhne	r3, [r4, #24]
 258 00cc F8BD     		pop	{r3, r4, r5, r6, r7, pc}
 259              	.LVL13:
 260              	.L17:
 261              		.loc 1 333 0
 262 00ce A388     		ldrh	r3, [r4, #4]
 263 00d0 23F40073 		bic	r3, r3, #512
 264 00d4 1B04     		lsls	r3, r3, #16
 265 00d6 1B0C     		lsrs	r3, r3, #16
 266 00d8 A380     		strh	r3, [r4, #4]	@ movhi
 267              		.loc 1 334 0
 268 00da 2388     		ldrh	r3, [r4]
 269 00dc 9BB2     		uxth	r3, r3
 270 00de 43F40073 		orr	r3, r3, #512
 271 00e2 0646     		mov	r6, r0
 272 00e4 2380     		strh	r3, [r4]	@ movhi
 273              		.loc 1 335 0
 274              		.syntax unified
 275              	@ 335 "../../../os/hal/platforms/STM32/I2Cv1/i2c_lld.c" 1
 276 00e6 FFF7FEFF 		bl      _port_lock
 277              	@ 0 "" 2
 278              		.thumb
 279              		.syntax unified
 280 00ea FFF7FEFF 		bl	dbg_check_lock_from_isr
 281              	.LVL14:
 282 00ee F369     		ldr	r3, [r6, #28]
 283 00f0 23B1     		cbz	r3, .L19
 284              	.LVL15:
 285              	.LBB7:
ARM GAS  /tmp/ccT30Fjp.s 			page 6


 286              		.loc 1 335 0 is_stmt 0 discriminator 1
 287 00f2 F761     		str	r7, [r6, #28]
 288 00f4 1846     		mov	r0, r3
 289 00f6 9F62     		str	r7, [r3, #40]
 290 00f8 FFF7FEFF 		bl	chSchReadyI
 291              	.LVL16:
 292              	.L19:
 293              	.LBE7:
 294              		.loc 1 335 0 discriminator 3
 295 00fc FFF7FEFF 		bl	dbg_check_unlock_from_isr
 296              	.LVL17:
 297              		.syntax unified
 298              	@ 335 "../../../os/hal/platforms/STM32/I2Cv1/i2c_lld.c" 1
 299 0100 FFF7FEFF 		bl      _port_unlock
 300              	@ 0 "" 2
 301              		.loc 1 336 0 is_stmt 1 discriminator 3
 302              		.thumb
 303              		.syntax unified
 304 0104 A3E7     		b	.L9
 305              	.LVL18:
 306              	.L28:
 307              		.loc 1 319 0
 308 0106 2388     		ldrh	r3, [r4]
 309 0108 23F48063 		bic	r3, r3, #1024
 310 010c 1B04     		lsls	r3, r3, #16
 311 010e 1B0C     		lsrs	r3, r3, #16
 312 0110 2380     		strh	r3, [r4]	@ movhi
 313 0112 9CE7     		b	.L9
 314              	.L30:
 315              		.align	2
 316              	.L29:
 317 0114 08000300 		.word	196616
 318 0118 82000700 		.word	458882
 319              		.cfi_endproc
 320              	.LFE115:
 321              		.size	i2c_lld_serve_event_interrupt, .-i2c_lld_serve_event_interrupt
 322              		.section	.text.i2c_lld_serve_error_interrupt,"ax",%progbits
 323              		.align	2
 324              		.p2align 4,,15
 325              		.thumb
 326              		.thumb_func
 327              		.type	i2c_lld_serve_error_interrupt, %function
 328              	i2c_lld_serve_error_interrupt:
 329              	.LFB118:
 330              		.loc 1 407 0
 331              		.cfi_startproc
 332              		@ args = 0, pretend = 0, frame = 0
 333              		@ frame_needed = 0, uses_anonymous_args = 0
 334              	.LVL19:
 335 0000 70B5     		push	{r4, r5, r6, lr}
 336              		.cfi_def_cfa_offset 16
 337              		.cfi_offset 4, -16
 338              		.cfi_offset 5, -12
 339              		.cfi_offset 6, -8
 340              		.cfi_offset 14, -4
 341              		.loc 1 410 0
 342 0002 056B     		ldr	r5, [r0, #48]
ARM GAS  /tmp/ccT30Fjp.s 			page 7


 343 0004 2A68     		ldr	r2, [r5]
 344 0006 1368     		ldr	r3, [r2]
 345 0008 23F01F03 		bic	r3, r3, #31
 346 000c 1360     		str	r3, [r2]
 347              	.L32:
 348              		.loc 1 410 0 is_stmt 0 discriminator 2
 349 000e 1368     		ldr	r3, [r2]
 350 0010 DE07     		lsls	r6, r3, #31
 351 0012 FCD4     		bmi	.L32
 352              		.loc 1 410 0 discriminator 3
 353 0014 2E7A     		ldrb	r6, [r5, #8]	@ zero_extendqisi2
 354              		.loc 1 411 0 is_stmt 1 discriminator 3
 355 0016 C46A     		ldr	r4, [r0, #44]
 356              		.loc 1 410 0 discriminator 3
 357 0018 6D68     		ldr	r5, [r5, #4]
 358              		.loc 1 411 0 discriminator 3
 359 001a 2268     		ldr	r2, [r4]
 360              		.loc 1 410 0 discriminator 3
 361 001c 3D23     		movs	r3, #61
 362 001e B340     		lsls	r3, r3, r6
 363 0020 2B60     		str	r3, [r5]
 364              		.loc 1 411 0 discriminator 3
 365 0022 1368     		ldr	r3, [r2]
 366 0024 23F01F03 		bic	r3, r3, #31
 367 0028 1360     		str	r3, [r2]
 368              	.L33:
 369              		.loc 1 411 0 is_stmt 0 discriminator 2
 370 002a 1368     		ldr	r3, [r2]
 371 002c 13F00103 		ands	r3, r3, #1
 372 0030 FBD1     		bne	.L33
 373              		.loc 1 411 0 discriminator 3
 374 0032 257A     		ldrb	r5, [r4, #8]	@ zero_extendqisi2
 375 0034 6468     		ldr	r4, [r4, #4]
 376 0036 3D22     		movs	r2, #61
 377 0038 AA40     		lsls	r2, r2, r5
 378              		.loc 1 415 0 is_stmt 1 discriminator 3
 379 003a CD05     		lsls	r5, r1, #23
 380              		.loc 1 411 0 discriminator 3
 381 003c 2260     		str	r2, [r4]
 382              		.loc 1 416 0 discriminator 3
 383 003e 48BF     		it	mi
 384 0040 0123     		movmi	r3, #1
 385              		.loc 1 418 0 discriminator 3
 386 0042 8C05     		lsls	r4, r1, #22
 387              		.loc 1 416 0 discriminator 3
 388 0044 8360     		str	r3, [r0, #8]
 389              		.loc 1 419 0 discriminator 3
 390 0046 44BF     		itt	mi
 391 0048 43F00203 		orrmi	r3, r3, #2
 392 004c 8360     		strmi	r3, [r0, #8]
 393              		.loc 1 421 0 discriminator 3
 394 004e 4A05     		lsls	r2, r1, #21
 395 0050 0ED5     		bpl	.L37
 396              		.loc 1 422 0
 397 0052 446B     		ldr	r4, [r0, #52]
 398 0054 A288     		ldrh	r2, [r4, #4]
 399 0056 22F40072 		bic	r2, r2, #512
ARM GAS  /tmp/ccT30Fjp.s 			page 8


 400 005a 1204     		lsls	r2, r2, #16
 401 005c 120C     		lsrs	r2, r2, #16
 402 005e A280     		strh	r2, [r4, #4]	@ movhi
 403              		.loc 1 423 0
 404 0060 2288     		ldrh	r2, [r4]
 405 0062 92B2     		uxth	r2, r2
 406              		.loc 1 424 0
 407 0064 43F00403 		orr	r3, r3, #4
 408              		.loc 1 423 0
 409 0068 42F40072 		orr	r2, r2, #512
 410 006c 2280     		strh	r2, [r4]	@ movhi
 411              		.loc 1 424 0
 412 006e 8360     		str	r3, [r0, #8]
 413              	.L37:
 414              		.loc 1 427 0
 415 0070 0E05     		lsls	r6, r1, #20
 416              		.loc 1 428 0
 417 0072 44BF     		itt	mi
 418 0074 43F00803 		orrmi	r3, r3, #8
 419 0078 8360     		strmi	r3, [r0, #8]
 420              		.loc 1 430 0
 421 007a 4D04     		lsls	r5, r1, #17
 422              		.loc 1 431 0
 423 007c 44BF     		itt	mi
 424 007e 43F02003 		orrmi	r3, r3, #32
 425 0082 8360     		strmi	r3, [r0, #8]
 426              		.loc 1 433 0
 427 0084 CC04     		lsls	r4, r1, #19
 428 0086 18D5     		bpl	.L40
 429              		.loc 1 434 0
 430 0088 43F01003 		orr	r3, r3, #16
 431              		.loc 1 436 0
 432 008c 0904     		lsls	r1, r1, #16
 433              	.LVL20:
 434              		.loc 1 434 0
 435 008e 8360     		str	r3, [r0, #8]
 436              		.loc 1 436 0
 437 0090 18D4     		bmi	.L41
 438              	.L42:
 439 0092 0446     		mov	r4, r0
 440              		.loc 1 441 0
 441              		.syntax unified
 442              	@ 441 "../../../os/hal/platforms/STM32/I2Cv1/i2c_lld.c" 1
 443 0094 FFF7FEFF 		bl      _port_lock
 444              	@ 0 "" 2
 445              		.thumb
 446              		.syntax unified
 447 0098 FFF7FEFF 		bl	dbg_check_lock_from_isr
 448              	.LVL21:
 449 009c E369     		ldr	r3, [r4, #28]
 450 009e 3BB1     		cbz	r3, .L45
 451              	.LVL22:
 452              	.LBB8:
 453              		.loc 1 441 0 is_stmt 0 discriminator 1
 454 00a0 0021     		movs	r1, #0
 455 00a2 6FF00102 		mvn	r2, #1
 456 00a6 E161     		str	r1, [r4, #28]
ARM GAS  /tmp/ccT30Fjp.s 			page 9


 457 00a8 1846     		mov	r0, r3
 458 00aa 9A62     		str	r2, [r3, #40]
 459 00ac FFF7FEFF 		bl	chSchReadyI
 460              	.LVL23:
 461              	.L45:
 462              	.LBE8:
 463              		.loc 1 441 0 discriminator 3
 464 00b0 FFF7FEFF 		bl	dbg_check_unlock_from_isr
 465              	.LVL24:
 466              		.syntax unified
 467              	@ 441 "../../../os/hal/platforms/STM32/I2Cv1/i2c_lld.c" 1
 468 00b4 FFF7FEFF 		bl      _port_unlock
 469              	@ 0 "" 2
 470              		.thumb
 471              		.syntax unified
 472 00b8 70BD     		pop	{r4, r5, r6, pc}
 473              	.LVL25:
 474              	.L40:
 475              		.loc 1 436 0 is_stmt 1
 476 00ba 0A04     		lsls	r2, r1, #16
 477 00bc 02D4     		bmi	.L41
 478              		.loc 1 440 0
 479 00be 002B     		cmp	r3, #0
 480 00c0 E7D1     		bne	.L42
 481 00c2 70BD     		pop	{r4, r5, r6, pc}
 482              	.LVL26:
 483              	.L41:
 484              		.loc 1 437 0
 485 00c4 43F04003 		orr	r3, r3, #64
 486 00c8 8360     		str	r3, [r0, #8]
 487 00ca E2E7     		b	.L42
 488              		.cfi_endproc
 489              	.LFE118:
 490              		.size	i2c_lld_serve_error_interrupt, .-i2c_lld_serve_error_interrupt
 491              		.section	.text.i2c_lld_safety_timeout,"ax",%progbits
 492              		.align	2
 493              		.p2align 4,,15
 494              		.thumb
 495              		.thumb_func
 496              		.type	i2c_lld_safety_timeout, %function
 497              	i2c_lld_safety_timeout:
 498              	.LFB112:
 499              		.loc 1 163 0
 500              		.cfi_startproc
 501              		@ args = 0, pretend = 0, frame = 0
 502              		@ frame_needed = 0, uses_anonymous_args = 0
 503              	.LVL27:
 504 0000 38B5     		push	{r3, r4, r5, lr}
 505              		.cfi_def_cfa_offset 16
 506              		.cfi_offset 3, -16
 507              		.cfi_offset 4, -12
 508              		.cfi_offset 5, -8
 509              		.cfi_offset 14, -4
 510              		.loc 1 163 0
 511 0002 0546     		mov	r5, r0
 512              	.LVL28:
 513              		.loc 1 166 0
ARM GAS  /tmp/ccT30Fjp.s 			page 10


 514              		.syntax unified
 515              	@ 166 "../../../os/hal/platforms/STM32/I2Cv1/i2c_lld.c" 1
 516 0004 FFF7FEFF 		bl      _port_lock
 517              	@ 0 "" 2
 518              		.thumb
 519              		.syntax unified
 520 0008 FFF7FEFF 		bl	dbg_check_lock_from_isr
 521              	.LVL29:
 522              		.loc 1 167 0
 523 000c EC69     		ldr	r4, [r5, #28]
 524 000e 54B1     		cbz	r4, .L70
 525              	.LVL30:
 526              	.LBB9:
 527              		.loc 1 169 0
 528 0010 2846     		mov	r0, r5
 529 0012 FFF7FEFF 		bl	i2c_lld_abort_operation
 530              	.LVL31:
 531              		.loc 1 170 0
 532 0016 0022     		movs	r2, #0
 533              		.loc 1 171 0
 534 0018 4FF0FF33 		mov	r3, #-1
 535              		.loc 1 170 0
 536 001c EA61     		str	r2, [r5, #28]
 537              		.loc 1 172 0
 538 001e 2046     		mov	r0, r4
 539              		.loc 1 171 0
 540 0020 A362     		str	r3, [r4, #40]
 541              		.loc 1 172 0
 542 0022 FFF7FEFF 		bl	chSchReadyI
 543              	.LVL32:
 544              	.L70:
 545              	.LBE9:
 546              		.loc 1 174 0
 547 0026 FFF7FEFF 		bl	dbg_check_unlock_from_isr
 548              	.LVL33:
 549              		.syntax unified
 550              	@ 174 "../../../os/hal/platforms/STM32/I2Cv1/i2c_lld.c" 1
 551 002a FFF7FEFF 		bl      _port_unlock
 552              	@ 0 "" 2
 553              		.thumb
 554              		.syntax unified
 555 002e 38BD     		pop	{r3, r4, r5, pc}
 556              		.cfi_endproc
 557              	.LFE112:
 558              		.size	i2c_lld_safety_timeout, .-i2c_lld_safety_timeout
 559              		.section	.text.i2c_lld_serve_tx_end_irq,"ax",%progbits
 560              		.align	2
 561              		.p2align 4,,15
 562              		.thumb
 563              		.thumb_func
 564              		.type	i2c_lld_serve_tx_end_irq, %function
 565              	i2c_lld_serve_tx_end_irq:
 566              	.LFB117:
 567              		.loc 1 380 0
 568              		.cfi_startproc
 569              		@ args = 0, pretend = 0, frame = 0
 570              		@ frame_needed = 0, uses_anonymous_args = 0
ARM GAS  /tmp/ccT30Fjp.s 			page 11


 571              	.LVL34:
 572              		.loc 1 385 0
 573 0000 11F00C0F 		tst	r1, #12
 574              		.loc 1 380 0
 575 0004 38B5     		push	{r3, r4, r5, lr}
 576              		.cfi_def_cfa_offset 16
 577              		.cfi_offset 3, -16
 578              		.cfi_offset 4, -12
 579              		.cfi_offset 5, -8
 580              		.cfi_offset 14, -4
 581              		.loc 1 380 0
 582 0006 0546     		mov	r5, r0
 583              		.loc 1 381 0
 584 0008 446B     		ldr	r4, [r0, #52]
 585              	.LVL35:
 586              		.loc 1 385 0
 587 000a 13D1     		bne	.L83
 588              	.LVL36:
 589              	.L76:
 590              		.loc 1 392 0
 591 000c 296B     		ldr	r1, [r5, #48]
 592 000e 0A68     		ldr	r2, [r1]
 593 0010 1368     		ldr	r3, [r2]
 594 0012 23F01F03 		bic	r3, r3, #31
 595 0016 1360     		str	r3, [r2]
 596              	.L77:
 597              		.loc 1 392 0 is_stmt 0 discriminator 2
 598 0018 1368     		ldr	r3, [r2]
 599 001a DB07     		lsls	r3, r3, #31
 600 001c FCD4     		bmi	.L77
 601              		.loc 1 392 0 discriminator 3
 602 001e 087A     		ldrb	r0, [r1, #8]	@ zero_extendqisi2
 603 0020 4A68     		ldr	r2, [r1, #4]
 604 0022 3D23     		movs	r3, #61
 605 0024 8340     		lsls	r3, r3, r0
 606 0026 1360     		str	r3, [r2]
 607              		.loc 1 396 0 is_stmt 1 discriminator 3
 608 0028 A388     		ldrh	r3, [r4, #4]
 609 002a 9BB2     		uxth	r3, r3
 610 002c 43F40073 		orr	r3, r3, #512
 611 0030 A380     		strh	r3, [r4, #4]	@ movhi
 612 0032 38BD     		pop	{r3, r4, r5, pc}
 613              	.LVL37:
 614              	.L83:
 615              		.loc 1 386 0
 616 0034 FFF7FEFF 		bl	port_halt
 617              	.LVL38:
 618 0038 E8E7     		b	.L76
 619              		.cfi_endproc
 620              	.LFE117:
 621              		.size	i2c_lld_serve_tx_end_irq, .-i2c_lld_serve_tx_end_irq
 622 003a 00BF     		.section	.text.i2c_lld_serve_rx_end_irq,"ax",%progbits
 623              		.align	2
 624              		.p2align 4,,15
 625              		.thumb
 626              		.thumb_func
 627              		.type	i2c_lld_serve_rx_end_irq, %function
ARM GAS  /tmp/ccT30Fjp.s 			page 12


 628              	i2c_lld_serve_rx_end_irq:
 629              	.LFB116:
 630              		.loc 1 353 0
 631              		.cfi_startproc
 632              		@ args = 0, pretend = 0, frame = 0
 633              		@ frame_needed = 0, uses_anonymous_args = 0
 634              	.LVL39:
 635              		.loc 1 358 0
 636 0000 11F00C0F 		tst	r1, #12
 637              		.loc 1 353 0
 638 0004 70B5     		push	{r4, r5, r6, lr}
 639              		.cfi_def_cfa_offset 16
 640              		.cfi_offset 4, -16
 641              		.cfi_offset 5, -12
 642              		.cfi_offset 6, -8
 643              		.cfi_offset 14, -4
 644              		.loc 1 353 0
 645 0006 0646     		mov	r6, r0
 646              		.loc 1 354 0
 647 0008 456B     		ldr	r5, [r0, #52]
 648              	.LVL40:
 649              		.loc 1 358 0
 650 000a 2FD1     		bne	.L96
 651              	.LVL41:
 652              	.L85:
 653              		.loc 1 365 0
 654 000c F16A     		ldr	r1, [r6, #44]
 655 000e 0A68     		ldr	r2, [r1]
 656 0010 1368     		ldr	r3, [r2]
 657 0012 23F01F03 		bic	r3, r3, #31
 658 0016 1360     		str	r3, [r2]
 659              	.L86:
 660              		.loc 1 365 0 is_stmt 0 discriminator 2
 661 0018 1368     		ldr	r3, [r2]
 662 001a 13F00104 		ands	r4, r3, #1
 663 001e FBD1     		bne	.L86
 664              		.loc 1 365 0 discriminator 3
 665 0020 087A     		ldrb	r0, [r1, #8]	@ zero_extendqisi2
 666 0022 4A68     		ldr	r2, [r1, #4]
 667 0024 3D23     		movs	r3, #61
 668 0026 8340     		lsls	r3, r3, r0
 669 0028 1360     		str	r3, [r2]
 670              		.loc 1 367 0 is_stmt 1 discriminator 3
 671 002a AB88     		ldrh	r3, [r5, #4]
 672 002c 23F48053 		bic	r3, r3, #4096
 673 0030 1B04     		lsls	r3, r3, #16
 674 0032 1B0C     		lsrs	r3, r3, #16
 675 0034 AB80     		strh	r3, [r5, #4]	@ movhi
 676              		.loc 1 368 0 discriminator 3
 677 0036 2B88     		ldrh	r3, [r5]
 678 0038 23F48063 		bic	r3, r3, #1024
 679 003c 1B04     		lsls	r3, r3, #16
 680 003e 1B0C     		lsrs	r3, r3, #16
 681 0040 2B80     		strh	r3, [r5]	@ movhi
 682              		.loc 1 369 0 discriminator 3
 683 0042 2B88     		ldrh	r3, [r5]
 684 0044 9BB2     		uxth	r3, r3
ARM GAS  /tmp/ccT30Fjp.s 			page 13


 685 0046 43F40073 		orr	r3, r3, #512
 686 004a 2B80     		strh	r3, [r5]	@ movhi
 687              		.loc 1 370 0 discriminator 3
 688              		.syntax unified
 689              	@ 370 "../../../os/hal/platforms/STM32/I2Cv1/i2c_lld.c" 1
 690 004c FFF7FEFF 		bl      _port_lock
 691              	@ 0 "" 2
 692              		.thumb
 693              		.syntax unified
 694 0050 FFF7FEFF 		bl	dbg_check_lock_from_isr
 695              	.LVL42:
 696 0054 F369     		ldr	r3, [r6, #28]
 697 0056 23B1     		cbz	r3, .L87
 698              	.LVL43:
 699              	.LBB10:
 700              		.loc 1 370 0 is_stmt 0 discriminator 1
 701 0058 F461     		str	r4, [r6, #28]
 702 005a 1846     		mov	r0, r3
 703 005c 9C62     		str	r4, [r3, #40]
 704 005e FFF7FEFF 		bl	chSchReadyI
 705              	.LVL44:
 706              	.L87:
 707              	.LBE10:
 708              		.loc 1 370 0 discriminator 3
 709 0062 FFF7FEFF 		bl	dbg_check_unlock_from_isr
 710              	.LVL45:
 711              		.syntax unified
 712              	@ 370 "../../../os/hal/platforms/STM32/I2Cv1/i2c_lld.c" 1
 713 0066 FFF7FEFF 		bl      _port_unlock
 714              	@ 0 "" 2
 715              		.thumb
 716              		.syntax unified
 717 006a 70BD     		pop	{r4, r5, r6, pc}
 718              	.LVL46:
 719              	.L96:
 720              		.loc 1 359 0 is_stmt 1
 721 006c FFF7FEFF 		bl	port_halt
 722              	.LVL47:
 723 0070 CCE7     		b	.L85
 724              		.cfi_endproc
 725              	.LFE116:
 726              		.size	i2c_lld_serve_rx_end_irq, .-i2c_lld_serve_rx_end_irq
 727 0072 00BF     		.section	.text.VectorBC,"ax",%progbits
 728              		.align	2
 729              		.p2align 4,,15
 730              		.global	VectorBC
 731              		.thumb
 732              		.thumb_func
 733              		.type	VectorBC, %function
 734              	VectorBC:
 735              	.LFB119:
 736              		.loc 1 454 0
 737              		.cfi_startproc
 738              		@ args = 0, pretend = 0, frame = 0
 739              		@ frame_needed = 0, uses_anonymous_args = 0
 740 0000 08B5     		push	{r3, lr}
 741              		.cfi_def_cfa_offset 8
ARM GAS  /tmp/ccT30Fjp.s 			page 14


 742              		.cfi_offset 3, -8
 743              		.cfi_offset 14, -4
 744              		.loc 1 456 0
 745 0002 FFF7FEFF 		bl	dbg_check_enter_isr
 746              	.LVL48:
 747              		.loc 1 458 0
 748 0006 0448     		ldr	r0, .L99
 749 0008 FFF7FEFF 		bl	i2c_lld_serve_event_interrupt
 750              	.LVL49:
 751              		.loc 1 460 0
 752 000c FFF7FEFF 		bl	dbg_check_leave_isr
 753              	.LVL50:
 754              		.loc 1 461 0
 755 0010 BDE80840 		pop	{r3, lr}
 756              		.cfi_restore 14
 757              		.cfi_restore 3
 758              		.cfi_def_cfa_offset 0
 759              		.loc 1 460 0
 760 0014 FFF7FEBF 		b	_port_irq_epilogue
 761              	.LVL51:
 762              	.L100:
 763              		.align	2
 764              	.L99:
 765 0018 00000000 		.word	.LANCHOR0
 766              		.cfi_endproc
 767              	.LFE119:
 768              		.size	VectorBC, .-VectorBC
 769              		.section	.text.VectorC0,"ax",%progbits
 770              		.align	2
 771              		.p2align 4,,15
 772              		.global	VectorC0
 773              		.thumb
 774              		.thumb_func
 775              		.type	VectorC0, %function
 776              	VectorC0:
 777              	.LFB120:
 778              		.loc 1 466 0
 779              		.cfi_startproc
 780              		@ args = 0, pretend = 0, frame = 0
 781              		@ frame_needed = 0, uses_anonymous_args = 0
 782 0000 38B5     		push	{r3, r4, r5, lr}
 783              		.cfi_def_cfa_offset 16
 784              		.cfi_offset 3, -16
 785              		.cfi_offset 4, -12
 786              		.cfi_offset 5, -8
 787              		.cfi_offset 14, -4
 788              		.loc 1 467 0
 789 0002 0C4D     		ldr	r5, .L103
 790 0004 6B6B     		ldr	r3, [r5, #52]
 791 0006 9C8A     		ldrh	r4, [r3, #20]
 792 0008 A4B2     		uxth	r4, r4
 793              	.LVL52:
 794              		.loc 1 469 0
 795 000a FFF7FEFF 		bl	dbg_check_enter_isr
 796              	.LVL53:
 797              		.loc 1 471 0
 798 000e 04F45F43 		and	r3, r4, #57088
ARM GAS  /tmp/ccT30Fjp.s 			page 15


 799 0012 6A6B     		ldr	r2, [r5, #52]
 800 0014 83F47F43 		eor	r3, r3, #65280
 801 0018 83F0FF03 		eor	r3, r3, #255
 802              		.loc 1 472 0
 803 001c 2146     		mov	r1, r4
 804              		.loc 1 471 0
 805 001e 9382     		strh	r3, [r2, #20]	@ movhi
 806              		.loc 1 472 0
 807 0020 2846     		mov	r0, r5
 808 0022 FFF7FEFF 		bl	i2c_lld_serve_error_interrupt
 809              	.LVL54:
 810              		.loc 1 474 0
 811 0026 FFF7FEFF 		bl	dbg_check_leave_isr
 812              	.LVL55:
 813              		.loc 1 475 0
 814 002a BDE83840 		pop	{r3, r4, r5, lr}
 815              		.cfi_restore 14
 816              		.cfi_restore 5
 817              		.cfi_restore 4
 818              		.cfi_restore 3
 819              		.cfi_def_cfa_offset 0
 820              	.LVL56:
 821              		.loc 1 474 0
 822 002e FFF7FEBF 		b	_port_irq_epilogue
 823              	.LVL57:
 824              	.L104:
 825 0032 00BF     		.align	2
 826              	.L103:
 827 0034 00000000 		.word	.LANCHOR0
 828              		.cfi_endproc
 829              	.LFE120:
 830              		.size	VectorC0, .-VectorC0
 831              		.section	.text.VectorC4,"ax",%progbits
 832              		.align	2
 833              		.p2align 4,,15
 834              		.global	VectorC4
 835              		.thumb
 836              		.thumb_func
 837              		.type	VectorC4, %function
 838              	VectorC4:
 839              	.LFB121:
 840              		.loc 1 484 0
 841              		.cfi_startproc
 842              		@ args = 0, pretend = 0, frame = 0
 843              		@ frame_needed = 0, uses_anonymous_args = 0
 844 0000 08B5     		push	{r3, lr}
 845              		.cfi_def_cfa_offset 8
 846              		.cfi_offset 3, -8
 847              		.cfi_offset 14, -4
 848              		.loc 1 486 0
 849 0002 FFF7FEFF 		bl	dbg_check_enter_isr
 850              	.LVL58:
 851              		.loc 1 488 0
 852 0006 0448     		ldr	r0, .L107
 853 0008 FFF7FEFF 		bl	i2c_lld_serve_event_interrupt
 854              	.LVL59:
 855              		.loc 1 490 0
ARM GAS  /tmp/ccT30Fjp.s 			page 16


 856 000c FFF7FEFF 		bl	dbg_check_leave_isr
 857              	.LVL60:
 858              		.loc 1 491 0
 859 0010 BDE80840 		pop	{r3, lr}
 860              		.cfi_restore 14
 861              		.cfi_restore 3
 862              		.cfi_def_cfa_offset 0
 863              		.loc 1 490 0
 864 0014 FFF7FEBF 		b	_port_irq_epilogue
 865              	.LVL61:
 866              	.L108:
 867              		.align	2
 868              	.L107:
 869 0018 00000000 		.word	.LANCHOR1
 870              		.cfi_endproc
 871              	.LFE121:
 872              		.size	VectorC4, .-VectorC4
 873              		.section	.text.VectorC8,"ax",%progbits
 874              		.align	2
 875              		.p2align 4,,15
 876              		.global	VectorC8
 877              		.thumb
 878              		.thumb_func
 879              		.type	VectorC8, %function
 880              	VectorC8:
 881              	.LFB122:
 882              		.loc 1 498 0
 883              		.cfi_startproc
 884              		@ args = 0, pretend = 0, frame = 0
 885              		@ frame_needed = 0, uses_anonymous_args = 0
 886 0000 38B5     		push	{r3, r4, r5, lr}
 887              		.cfi_def_cfa_offset 16
 888              		.cfi_offset 3, -16
 889              		.cfi_offset 4, -12
 890              		.cfi_offset 5, -8
 891              		.cfi_offset 14, -4
 892              		.loc 1 499 0
 893 0002 0C4D     		ldr	r5, .L111
 894 0004 6B6B     		ldr	r3, [r5, #52]
 895 0006 9C8A     		ldrh	r4, [r3, #20]
 896 0008 A4B2     		uxth	r4, r4
 897              	.LVL62:
 898              		.loc 1 501 0
 899 000a FFF7FEFF 		bl	dbg_check_enter_isr
 900              	.LVL63:
 901              		.loc 1 503 0
 902 000e 04F45F43 		and	r3, r4, #57088
 903 0012 6A6B     		ldr	r2, [r5, #52]
 904 0014 83F47F43 		eor	r3, r3, #65280
 905 0018 83F0FF03 		eor	r3, r3, #255
 906              		.loc 1 504 0
 907 001c 2146     		mov	r1, r4
 908              		.loc 1 503 0
 909 001e 9382     		strh	r3, [r2, #20]	@ movhi
 910              		.loc 1 504 0
 911 0020 2846     		mov	r0, r5
 912 0022 FFF7FEFF 		bl	i2c_lld_serve_error_interrupt
ARM GAS  /tmp/ccT30Fjp.s 			page 17


 913              	.LVL64:
 914              		.loc 1 506 0
 915 0026 FFF7FEFF 		bl	dbg_check_leave_isr
 916              	.LVL65:
 917              		.loc 1 507 0
 918 002a BDE83840 		pop	{r3, r4, r5, lr}
 919              		.cfi_restore 14
 920              		.cfi_restore 5
 921              		.cfi_restore 4
 922              		.cfi_restore 3
 923              		.cfi_def_cfa_offset 0
 924              	.LVL66:
 925              		.loc 1 506 0
 926 002e FFF7FEBF 		b	_port_irq_epilogue
 927              	.LVL67:
 928              	.L112:
 929 0032 00BF     		.align	2
 930              	.L111:
 931 0034 00000000 		.word	.LANCHOR1
 932              		.cfi_endproc
 933              	.LFE122:
 934              		.size	VectorC8, .-VectorC8
 935              		.section	.text.Vector160,"ax",%progbits
 936              		.align	2
 937              		.p2align 4,,15
 938              		.global	Vector160
 939              		.thumb
 940              		.thumb_func
 941              		.type	Vector160, %function
 942              	Vector160:
 943              	.LFB123:
 944              		.loc 1 516 0
 945              		.cfi_startproc
 946              		@ args = 0, pretend = 0, frame = 0
 947              		@ frame_needed = 0, uses_anonymous_args = 0
 948 0000 08B5     		push	{r3, lr}
 949              		.cfi_def_cfa_offset 8
 950              		.cfi_offset 3, -8
 951              		.cfi_offset 14, -4
 952              		.loc 1 518 0
 953 0002 FFF7FEFF 		bl	dbg_check_enter_isr
 954              	.LVL68:
 955              		.loc 1 520 0
 956 0006 0448     		ldr	r0, .L115
 957 0008 FFF7FEFF 		bl	i2c_lld_serve_event_interrupt
 958              	.LVL69:
 959              		.loc 1 522 0
 960 000c FFF7FEFF 		bl	dbg_check_leave_isr
 961              	.LVL70:
 962              		.loc 1 523 0
 963 0010 BDE80840 		pop	{r3, lr}
 964              		.cfi_restore 14
 965              		.cfi_restore 3
 966              		.cfi_def_cfa_offset 0
 967              		.loc 1 522 0
 968 0014 FFF7FEBF 		b	_port_irq_epilogue
 969              	.LVL71:
ARM GAS  /tmp/ccT30Fjp.s 			page 18


 970              	.L116:
 971              		.align	2
 972              	.L115:
 973 0018 00000000 		.word	.LANCHOR2
 974              		.cfi_endproc
 975              	.LFE123:
 976              		.size	Vector160, .-Vector160
 977              		.section	.text.Vector164,"ax",%progbits
 978              		.align	2
 979              		.p2align 4,,15
 980              		.global	Vector164
 981              		.thumb
 982              		.thumb_func
 983              		.type	Vector164, %function
 984              	Vector164:
 985              	.LFB124:
 986              		.loc 1 530 0
 987              		.cfi_startproc
 988              		@ args = 0, pretend = 0, frame = 0
 989              		@ frame_needed = 0, uses_anonymous_args = 0
 990 0000 38B5     		push	{r3, r4, r5, lr}
 991              		.cfi_def_cfa_offset 16
 992              		.cfi_offset 3, -16
 993              		.cfi_offset 4, -12
 994              		.cfi_offset 5, -8
 995              		.cfi_offset 14, -4
 996              		.loc 1 531 0
 997 0002 0C4D     		ldr	r5, .L119
 998 0004 6B6B     		ldr	r3, [r5, #52]
 999 0006 9C8A     		ldrh	r4, [r3, #20]
 1000 0008 A4B2     		uxth	r4, r4
 1001              	.LVL72:
 1002              		.loc 1 533 0
 1003 000a FFF7FEFF 		bl	dbg_check_enter_isr
 1004              	.LVL73:
 1005              		.loc 1 535 0
 1006 000e 04F45F43 		and	r3, r4, #57088
 1007 0012 6A6B     		ldr	r2, [r5, #52]
 1008 0014 83F47F43 		eor	r3, r3, #65280
 1009 0018 83F0FF03 		eor	r3, r3, #255
 1010              		.loc 1 536 0
 1011 001c 2146     		mov	r1, r4
 1012              		.loc 1 535 0
 1013 001e 9382     		strh	r3, [r2, #20]	@ movhi
 1014              		.loc 1 536 0
 1015 0020 2846     		mov	r0, r5
 1016 0022 FFF7FEFF 		bl	i2c_lld_serve_error_interrupt
 1017              	.LVL74:
 1018              		.loc 1 538 0
 1019 0026 FFF7FEFF 		bl	dbg_check_leave_isr
 1020              	.LVL75:
 1021              		.loc 1 539 0
 1022 002a BDE83840 		pop	{r3, r4, r5, lr}
 1023              		.cfi_restore 14
 1024              		.cfi_restore 5
 1025              		.cfi_restore 4
 1026              		.cfi_restore 3
ARM GAS  /tmp/ccT30Fjp.s 			page 19


 1027              		.cfi_def_cfa_offset 0
 1028              	.LVL76:
 1029              		.loc 1 538 0
 1030 002e FFF7FEBF 		b	_port_irq_epilogue
 1031              	.LVL77:
 1032              	.L120:
 1033 0032 00BF     		.align	2
 1034              	.L119:
 1035 0034 00000000 		.word	.LANCHOR2
 1036              		.cfi_endproc
 1037              	.LFE124:
 1038              		.size	Vector164, .-Vector164
 1039              		.section	.text.i2c_lld_init,"ax",%progbits
 1040              		.align	2
 1041              		.p2align 4,,15
 1042              		.global	i2c_lld_init
 1043              		.thumb
 1044              		.thumb_func
 1045              		.type	i2c_lld_init, %function
 1046              	i2c_lld_init:
 1047              	.LFB125:
 1048              		.loc 1 551 0
 1049              		.cfi_startproc
 1050              		@ args = 0, pretend = 0, frame = 0
 1051              		@ frame_needed = 0, uses_anonymous_args = 0
 1052 0000 2DE9F041 		push	{r4, r5, r6, r7, r8, lr}
 1053              		.cfi_def_cfa_offset 24
 1054              		.cfi_offset 4, -24
 1055              		.cfi_offset 5, -20
 1056              		.cfi_offset 6, -16
 1057              		.cfi_offset 7, -12
 1058              		.cfi_offset 8, -8
 1059              		.cfi_offset 14, -4
 1060              		.loc 1 554 0
 1061 0004 144F     		ldr	r7, .L123
 1062              		.loc 1 557 0
 1063 0006 154C     		ldr	r4, .L123+4
 1064              		.loc 1 562 0
 1065 0008 154E     		ldr	r6, .L123+8
 1066              		.loc 1 570 0
 1067 000a 164D     		ldr	r5, .L123+12
 1068              		.loc 1 554 0
 1069 000c 3846     		mov	r0, r7
 1070 000e FFF7FEFF 		bl	i2cObjectInit
 1071              	.LVL78:
 1072              		.loc 1 556 0
 1073 0012 154B     		ldr	r3, .L123+16
 1074 0014 7B63     		str	r3, [r7, #52]
 1075              		.loc 1 555 0
 1076 0016 4FF00008 		mov	r8, #0
 1077              		.loc 1 558 0
 1078 001a 04F14803 		add	r3, r4, #72
 1079              		.loc 1 562 0
 1080 001e 3046     		mov	r0, r6
 1081              		.loc 1 557 0
 1082 0020 FC62     		str	r4, [r7, #44]
 1083              		.loc 1 558 0
ARM GAS  /tmp/ccT30Fjp.s 			page 20


 1084 0022 3B63     		str	r3, [r7, #48]
 1085              		.loc 1 555 0
 1086 0024 C7F81C80 		str	r8, [r7, #28]
 1087              		.loc 1 562 0
 1088 0028 FFF7FEFF 		bl	i2cObjectInit
 1089              	.LVL79:
 1090              		.loc 1 565 0
 1091 002c 04F11807 		add	r7, r4, #24
 1092              		.loc 1 566 0
 1093 0030 04F15403 		add	r3, r4, #84
 1094              		.loc 1 564 0
 1095 0034 0D4A     		ldr	r2, .L123+20
 1096              		.loc 1 566 0
 1097 0036 3363     		str	r3, [r6, #48]
 1098              		.loc 1 570 0
 1099 0038 2846     		mov	r0, r5
 1100              		.loc 1 563 0
 1101 003a C6F81C80 		str	r8, [r6, #28]
 1102              		.loc 1 564 0
 1103 003e 7263     		str	r2, [r6, #52]
 1104              		.loc 1 565 0
 1105 0040 F762     		str	r7, [r6, #44]
 1106              		.loc 1 574 0
 1107 0042 3034     		adds	r4, r4, #48
 1108              		.loc 1 570 0
 1109 0044 FFF7FEFF 		bl	i2cObjectInit
 1110              	.LVL80:
 1111              		.loc 1 572 0
 1112 0048 094B     		ldr	r3, .L123+24
 1113              		.loc 1 573 0
 1114 004a EF62     		str	r7, [r5, #44]
 1115              		.loc 1 574 0
 1116 004c 2C63     		str	r4, [r5, #48]
 1117              		.loc 1 571 0
 1118 004e C5F81C80 		str	r8, [r5, #28]
 1119              		.loc 1 572 0
 1120 0052 6B63     		str	r3, [r5, #52]
 1121 0054 BDE8F081 		pop	{r4, r5, r6, r7, r8, pc}
 1122              	.L124:
 1123              		.align	2
 1124              	.L123:
 1125 0058 00000000 		.word	.LANCHOR0
 1126 005c 00000000 		.word	_stm32_dma_streams
 1127 0060 00000000 		.word	.LANCHOR1
 1128 0064 00000000 		.word	.LANCHOR2
 1129 0068 00540040 		.word	1073763328
 1130 006c 00580040 		.word	1073764352
 1131 0070 005C0040 		.word	1073765376
 1132              		.cfi_endproc
 1133              	.LFE125:
 1134              		.size	i2c_lld_init, .-i2c_lld_init
 1135              		.section	.text.i2c_lld_start,"ax",%progbits
 1136              		.align	2
 1137              		.p2align 4,,15
 1138              		.global	i2c_lld_start
 1139              		.thumb
 1140              		.thumb_func
ARM GAS  /tmp/ccT30Fjp.s 			page 21


 1141              		.type	i2c_lld_start, %function
 1142              	i2c_lld_start:
 1143              	.LFB126:
 1144              		.loc 1 585 0
 1145              		.cfi_startproc
 1146              		@ args = 0, pretend = 0, frame = 0
 1147              		@ frame_needed = 0, uses_anonymous_args = 0
 1148              	.LVL81:
 1149              		.loc 1 598 0
 1150 0000 0378     		ldrb	r3, [r0]	@ zero_extendqisi2
 1151              		.loc 1 588 0
 1152 0002 40F25642 		movw	r2, #1110
 1153              		.loc 1 585 0
 1154 0006 2DE9F041 		push	{r4, r5, r6, r7, r8, lr}
 1155              		.cfi_def_cfa_offset 24
 1156              		.cfi_offset 4, -24
 1157              		.cfi_offset 5, -20
 1158              		.cfi_offset 6, -16
 1159              		.cfi_offset 7, -12
 1160              		.cfi_offset 8, -8
 1161              		.cfi_offset 14, -4
 1162              		.loc 1 598 0
 1163 000a 012B     		cmp	r3, #1
 1164              		.loc 1 588 0
 1165 000c 8262     		str	r2, [r0, #40]
 1166              		.loc 1 592 0
 1167 000e 40F21642 		movw	r2, #1046
 1168              		.loc 1 585 0
 1169 0012 0446     		mov	r4, r0
 1170              		.loc 1 592 0
 1171 0014 4262     		str	r2, [r0, #36]
 1172              		.loc 1 586 0
 1173 0016 456B     		ldr	r5, [r0, #52]
 1174              	.LVL82:
 1175              		.loc 1 598 0
 1176 0018 6FD0     		beq	.L188
 1177              	.L153:
 1178              		.loc 1 586 0
 1179 001a 2F46     		mov	r7, r5
 1180              	.LVL83:
 1181              	.L126:
 1182              		.loc 1 686 0
 1183 001c E16A     		ldr	r1, [r4, #44]
 1184              		.loc 1 687 0
 1185 001e 226B     		ldr	r2, [r4, #48]
 1186              	.LBB18:
 1187              	.LBB19:
 1188              		.loc 1 187 0
 1189 0020 6368     		ldr	r3, [r4, #4]
 1190              	.LBE19:
 1191              	.LBE18:
 1192              		.loc 1 686 0
 1193 0022 0868     		ldr	r0, [r1]
 1194              		.loc 1 687 0
 1195 0024 1168     		ldr	r1, [r2]
 1196              	.LBB30:
 1197              	.LBB20:
ARM GAS  /tmp/ccT30Fjp.s 			page 22


 1198              		.loc 1 187 0
 1199 0026 5E68     		ldr	r6, [r3, #4]
 1200              		.loc 1 188 0
 1201 0028 93F80880 		ldrb	r8, [r3, #8]	@ zero_extendqisi2
 1202              		.loc 1 190 0
 1203 002c B24A     		ldr	r2, .L201
 1204              	.LBE20:
 1205              	.LBE30:
 1206              		.loc 1 686 0
 1207 002e 05F11003 		add	r3, r5, #16
 1208 0032 8360     		str	r3, [r0, #8]
 1209              		.loc 1 687 0
 1210 0034 8B60     		str	r3, [r1, #8]
 1211              		.loc 1 690 0
 1212 0036 4FF40041 		mov	r1, #32768
 1213 003a 2980     		strh	r1, [r5]	@ movhi
 1214              	.LBB31:
 1215              	.LBB21:
 1216              		.loc 1 190 0
 1217 003c 731E     		subs	r3, r6, #1
 1218              	.LBE21:
 1219              	.LBE31:
 1220              		.loc 1 691 0
 1221 003e 0021     		movs	r1, #0
 1222 0040 2980     		strh	r1, [r5]	@ movhi
 1223              	.LBB32:
 1224              	.LBB22:
 1225              		.loc 1 190 0
 1226 0042 9342     		cmp	r3, r2
 1227              	.LBE22:
 1228              	.LBE32:
 1229              		.loc 1 692 0
 1230 0044 4FF41061 		mov	r1, #2304
 1231 0048 A980     		strh	r1, [r5, #4]	@ movhi
 1232              	.LVL84:
 1233              	.LBB33:
 1234              	.LBB23:
 1235              		.loc 1 190 0
 1236 004a 02D9     		bls	.L135
 1237 004c AB48     		ldr	r0, .L201+4
 1238 004e FFF7FEFF 		bl	chDbgPanic
 1239              	.LVL85:
 1240              	.L135:
 1241              		.loc 1 194 0
 1242 0052 BB88     		ldrh	r3, [r7, #4]
 1243              		.loc 1 201 0
 1244 0054 AA4A     		ldr	r2, .L201+8
 1245              		.loc 1 194 0
 1246 0056 23F03F03 		bic	r3, r3, #63
 1247 005a 1B04     		lsls	r3, r3, #16
 1248 005c 1B0C     		lsrs	r3, r3, #16
 1249 005e BB80     		strh	r3, [r7, #4]	@ movhi
 1250              		.loc 1 195 0
 1251 0060 BB88     		ldrh	r3, [r7, #4]
 1252 0062 9BB2     		uxth	r3, r3
 1253 0064 43F02A03 		orr	r3, r3, #42
 1254              		.loc 1 201 0
ARM GAS  /tmp/ccT30Fjp.s 			page 23


 1255 0068 9642     		cmp	r6, r2
 1256              		.loc 1 195 0
 1257 006a BB80     		strh	r3, [r7, #4]	@ movhi
 1258              	.LVL86:
 1259              		.loc 1 201 0
 1260 006c 36DC     		bgt	.L136
 1261              		.loc 1 203 0
 1262 006e B8F1010F 		cmp	r8, #1
 1263 0072 02D0     		beq	.L137
 1264 0074 A348     		ldr	r0, .L201+12
 1265 0076 FFF7FEFF 		bl	chDbgPanic
 1266              	.LVL87:
 1267              	.L137:
 1268              		.loc 1 208 0
 1269 007a 7600     		lsls	r6, r6, #1
 1270              	.LVL88:
 1271 007c A24A     		ldr	r2, .L201+16
 1272 007e 92FBF6F3 		sdiv	r3, r2, r6
 1273 0082 06FB03F3 		mul	r3, r6, r3
 1274 0086 D21A     		subs	r2, r2, r3
 1275 0088 002A     		cmp	r2, #0
 1276 008a 40F08880 		bne	.L189
 1277              		.loc 1 211 0
 1278 008e 9E4B     		ldr	r3, .L201+16
 1279 0090 93FBF6F6 		sdiv	r6, r3, r6
 1280 0094 B3B2     		uxth	r3, r6
 1281              	.LVL89:
 1282              		.loc 1 213 0
 1283 0096 032B     		cmp	r3, #3
 1284 0098 79D9     		bls	.L190
 1285              	.LVL90:
 1286              	.L139:
 1287              		.loc 1 219 0
 1288 009a 2B22     		movs	r2, #43
 1289              		.loc 1 252 0
 1290 009c B3F5805F 		cmp	r3, #4096
 1291              		.loc 1 216 0
 1292 00a0 C6F30B06 		ubfx	r6, r6, #0, #12
 1293              	.LVL91:
 1294              		.loc 1 219 0
 1295 00a4 3A84     		strh	r2, [r7, #32]	@ movhi
 1296              	.LVL92:
 1297              		.loc 1 252 0
 1298 00a6 02D3     		bcc	.L140
 1299 00a8 9848     		ldr	r0, .L201+20
 1300 00aa FFF7FEFF 		bl	chDbgPanic
 1301              	.LVL93:
 1302              	.L140:
 1303              	.LBE23:
 1304              	.LBE33:
 1305              	.LBB34:
 1306              	.LBB35:
 1307              		.loc 1 267 0
 1308 00ae 6368     		ldr	r3, [r4, #4]
 1309 00b0 616B     		ldr	r1, [r4, #52]
 1310              		.loc 1 271 0
 1311 00b2 1A78     		ldrb	r2, [r3]	@ zero_extendqisi2
ARM GAS  /tmp/ccT30Fjp.s 			page 24


 1312              	.LBE35:
 1313              	.LBE34:
 1314              	.LBB38:
 1315              	.LBB24:
 1316              		.loc 1 255 0
 1317 00b4 BE83     		strh	r6, [r7, #28]	@ movhi
 1318              	.LVL94:
 1319              	.LBE24:
 1320              	.LBE38:
 1321              	.LBB39:
 1322              	.LBB36:
 1323              		.loc 1 270 0
 1324 00b6 0B88     		ldrh	r3, [r1]
 1325              		.loc 1 271 0
 1326 00b8 022A     		cmp	r2, #2
 1327              		.loc 1 270 0
 1328 00ba 9BB2     		uxth	r3, r3
 1329              	.LVL95:
 1330              		.loc 1 271 0
 1331 00bc 61D0     		beq	.L149
 1332 00be 032A     		cmp	r2, #3
 1333 00c0 5CD0     		beq	.L150
 1334 00c2 012A     		cmp	r2, #1
 1335 00c4 02D1     		bne	.L148
 1336              		.loc 1 273 0
 1337 00c6 23F00A03 		bic	r3, r3, #10
 1338              	.LVL96:
 1339 00ca 9BB2     		uxth	r3, r3
 1340              	.LVL97:
 1341              	.L148:
 1342              		.loc 1 283 0
 1343 00cc 0B80     		strh	r3, [r1]	@ movhi
 1344              	.LVL98:
 1345              	.LBE36:
 1346              	.LBE39:
 1347              		.loc 1 699 0
 1348 00ce 2B88     		ldrh	r3, [r5]
 1349 00d0 9BB2     		uxth	r3, r3
 1350 00d2 43F00103 		orr	r3, r3, #1
 1351 00d6 2B80     		strh	r3, [r5]	@ movhi
 1352              		.loc 1 700 0
 1353 00d8 BDE8F081 		pop	{r4, r5, r6, r7, r8, pc}
 1354              	.LVL99:
 1355              	.L136:
 1356              	.LBB40:
 1357              	.LBB25:
 1358              		.loc 1 221 0
 1359 00dc 8C4B     		ldr	r3, .L201+24
 1360 00de 9E42     		cmp	r6, r3
 1361 00e0 4ADC     		bgt	.L154
 1362              		.loc 1 223 0
 1363 00e2 A8F10203 		sub	r3, r8, #2
 1364 00e6 012B     		cmp	r3, #1
 1365 00e8 64D9     		bls	.L143
 1366 00ea 8A48     		ldr	r0, .L201+28
 1367 00ec FFF7FEFF 		bl	chDbgPanic
 1368              	.LVL100:
ARM GAS  /tmp/ccT30Fjp.s 			page 25


 1369 00f0 48F6FF76 		movw	r6, #36863
 1370              	.LVL101:
 1371              	.L144:
 1372              		.loc 1 249 0
 1373 00f4 0D23     		movs	r3, #13
 1374 00f6 3B84     		strh	r3, [r7, #32]	@ movhi
 1375 00f8 D9E7     		b	.L140
 1376              	.LVL102:
 1377              	.L188:
 1378              	.LBE25:
 1379              	.LBE40:
 1380              		.loc 1 601 0
 1381 00fa 874E     		ldr	r6, .L201+32
 1382 00fc B042     		cmp	r0, r6
 1383 00fe 00F08B80 		beq	.L191
 1384              		.loc 1 629 0
 1385 0102 864E     		ldr	r6, .L201+36
 1386 0104 B042     		cmp	r0, r6
 1387 0106 00F0B980 		beq	.L192
 1388              		.loc 1 657 0
 1389 010a 854E     		ldr	r6, .L201+40
 1390 010c B042     		cmp	r0, r6
 1391 010e 84D1     		bne	.L153
 1392              	.LBB41:
 1393              		.loc 1 660 0
 1394 0110 844B     		ldr	r3, .L201+44
 1395              		.loc 1 661 0
 1396 0112 C06A     		ldr	r0, [r0, #44]
 1397              	.LVL103:
 1398              		.loc 1 660 0
 1399 0114 196A     		ldr	r1, [r3, #32]
 1400              		.loc 1 661 0
 1401 0116 844A     		ldr	r2, .L201+48
 1402              		.loc 1 660 0
 1403 0118 41F40001 		orr	r1, r1, #8388608
 1404 011c 0027     		movs	r7, #0
 1405 011e 1962     		str	r1, [r3, #32]
 1406 0120 1F62     		str	r7, [r3, #32]
 1407              		.loc 1 661 0
 1408 0122 0521     		movs	r1, #5
 1409 0124 2346     		mov	r3, r4
 1410 0126 FFF7FEFF 		bl	dmaStreamAllocate
 1411              	.LVL104:
 1412              		.loc 1 665 0
 1413 012a 0028     		cmp	r0, #0
 1414 012c 40F01081 		bne	.L193
 1415              	.LVL105:
 1416              	.L133:
 1417              		.loc 1 666 0
 1418 0130 7B4B     		ldr	r3, .L201+40
 1419 0132 7E4A     		ldr	r2, .L201+52
 1420 0134 306B     		ldr	r0, [r6, #48]
 1421 0136 0521     		movs	r1, #5
 1422 0138 FFF7FEFF 		bl	dmaStreamAllocate
 1423              	.LVL106:
 1424              		.loc 1 670 0
 1425 013c 0028     		cmp	r0, #0
ARM GAS  /tmp/ccT30Fjp.s 			page 26


 1426 013e 40F00381 		bne	.L194
 1427              	.LVL107:
 1428              	.L134:
 1429              		.loc 1 671 0
 1430 0142 784A     		ldr	r2, .L201+44
 1431 0144 136C     		ldr	r3, [r2, #64]
 1432 0146 43F40003 		orr	r3, r3, #8388608
 1433 014a 1364     		str	r3, [r2, #64]
 1434              		.loc 1 672 0
 1435 014c 5021     		movs	r1, #80
 1436 014e 4820     		movs	r0, #72
 1437 0150 FFF7FEFF 		bl	nvicEnableVector
 1438              	.LVL108:
 1439              		.loc 1 674 0
 1440 0154 5021     		movs	r1, #80
 1441 0156 4920     		movs	r0, #73
 1442 0158 FFF7FEFF 		bl	nvicEnableVector
 1443              	.LVL109:
 1444              		.loc 1 677 0
 1445 015c 726A     		ldr	r2, [r6, #36]
 1446              		.loc 1 679 0
 1447 015e B36A     		ldr	r3, [r6, #40]
 1448 0160 776B     		ldr	r7, [r6, #52]
 1449              		.loc 1 677 0
 1450 0162 42F0C062 		orr	r2, r2, #100663296
 1451              		.loc 1 679 0
 1452 0166 43F0C063 		orr	r3, r3, #100663296
 1453              		.loc 1 677 0
 1454 016a 42F44032 		orr	r2, r2, #196608
 1455              		.loc 1 679 0
 1456 016e 43F44033 		orr	r3, r3, #196608
 1457              		.loc 1 677 0
 1458 0172 7262     		str	r2, [r6, #36]
 1459              		.loc 1 679 0
 1460 0174 B362     		str	r3, [r6, #40]
 1461 0176 51E7     		b	.L126
 1462              	.LVL110:
 1463              	.L154:
 1464              	.LBE41:
 1465              	.LBB42:
 1466              	.LBB26:
 1467              		.loc 1 198 0
 1468 0178 0026     		movs	r6, #0
 1469              	.LVL111:
 1470 017a 98E7     		b	.L140
 1471              	.LVL112:
 1472              	.L150:
 1473              	.LBE26:
 1474              	.LBE42:
 1475              	.LBB43:
 1476              	.LBB37:
 1477              		.loc 1 280 0
 1478 017c 43F00A03 		orr	r3, r3, #10
 1479              	.LVL113:
 1480 0180 A4E7     		b	.L148
 1481              	.L149:
 1482              	.LVL114:
ARM GAS  /tmp/ccT30Fjp.s 			page 27


 1483 0182 23F00803 		bic	r3, r3, #8
 1484              	.LVL115:
 1485 0186 9BB2     		uxth	r3, r3
 1486              		.loc 1 277 0
 1487 0188 43F00203 		orr	r3, r3, #2
 1488              	.LVL116:
 1489 018c 9EE7     		b	.L148
 1490              	.LVL117:
 1491              	.L190:
 1492              	.LBE37:
 1493              	.LBE43:
 1494              	.LBB44:
 1495              	.LBB27:
 1496              		.loc 1 213 0
 1497 018e 6848     		ldr	r0, .L201+56
 1498 0190 FFF7FEFF 		bl	chDbgPanic
 1499              	.LVL118:
 1500              		.loc 1 219 0
 1501 0194 2B23     		movs	r3, #43
 1502              		.loc 1 216 0
 1503 0196 C6F30B06 		ubfx	r6, r6, #0, #12
 1504              	.LVL119:
 1505              		.loc 1 219 0
 1506 019a 3B84     		strh	r3, [r7, #32]	@ movhi
 1507 019c 87E7     		b	.L140
 1508              	.LVL120:
 1509              	.L189:
 1510              		.loc 1 208 0
 1511 019e 6548     		ldr	r0, .L201+60
 1512 01a0 FFF7FEFF 		bl	chDbgPanic
 1513              	.LVL121:
 1514              		.loc 1 211 0
 1515 01a4 584B     		ldr	r3, .L201+16
 1516 01a6 93FBF6F6 		sdiv	r6, r3, r6
 1517 01aa B3B2     		uxth	r3, r6
 1518              	.LVL122:
 1519              		.loc 1 213 0
 1520 01ac 032B     		cmp	r3, #3
 1521 01ae 3FF674AF 		bhi	.L139
 1522 01b2 ECE7     		b	.L190
 1523              	.LVL123:
 1524              	.L143:
 1525              		.loc 1 227 0
 1526 01b4 B8F1020F 		cmp	r8, #2
 1527 01b8 15D1     		bne	.L145
 1528              		.loc 1 229 0
 1529 01ba 06EB4606 		add	r6, r6, r6, lsl #1
 1530              	.LVL124:
 1531 01be 524A     		ldr	r2, .L201+16
 1532 01c0 92FBF6F3 		sdiv	r3, r2, r6
 1533 01c4 06FB03F3 		mul	r3, r6, r3
 1534 01c8 D21A     		subs	r2, r2, r3
 1535 01ca 42B9     		cbnz	r2, .L195
 1536              	.L146:
 1537              	.LVL125:
 1538 01cc 4E4B     		ldr	r3, .L201+16
 1539 01ce 93FBF6F6 		sdiv	r6, r3, r6
ARM GAS  /tmp/ccT30Fjp.s 			page 28


 1540              	.LVL126:
 1541 01d2 6FEA4646 		mvn	r6, r6, lsl #17
 1542 01d6 6FEA5646 		mvn	r6, r6, lsr #17
 1543 01da B6B2     		uxth	r6, r6
 1544 01dc 8AE7     		b	.L144
 1545              	.LVL127:
 1546              	.L195:
 1547 01de 5648     		ldr	r0, .L201+64
 1548 01e0 FFF7FEFF 		bl	chDbgPanic
 1549              	.LVL128:
 1550 01e4 F2E7     		b	.L146
 1551              	.LVL129:
 1552              	.L145:
 1553              		.loc 1 234 0
 1554 01e6 B8F1030F 		cmp	r8, #3
 1555 01ea 40F0BD80 		bne	.L155
 1556              		.loc 1 236 0
 1557 01ee 06EB8606 		add	r6, r6, r6, lsl #2
 1558              	.LVL130:
 1559 01f2 06EB8606 		add	r6, r6, r6, lsl #2
 1560 01f6 444A     		ldr	r2, .L201+16
 1561 01f8 92FBF6F3 		sdiv	r3, r2, r6
 1562 01fc 06FB03F3 		mul	r3, r6, r3
 1563 0200 D21A     		subs	r2, r2, r3
 1564 0202 002A     		cmp	r2, #0
 1565 0204 6CD1     		bne	.L196
 1566              	.L147:
 1567              	.LVL131:
 1568 0206 404B     		ldr	r3, .L201+16
 1569 0208 93FBF6F6 		sdiv	r6, r3, r6
 1570              	.LVL132:
 1571 020c 6FEA8646 		mvn	r6, r6, lsl #18
 1572 0210 6FEA9646 		mvn	r6, r6, lsr #18
 1573 0214 B6B2     		uxth	r6, r6
 1574 0216 6DE7     		b	.L144
 1575              	.LVL133:
 1576              	.L191:
 1577              	.LBE27:
 1578              	.LBE44:
 1579              	.LBB45:
 1580              		.loc 1 604 0
 1581 0218 424B     		ldr	r3, .L201+44
 1582              		.loc 1 605 0
 1583 021a C06A     		ldr	r0, [r0, #44]
 1584              	.LVL134:
 1585              		.loc 1 604 0
 1586 021c 196A     		ldr	r1, [r3, #32]
 1587              		.loc 1 605 0
 1588 021e 424A     		ldr	r2, .L201+48
 1589              		.loc 1 604 0
 1590 0220 41F40011 		orr	r1, r1, #2097152
 1591 0224 0027     		movs	r7, #0
 1592 0226 1962     		str	r1, [r3, #32]
 1593 0228 1F62     		str	r7, [r3, #32]
 1594              		.loc 1 605 0
 1595 022a 0521     		movs	r1, #5
 1596 022c 2346     		mov	r3, r4
ARM GAS  /tmp/ccT30Fjp.s 			page 29


 1597 022e FFF7FEFF 		bl	dmaStreamAllocate
 1598              	.LVL135:
 1599              		.loc 1 609 0
 1600 0232 0028     		cmp	r0, #0
 1601 0234 5CD1     		bne	.L197
 1602              	.LVL136:
 1603              	.L128:
 1604              		.loc 1 610 0
 1605 0236 384B     		ldr	r3, .L201+32
 1606 0238 3C4A     		ldr	r2, .L201+52
 1607 023a 306B     		ldr	r0, [r6, #48]
 1608 023c 0521     		movs	r1, #5
 1609 023e FFF7FEFF 		bl	dmaStreamAllocate
 1610              	.LVL137:
 1611              		.loc 1 614 0
 1612 0242 0028     		cmp	r0, #0
 1613 0244 50D1     		bne	.L198
 1614              	.LVL138:
 1615              	.L129:
 1616              		.loc 1 615 0
 1617 0246 374A     		ldr	r2, .L201+44
 1618 0248 136C     		ldr	r3, [r2, #64]
 1619 024a 43F40013 		orr	r3, r3, #2097152
 1620 024e 1364     		str	r3, [r2, #64]
 1621              		.loc 1 616 0
 1622 0250 5021     		movs	r1, #80
 1623 0252 1F20     		movs	r0, #31
 1624 0254 FFF7FEFF 		bl	nvicEnableVector
 1625              	.LVL139:
 1626              		.loc 1 618 0
 1627 0258 5021     		movs	r1, #80
 1628 025a 2020     		movs	r0, #32
 1629 025c FFF7FEFF 		bl	nvicEnableVector
 1630              	.LVL140:
 1631              		.loc 1 621 0
 1632 0260 726A     		ldr	r2, [r6, #36]
 1633              		.loc 1 623 0
 1634 0262 B36A     		ldr	r3, [r6, #40]
 1635 0264 776B     		ldr	r7, [r6, #52]
 1636              		.loc 1 621 0
 1637 0266 42F00072 		orr	r2, r2, #33554432
 1638              		.loc 1 623 0
 1639 026a 43F00073 		orr	r3, r3, #33554432
 1640              		.loc 1 621 0
 1641 026e 42F44032 		orr	r2, r2, #196608
 1642              		.loc 1 623 0
 1643 0272 43F44033 		orr	r3, r3, #196608
 1644              		.loc 1 621 0
 1645 0276 7262     		str	r2, [r6, #36]
 1646              		.loc 1 623 0
 1647 0278 B362     		str	r3, [r6, #40]
 1648 027a CFE6     		b	.L126
 1649              	.LVL141:
 1650              	.L192:
 1651              	.LBE45:
 1652              	.LBB46:
 1653              		.loc 1 632 0
ARM GAS  /tmp/ccT30Fjp.s 			page 30


 1654 027c 294B     		ldr	r3, .L201+44
 1655              		.loc 1 633 0
 1656 027e C06A     		ldr	r0, [r0, #44]
 1657              	.LVL142:
 1658              		.loc 1 632 0
 1659 0280 196A     		ldr	r1, [r3, #32]
 1660              		.loc 1 633 0
 1661 0282 294A     		ldr	r2, .L201+48
 1662              		.loc 1 632 0
 1663 0284 41F48001 		orr	r1, r1, #4194304
 1664 0288 0027     		movs	r7, #0
 1665 028a 1962     		str	r1, [r3, #32]
 1666 028c 1F62     		str	r7, [r3, #32]
 1667              		.loc 1 633 0
 1668 028e 0521     		movs	r1, #5
 1669 0290 2346     		mov	r3, r4
 1670 0292 FFF7FEFF 		bl	dmaStreamAllocate
 1671              	.LVL143:
 1672              		.loc 1 637 0
 1673 0296 0028     		cmp	r0, #0
 1674 0298 62D1     		bne	.L199
 1675              	.LVL144:
 1676              	.L131:
 1677              		.loc 1 638 0
 1678 029a 204B     		ldr	r3, .L201+36
 1679 029c 234A     		ldr	r2, .L201+52
 1680 029e 306B     		ldr	r0, [r6, #48]
 1681 02a0 0521     		movs	r1, #5
 1682 02a2 FFF7FEFF 		bl	dmaStreamAllocate
 1683              	.LVL145:
 1684              		.loc 1 642 0
 1685 02a6 0028     		cmp	r0, #0
 1686 02a8 56D1     		bne	.L200
 1687              	.LVL146:
 1688              	.L132:
 1689              		.loc 1 643 0
 1690 02aa 1E4A     		ldr	r2, .L201+44
 1691 02ac 136C     		ldr	r3, [r2, #64]
 1692 02ae 43F48003 		orr	r3, r3, #4194304
 1693 02b2 1364     		str	r3, [r2, #64]
 1694              		.loc 1 644 0
 1695 02b4 5021     		movs	r1, #80
 1696 02b6 2120     		movs	r0, #33
 1697 02b8 FFF7FEFF 		bl	nvicEnableVector
 1698              	.LVL147:
 1699              		.loc 1 646 0
 1700 02bc 5021     		movs	r1, #80
 1701 02be 2220     		movs	r0, #34
 1702 02c0 FFF7FEFF 		bl	nvicEnableVector
 1703              	.LVL148:
 1704              		.loc 1 649 0
 1705 02c4 726A     		ldr	r2, [r6, #36]
 1706              		.loc 1 651 0
 1707 02c6 B36A     		ldr	r3, [r6, #40]
 1708 02c8 776B     		ldr	r7, [r6, #52]
 1709              		.loc 1 649 0
 1710 02ca 42F06062 		orr	r2, r2, #234881024
ARM GAS  /tmp/ccT30Fjp.s 			page 31


 1711              		.loc 1 651 0
 1712 02ce 43F06063 		orr	r3, r3, #234881024
 1713              		.loc 1 649 0
 1714 02d2 42F44032 		orr	r2, r2, #196608
 1715              		.loc 1 651 0
 1716 02d6 43F44033 		orr	r3, r3, #196608
 1717              		.loc 1 649 0
 1718 02da 7262     		str	r2, [r6, #36]
 1719              		.loc 1 651 0
 1720 02dc B362     		str	r3, [r6, #40]
 1721 02de 9DE6     		b	.L126
 1722              	.LVL149:
 1723              	.L196:
 1724              	.LBE46:
 1725              	.LBB47:
 1726              	.LBB28:
 1727              		.loc 1 236 0
 1728 02e0 1648     		ldr	r0, .L201+68
 1729 02e2 FFF7FEFF 		bl	chDbgPanic
 1730              	.LVL150:
 1731 02e6 8EE7     		b	.L147
 1732              	.LVL151:
 1733              	.L198:
 1734              	.LBE28:
 1735              	.LBE47:
 1736              	.LBB48:
 1737              		.loc 1 614 0 discriminator 1
 1738 02e8 1548     		ldr	r0, .L201+72
 1739              	.LVL152:
 1740 02ea FFF7FEFF 		bl	chDbgPanic
 1741              	.LVL153:
 1742 02ee AAE7     		b	.L129
 1743              	.LVL154:
 1744              	.L197:
 1745              		.loc 1 609 0 discriminator 1
 1746 02f0 1448     		ldr	r0, .L201+76
 1747              	.LVL155:
 1748 02f2 FFF7FEFF 		bl	chDbgPanic
 1749              	.LVL156:
 1750 02f6 9EE7     		b	.L128
 1751              	.L202:
 1752              		.align	2
 1753              	.L201:
 1754 02f8 FF083D00 		.word	3999999
 1755 02fc 78000000 		.word	.LC6
 1756 0300 A0860100 		.word	100000
 1757 0304 90000000 		.word	.LC7
 1758 0308 80DE8002 		.word	42000000
 1759 030c 20010000 		.word	.LC13
 1760 0310 801A0600 		.word	400000
 1761 0314 D8000000 		.word	.LC10
 1762 0318 00000000 		.word	.LANCHOR0
 1763 031c 00000000 		.word	.LANCHOR1
 1764 0320 00000000 		.word	.LANCHOR2
 1765 0324 00380240 		.word	1073887232
 1766 0328 00000000 		.word	i2c_lld_serve_rx_end_irq
 1767 032c 00000000 		.word	i2c_lld_serve_tx_end_irq
ARM GAS  /tmp/ccT30Fjp.s 			page 32


 1768 0330 C0000000 		.word	.LC9
 1769 0334 A8000000 		.word	.LC8
 1770 0338 F0000000 		.word	.LC11
 1771 033c 08010000 		.word	.LC12
 1772 0340 14000000 		.word	.LC1
 1773 0344 00000000 		.word	.LC0
 1774              	.LVL157:
 1775              	.L194:
 1776              	.LBE48:
 1777              	.LBB49:
 1778              		.loc 1 670 0 discriminator 1
 1779 0348 0948     		ldr	r0, .L203
 1780              	.LVL158:
 1781 034a FFF7FEFF 		bl	chDbgPanic
 1782              	.LVL159:
 1783 034e F8E6     		b	.L134
 1784              	.LVL160:
 1785              	.L193:
 1786              		.loc 1 665 0 discriminator 1
 1787 0350 0848     		ldr	r0, .L203+4
 1788              	.LVL161:
 1789 0352 FFF7FEFF 		bl	chDbgPanic
 1790              	.LVL162:
 1791 0356 EBE6     		b	.L133
 1792              	.LVL163:
 1793              	.L200:
 1794              	.LBE49:
 1795              	.LBB50:
 1796              		.loc 1 642 0 discriminator 1
 1797 0358 0748     		ldr	r0, .L203+8
 1798              	.LVL164:
 1799 035a FFF7FEFF 		bl	chDbgPanic
 1800              	.LVL165:
 1801 035e A4E7     		b	.L132
 1802              	.LVL166:
 1803              	.L199:
 1804              		.loc 1 637 0 discriminator 1
 1805 0360 0648     		ldr	r0, .L203+12
 1806              	.LVL167:
 1807 0362 FFF7FEFF 		bl	chDbgPanic
 1808              	.LVL168:
 1809 0366 98E7     		b	.L131
 1810              	.LVL169:
 1811              	.L155:
 1812              	.LBE50:
 1813              	.LBB51:
 1814              	.LBB29:
 1815              		.loc 1 234 0
 1816 0368 48F6FF76 		movw	r6, #36863
 1817              	.LVL170:
 1818 036c C2E6     		b	.L144
 1819              	.L204:
 1820 036e 00BF     		.align	2
 1821              	.L203:
 1822 0370 64000000 		.word	.LC5
 1823 0374 50000000 		.word	.LC4
 1824 0378 3C000000 		.word	.LC3
ARM GAS  /tmp/ccT30Fjp.s 			page 33


 1825 037c 28000000 		.word	.LC2
 1826              	.LBE29:
 1827              	.LBE51:
 1828              		.cfi_endproc
 1829              	.LFE126:
 1830              		.size	i2c_lld_start, .-i2c_lld_start
 1831              		.section	.text.i2c_lld_stop,"ax",%progbits
 1832              		.align	2
 1833              		.p2align 4,,15
 1834              		.global	i2c_lld_stop
 1835              		.thumb
 1836              		.thumb_func
 1837              		.type	i2c_lld_stop, %function
 1838              	i2c_lld_stop:
 1839              	.LFB127:
 1840              		.loc 1 709 0
 1841              		.cfi_startproc
 1842              		@ args = 0, pretend = 0, frame = 0
 1843              		@ frame_needed = 0, uses_anonymous_args = 0
 1844              	.LVL171:
 1845              		.loc 1 712 0
 1846 0000 0378     		ldrb	r3, [r0]	@ zero_extendqisi2
 1847 0002 012B     		cmp	r3, #1
 1848 0004 13D0     		beq	.L212
 1849              		.loc 1 709 0
 1850 0006 10B5     		push	{r4, lr}
 1851              		.cfi_def_cfa_offset 8
 1852              		.cfi_offset 4, -8
 1853              		.cfi_offset 14, -4
 1854 0008 0446     		mov	r4, r0
 1855              		.loc 1 715 0
 1856 000a FFF7FEFF 		bl	i2c_lld_abort_operation
 1857              	.LVL172:
 1858              		.loc 1 716 0
 1859 000e 206B     		ldr	r0, [r4, #48]
 1860 0010 FFF7FEFF 		bl	dmaStreamRelease
 1861              	.LVL173:
 1862              		.loc 1 717 0
 1863 0014 E06A     		ldr	r0, [r4, #44]
 1864 0016 FFF7FEFF 		bl	dmaStreamRelease
 1865              	.LVL174:
 1866              		.loc 1 720 0
 1867 001a 174B     		ldr	r3, .L216
 1868 001c 9C42     		cmp	r4, r3
 1869 001e 13D0     		beq	.L213
 1870              		.loc 1 728 0
 1871 0020 164B     		ldr	r3, .L216+4
 1872 0022 9C42     		cmp	r4, r3
 1873 0024 1CD0     		beq	.L214
 1874              		.loc 1 736 0
 1875 0026 164B     		ldr	r3, .L216+8
 1876 0028 9C42     		cmp	r4, r3
 1877 002a 01D0     		beq	.L215
 1878              	.L205:
 1879 002c 10BD     		pop	{r4, pc}
 1880              	.LVL175:
 1881              	.L212:
ARM GAS  /tmp/ccT30Fjp.s 			page 34


 1882              		.cfi_def_cfa_offset 0
 1883              		.cfi_restore 4
 1884              		.cfi_restore 14
 1885 002e 7047     		bx	lr
 1886              	.LVL176:
 1887              	.L215:
 1888              		.cfi_def_cfa_offset 8
 1889              		.cfi_offset 4, -8
 1890              		.cfi_offset 14, -4
 1891              		.loc 1 737 0
 1892 0030 4820     		movs	r0, #72
 1893 0032 FFF7FEFF 		bl	nvicDisableVector
 1894              	.LVL177:
 1895              		.loc 1 738 0
 1896 0036 4920     		movs	r0, #73
 1897 0038 FFF7FEFF 		bl	nvicDisableVector
 1898              	.LVL178:
 1899              		.loc 1 739 0
 1900 003c 114A     		ldr	r2, .L216+12
 1901 003e 136C     		ldr	r3, [r2, #64]
 1902 0040 23F40003 		bic	r3, r3, #8388608
 1903 0044 1364     		str	r3, [r2, #64]
 1904              		.loc 1 743 0
 1905 0046 F1E7     		b	.L205
 1906              	.L213:
 1907              		.loc 1 721 0
 1908 0048 1F20     		movs	r0, #31
 1909 004a FFF7FEFF 		bl	nvicDisableVector
 1910              	.LVL179:
 1911              		.loc 1 722 0
 1912 004e 2020     		movs	r0, #32
 1913 0050 FFF7FEFF 		bl	nvicDisableVector
 1914              	.LVL180:
 1915              		.loc 1 723 0
 1916 0054 0B4A     		ldr	r2, .L216+12
 1917 0056 136C     		ldr	r3, [r2, #64]
 1918 0058 23F40013 		bic	r3, r3, #2097152
 1919 005c 1364     		str	r3, [r2, #64]
 1920 005e 10BD     		pop	{r4, pc}
 1921              	.LVL181:
 1922              	.L214:
 1923              		.loc 1 729 0
 1924 0060 2120     		movs	r0, #33
 1925 0062 FFF7FEFF 		bl	nvicDisableVector
 1926              	.LVL182:
 1927              		.loc 1 730 0
 1928 0066 2220     		movs	r0, #34
 1929 0068 FFF7FEFF 		bl	nvicDisableVector
 1930              	.LVL183:
 1931              		.loc 1 731 0
 1932 006c 054A     		ldr	r2, .L216+12
 1933 006e 136C     		ldr	r3, [r2, #64]
 1934 0070 23F48003 		bic	r3, r3, #4194304
 1935 0074 1364     		str	r3, [r2, #64]
 1936 0076 10BD     		pop	{r4, pc}
 1937              	.LVL184:
 1938              	.L217:
ARM GAS  /tmp/ccT30Fjp.s 			page 35


 1939              		.align	2
 1940              	.L216:
 1941 0078 00000000 		.word	.LANCHOR0
 1942 007c 00000000 		.word	.LANCHOR1
 1943 0080 00000000 		.word	.LANCHOR2
 1944 0084 00380240 		.word	1073887232
 1945              		.cfi_endproc
 1946              	.LFE127:
 1947              		.size	i2c_lld_stop, .-i2c_lld_stop
 1948              		.section	.text.i2c_lld_master_receive_timeout,"ax",%progbits
 1949              		.align	2
 1950              		.p2align 4,,15
 1951              		.global	i2c_lld_master_receive_timeout
 1952              		.thumb
 1953              		.thumb_func
 1954              		.type	i2c_lld_master_receive_timeout, %function
 1955              	i2c_lld_master_receive_timeout:
 1956              	.LFB128:
 1957              		.loc 1 770 0
 1958              		.cfi_startproc
 1959              		@ args = 4, pretend = 0, frame = 24
 1960              		@ frame_needed = 0, uses_anonymous_args = 0
 1961              	.LVL185:
 1962 0000 2DE9F043 		push	{r4, r5, r6, r7, r8, r9, lr}
 1963              		.cfi_def_cfa_offset 28
 1964              		.cfi_offset 4, -28
 1965              		.cfi_offset 5, -24
 1966              		.cfi_offset 6, -20
 1967              		.cfi_offset 7, -16
 1968              		.cfi_offset 8, -12
 1969              		.cfi_offset 9, -8
 1970              		.cfi_offset 14, -4
 1971 0004 87B0     		sub	sp, sp, #28
 1972              		.cfi_def_cfa_offset 56
 1973              		.loc 1 770 0
 1974 0006 0646     		mov	r6, r0
 1975 0008 0E9D     		ldr	r5, [sp, #56]
 1976              		.loc 1 771 0
 1977 000a 446B     		ldr	r4, [r0, #52]
 1978              	.LVL186:
 1979              		.loc 1 779 0
 1980 000c 681C     		adds	r0, r5, #1
 1981              	.LVL187:
 1982              		.loc 1 770 0
 1983 000e 0F46     		mov	r7, r1
 1984 0010 9146     		mov	r9, r2
 1985 0012 9846     		mov	r8, r3
 1986              		.loc 1 779 0
 1987 0014 05D0     		beq	.L219
 1988              		.loc 1 780 0
 1989 0016 3346     		mov	r3, r6
 1990              	.LVL188:
 1991 0018 314A     		ldr	r2, .L242
 1992              	.LVL189:
 1993 001a 2946     		mov	r1, r5
 1994              	.LVL190:
 1995 001c 01A8     		add	r0, sp, #4
ARM GAS  /tmp/ccT30Fjp.s 			page 36


 1996 001e FFF7FEFF 		bl	chVTSetI
 1997              	.LVL191:
 1998              	.L219:
 1999              		.loc 1 783 0
 2000 0022 FFF7FEFF 		bl	dbg_check_unlock
 2001              	.LVL192:
 2002              		.syntax unified
 2003              	@ 783 "../../../os/hal/platforms/STM32/I2Cv1/i2c_lld.c" 1
 2004 0026 FFF7FEFF 		bl      _port_unlock
 2005              	@ 0 "" 2
 2006              		.loc 1 790 0
 2007              		.thumb
 2008              		.syntax unified
 2009 002a F36A     		ldr	r3, [r6, #44]
 2010 002c 726A     		ldr	r2, [r6, #36]
 2011 002e 1B68     		ldr	r3, [r3]
 2012              		.loc 1 786 0
 2013 0030 7F00     		lsls	r7, r7, #1
 2014 0032 47F00107 		orr	r7, r7, #1
 2015              		.loc 1 787 0
 2016 0036 0021     		movs	r1, #0
 2017              		.loc 1 786 0
 2018 0038 3784     		strh	r7, [r6, #32]	@ movhi
 2019              		.loc 1 787 0
 2020 003a B160     		str	r1, [r6, #8]
 2021              		.loc 1 790 0
 2022 003c 1A60     		str	r2, [r3]
 2023              		.loc 1 791 0
 2024 003e C3F80C90 		str	r9, [r3, #12]
 2025              		.loc 1 792 0
 2026 0042 C3F80480 		str	r8, [r3, #4]
 2027              		.loc 1 796 0
 2028 0046 03E0     		b	.L220
 2029              	.L221:
 2030              		.loc 1 800 0
 2031 0048 FFF7FEFF 		bl	dbg_check_unlock
 2032              	.LVL193:
 2033              		.syntax unified
 2034              	@ 800 "../../../os/hal/platforms/STM32/I2Cv1/i2c_lld.c" 1
 2035 004c FFF7FEFF 		bl      _port_unlock
 2036              	@ 0 "" 2
 2037              		.thumb
 2038              		.syntax unified
 2039              	.L220:
 2040              		.loc 1 796 0
 2041 0050 238B     		ldrh	r3, [r4, #24]
 2042 0052 9A07     		lsls	r2, r3, #30
 2043 0054 02D4     		bmi	.L223
 2044              		.loc 1 796 0 is_stmt 0 discriminator 1
 2045 0056 2388     		ldrh	r3, [r4]
 2046 0058 9B05     		lsls	r3, r3, #22
 2047 005a 0DD5     		bpl	.L241
 2048              	.L223:
 2049              		.loc 1 797 0 is_stmt 1
 2050              		.syntax unified
 2051              	@ 797 "../../../os/hal/platforms/STM32/I2Cv1/i2c_lld.c" 1
 2052 005c FFF7FEFF 		bl      _port_lock
ARM GAS  /tmp/ccT30Fjp.s 			page 37


 2053              	@ 0 "" 2
 2054              		.thumb
 2055              		.syntax unified
 2056 0060 FFF7FEFF 		bl	dbg_check_lock
 2057              	.LVL194:
 2058              		.loc 1 798 0
 2059 0064 691C     		adds	r1, r5, #1
 2060 0066 EFD0     		beq	.L221
 2061              		.loc 1 798 0 is_stmt 0 discriminator 1
 2062 0068 049B     		ldr	r3, [sp, #16]
 2063 006a 002B     		cmp	r3, #0
 2064 006c ECD1     		bne	.L221
 2065              	.L225:
 2066              		.loc 1 799 0 is_stmt 1
 2067 006e 4FF0FF30 		mov	r0, #-1
 2068              		.loc 1 822 0
 2069 0072 07B0     		add	sp, sp, #28
 2070              		.cfi_remember_state
 2071              		.cfi_def_cfa_offset 28
 2072              		@ sp needed
 2073 0074 BDE8F083 		pop	{r4, r5, r6, r7, r8, r9, pc}
 2074              	.LVL195:
 2075              	.L241:
 2076              		.cfi_restore_state
 2077              		.loc 1 804 0
 2078              		.syntax unified
 2079              	@ 804 "../../../os/hal/platforms/STM32/I2Cv1/i2c_lld.c" 1
 2080 0078 FFF7FEFF 		bl      _port_lock
 2081              	@ 0 "" 2
 2082              		.thumb
 2083              		.syntax unified
 2084 007c FFF7FEFF 		bl	dbg_check_lock
 2085              	.LVL196:
 2086              		.loc 1 808 0
 2087 0080 0135     		adds	r5, r5, #1
 2088 0082 1CD0     		beq	.L224
 2089              		.loc 1 808 0 is_stmt 0 discriminator 1
 2090 0084 049B     		ldr	r3, [sp, #16]
 2091 0086 002B     		cmp	r3, #0
 2092 0088 F1D0     		beq	.L225
 2093              		.loc 1 812 0 is_stmt 1
 2094 008a A388     		ldrh	r3, [r4, #4]
 2095              		.loc 1 816 0
 2096 008c 154D     		ldr	r5, .L242+4
 2097              		.loc 1 812 0
 2098 008e 9BB2     		uxth	r3, r3
 2099 0090 43F40073 		orr	r3, r3, #512
 2100 0094 A380     		strh	r3, [r4, #4]	@ movhi
 2101              		.loc 1 813 0
 2102 0096 2388     		ldrh	r3, [r4]
 2103              		.loc 1 816 0
 2104 0098 AA69     		ldr	r2, [r5, #24]
 2105              		.loc 1 813 0
 2106 009a 9BB2     		uxth	r3, r3
 2107 009c 43F4A063 		orr	r3, r3, #1280
 2108 00a0 2380     		strh	r3, [r4]	@ movhi
 2109              		.loc 1 817 0
ARM GAS  /tmp/ccT30Fjp.s 			page 38


 2110 00a2 0220     		movs	r0, #2
 2111              		.loc 1 816 0
 2112 00a4 F261     		str	r2, [r6, #28]
 2113              		.loc 1 817 0
 2114 00a6 FFF7FEFF 		bl	chSchGoSleepS
 2115              	.LVL197:
 2116              		.loc 1 818 0
 2117 00aa 049B     		ldr	r3, [sp, #16]
 2118 00ac 13B1     		cbz	r3, .L227
 2119              		.loc 1 819 0
 2120 00ae 01A8     		add	r0, sp, #4
 2121 00b0 FFF7FEFF 		bl	chVTResetI
 2122              	.LVL198:
 2123              	.L227:
 2124              		.loc 1 821 0
 2125 00b4 AB69     		ldr	r3, [r5, #24]
 2126 00b6 986A     		ldr	r0, [r3, #40]
 2127              		.loc 1 822 0
 2128 00b8 07B0     		add	sp, sp, #28
 2129              		.cfi_remember_state
 2130              		.cfi_def_cfa_offset 28
 2131              		@ sp needed
 2132 00ba BDE8F083 		pop	{r4, r5, r6, r7, r8, r9, pc}
 2133              	.LVL199:
 2134              	.L224:
 2135              		.cfi_restore_state
 2136              		.loc 1 812 0
 2137 00be A388     		ldrh	r3, [r4, #4]
 2138              		.loc 1 816 0
 2139 00c0 084D     		ldr	r5, .L242+4
 2140              		.loc 1 812 0
 2141 00c2 9BB2     		uxth	r3, r3
 2142 00c4 43F40073 		orr	r3, r3, #512
 2143 00c8 A380     		strh	r3, [r4, #4]	@ movhi
 2144              		.loc 1 813 0
 2145 00ca 2388     		ldrh	r3, [r4]
 2146              		.loc 1 816 0
 2147 00cc AA69     		ldr	r2, [r5, #24]
 2148              		.loc 1 813 0
 2149 00ce 9BB2     		uxth	r3, r3
 2150 00d0 43F4A063 		orr	r3, r3, #1280
 2151 00d4 2380     		strh	r3, [r4]	@ movhi
 2152              		.loc 1 817 0
 2153 00d6 0220     		movs	r0, #2
 2154              		.loc 1 816 0
 2155 00d8 F261     		str	r2, [r6, #28]
 2156              		.loc 1 817 0
 2157 00da FFF7FEFF 		bl	chSchGoSleepS
 2158              	.LVL200:
 2159 00de E9E7     		b	.L227
 2160              	.L243:
 2161              		.align	2
 2162              	.L242:
 2163 00e0 00000000 		.word	i2c_lld_safety_timeout
 2164 00e4 00000000 		.word	rlist
 2165              		.cfi_endproc
 2166              	.LFE128:
ARM GAS  /tmp/ccT30Fjp.s 			page 39


 2167              		.size	i2c_lld_master_receive_timeout, .-i2c_lld_master_receive_timeout
 2168              		.section	.text.i2c_lld_master_transmit_timeout,"ax",%progbits
 2169              		.align	2
 2170              		.p2align 4,,15
 2171              		.global	i2c_lld_master_transmit_timeout
 2172              		.thumb
 2173              		.thumb_func
 2174              		.type	i2c_lld_master_transmit_timeout, %function
 2175              	i2c_lld_master_transmit_timeout:
 2176              	.LFB129:
 2177              		.loc 1 852 0
 2178              		.cfi_startproc
 2179              		@ args = 12, pretend = 0, frame = 24
 2180              		@ frame_needed = 0, uses_anonymous_args = 0
 2181              	.LVL201:
 2182 0000 2DE9F043 		push	{r4, r5, r6, r7, r8, r9, lr}
 2183              		.cfi_def_cfa_offset 28
 2184              		.cfi_offset 4, -28
 2185              		.cfi_offset 5, -24
 2186              		.cfi_offset 6, -20
 2187              		.cfi_offset 7, -16
 2188              		.cfi_offset 8, -12
 2189              		.cfi_offset 9, -8
 2190              		.cfi_offset 14, -4
 2191 0004 87B0     		sub	sp, sp, #28
 2192              		.cfi_def_cfa_offset 56
 2193              		.loc 1 852 0
 2194 0006 8046     		mov	r8, r0
 2195 0008 109D     		ldr	r5, [sp, #64]
 2196              		.loc 1 853 0
 2197 000a 446B     		ldr	r4, [r0, #52]
 2198              	.LVL202:
 2199              		.loc 1 862 0
 2200 000c 681C     		adds	r0, r5, #1
 2201              	.LVL203:
 2202              		.loc 1 852 0
 2203 000e 8946     		mov	r9, r1
 2204 0010 1746     		mov	r7, r2
 2205 0012 1E46     		mov	r6, r3
 2206              		.loc 1 862 0
 2207 0014 05D0     		beq	.L245
 2208              		.loc 1 863 0
 2209 0016 4346     		mov	r3, r8
 2210              	.LVL204:
 2211 0018 384A     		ldr	r2, .L268
 2212              	.LVL205:
 2213 001a 2946     		mov	r1, r5
 2214              	.LVL206:
 2215 001c 01A8     		add	r0, sp, #4
 2216 001e FFF7FEFF 		bl	chVTSetI
 2217              	.LVL207:
 2218              	.L245:
 2219              		.loc 1 866 0
 2220 0022 FFF7FEFF 		bl	dbg_check_unlock
 2221              	.LVL208:
 2222              		.syntax unified
 2223              	@ 866 "../../../os/hal/platforms/STM32/I2Cv1/i2c_lld.c" 1
ARM GAS  /tmp/ccT30Fjp.s 			page 40


 2224 0026 FFF7FEFF 		bl      _port_unlock
 2225              	@ 0 "" 2
 2226              		.loc 1 873 0
 2227              		.thumb
 2228              		.syntax unified
 2229 002a D8F83020 		ldr	r2, [r8, #48]
 2230              		.loc 1 878 0
 2231 002e D8F82C30 		ldr	r3, [r8, #44]
 2232              		.loc 1 873 0
 2233 0032 1268     		ldr	r2, [r2]
 2234              		.loc 1 878 0
 2235 0034 1B68     		ldr	r3, [r3]
 2236              		.loc 1 873 0
 2237 0036 D8F82810 		ldr	r1, [r8, #40]
 2238              		.loc 1 869 0
 2239 003a 4FEA4909 		lsl	r9, r9, #1
 2240              		.loc 1 870 0
 2241 003e 0020     		movs	r0, #0
 2242              		.loc 1 869 0
 2243 0040 A8F82090 		strh	r9, [r8, #32]	@ movhi
 2244              		.loc 1 870 0
 2245 0044 C8F80800 		str	r0, [r8, #8]
 2246              		.loc 1 873 0
 2247 0048 1160     		str	r1, [r2]
 2248              		.loc 1 878 0
 2249 004a D8F82410 		ldr	r1, [r8, #36]
 2250              		.loc 1 874 0
 2251 004e D760     		str	r7, [r2, #12]
 2252              		.loc 1 875 0
 2253 0050 5660     		str	r6, [r2, #4]
 2254              		.loc 1 879 0
 2255 0052 0E9A     		ldr	r2, [sp, #56]
 2256              		.loc 1 878 0
 2257 0054 1960     		str	r1, [r3]
 2258              		.loc 1 879 0
 2259 0056 DA60     		str	r2, [r3, #12]
 2260              		.loc 1 880 0
 2261 0058 0F9A     		ldr	r2, [sp, #60]
 2262 005a 5A60     		str	r2, [r3, #4]
 2263              		.loc 1 884 0
 2264 005c 03E0     		b	.L246
 2265              	.L247:
 2266              		.loc 1 888 0
 2267 005e FFF7FEFF 		bl	dbg_check_unlock
 2268              	.LVL209:
 2269              		.syntax unified
 2270              	@ 888 "../../../os/hal/platforms/STM32/I2Cv1/i2c_lld.c" 1
 2271 0062 FFF7FEFF 		bl      _port_unlock
 2272              	@ 0 "" 2
 2273              		.thumb
 2274              		.syntax unified
 2275              	.L246:
 2276              		.loc 1 884 0
 2277 0066 238B     		ldrh	r3, [r4, #24]
 2278 0068 9A07     		lsls	r2, r3, #30
 2279 006a 02D4     		bmi	.L249
 2280              		.loc 1 884 0 is_stmt 0 discriminator 1
ARM GAS  /tmp/ccT30Fjp.s 			page 41


 2281 006c 2388     		ldrh	r3, [r4]
 2282 006e 9B05     		lsls	r3, r3, #22
 2283 0070 0DD5     		bpl	.L267
 2284              	.L249:
 2285              		.loc 1 885 0 is_stmt 1
 2286              		.syntax unified
 2287              	@ 885 "../../../os/hal/platforms/STM32/I2Cv1/i2c_lld.c" 1
 2288 0072 FFF7FEFF 		bl      _port_lock
 2289              	@ 0 "" 2
 2290              		.thumb
 2291              		.syntax unified
 2292 0076 FFF7FEFF 		bl	dbg_check_lock
 2293              	.LVL210:
 2294              		.loc 1 886 0
 2295 007a 691C     		adds	r1, r5, #1
 2296 007c EFD0     		beq	.L247
 2297              		.loc 1 886 0 is_stmt 0 discriminator 1
 2298 007e 049B     		ldr	r3, [sp, #16]
 2299 0080 002B     		cmp	r3, #0
 2300 0082 ECD1     		bne	.L247
 2301              	.L251:
 2302              		.loc 1 887 0 is_stmt 1
 2303 0084 4FF0FF30 		mov	r0, #-1
 2304              		.loc 1 910 0
 2305 0088 07B0     		add	sp, sp, #28
 2306              		.cfi_remember_state
 2307              		.cfi_def_cfa_offset 28
 2308              		@ sp needed
 2309 008a BDE8F083 		pop	{r4, r5, r6, r7, r8, r9, pc}
 2310              	.LVL211:
 2311              	.L267:
 2312              		.cfi_restore_state
 2313              		.loc 1 892 0
 2314              		.syntax unified
 2315              	@ 892 "../../../os/hal/platforms/STM32/I2Cv1/i2c_lld.c" 1
 2316 008e FFF7FEFF 		bl      _port_lock
 2317              	@ 0 "" 2
 2318              		.thumb
 2319              		.syntax unified
 2320 0092 FFF7FEFF 		bl	dbg_check_lock
 2321              	.LVL212:
 2322              		.loc 1 896 0
 2323 0096 0135     		adds	r5, r5, #1
 2324 0098 1DD0     		beq	.L250
 2325              		.loc 1 896 0 is_stmt 0 discriminator 1
 2326 009a 049B     		ldr	r3, [sp, #16]
 2327 009c 002B     		cmp	r3, #0
 2328 009e F1D0     		beq	.L251
 2329              		.loc 1 900 0 is_stmt 1
 2330 00a0 A388     		ldrh	r3, [r4, #4]
 2331              		.loc 1 904 0
 2332 00a2 174D     		ldr	r5, .L268+4
 2333              		.loc 1 900 0
 2334 00a4 9BB2     		uxth	r3, r3
 2335 00a6 43F40073 		orr	r3, r3, #512
 2336 00aa A380     		strh	r3, [r4, #4]	@ movhi
 2337              		.loc 1 901 0
ARM GAS  /tmp/ccT30Fjp.s 			page 42


 2338 00ac 2388     		ldrh	r3, [r4]
 2339              		.loc 1 904 0
 2340 00ae AA69     		ldr	r2, [r5, #24]
 2341              		.loc 1 901 0
 2342 00b0 9BB2     		uxth	r3, r3
 2343 00b2 43F48073 		orr	r3, r3, #256
 2344 00b6 2380     		strh	r3, [r4]	@ movhi
 2345              		.loc 1 905 0
 2346 00b8 0220     		movs	r0, #2
 2347              		.loc 1 904 0
 2348 00ba C8F81C20 		str	r2, [r8, #28]
 2349              		.loc 1 905 0
 2350 00be FFF7FEFF 		bl	chSchGoSleepS
 2351              	.LVL213:
 2352              		.loc 1 906 0
 2353 00c2 049B     		ldr	r3, [sp, #16]
 2354 00c4 13B1     		cbz	r3, .L253
 2355              		.loc 1 907 0
 2356 00c6 01A8     		add	r0, sp, #4
 2357 00c8 FFF7FEFF 		bl	chVTResetI
 2358              	.LVL214:
 2359              	.L253:
 2360              		.loc 1 909 0
 2361 00cc AB69     		ldr	r3, [r5, #24]
 2362 00ce 986A     		ldr	r0, [r3, #40]
 2363              		.loc 1 910 0
 2364 00d0 07B0     		add	sp, sp, #28
 2365              		.cfi_remember_state
 2366              		.cfi_def_cfa_offset 28
 2367              		@ sp needed
 2368 00d2 BDE8F083 		pop	{r4, r5, r6, r7, r8, r9, pc}
 2369              	.LVL215:
 2370              	.L250:
 2371              		.cfi_restore_state
 2372              		.loc 1 900 0
 2373 00d6 A388     		ldrh	r3, [r4, #4]
 2374              		.loc 1 904 0
 2375 00d8 094D     		ldr	r5, .L268+4
 2376              		.loc 1 900 0
 2377 00da 9BB2     		uxth	r3, r3
 2378 00dc 43F40073 		orr	r3, r3, #512
 2379 00e0 A380     		strh	r3, [r4, #4]	@ movhi
 2380              		.loc 1 901 0
 2381 00e2 2388     		ldrh	r3, [r4]
 2382              		.loc 1 904 0
 2383 00e4 AA69     		ldr	r2, [r5, #24]
 2384              		.loc 1 901 0
 2385 00e6 9BB2     		uxth	r3, r3
 2386 00e8 43F48073 		orr	r3, r3, #256
 2387 00ec 2380     		strh	r3, [r4]	@ movhi
 2388              		.loc 1 905 0
 2389 00ee 0220     		movs	r0, #2
 2390              		.loc 1 904 0
 2391 00f0 C8F81C20 		str	r2, [r8, #28]
 2392              		.loc 1 905 0
 2393 00f4 FFF7FEFF 		bl	chSchGoSleepS
 2394              	.LVL216:
ARM GAS  /tmp/ccT30Fjp.s 			page 43


 2395 00f8 E8E7     		b	.L253
 2396              	.L269:
 2397 00fa 00BF     		.align	2
 2398              	.L268:
 2399 00fc 00000000 		.word	i2c_lld_safety_timeout
 2400 0100 00000000 		.word	rlist
 2401              		.cfi_endproc
 2402              	.LFE129:
 2403              		.size	i2c_lld_master_transmit_timeout, .-i2c_lld_master_transmit_timeout
 2404              		.global	I2CD3
 2405              		.global	I2CD2
 2406              		.global	I2CD1
 2407              		.section	.rodata.str1.4,"aMS",%progbits,1
 2408              		.align	2
 2409              	.LC0:
 2410 0000 6932635F 		.ascii	"i2c_lld_start(), #1\000"
 2410      6C6C645F 
 2410      73746172 
 2410      7428292C 
 2410      20233100 
 2411              	.LC1:
 2412 0014 6932635F 		.ascii	"i2c_lld_start(), #2\000"
 2412      6C6C645F 
 2412      73746172 
 2412      7428292C 
 2412      20233200 
 2413              	.LC2:
 2414 0028 6932635F 		.ascii	"i2c_lld_start(), #3\000"
 2414      6C6C645F 
 2414      73746172 
 2414      7428292C 
 2414      20233300 
 2415              	.LC3:
 2416 003c 6932635F 		.ascii	"i2c_lld_start(), #4\000"
 2416      6C6C645F 
 2416      73746172 
 2416      7428292C 
 2416      20233400 
 2417              	.LC4:
 2418 0050 6932635F 		.ascii	"i2c_lld_start(), #5\000"
 2418      6C6C645F 
 2418      73746172 
 2418      7428292C 
 2418      20233500 
 2419              	.LC5:
 2420 0064 6932635F 		.ascii	"i2c_lld_start(), #6\000"
 2420      6C6C645F 
 2420      73746172 
 2420      7428292C 
 2420      20233600 
 2421              	.LC6:
 2422 0078 22693263 		.ascii	"\"i2c_lld_set_clock\"()\000"
 2422      5F6C6C64 
 2422      5F736574 
 2422      5F636C6F 
 2422      636B2228 
 2423 008e 0000     		.space	2
ARM GAS  /tmp/ccT30Fjp.s 			page 44


 2424              	.LC7:
 2425 0090 6932635F 		.ascii	"i2c_lld_set_clock(), #1\000"
 2425      6C6C645F 
 2425      7365745F 
 2425      636C6F63 
 2425      6B28292C 
 2426              	.LC8:
 2427 00a8 6932635F 		.ascii	"i2c_lld_set_clock(), #2\000"
 2427      6C6C645F 
 2427      7365745F 
 2427      636C6F63 
 2427      6B28292C 
 2428              	.LC9:
 2429 00c0 6932635F 		.ascii	"i2c_lld_set_clock(), #3\000"
 2429      6C6C645F 
 2429      7365745F 
 2429      636C6F63 
 2429      6B28292C 
 2430              	.LC10:
 2431 00d8 6932635F 		.ascii	"i2c_lld_set_clock(), #4\000"
 2431      6C6C645F 
 2431      7365745F 
 2431      636C6F63 
 2431      6B28292C 
 2432              	.LC11:
 2433 00f0 6932635F 		.ascii	"i2c_lld_set_clock(), #5\000"
 2433      6C6C645F 
 2433      7365745F 
 2433      636C6F63 
 2433      6B28292C 
 2434              	.LC12:
 2435 0108 6932635F 		.ascii	"i2c_lld_set_clock(), #6\000"
 2435      6C6C645F 
 2435      7365745F 
 2435      636C6F63 
 2435      6B28292C 
 2436              	.LC13:
 2437 0120 6932635F 		.ascii	"i2c_lld_set_clock(), #8\000"
 2437      6C6C645F 
 2437      7365745F 
 2437      636C6F63 
 2437      6B28292C 
 2438              		.section	.bss.I2CD1,"aw",%nobits
 2439              		.align	2
 2440              		.set	.LANCHOR0,. + 0
 2441              		.type	I2CD1, %object
 2442              		.size	I2CD1, 56
 2443              	I2CD1:
 2444 0000 00000000 		.space	56
 2444      00000000 
 2444      00000000 
 2444      00000000 
 2444      00000000 
 2445              		.section	.bss.I2CD2,"aw",%nobits
 2446              		.align	2
 2447              		.set	.LANCHOR1,. + 0
 2448              		.type	I2CD2, %object
ARM GAS  /tmp/ccT30Fjp.s 			page 45


 2449              		.size	I2CD2, 56
 2450              	I2CD2:
 2451 0000 00000000 		.space	56
 2451      00000000 
 2451      00000000 
 2451      00000000 
 2451      00000000 
 2452              		.section	.bss.I2CD3,"aw",%nobits
 2453              		.align	2
 2454              		.set	.LANCHOR2,. + 0
 2455              		.type	I2CD3, %object
 2456              		.size	I2CD3, 56
 2457              	I2CD3:
 2458 0000 00000000 		.space	56
 2458      00000000 
 2458      00000000 
 2458      00000000 
 2458      00000000 
 2459              		.text
 2460              	.Letext0:
 2461              		.file 2 "/home/z80/programs/sw4stm32/plugins/fr.ac6.mcu.externaltools.arm-none.linux32_1.7.0.20160
 2462              		.file 3 "/home/z80/programs/sw4stm32/plugins/fr.ac6.mcu.externaltools.arm-none.linux32_1.7.0.20160
 2463              		.file 4 "/home/z80/programs/sw4stm32/plugins/fr.ac6.mcu.externaltools.arm-none.linux32_1.7.0.20160
 2464              		.file 5 "../../../os/ports/GCC/ARMCMx/chtypes.h"
 2465              		.file 6 "../../../os/kernel/include/chlists.h"
 2466              		.file 7 "../../../os/kernel/include/chthreads.h"
 2467              		.file 8 "../../../os/ports/GCC/ARMCMx/chcore_v7m.h"
 2468              		.file 9 "../../../os/kernel/include/chvt.h"
 2469              		.file 10 "../../../os/kernel/include/chschd.h"
 2470              		.file 11 "../../../os/kernel/include/chmtx.h"
 2471              		.file 12 "../../../os/hal/platforms/STM32F4xx/stm32f4xx.h"
 2472              		.file 13 "../../../os/hal/platforms/STM32F4xx/stm32_dma.h"
 2473              		.file 14 "../../../os/hal/include/i2c.h"
 2474              		.file 15 "../../../os/hal/platforms/STM32/I2Cv1/i2c_lld.h"
 2475              		.file 16 "../../../os/ports/common/ARMCMx/CMSIS/include/core_cm4.h"
 2476              		.file 17 "../../../os/kernel/include/chdebug.h"
 2477              		.file 18 "../../../os/ports/common/ARMCMx/nvic.h"