ARM GAS  /tmp/ccX5TMNs.s 			page 1


   1              		.syntax unified
   2              		.cpu cortex-m4
   3              		.fpu softvfp
   4              		.eabi_attribute 20, 1
   5              		.eabi_attribute 21, 1
   6              		.eabi_attribute 23, 3
   7              		.eabi_attribute 24, 1
   8              		.eabi_attribute 25, 1
   9              		.eabi_attribute 26, 1
  10              		.eabi_attribute 30, 2
  11              		.eabi_attribute 34, 1
  12              		.eabi_attribute 18, 4
  13              		.thumb
  14              		.syntax unified
  15              		.file	"main.c"
  16              		.text
  17              	.Ltext0:
  18              		.cfi_sections	.debug_frame
  19              		.section	.text.printn,"ax",%progbits
  20              		.align	2
  21              		.p2align 4,,15
  22              		.thumb
  23              		.thumb_func
  24              		.type	printn, %function
  25              	printn:
  26              	.LFB113:
  27              		.file 1 "main.c"
  28              		.loc 1 68 0
  29              		.cfi_startproc
  30              		@ args = 0, pretend = 0, frame = 16
  31              		@ frame_needed = 0, uses_anonymous_args = 0
  32              	.LVL0:
  33 0000 70B5     		push	{r4, r5, r6, lr}
  34              		.cfi_def_cfa_offset 16
  35              		.cfi_offset 4, -16
  36              		.cfi_offset 5, -12
  37              		.cfi_offset 6, -8
  38              		.cfi_offset 14, -4
  39              		.loc 1 71 0
  40 0002 041E     		subs	r4, r0, #0
  41              		.loc 1 68 0
  42 0004 84B0     		sub	sp, sp, #16
  43              		.cfi_def_cfa_offset 32
  44              		.loc 1 72 0
  45 0006 4FF0FF32 		mov	r2, #-1
  46              		.loc 1 71 0
  47 000a 25DD     		ble	.L2
  48              		.loc 1 72 0
  49 000c 2B21     		movs	r1, #43
  50 000e 1B48     		ldr	r0, .L13
  51              	.LVL1:
  52 0010 FFF7FEFF 		bl	chOQPutTimeout
  53              	.LVL2:
  54              	.L3:
  55              		.loc 1 83 0
  56 0014 1A48     		ldr	r0, .L13+4
  57              		.loc 1 68 0
ARM GAS  /tmp/ccX5TMNs.s 			page 2


  58 0016 6E46     		mov	r6, sp
  59 0018 6D46     		mov	r5, sp
  60              	.LVL3:
  61              	.L5:
  62              		.loc 1 83 0
  63 001a 80FB0432 		smull	r3, r2, r0, r4
  64 001e E317     		asrs	r3, r4, #31
  65 0020 C3EBA203 		rsb	r3, r3, r2, asr #2
  66 0024 03EB8301 		add	r1, r3, r3, lsl #2
  67 0028 A4EB4101 		sub	r1, r4, r1, lsl #1
  68 002c 3031     		adds	r1, r1, #48
  69 002e C9B2     		uxtb	r1, r1
  70 0030 1CB2     		sxth	r4, r3
  71 0032 05F8011B 		strb	r1, [r5], #1
  72              	.LVL4:
  73              		.loc 1 82 0
  74 0036 002C     		cmp	r4, #0
  75 0038 EFD1     		bne	.L5
  76              		.loc 1 84 0
  77 003a B542     		cmp	r5, r6
  78 003c 0AD9     		bls	.L1
  79 003e 013D     		subs	r5, r5, #1
  80              	.LVL5:
  81 0040 01E0     		b	.L7
  82              	.LVL6:
  83              	.L12:
  84 0042 15F8011D 		ldrb	r1, [r5, #-1]!	@ zero_extendqisi2
  85              	.LVL7:
  86              	.L7:
  87              		.loc 1 85 0
  88 0046 0D48     		ldr	r0, .L13
  89 0048 4FF0FF32 		mov	r2, #-1
  90 004c FFF7FEFF 		bl	chOQPutTimeout
  91              	.LVL8:
  92              		.loc 1 84 0
  93 0050 AE42     		cmp	r6, r5
  94 0052 F6D1     		bne	.L12
  95              	.LVL9:
  96              	.L1:
  97              		.loc 1 87 0
  98 0054 04B0     		add	sp, sp, #16
  99              		.cfi_remember_state
 100              		.cfi_def_cfa_offset 16
 101              		@ sp needed
 102 0056 70BD     		pop	{r4, r5, r6, pc}
 103              	.LVL10:
 104              	.L2:
 105              		.cfi_restore_state
 106              		.loc 1 75 0
 107 0058 6442     		negs	r4, r4
 108              		.loc 1 74 0
 109 005a 2D21     		movs	r1, #45
 110 005c 0748     		ldr	r0, .L13
 111              	.LVL11:
 112              		.loc 1 75 0
 113 005e 24B2     		sxth	r4, r4
 114              		.loc 1 74 0
ARM GAS  /tmp/ccX5TMNs.s 			page 3


 115 0060 FFF7FEFF 		bl	chOQPutTimeout
 116              	.LVL12:
 117              		.loc 1 78 0
 118 0064 002C     		cmp	r4, #0
 119 0066 D5D1     		bne	.L3
 120              	.LVL13:
 121              	.LBB16:
 122              	.LBB17:
 123              		.loc 1 79 0
 124 0068 0448     		ldr	r0, .L13
 125 006a 4FF0FF32 		mov	r2, #-1
 126 006e 3021     		movs	r1, #48
 127              	.LBE17:
 128              	.LBE16:
 129              		.loc 1 87 0
 130 0070 04B0     		add	sp, sp, #16
 131              		.cfi_def_cfa_offset 16
 132              		@ sp needed
 133 0072 BDE87040 		pop	{r4, r5, r6, lr}
 134              		.cfi_restore 14
 135              		.cfi_restore 6
 136              		.cfi_restore 5
 137              		.cfi_restore 4
 138              		.cfi_def_cfa_offset 0
 139              	.LBB19:
 140              	.LBB18:
 141              		.loc 1 79 0
 142 0076 FFF7FEBF 		b	chOQPutTimeout
 143              	.LVL14:
 144              	.L14:
 145 007a 00BF     		.align	2
 146              	.L13:
 147 007c 30000000 		.word	SD1+48
 148 0080 67666666 		.word	1717986919
 149              	.LBE18:
 150              	.LBE19:
 151              		.cfi_endproc
 152              	.LFE113:
 153              		.size	printn, .-printn
 154              		.section	.text.complement2signed,"ax",%progbits
 155              		.align	2
 156              		.p2align 4,,15
 157              		.global	complement2signed
 158              		.thumb
 159              		.thumb_func
 160              		.type	complement2signed, %function
 161              	complement2signed:
 162              	.LFB114:
 163              		.loc 1 92 0
 164              		.cfi_startproc
 165              		@ args = 0, pretend = 0, frame = 0
 166              		@ frame_needed = 0, uses_anonymous_args = 0
 167              		@ link register save eliminated.
 168              	.LVL15:
 169 0000 01EB0020 		add	r0, r1, r0, lsl #8
 170              	.LVL16:
 171              		.loc 1 99 0
ARM GAS  /tmp/ccX5TMNs.s 			page 4


 172 0004 00B2     		sxth	r0, r0
 173 0006 7047     		bx	lr
 174              		.cfi_endproc
 175              	.LFE114:
 176              		.size	complement2signed, .-complement2signed
 177              		.section	.text.startup.main,"ax",%progbits
 178              		.align	2
 179              		.p2align 4,,15
 180              		.global	main
 181              		.thumb
 182              		.thumb_func
 183              		.type	main, %function
 184              	main:
 185              	.LFB115:
 186              		.loc 1 104 0
 187              		.cfi_startproc
 188              		@ args = 0, pretend = 0, frame = 0
 189              		@ frame_needed = 0, uses_anonymous_args = 0
 190              	.LVL17:
 191 0000 2DE9F041 		push	{r4, r5, r6, r7, r8, lr}
 192              		.cfi_def_cfa_offset 24
 193              		.cfi_offset 4, -24
 194              		.cfi_offset 5, -20
 195              		.cfi_offset 6, -16
 196              		.cfi_offset 7, -12
 197              		.cfi_offset 8, -8
 198              		.cfi_offset 14, -4
 199              		.loc 1 115 0
 200 0004 FFF7FEFF 		bl	halInit
 201              	.LVL18:
 202              		.loc 1 116 0
 203 0008 FFF7FEFF 		bl	chSysInit
 204              	.LVL19:
 205              		.loc 1 126 0
 206 000c 0021     		movs	r1, #0
 207 000e 3048     		ldr	r0, .L31
 208              		.loc 1 148 0
 209 0010 304E     		ldr	r6, .L31+4
 210 0012 314F     		ldr	r7, .L31+8
 211 0014 DFF8E080 		ldr	r8, .L31+40
 212 0018 304D     		ldr	r5, .L31+12
 213              		.loc 1 126 0
 214 001a FFF7FEFF 		bl	sdStart
 215              	.LVL20:
 216              		.loc 1 127 0
 217 001e 40F28232 		movw	r2, #898
 218 0022 4FF40071 		mov	r1, #512
 219 0026 2E48     		ldr	r0, .L31+16
 220 0028 FFF7FEFF 		bl	_pal_lld_setgroupmode
 221              	.LVL21:
 222              		.loc 1 128 0
 223 002c 40F28232 		movw	r2, #898
 224 0030 4FF48061 		mov	r1, #1024
 225 0034 2A48     		ldr	r0, .L31+16
 226 0036 FFF7FEFF 		bl	_pal_lld_setgroupmode
 227              	.LVL22:
 228              		.loc 1 146 0
ARM GAS  /tmp/ccX5TMNs.s 			page 5


 229 003a 0122     		movs	r2, #1
 230 003c 4FF40051 		mov	r1, #8192
 231 0040 3046     		mov	r0, r6
 232 0042 FFF7FEFF 		bl	_pal_lld_setgroupmode
 233              	.LVL23:
 234              	.L22:
 235              		.loc 1 148 0 discriminator 1
 236 0046 7369     		ldr	r3, [r6, #20]
 237              		.loc 1 162 0 discriminator 1
 238 0048 264C     		ldr	r4, .L31+20
 239              		.loc 1 148 0 discriminator 1
 240 004a 83F40053 		eor	r3, r3, #8192
 241 004e 7361     		str	r3, [r6, #20]
 242              		.loc 1 149 0 discriminator 1
 243 0050 6420     		movs	r0, #100
 244 0052 FFF7FEFF 		bl	chThdSleep
 245              	.LVL24:
 246              		.loc 1 160 0 discriminator 1
 247 0056 0121     		movs	r1, #1
 248              		.loc 1 161 0 discriminator 1
 249 0058 40F20322 		movw	r2, #515
 250              		.loc 1 162 0 discriminator 1
 251 005c 40F20543 		movw	r3, #1029
 252              		.loc 1 160 0 discriminator 1
 253 0060 3980     		strh	r1, [r7]	@ movhi
 254              		.loc 1 161 0 discriminator 1
 255 0062 A8F80020 		strh	r2, [r8]	@ movhi
 256              		.loc 1 162 0 discriminator 1
 257 0066 2B80     		strh	r3, [r5]	@ movhi
 258              	.LVL25:
 259 0068 7821     		movs	r1, #120
 260              	.LVL26:
 261              	.L17:
 262              	.LBB28:
 263              	.LBB29:
 264              		.loc 1 50 0
 265 006a 4FF0FF32 		mov	r2, #-1
 266 006e 1E48     		ldr	r0, .L31+24
 267 0070 FFF7FEFF 		bl	chOQPutTimeout
 268              	.LVL27:
 269              		.loc 1 49 0
 270 0074 14F8011F 		ldrb	r1, [r4, #1]!	@ zero_extendqisi2
 271              	.LVL28:
 272 0078 0029     		cmp	r1, #0
 273 007a F6D1     		bne	.L17
 274              	.LVL29:
 275              	.LBE29:
 276              	.LBE28:
 277              		.loc 1 165 0
 278 007c B7F90000 		ldrsh	r0, [r7]
 279 0080 1A4C     		ldr	r4, .L31+28
 280 0082 FFF7FEFF 		bl	printn
 281              	.LVL30:
 282 0086 2021     		movs	r1, #32
 283              	.LVL31:
 284              	.L19:
 285              	.LBB30:
ARM GAS  /tmp/ccX5TMNs.s 			page 6


 286              	.LBB31:
 287              		.loc 1 50 0
 288 0088 4FF0FF32 		mov	r2, #-1
 289 008c 1648     		ldr	r0, .L31+24
 290 008e FFF7FEFF 		bl	chOQPutTimeout
 291              	.LVL32:
 292              		.loc 1 49 0
 293 0092 14F8011F 		ldrb	r1, [r4, #1]!	@ zero_extendqisi2
 294              	.LVL33:
 295 0096 0029     		cmp	r1, #0
 296 0098 F6D1     		bne	.L19
 297              	.LVL34:
 298              	.LBE31:
 299              	.LBE30:
 300              		.loc 1 167 0
 301 009a B8F90000 		ldrsh	r0, [r8]
 302 009e 144C     		ldr	r4, .L31+32
 303 00a0 FFF7FEFF 		bl	printn
 304              	.LVL35:
 305 00a4 2021     		movs	r1, #32
 306              	.LVL36:
 307              	.L21:
 308              	.LBB32:
 309              	.LBB33:
 310              		.loc 1 50 0
 311 00a6 4FF0FF32 		mov	r2, #-1
 312 00aa 0F48     		ldr	r0, .L31+24
 313 00ac FFF7FEFF 		bl	chOQPutTimeout
 314              	.LVL37:
 315              		.loc 1 49 0
 316 00b0 14F8011F 		ldrb	r1, [r4, #1]!	@ zero_extendqisi2
 317              	.LVL38:
 318 00b4 0029     		cmp	r1, #0
 319 00b6 F6D1     		bne	.L21
 320              	.LVL39:
 321              	.LBE33:
 322              	.LBE32:
 323              		.loc 1 169 0 discriminator 1
 324 00b8 B5F90000 		ldrsh	r0, [r5]
 325 00bc FFF7FEFF 		bl	printn
 326              	.LVL40:
 327              	.LBB34:
 328              	.LBB35:
 329              		.loc 1 62 0 discriminator 1
 330 00c0 4FF0FF33 		mov	r3, #-1
 331 00c4 0222     		movs	r2, #2
 332 00c6 0B49     		ldr	r1, .L31+36
 333 00c8 0748     		ldr	r0, .L31+24
 334 00ca FFF7FEFF 		bl	chOQWriteTimeout
 335              	.LVL41:
 336 00ce BAE7     		b	.L22
 337              	.L32:
 338              		.align	2
 339              	.L31:
 340 00d0 00000000 		.word	SD1
 341 00d4 00180240 		.word	1073879040
 342 00d8 00000000 		.word	.LANCHOR0
ARM GAS  /tmp/ccX5TMNs.s 			page 7


 343 00dc 00000000 		.word	.LANCHOR2
 344 00e0 00000240 		.word	1073872896
 345 00e4 00000000 		.word	.LC0
 346 00e8 30000000 		.word	SD1+48
 347 00ec 04000000 		.word	.LC1
 348 00f0 0C000000 		.word	.LC2
 349 00f4 14000000 		.word	.LC3
 350 00f8 00000000 		.word	.LANCHOR1
 351              	.LBE35:
 352              	.LBE34:
 353              		.cfi_endproc
 354              	.LFE115:
 355              		.size	main, .-main
 356              		.section	.rodata.str1.4,"aMS",%progbits,1
 357              		.align	2
 358              	.LC0:
 359 0000 783A2000 		.ascii	"x: \000"
 360              	.LC1:
 361 0004 20793A20 		.ascii	" y: \000"
 361      00
 362 0009 000000   		.space	3
 363              	.LC2:
 364 000c 207A3A20 		.ascii	" z: \000"
 364      00
 365 0011 000000   		.space	3
 366              	.LC3:
 367 0014 0D0A00   		.ascii	"\015\012\000"
 368              		.section	.bss.acceleration_x,"aw",%nobits
 369              		.align	1
 370              		.set	.LANCHOR0,. + 0
 371              		.type	acceleration_x, %object
 372              		.size	acceleration_x, 2
 373              	acceleration_x:
 374 0000 0000     		.space	2
 375              		.section	.bss.acceleration_y,"aw",%nobits
 376              		.align	1
 377              		.set	.LANCHOR1,. + 0
 378              		.type	acceleration_y, %object
 379              		.size	acceleration_y, 2
 380              	acceleration_y:
 381 0000 0000     		.space	2
 382              		.section	.bss.acceleration_z,"aw",%nobits
 383              		.align	1
 384              		.set	.LANCHOR2,. + 0
 385              		.type	acceleration_z, %object
 386              		.size	acceleration_z, 2
 387              	acceleration_z:
 388 0000 0000     		.space	2
 389              		.text
 390              	.Letext0:
 391              		.file 2 "/home/z80/programs/sw4stm32/plugins/fr.ac6.mcu.externaltools.arm-none.linux32_1.7.0.20160
 392              		.file 3 "/home/z80/programs/sw4stm32/plugins/fr.ac6.mcu.externaltools.arm-none.linux32_1.7.0.20160
 393              		.file 4 "/home/z80/programs/sw4stm32/plugins/fr.ac6.mcu.externaltools.arm-none.linux32_1.7.0.20160
 394              		.file 5 "../../../os/ports/GCC/ARMCMx/chtypes.h"
 395              		.file 6 "../../../os/kernel/include/chlists.h"
 396              		.file 7 "../../../os/kernel/include/chthreads.h"
 397              		.file 8 "../../../os/ports/GCC/ARMCMx/chcore_v7m.h"
ARM GAS  /tmp/ccX5TMNs.s 			page 8


 398              		.file 9 "../../../os/kernel/include/chmtx.h"
 399              		.file 10 "../../../os/kernel/include/chevents.h"
 400              		.file 11 "../../../os/kernel/include/chqueues.h"
 401              		.file 12 "../../../os/hal/platforms/STM32F4xx/stm32f4xx.h"
 402              		.file 13 "../../../os/hal/platforms/STM32/GPIOv2/pal_lld.h"
 403              		.file 14 "../../../os/hal/platforms/STM32/I2Cv1/i2c_lld.h"
 404              		.file 15 "../../../os/hal/include/serial.h"
 405              		.file 16 "../../../os/hal/include/hal.h"
 406              		.file 17 "../../../os/kernel/include/chsys.h"
 407              		.file 18 "../../../os/ports/common/ARMCMx/CMSIS/include/core_cm4.h"
 408              		.file 19 "../../../os/hal/platforms/STM32/USARTv1/serial_lld.h"
 409              		.section	.debug_info,"",%progbits
 410              	.Ldebug_info0:
 411 0000 FB0C0000 		.4byte	0xcfb
 412 0004 0400     		.2byte	0x4
 413 0006 00000000 		.4byte	.Ldebug_abbrev0
 414 000a 04       		.byte	0x4
 415 000b 01       		.uleb128 0x1
 416 000c 59020000 		.4byte	.LASF141
 417 0010 0C       		.byte	0xc
 418 0011 98030000 		.4byte	.LASF142
 419 0015 27050000 		.4byte	.LASF143
 420 0019 18000000 		.4byte	.Ldebug_ranges0+0x18
 421 001d 00000000 		.4byte	0
 422 0021 00000000 		.4byte	.Ldebug_line0
 423 0025 02       		.uleb128 0x2
 424 0026 0F000000 		.4byte	.LASF4
 425 002a 02       		.byte	0x2
 426 002b D8       		.byte	0xd8
 427 002c 30000000 		.4byte	0x30
 428 0030 03       		.uleb128 0x3
 429 0031 04       		.byte	0x4
 430 0032 07       		.byte	0x7
 431 0033 54010000 		.4byte	.LASF0
 432 0037 04       		.uleb128 0x4
 433 0038 04       		.byte	0x4
 434 0039 05       		.byte	0x5
 435 003a 696E7400 		.ascii	"int\000"
 436 003e 03       		.uleb128 0x3
 437 003f 08       		.byte	0x8
 438 0040 05       		.byte	0x5
 439 0041 A6000000 		.4byte	.LASF1
 440 0045 03       		.uleb128 0x3
 441 0046 08       		.byte	0x8
 442 0047 04       		.byte	0x4
 443 0048 47030000 		.4byte	.LASF2
 444 004c 03       		.uleb128 0x3
 445 004d 01       		.byte	0x1
 446 004e 06       		.byte	0x6
 447 004f B4000000 		.4byte	.LASF3
 448 0053 02       		.uleb128 0x2
 449 0054 32000000 		.4byte	.LASF5
 450 0058 03       		.byte	0x3
 451 0059 1D       		.byte	0x1d
 452 005a 5E000000 		.4byte	0x5e
 453 005e 03       		.uleb128 0x3
 454 005f 01       		.byte	0x1
ARM GAS  /tmp/ccX5TMNs.s 			page 9


 455 0060 08       		.byte	0x8
 456 0061 2B040000 		.4byte	.LASF6
 457 0065 02       		.uleb128 0x2
 458 0066 38010000 		.4byte	.LASF7
 459 006a 03       		.byte	0x3
 460 006b 29       		.byte	0x29
 461 006c 70000000 		.4byte	0x70
 462 0070 03       		.uleb128 0x3
 463 0071 02       		.byte	0x2
 464 0072 05       		.byte	0x5
 465 0073 59040000 		.4byte	.LASF8
 466 0077 02       		.uleb128 0x2
 467 0078 1C050000 		.4byte	.LASF9
 468 007c 03       		.byte	0x3
 469 007d 2B       		.byte	0x2b
 470 007e 82000000 		.4byte	0x82
 471 0082 03       		.uleb128 0x3
 472 0083 02       		.byte	0x2
 473 0084 07       		.byte	0x7
 474 0085 B7010000 		.4byte	.LASF10
 475 0089 02       		.uleb128 0x2
 476 008a 87050000 		.4byte	.LASF11
 477 008e 03       		.byte	0x3
 478 008f 3F       		.byte	0x3f
 479 0090 94000000 		.4byte	0x94
 480 0094 03       		.uleb128 0x3
 481 0095 04       		.byte	0x4
 482 0096 05       		.byte	0x5
 483 0097 EA000000 		.4byte	.LASF12
 484 009b 02       		.uleb128 0x2
 485 009c 24010000 		.4byte	.LASF13
 486 00a0 03       		.byte	0x3
 487 00a1 41       		.byte	0x41
 488 00a2 A6000000 		.4byte	0xa6
 489 00a6 03       		.uleb128 0x3
 490 00a7 04       		.byte	0x4
 491 00a8 07       		.byte	0x7
 492 00a9 F8040000 		.4byte	.LASF14
 493 00ad 02       		.uleb128 0x2
 494 00ae AA030000 		.4byte	.LASF15
 495 00b2 03       		.byte	0x3
 496 00b3 5B       		.byte	0x5b
 497 00b4 B8000000 		.4byte	0xb8
 498 00b8 03       		.uleb128 0x3
 499 00b9 08       		.byte	0x8
 500 00ba 07       		.byte	0x7
 501 00bb 56000000 		.4byte	.LASF16
 502 00bf 03       		.uleb128 0x3
 503 00c0 04       		.byte	0x4
 504 00c1 07       		.byte	0x7
 505 00c2 38030000 		.4byte	.LASF17
 506 00c6 05       		.uleb128 0x5
 507 00c7 04       		.byte	0x4
 508 00c8 06       		.uleb128 0x6
 509 00c9 04       		.byte	0x4
 510 00ca CE000000 		.4byte	0xce
 511 00ce 03       		.uleb128 0x3
ARM GAS  /tmp/ccX5TMNs.s 			page 10


 512 00cf 01       		.byte	0x1
 513 00d0 08       		.byte	0x8
 514 00d1 0F050000 		.4byte	.LASF18
 515 00d5 06       		.uleb128 0x6
 516 00d6 04       		.byte	0x4
 517 00d7 DB000000 		.4byte	0xdb
 518 00db 07       		.uleb128 0x7
 519 00dc CE000000 		.4byte	0xce
 520 00e0 02       		.uleb128 0x2
 521 00e1 ED050000 		.4byte	.LASF19
 522 00e5 04       		.byte	0x4
 523 00e6 14       		.byte	0x14
 524 00e7 53000000 		.4byte	0x53
 525 00eb 02       		.uleb128 0x2
 526 00ec 21060000 		.4byte	.LASF20
 527 00f0 04       		.byte	0x4
 528 00f1 19       		.byte	0x19
 529 00f2 65000000 		.4byte	0x65
 530 00f6 02       		.uleb128 0x2
 531 00f7 F4010000 		.4byte	.LASF21
 532 00fb 04       		.byte	0x4
 533 00fc 1A       		.byte	0x1a
 534 00fd 77000000 		.4byte	0x77
 535 0101 02       		.uleb128 0x2
 536 0102 23040000 		.4byte	.LASF22
 537 0106 04       		.byte	0x4
 538 0107 1F       		.byte	0x1f
 539 0108 89000000 		.4byte	0x89
 540 010c 02       		.uleb128 0x2
 541 010d BF050000 		.4byte	.LASF23
 542 0111 04       		.byte	0x4
 543 0112 20       		.byte	0x20
 544 0113 9B000000 		.4byte	0x9b
 545 0117 02       		.uleb128 0x2
 546 0118 1D000000 		.4byte	.LASF24
 547 011c 04       		.byte	0x4
 548 011d 26       		.byte	0x26
 549 011e AD000000 		.4byte	0xad
 550 0122 03       		.uleb128 0x3
 551 0123 01       		.byte	0x1
 552 0124 02       		.byte	0x2
 553 0125 1D040000 		.4byte	.LASF25
 554 0129 02       		.uleb128 0x2
 555 012a EC010000 		.4byte	.LASF26
 556 012e 05       		.byte	0x5
 557 012f 2C       		.byte	0x2c
 558 0130 E0000000 		.4byte	0xe0
 559 0134 02       		.uleb128 0x2
 560 0135 F3000000 		.4byte	.LASF27
 561 0139 05       		.byte	0x5
 562 013a 2D       		.byte	0x2d
 563 013b E0000000 		.4byte	0xe0
 564 013f 02       		.uleb128 0x2
 565 0140 02040000 		.4byte	.LASF28
 566 0144 05       		.byte	0x5
 567 0145 30       		.byte	0x30
 568 0146 0C010000 		.4byte	0x10c
ARM GAS  /tmp/ccX5TMNs.s 			page 11


 569 014a 02       		.uleb128 0x2
 570 014b CA010000 		.4byte	.LASF29
 571 014f 05       		.byte	0x5
 572 0150 31       		.byte	0x31
 573 0151 01010000 		.4byte	0x101
 574 0155 02       		.uleb128 0x2
 575 0156 09020000 		.4byte	.LASF30
 576 015a 05       		.byte	0x5
 577 015b 33       		.byte	0x33
 578 015c 0C010000 		.4byte	0x10c
 579 0160 02       		.uleb128 0x2
 580 0161 AC040000 		.4byte	.LASF31
 581 0165 05       		.byte	0x5
 582 0166 34       		.byte	0x34
 583 0167 0C010000 		.4byte	0x10c
 584 016b 02       		.uleb128 0x2
 585 016c 72050000 		.4byte	.LASF32
 586 0170 05       		.byte	0x5
 587 0171 35       		.byte	0x35
 588 0172 0C010000 		.4byte	0x10c
 589 0176 02       		.uleb128 0x2
 590 0177 A0040000 		.4byte	.LASF33
 591 017b 06       		.byte	0x6
 592 017c 2A       		.byte	0x2a
 593 017d 81010000 		.4byte	0x181
 594 0181 08       		.uleb128 0x8
 595 0182 A0040000 		.4byte	.LASF33
 596 0186 48       		.byte	0x48
 597 0187 07       		.byte	0x7
 598 0188 5E       		.byte	0x5e
 599 0189 66020000 		.4byte	0x266
 600 018d 09       		.uleb128 0x9
 601 018e 72040000 		.4byte	.LASF34
 602 0192 07       		.byte	0x7
 603 0193 5F       		.byte	0x5f
 604 0194 87020000 		.4byte	0x287
 605 0198 00       		.byte	0
 606 0199 09       		.uleb128 0x9
 607 019a F1030000 		.4byte	.LASF35
 608 019e 07       		.byte	0x7
 609 019f 61       		.byte	0x61
 610 01a0 87020000 		.4byte	0x287
 611 01a4 04       		.byte	0x4
 612 01a5 09       		.uleb128 0x9
 613 01a6 8F000000 		.4byte	.LASF36
 614 01aa 07       		.byte	0x7
 615 01ab 63       		.byte	0x63
 616 01ac 3F010000 		.4byte	0x13f
 617 01b0 08       		.byte	0x8
 618 01b1 09       		.uleb128 0x9
 619 01b2 4F060000 		.4byte	.LASF37
 620 01b6 07       		.byte	0x7
 621 01b7 64       		.byte	0x64
 622 01b8 4A030000 		.4byte	0x34a
 623 01bc 0C       		.byte	0xc
 624 01bd 09       		.uleb128 0x9
 625 01be 14010000 		.4byte	.LASF38
ARM GAS  /tmp/ccX5TMNs.s 			page 12


 626 01c2 07       		.byte	0x7
 627 01c3 66       		.byte	0x66
 628 01c4 87020000 		.4byte	0x287
 629 01c8 10       		.byte	0x10
 630 01c9 09       		.uleb128 0x9
 631 01ca 66030000 		.4byte	.LASF39
 632 01ce 07       		.byte	0x7
 633 01cf 67       		.byte	0x67
 634 01d0 87020000 		.4byte	0x287
 635 01d4 14       		.byte	0x14
 636 01d5 09       		.uleb128 0x9
 637 01d6 CE050000 		.4byte	.LASF40
 638 01da 07       		.byte	0x7
 639 01db 6E       		.byte	0x6e
 640 01dc D5000000 		.4byte	0xd5
 641 01e0 18       		.byte	0x18
 642 01e1 09       		.uleb128 0x9
 643 01e2 8D030000 		.4byte	.LASF41
 644 01e6 07       		.byte	0x7
 645 01e7 74       		.byte	0x74
 646 01e8 5E040000 		.4byte	0x45e
 647 01ec 1C       		.byte	0x1c
 648 01ed 09       		.uleb128 0x9
 649 01ee 63040000 		.4byte	.LASF42
 650 01f2 07       		.byte	0x7
 651 01f3 79       		.byte	0x79
 652 01f4 34010000 		.4byte	0x134
 653 01f8 20       		.byte	0x20
 654 01f9 09       		.uleb128 0x9
 655 01fa 79040000 		.4byte	.LASF43
 656 01fe 07       		.byte	0x7
 657 01ff 7D       		.byte	0x7d
 658 0200 29010000 		.4byte	0x129
 659 0204 21       		.byte	0x21
 660 0205 09       		.uleb128 0x9
 661 0206 77010000 		.4byte	.LASF44
 662 020a 07       		.byte	0x7
 663 020b 8F       		.byte	0x8f
 664 020c 70030000 		.4byte	0x370
 665 0210 24       		.byte	0x24
 666 0211 0A       		.uleb128 0xa
 667 0212 705F7500 		.ascii	"p_u\000"
 668 0216 07       		.byte	0x7
 669 0217 B4       		.byte	0xb4
 670 0218 29040000 		.4byte	0x429
 671 021c 28       		.byte	0x28
 672 021d 09       		.uleb128 0x9
 673 021e 55060000 		.4byte	.LASF45
 674 0222 07       		.byte	0x7
 675 0223 B9       		.byte	0xb9
 676 0224 AD020000 		.4byte	0x2ad
 677 0228 2C       		.byte	0x2c
 678 0229 09       		.uleb128 0x9
 679 022a 8C010000 		.4byte	.LASF46
 680 022e 07       		.byte	0x7
 681 022f BF       		.byte	0xbf
 682 0230 8D020000 		.4byte	0x28d
ARM GAS  /tmp/ccX5TMNs.s 			page 13


 683 0234 30       		.byte	0x30
 684 0235 09       		.uleb128 0x9
 685 0236 16060000 		.4byte	.LASF47
 686 023a 07       		.byte	0x7
 687 023b C3       		.byte	0xc3
 688 023c 4A010000 		.4byte	0x14a
 689 0240 38       		.byte	0x38
 690 0241 09       		.uleb128 0x9
 691 0242 B8040000 		.4byte	.LASF48
 692 0246 07       		.byte	0x7
 693 0247 C9       		.byte	0xc9
 694 0248 55010000 		.4byte	0x155
 695 024c 3C       		.byte	0x3c
 696 024d 09       		.uleb128 0x9
 697 024e 4F040000 		.4byte	.LASF49
 698 0252 07       		.byte	0x7
 699 0253 D0       		.byte	0xd0
 700 0254 64040000 		.4byte	0x464
 701 0258 40       		.byte	0x40
 702 0259 09       		.uleb128 0x9
 703 025a 7C050000 		.4byte	.LASF50
 704 025e 07       		.byte	0x7
 705 025f D4       		.byte	0xd4
 706 0260 3F010000 		.4byte	0x13f
 707 0264 44       		.byte	0x44
 708 0265 00       		.byte	0
 709 0266 0B       		.uleb128 0xb
 710 0267 08       		.byte	0x8
 711 0268 06       		.byte	0x6
 712 0269 61       		.byte	0x61
 713 026a 87020000 		.4byte	0x287
 714 026e 09       		.uleb128 0x9
 715 026f 72040000 		.4byte	.LASF34
 716 0273 06       		.byte	0x6
 717 0274 62       		.byte	0x62
 718 0275 87020000 		.4byte	0x287
 719 0279 00       		.byte	0
 720 027a 09       		.uleb128 0x9
 721 027b F1030000 		.4byte	.LASF35
 722 027f 06       		.byte	0x6
 723 0280 64       		.byte	0x64
 724 0281 87020000 		.4byte	0x287
 725 0285 04       		.byte	0x4
 726 0286 00       		.byte	0
 727 0287 06       		.uleb128 0x6
 728 0288 04       		.byte	0x4
 729 0289 76010000 		.4byte	0x176
 730 028d 02       		.uleb128 0x2
 731 028e 80030000 		.4byte	.LASF51
 732 0292 06       		.byte	0x6
 733 0293 66       		.byte	0x66
 734 0294 66020000 		.4byte	0x266
 735 0298 0B       		.uleb128 0xb
 736 0299 04       		.byte	0x4
 737 029a 06       		.byte	0x6
 738 029b 6B       		.byte	0x6b
 739 029c AD020000 		.4byte	0x2ad
ARM GAS  /tmp/ccX5TMNs.s 			page 14


 740 02a0 09       		.uleb128 0x9
 741 02a1 72040000 		.4byte	.LASF34
 742 02a5 06       		.byte	0x6
 743 02a6 6D       		.byte	0x6d
 744 02a7 87020000 		.4byte	0x287
 745 02ab 00       		.byte	0
 746 02ac 00       		.byte	0
 747 02ad 02       		.uleb128 0x2
 748 02ae FD010000 		.4byte	.LASF52
 749 02b2 06       		.byte	0x6
 750 02b3 70       		.byte	0x70
 751 02b4 98020000 		.4byte	0x298
 752 02b8 02       		.uleb128 0x2
 753 02b9 2F010000 		.4byte	.LASF53
 754 02bd 08       		.byte	0x8
 755 02be E5       		.byte	0xe5
 756 02bf C6000000 		.4byte	0xc6
 757 02c3 02       		.uleb128 0x2
 758 02c4 37020000 		.4byte	.LASF54
 759 02c8 08       		.byte	0x8
 760 02c9 EB       		.byte	0xeb
 761 02ca 17010000 		.4byte	0x117
 762 02ce 0C       		.uleb128 0xc
 763 02cf AF050000 		.4byte	.LASF55
 764 02d3 24       		.byte	0x24
 765 02d4 08       		.byte	0x8
 766 02d5 0C01     		.2byte	0x10c
 767 02d7 4A030000 		.4byte	0x34a
 768 02db 0D       		.uleb128 0xd
 769 02dc 723400   		.ascii	"r4\000"
 770 02df 08       		.byte	0x8
 771 02e0 1F01     		.2byte	0x11f
 772 02e2 B8020000 		.4byte	0x2b8
 773 02e6 00       		.byte	0
 774 02e7 0D       		.uleb128 0xd
 775 02e8 723500   		.ascii	"r5\000"
 776 02eb 08       		.byte	0x8
 777 02ec 2001     		.2byte	0x120
 778 02ee B8020000 		.4byte	0x2b8
 779 02f2 04       		.byte	0x4
 780 02f3 0D       		.uleb128 0xd
 781 02f4 723600   		.ascii	"r6\000"
 782 02f7 08       		.byte	0x8
 783 02f8 2101     		.2byte	0x121
 784 02fa B8020000 		.4byte	0x2b8
 785 02fe 08       		.byte	0x8
 786 02ff 0D       		.uleb128 0xd
 787 0300 723700   		.ascii	"r7\000"
 788 0303 08       		.byte	0x8
 789 0304 2201     		.2byte	0x122
 790 0306 B8020000 		.4byte	0x2b8
 791 030a 0C       		.byte	0xc
 792 030b 0D       		.uleb128 0xd
 793 030c 723800   		.ascii	"r8\000"
 794 030f 08       		.byte	0x8
 795 0310 2301     		.2byte	0x123
 796 0312 B8020000 		.4byte	0x2b8
ARM GAS  /tmp/ccX5TMNs.s 			page 15


 797 0316 10       		.byte	0x10
 798 0317 0D       		.uleb128 0xd
 799 0318 723900   		.ascii	"r9\000"
 800 031b 08       		.byte	0x8
 801 031c 2401     		.2byte	0x124
 802 031e B8020000 		.4byte	0x2b8
 803 0322 14       		.byte	0x14
 804 0323 0D       		.uleb128 0xd
 805 0324 72313000 		.ascii	"r10\000"
 806 0328 08       		.byte	0x8
 807 0329 2501     		.2byte	0x125
 808 032b B8020000 		.4byte	0x2b8
 809 032f 18       		.byte	0x18
 810 0330 0D       		.uleb128 0xd
 811 0331 72313100 		.ascii	"r11\000"
 812 0335 08       		.byte	0x8
 813 0336 2601     		.2byte	0x126
 814 0338 B8020000 		.4byte	0x2b8
 815 033c 1C       		.byte	0x1c
 816 033d 0D       		.uleb128 0xd
 817 033e 6C7200   		.ascii	"lr\000"
 818 0341 08       		.byte	0x8
 819 0342 2701     		.2byte	0x127
 820 0344 B8020000 		.4byte	0x2b8
 821 0348 20       		.byte	0x20
 822 0349 00       		.byte	0
 823 034a 0C       		.uleb128 0xc
 824 034b 91050000 		.4byte	.LASF56
 825 034f 04       		.byte	0x4
 826 0350 08       		.byte	0x8
 827 0351 3101     		.2byte	0x131
 828 0353 65030000 		.4byte	0x365
 829 0357 0D       		.uleb128 0xd
 830 0358 72313300 		.ascii	"r13\000"
 831 035c 08       		.byte	0x8
 832 035d 3201     		.2byte	0x132
 833 035f 65030000 		.4byte	0x365
 834 0363 00       		.byte	0
 835 0364 00       		.byte	0
 836 0365 06       		.uleb128 0x6
 837 0366 04       		.byte	0x4
 838 0367 CE020000 		.4byte	0x2ce
 839 036b 0E       		.uleb128 0xe
 840 036c 0C010000 		.4byte	0x10c
 841 0370 0E       		.uleb128 0xe
 842 0371 6B010000 		.4byte	0x16b
 843 0375 08       		.uleb128 0x8
 844 0376 53030000 		.4byte	.LASF57
 845 037a 10       		.byte	0x10
 846 037b 09       		.byte	0x9
 847 037c 2C       		.byte	0x2c
 848 037d A6030000 		.4byte	0x3a6
 849 0381 09       		.uleb128 0x9
 850 0382 DC000000 		.4byte	.LASF58
 851 0386 09       		.byte	0x9
 852 0387 2D       		.byte	0x2d
 853 0388 8D020000 		.4byte	0x28d
ARM GAS  /tmp/ccX5TMNs.s 			page 16


 854 038c 00       		.byte	0
 855 038d 09       		.uleb128 0x9
 856 038e 29060000 		.4byte	.LASF59
 857 0392 09       		.byte	0x9
 858 0393 2F       		.byte	0x2f
 859 0394 87020000 		.4byte	0x287
 860 0398 08       		.byte	0x8
 861 0399 09       		.uleb128 0x9
 862 039a 6B050000 		.4byte	.LASF60
 863 039e 09       		.byte	0x9
 864 039f 31       		.byte	0x31
 865 03a0 A6030000 		.4byte	0x3a6
 866 03a4 0C       		.byte	0xc
 867 03a5 00       		.byte	0
 868 03a6 06       		.uleb128 0x6
 869 03a7 04       		.byte	0x4
 870 03a8 75030000 		.4byte	0x375
 871 03ac 02       		.uleb128 0x2
 872 03ad 53030000 		.4byte	.LASF57
 873 03b1 09       		.byte	0x9
 874 03b2 33       		.byte	0x33
 875 03b3 75030000 		.4byte	0x375
 876 03b7 02       		.uleb128 0x2
 877 03b8 F5050000 		.4byte	.LASF61
 878 03bc 0A       		.byte	0xa
 879 03bd 2C       		.byte	0x2c
 880 03be C2030000 		.4byte	0x3c2
 881 03c2 08       		.uleb128 0x8
 882 03c3 F5050000 		.4byte	.LASF61
 883 03c7 10       		.byte	0x10
 884 03c8 0A       		.byte	0xa
 885 03c9 31       		.byte	0x31
 886 03ca FF030000 		.4byte	0x3ff
 887 03ce 09       		.uleb128 0x9
 888 03cf 81040000 		.4byte	.LASF62
 889 03d3 0A       		.byte	0xa
 890 03d4 32       		.byte	0x32
 891 03d5 FF030000 		.4byte	0x3ff
 892 03d9 00       		.byte	0
 893 03da 09       		.uleb128 0x9
 894 03db 0A060000 		.4byte	.LASF63
 895 03df 0A       		.byte	0xa
 896 03e0 35       		.byte	0x35
 897 03e1 87020000 		.4byte	0x287
 898 03e5 04       		.byte	0x4
 899 03e6 09       		.uleb128 0x9
 900 03e7 5E030000 		.4byte	.LASF64
 901 03eb 0A       		.byte	0xa
 902 03ec 37       		.byte	0x37
 903 03ed 55010000 		.4byte	0x155
 904 03f1 08       		.byte	0x8
 905 03f2 09       		.uleb128 0x9
 906 03f3 46040000 		.4byte	.LASF65
 907 03f7 0A       		.byte	0xa
 908 03f8 3A       		.byte	0x3a
 909 03f9 60010000 		.4byte	0x160
 910 03fd 0C       		.byte	0xc
ARM GAS  /tmp/ccX5TMNs.s 			page 17


 911 03fe 00       		.byte	0
 912 03ff 06       		.uleb128 0x6
 913 0400 04       		.byte	0x4
 914 0401 B7030000 		.4byte	0x3b7
 915 0405 08       		.uleb128 0x8
 916 0406 42010000 		.4byte	.LASF66
 917 040a 04       		.byte	0x4
 918 040b 0A       		.byte	0xa
 919 040c 41       		.byte	0x41
 920 040d 1E040000 		.4byte	0x41e
 921 0411 09       		.uleb128 0x9
 922 0412 D5050000 		.4byte	.LASF67
 923 0416 0A       		.byte	0xa
 924 0417 42       		.byte	0x42
 925 0418 FF030000 		.4byte	0x3ff
 926 041c 00       		.byte	0
 927 041d 00       		.byte	0
 928 041e 02       		.uleb128 0x2
 929 041f 42010000 		.4byte	.LASF66
 930 0423 0A       		.byte	0xa
 931 0424 45       		.byte	0x45
 932 0425 05040000 		.4byte	0x405
 933 0429 0F       		.uleb128 0xf
 934 042a 04       		.byte	0x4
 935 042b 07       		.byte	0x7
 936 042c 96       		.byte	0x96
 937 042d 5E040000 		.4byte	0x45e
 938 0431 10       		.uleb128 0x10
 939 0432 16000000 		.4byte	.LASF68
 940 0436 07       		.byte	0x7
 941 0437 9D       		.byte	0x9d
 942 0438 4A010000 		.4byte	0x14a
 943 043c 10       		.uleb128 0x10
 944 043d 73000000 		.4byte	.LASF69
 945 0441 07       		.byte	0x7
 946 0442 A4       		.byte	0xa4
 947 0443 4A010000 		.4byte	0x14a
 948 0447 10       		.uleb128 0x10
 949 0448 03060000 		.4byte	.LASF70
 950 044c 07       		.byte	0x7
 951 044d AB       		.byte	0xab
 952 044e C6000000 		.4byte	0xc6
 953 0452 10       		.uleb128 0x10
 954 0453 6B040000 		.4byte	.LASF71
 955 0457 07       		.byte	0x7
 956 0458 B2       		.byte	0xb2
 957 0459 55010000 		.4byte	0x155
 958 045d 00       		.byte	0
 959 045e 06       		.uleb128 0x6
 960 045f 04       		.byte	0x4
 961 0460 C3020000 		.4byte	0x2c3
 962 0464 06       		.uleb128 0x6
 963 0465 04       		.byte	0x4
 964 0466 AC030000 		.4byte	0x3ac
 965 046a 06       		.uleb128 0x6
 966 046b 04       		.byte	0x4
 967 046c 70040000 		.4byte	0x470
ARM GAS  /tmp/ccX5TMNs.s 			page 18


 968 0470 11       		.uleb128 0x11
 969 0471 4A010000 		.4byte	0x14a
 970 0475 7F040000 		.4byte	0x47f
 971 0479 12       		.uleb128 0x12
 972 047a C6000000 		.4byte	0xc6
 973 047e 00       		.byte	0
 974 047f 02       		.uleb128 0x2
 975 0480 2A020000 		.4byte	.LASF72
 976 0484 0B       		.byte	0xb
 977 0485 37       		.byte	0x37
 978 0486 8A040000 		.4byte	0x48a
 979 048a 08       		.uleb128 0x8
 980 048b 2A020000 		.4byte	.LASF72
 981 048f 24       		.byte	0x24
 982 0490 0B       		.byte	0xb
 983 0491 45       		.byte	0x45
 984 0492 F7040000 		.4byte	0x4f7
 985 0496 09       		.uleb128 0x9
 986 0497 9C000000 		.4byte	.LASF73
 987 049b 0B       		.byte	0xb
 988 049c 46       		.byte	0x46
 989 049d 8D020000 		.4byte	0x28d
 990 04a1 00       		.byte	0
 991 04a2 09       		.uleb128 0x9
 992 04a3 D7040000 		.4byte	.LASF74
 993 04a7 0B       		.byte	0xb
 994 04a8 47       		.byte	0x47
 995 04a9 25000000 		.4byte	0x25
 996 04ad 08       		.byte	0x8
 997 04ae 09       		.uleb128 0x9
 998 04af FC000000 		.4byte	.LASF75
 999 04b3 0B       		.byte	0xb
 1000 04b4 48       		.byte	0x48
 1001 04b5 19050000 		.4byte	0x519
 1002 04b9 0C       		.byte	0xc
 1003 04ba 09       		.uleb128 0x9
 1004 04bb C8050000 		.4byte	.LASF76
 1005 04bf 0B       		.byte	0xb
 1006 04c0 49       		.byte	0x49
 1007 04c1 19050000 		.4byte	0x519
 1008 04c5 10       		.byte	0x10
 1009 04c6 09       		.uleb128 0x9
 1010 04c7 05010000 		.4byte	.LASF77
 1011 04cb 0B       		.byte	0xb
 1012 04cc 4B       		.byte	0x4b
 1013 04cd 19050000 		.4byte	0x519
 1014 04d1 14       		.byte	0x14
 1015 04d2 09       		.uleb128 0x9
 1016 04d3 0A040000 		.4byte	.LASF78
 1017 04d7 0B       		.byte	0xb
 1018 04d8 4C       		.byte	0x4c
 1019 04d9 19050000 		.4byte	0x519
 1020 04dd 18       		.byte	0x18
 1021 04de 09       		.uleb128 0x9
 1022 04df E4050000 		.4byte	.LASF79
 1023 04e3 0B       		.byte	0xb
 1024 04e4 4D       		.byte	0x4d
ARM GAS  /tmp/ccX5TMNs.s 			page 19


 1025 04e5 F7040000 		.4byte	0x4f7
 1026 04e9 1C       		.byte	0x1c
 1027 04ea 09       		.uleb128 0x9
 1028 04eb 0D010000 		.4byte	.LASF80
 1029 04ef 0B       		.byte	0xb
 1030 04f0 4E       		.byte	0x4e
 1031 04f1 C6000000 		.4byte	0xc6
 1032 04f5 20       		.byte	0x20
 1033 04f6 00       		.byte	0
 1034 04f7 02       		.uleb128 0x2
 1035 04f8 20020000 		.4byte	.LASF81
 1036 04fc 0B       		.byte	0xb
 1037 04fd 3A       		.byte	0x3a
 1038 04fe 02050000 		.4byte	0x502
 1039 0502 06       		.uleb128 0x6
 1040 0503 04       		.byte	0x4
 1041 0504 08050000 		.4byte	0x508
 1042 0508 13       		.uleb128 0x13
 1043 0509 13050000 		.4byte	0x513
 1044 050d 12       		.uleb128 0x12
 1045 050e 13050000 		.4byte	0x513
 1046 0512 00       		.byte	0
 1047 0513 06       		.uleb128 0x6
 1048 0514 04       		.byte	0x4
 1049 0515 7F040000 		.4byte	0x47f
 1050 0519 06       		.uleb128 0x6
 1051 051a 04       		.byte	0x4
 1052 051b E0000000 		.4byte	0xe0
 1053 051f 02       		.uleb128 0x2
 1054 0520 15020000 		.4byte	.LASF82
 1055 0524 0B       		.byte	0xb
 1056 0525 82       		.byte	0x82
 1057 0526 7F040000 		.4byte	0x47f
 1058 052a 02       		.uleb128 0x2
 1059 052b 26000000 		.4byte	.LASF83
 1060 052f 0B       		.byte	0xb
 1061 0530 F5       		.byte	0xf5
 1062 0531 7F040000 		.4byte	0x47f
 1063 0535 11       		.uleb128 0x11
 1064 0536 25000000 		.4byte	0x25
 1065 053a 4E050000 		.4byte	0x54e
 1066 053e 12       		.uleb128 0x12
 1067 053f C6000000 		.4byte	0xc6
 1068 0543 12       		.uleb128 0x12
 1069 0544 4E050000 		.4byte	0x54e
 1070 0548 12       		.uleb128 0x12
 1071 0549 25000000 		.4byte	0x25
 1072 054d 00       		.byte	0
 1073 054e 06       		.uleb128 0x6
 1074 054f 04       		.byte	0x4
 1075 0550 54050000 		.4byte	0x554
 1076 0554 07       		.uleb128 0x7
 1077 0555 E0000000 		.4byte	0xe0
 1078 0559 06       		.uleb128 0x6
 1079 055a 04       		.byte	0x4
 1080 055b 35050000 		.4byte	0x535
 1081 055f 11       		.uleb128 0x11
ARM GAS  /tmp/ccX5TMNs.s 			page 20


 1082 0560 25000000 		.4byte	0x25
 1083 0564 78050000 		.4byte	0x578
 1084 0568 12       		.uleb128 0x12
 1085 0569 C6000000 		.4byte	0xc6
 1086 056d 12       		.uleb128 0x12
 1087 056e 19050000 		.4byte	0x519
 1088 0572 12       		.uleb128 0x12
 1089 0573 25000000 		.4byte	0x25
 1090 0577 00       		.byte	0
 1091 0578 06       		.uleb128 0x6
 1092 0579 04       		.byte	0x4
 1093 057a 5F050000 		.4byte	0x55f
 1094 057e 11       		.uleb128 0x11
 1095 057f 4A010000 		.4byte	0x14a
 1096 0583 92050000 		.4byte	0x592
 1097 0587 12       		.uleb128 0x12
 1098 0588 C6000000 		.4byte	0xc6
 1099 058c 12       		.uleb128 0x12
 1100 058d E0000000 		.4byte	0xe0
 1101 0591 00       		.byte	0
 1102 0592 06       		.uleb128 0x6
 1103 0593 04       		.byte	0x4
 1104 0594 7E050000 		.4byte	0x57e
 1105 0598 0E       		.uleb128 0xe
 1106 0599 F6000000 		.4byte	0xf6
 1107 059d 0E       		.uleb128 0xe
 1108 059e 01010000 		.4byte	0x101
 1109 05a2 14       		.uleb128 0x14
 1110 05a3 1C       		.byte	0x1c
 1111 05a4 0C       		.byte	0xc
 1112 05a5 2905     		.2byte	0x529
 1113 05a7 60060000 		.4byte	0x660
 1114 05ab 0D       		.uleb128 0xd
 1115 05ac 535200   		.ascii	"SR\000"
 1116 05af 0C       		.byte	0xc
 1117 05b0 2B05     		.2byte	0x52b
 1118 05b2 98050000 		.4byte	0x598
 1119 05b6 00       		.byte	0
 1120 05b7 15       		.uleb128 0x15
 1121 05b8 BF030000 		.4byte	.LASF84
 1122 05bc 0C       		.byte	0xc
 1123 05bd 2C05     		.2byte	0x52c
 1124 05bf F6000000 		.4byte	0xf6
 1125 05c3 02       		.byte	0x2
 1126 05c4 0D       		.uleb128 0xd
 1127 05c5 445200   		.ascii	"DR\000"
 1128 05c8 0C       		.byte	0xc
 1129 05c9 2D05     		.2byte	0x52d
 1130 05cb 98050000 		.4byte	0x598
 1131 05cf 04       		.byte	0x4
 1132 05d0 15       		.uleb128 0x15
 1133 05d1 C9030000 		.4byte	.LASF85
 1134 05d5 0C       		.byte	0xc
 1135 05d6 2E05     		.2byte	0x52e
 1136 05d8 F6000000 		.4byte	0xf6
 1137 05dc 06       		.byte	0x6
 1138 05dd 0D       		.uleb128 0xd
ARM GAS  /tmp/ccX5TMNs.s 			page 21


 1139 05de 42525200 		.ascii	"BRR\000"
 1140 05e2 0C       		.byte	0xc
 1141 05e3 2F05     		.2byte	0x52f
 1142 05e5 98050000 		.4byte	0x598
 1143 05e9 08       		.byte	0x8
 1144 05ea 15       		.uleb128 0x15
 1145 05eb D3030000 		.4byte	.LASF86
 1146 05ef 0C       		.byte	0xc
 1147 05f0 3005     		.2byte	0x530
 1148 05f2 F6000000 		.4byte	0xf6
 1149 05f6 0A       		.byte	0xa
 1150 05f7 0D       		.uleb128 0xd
 1151 05f8 43523100 		.ascii	"CR1\000"
 1152 05fc 0C       		.byte	0xc
 1153 05fd 3105     		.2byte	0x531
 1154 05ff 98050000 		.4byte	0x598
 1155 0603 0C       		.byte	0xc
 1156 0604 15       		.uleb128 0x15
 1157 0605 DD030000 		.4byte	.LASF87
 1158 0609 0C       		.byte	0xc
 1159 060a 3205     		.2byte	0x532
 1160 060c F6000000 		.4byte	0xf6
 1161 0610 0E       		.byte	0xe
 1162 0611 0D       		.uleb128 0xd
 1163 0612 43523200 		.ascii	"CR2\000"
 1164 0616 0C       		.byte	0xc
 1165 0617 3305     		.2byte	0x533
 1166 0619 98050000 		.4byte	0x598
 1167 061d 10       		.byte	0x10
 1168 061e 15       		.uleb128 0x15
 1169 061f E7030000 		.4byte	.LASF88
 1170 0623 0C       		.byte	0xc
 1171 0624 3405     		.2byte	0x534
 1172 0626 F6000000 		.4byte	0xf6
 1173 062a 12       		.byte	0x12
 1174 062b 0D       		.uleb128 0xd
 1175 062c 43523300 		.ascii	"CR3\000"
 1176 0630 0C       		.byte	0xc
 1177 0631 3505     		.2byte	0x535
 1178 0633 98050000 		.4byte	0x598
 1179 0637 14       		.byte	0x14
 1180 0638 15       		.uleb128 0x15
 1181 0639 CD040000 		.4byte	.LASF89
 1182 063d 0C       		.byte	0xc
 1183 063e 3605     		.2byte	0x536
 1184 0640 F6000000 		.4byte	0xf6
 1185 0644 16       		.byte	0x16
 1186 0645 15       		.uleb128 0x15
 1187 0646 CF000000 		.4byte	.LASF90
 1188 064a 0C       		.byte	0xc
 1189 064b 3705     		.2byte	0x537
 1190 064d 98050000 		.4byte	0x598
 1191 0651 18       		.byte	0x18
 1192 0652 15       		.uleb128 0x15
 1193 0653 F8030000 		.4byte	.LASF91
 1194 0657 0C       		.byte	0xc
 1195 0658 3805     		.2byte	0x538
ARM GAS  /tmp/ccX5TMNs.s 			page 22


 1196 065a F6000000 		.4byte	0xf6
 1197 065e 1A       		.byte	0x1a
 1198 065f 00       		.byte	0
 1199 0660 16       		.uleb128 0x16
 1200 0661 D7010000 		.4byte	.LASF92
 1201 0665 0C       		.byte	0xc
 1202 0666 3905     		.2byte	0x539
 1203 0668 A2050000 		.4byte	0x5a2
 1204 066c 11       		.uleb128 0x11
 1205 066d 4A010000 		.4byte	0x14a
 1206 0671 85060000 		.4byte	0x685
 1207 0675 12       		.uleb128 0x12
 1208 0676 C6000000 		.4byte	0xc6
 1209 067a 12       		.uleb128 0x12
 1210 067b E0000000 		.4byte	0xe0
 1211 067f 12       		.uleb128 0x12
 1212 0680 6B010000 		.4byte	0x16b
 1213 0684 00       		.byte	0
 1214 0685 06       		.uleb128 0x6
 1215 0686 04       		.byte	0x4
 1216 0687 6C060000 		.4byte	0x66c
 1217 068b 11       		.uleb128 0x11
 1218 068c 4A010000 		.4byte	0x14a
 1219 0690 9F060000 		.4byte	0x69f
 1220 0694 12       		.uleb128 0x12
 1221 0695 C6000000 		.4byte	0xc6
 1222 0699 12       		.uleb128 0x12
 1223 069a 6B010000 		.4byte	0x16b
 1224 069e 00       		.byte	0
 1225 069f 06       		.uleb128 0x6
 1226 06a0 04       		.byte	0x4
 1227 06a1 8B060000 		.4byte	0x68b
 1228 06a5 11       		.uleb128 0x11
 1229 06a6 25000000 		.4byte	0x25
 1230 06aa C3060000 		.4byte	0x6c3
 1231 06ae 12       		.uleb128 0x12
 1232 06af C6000000 		.4byte	0xc6
 1233 06b3 12       		.uleb128 0x12
 1234 06b4 4E050000 		.4byte	0x54e
 1235 06b8 12       		.uleb128 0x12
 1236 06b9 25000000 		.4byte	0x25
 1237 06bd 12       		.uleb128 0x12
 1238 06be 6B010000 		.4byte	0x16b
 1239 06c2 00       		.byte	0
 1240 06c3 06       		.uleb128 0x6
 1241 06c4 04       		.byte	0x4
 1242 06c5 A5060000 		.4byte	0x6a5
 1243 06c9 11       		.uleb128 0x11
 1244 06ca 25000000 		.4byte	0x25
 1245 06ce E7060000 		.4byte	0x6e7
 1246 06d2 12       		.uleb128 0x12
 1247 06d3 C6000000 		.4byte	0xc6
 1248 06d7 12       		.uleb128 0x12
 1249 06d8 19050000 		.4byte	0x519
 1250 06dc 12       		.uleb128 0x12
 1251 06dd 25000000 		.4byte	0x25
 1252 06e1 12       		.uleb128 0x12
ARM GAS  /tmp/ccX5TMNs.s 			page 23


 1253 06e2 6B010000 		.4byte	0x16b
 1254 06e6 00       		.byte	0
 1255 06e7 06       		.uleb128 0x6
 1256 06e8 04       		.byte	0x4
 1257 06e9 C9060000 		.4byte	0x6c9
 1258 06ed 0B       		.uleb128 0xb
 1259 06ee 04       		.byte	0x4
 1260 06ef 0D       		.byte	0xd
 1261 06f0 96       		.byte	0x96
 1262 06f1 0E070000 		.4byte	0x70e
 1263 06f5 0A       		.uleb128 0xa
 1264 06f6 73657400 		.ascii	"set\000"
 1265 06fa 0D       		.byte	0xd
 1266 06fb 97       		.byte	0x97
 1267 06fc F6000000 		.4byte	0xf6
 1268 0700 00       		.byte	0
 1269 0701 09       		.uleb128 0x9
 1270 0702 41030000 		.4byte	.LASF93
 1271 0706 0D       		.byte	0xd
 1272 0707 98       		.byte	0x98
 1273 0708 F6000000 		.4byte	0xf6
 1274 070c 02       		.byte	0x2
 1275 070d 00       		.byte	0
 1276 070e 0F       		.uleb128 0xf
 1277 070f 04       		.byte	0x4
 1278 0710 0D       		.byte	0xd
 1279 0711 94       		.byte	0x94
 1280 0712 29070000 		.4byte	0x729
 1281 0716 17       		.uleb128 0x17
 1282 0717 5700     		.ascii	"W\000"
 1283 0719 0D       		.byte	0xd
 1284 071a 95       		.byte	0x95
 1285 071b 0C010000 		.4byte	0x10c
 1286 071f 17       		.uleb128 0x17
 1287 0720 4800     		.ascii	"H\000"
 1288 0722 0D       		.byte	0xd
 1289 0723 99       		.byte	0x99
 1290 0724 ED060000 		.4byte	0x6ed
 1291 0728 00       		.byte	0
 1292 0729 0B       		.uleb128 0xb
 1293 072a 28       		.byte	0x28
 1294 072b 0D       		.byte	0xd
 1295 072c 8C       		.byte	0x8c
 1296 072d AA070000 		.4byte	0x7aa
 1297 0731 09       		.uleb128 0x9
 1298 0732 50000000 		.4byte	.LASF94
 1299 0736 0D       		.byte	0xd
 1300 0737 8E       		.byte	0x8e
 1301 0738 6B030000 		.4byte	0x36b
 1302 073c 00       		.byte	0
 1303 073d 09       		.uleb128 0x9
 1304 073e 3C000000 		.4byte	.LASF95
 1305 0742 0D       		.byte	0xd
 1306 0743 8F       		.byte	0x8f
 1307 0744 6B030000 		.4byte	0x36b
 1308 0748 04       		.byte	0x4
 1309 0749 09       		.uleb128 0x9
ARM GAS  /tmp/ccX5TMNs.s 			page 24


 1310 074a 1C010000 		.4byte	.LASF96
 1311 074e 0D       		.byte	0xd
 1312 074f 90       		.byte	0x90
 1313 0750 6B030000 		.4byte	0x36b
 1314 0754 08       		.byte	0x8
 1315 0755 09       		.uleb128 0x9
 1316 0756 6D000000 		.4byte	.LASF97
 1317 075a 0D       		.byte	0xd
 1318 075b 91       		.byte	0x91
 1319 075c 6B030000 		.4byte	0x36b
 1320 0760 0C       		.byte	0xc
 1321 0761 0A       		.uleb128 0xa
 1322 0762 49445200 		.ascii	"IDR\000"
 1323 0766 0D       		.byte	0xd
 1324 0767 92       		.byte	0x92
 1325 0768 6B030000 		.4byte	0x36b
 1326 076c 10       		.byte	0x10
 1327 076d 0A       		.uleb128 0xa
 1328 076e 4F445200 		.ascii	"ODR\000"
 1329 0772 0D       		.byte	0xd
 1330 0773 93       		.byte	0x93
 1331 0774 6B030000 		.4byte	0x36b
 1332 0778 14       		.byte	0x14
 1333 0779 09       		.uleb128 0x9
 1334 077a C0000000 		.4byte	.LASF98
 1335 077e 0D       		.byte	0xd
 1336 077f 9A       		.byte	0x9a
 1337 0780 AA070000 		.4byte	0x7aa
 1338 0784 18       		.byte	0x18
 1339 0785 09       		.uleb128 0x9
 1340 0786 A7040000 		.4byte	.LASF99
 1341 078a 0D       		.byte	0xd
 1342 078b 9B       		.byte	0x9b
 1343 078c 6B030000 		.4byte	0x36b
 1344 0790 1C       		.byte	0x1c
 1345 0791 09       		.uleb128 0x9
 1346 0792 BA030000 		.4byte	.LASF100
 1347 0796 0D       		.byte	0xd
 1348 0797 9C       		.byte	0x9c
 1349 0798 6B030000 		.4byte	0x36b
 1350 079c 20       		.byte	0x20
 1351 079d 09       		.uleb128 0x9
 1352 079e B5030000 		.4byte	.LASF101
 1353 07a2 0D       		.byte	0xd
 1354 07a3 9D       		.byte	0x9d
 1355 07a4 6B030000 		.4byte	0x36b
 1356 07a8 24       		.byte	0x24
 1357 07a9 00       		.byte	0
 1358 07aa 0E       		.uleb128 0xe
 1359 07ab 0E070000 		.4byte	0x70e
 1360 07af 02       		.uleb128 0x2
 1361 07b0 97010000 		.4byte	.LASF102
 1362 07b4 0D       		.byte	0xd
 1363 07b5 9E       		.byte	0x9e
 1364 07b6 29070000 		.4byte	0x729
 1365 07ba 02       		.uleb128 0x2
 1366 07bb 43000000 		.4byte	.LASF103
ARM GAS  /tmp/ccX5TMNs.s 			page 25


 1367 07bf 0D       		.byte	0xd
 1368 07c0 F0       		.byte	0xf0
 1369 07c1 0C010000 		.4byte	0x10c
 1370 07c5 16       		.uleb128 0x16
 1371 07c6 12040000 		.4byte	.LASF104
 1372 07ca 0E       		.byte	0xe
 1373 07cb 3A01     		.2byte	0x13a
 1374 07cd 0C010000 		.4byte	0x10c
 1375 07d1 18       		.uleb128 0x18
 1376 07d2 01       		.byte	0x1
 1377 07d3 5E000000 		.4byte	0x5e
 1378 07d7 0F       		.byte	0xf
 1379 07d8 64       		.byte	0x64
 1380 07d9 F0070000 		.4byte	0x7f0
 1381 07dd 19       		.uleb128 0x19
 1382 07de C3040000 		.4byte	.LASF105
 1383 07e2 00       		.byte	0
 1384 07e3 19       		.uleb128 0x19
 1385 07e4 D4000000 		.4byte	.LASF106
 1386 07e8 01       		.byte	0x1
 1387 07e9 19       		.uleb128 0x19
 1388 07ea B6050000 		.4byte	.LASF107
 1389 07ee 02       		.byte	0x2
 1390 07ef 00       		.byte	0
 1391 07f0 02       		.uleb128 0x2
 1392 07f1 E1040000 		.4byte	.LASF108
 1393 07f5 0F       		.byte	0xf
 1394 07f6 68       		.byte	0x68
 1395 07f7 D1070000 		.4byte	0x7d1
 1396 07fb 02       		.uleb128 0x2
 1397 07fc EB040000 		.4byte	.LASF109
 1398 0800 0F       		.byte	0xf
 1399 0801 6D       		.byte	0x6d
 1400 0802 06080000 		.4byte	0x806
 1401 0806 08       		.uleb128 0x8
 1402 0807 EB040000 		.4byte	.LASF109
 1403 080b 78       		.byte	0x78
 1404 080c 0F       		.byte	0xf
 1405 080d 87       		.byte	0x87
 1406 080e 71080000 		.4byte	0x871
 1407 0812 0A       		.uleb128 0xa
 1408 0813 766D7400 		.ascii	"vmt\000"
 1409 0817 0F       		.byte	0xf
 1410 0818 89       		.byte	0x89
 1411 0819 DE080000 		.4byte	0x8de
 1412 081d 00       		.byte	0
 1413 081e 09       		.uleb128 0x9
 1414 081f B1010000 		.4byte	.LASF110
 1415 0823 0F       		.byte	0xf
 1416 0824 8A       		.byte	0x8a
 1417 0825 1E040000 		.4byte	0x41e
 1418 0829 04       		.byte	0x4
 1419 082a 09       		.uleb128 0x9
 1420 082b E4000000 		.4byte	.LASF111
 1421 082f 0F       		.byte	0xf
 1422 0830 8A       		.byte	0x8a
 1423 0831 F0070000 		.4byte	0x7f0
ARM GAS  /tmp/ccX5TMNs.s 			page 26


 1424 0835 08       		.byte	0x8
 1425 0836 09       		.uleb128 0x9
 1426 0837 85010000 		.4byte	.LASF112
 1427 083b 0F       		.byte	0xf
 1428 083c 8A       		.byte	0x8a
 1429 083d 1F050000 		.4byte	0x51f
 1430 0841 0C       		.byte	0xc
 1431 0842 09       		.uleb128 0x9
 1432 0843 D0010000 		.4byte	.LASF113
 1433 0847 0F       		.byte	0xf
 1434 0848 8A       		.byte	0x8a
 1435 0849 2A050000 		.4byte	0x52a
 1436 084d 30       		.byte	0x30
 1437 084e 0A       		.uleb128 0xa
 1438 084f 696200   		.ascii	"ib\000"
 1439 0852 0F       		.byte	0xf
 1440 0853 8A       		.byte	0x8a
 1441 0854 E9080000 		.4byte	0x8e9
 1442 0858 54       		.byte	0x54
 1443 0859 0A       		.uleb128 0xa
 1444 085a 6F6200   		.ascii	"ob\000"
 1445 085d 0F       		.byte	0xf
 1446 085e 8A       		.byte	0x8a
 1447 085f E9080000 		.4byte	0x8e9
 1448 0863 64       		.byte	0x64
 1449 0864 09       		.uleb128 0x9
 1450 0865 4E010000 		.4byte	.LASF114
 1451 0869 0F       		.byte	0xf
 1452 086a 8A       		.byte	0x8a
 1453 086b F9080000 		.4byte	0x8f9
 1454 086f 74       		.byte	0x74
 1455 0870 00       		.byte	0
 1456 0871 08       		.uleb128 0x8
 1457 0872 67010000 		.4byte	.LASF115
 1458 0876 20       		.byte	0x20
 1459 0877 0F       		.byte	0xf
 1460 0878 7C       		.byte	0x7c
 1461 0879 DE080000 		.4byte	0x8de
 1462 087d 09       		.uleb128 0x9
 1463 087e 53020000 		.4byte	.LASF116
 1464 0882 0F       		.byte	0xf
 1465 0883 7D       		.byte	0x7d
 1466 0884 59050000 		.4byte	0x559
 1467 0888 00       		.byte	0
 1468 0889 09       		.uleb128 0x9
 1469 088a 0A050000 		.4byte	.LASF117
 1470 088e 0F       		.byte	0xf
 1471 088f 7D       		.byte	0x7d
 1472 0890 78050000 		.4byte	0x578
 1473 0894 04       		.byte	0x4
 1474 0895 0A       		.uleb128 0xa
 1475 0896 70757400 		.ascii	"put\000"
 1476 089a 0F       		.byte	0xf
 1477 089b 7D       		.byte	0x7d
 1478 089c 92050000 		.4byte	0x592
 1479 08a0 08       		.byte	0x8
 1480 08a1 0A       		.uleb128 0xa
ARM GAS  /tmp/ccX5TMNs.s 			page 27


 1481 08a2 67657400 		.ascii	"get\000"
 1482 08a6 0F       		.byte	0xf
 1483 08a7 7D       		.byte	0x7d
 1484 08a8 6A040000 		.4byte	0x46a
 1485 08ac 0C       		.byte	0xc
 1486 08ad 09       		.uleb128 0x9
 1487 08ae 33030000 		.4byte	.LASF118
 1488 08b2 0F       		.byte	0xf
 1489 08b3 7D       		.byte	0x7d
 1490 08b4 85060000 		.4byte	0x685
 1491 08b8 10       		.byte	0x10
 1492 08b9 09       		.uleb128 0x9
 1493 08ba AC010000 		.4byte	.LASF119
 1494 08be 0F       		.byte	0xf
 1495 08bf 7D       		.byte	0x7d
 1496 08c0 9F060000 		.4byte	0x69f
 1497 08c4 14       		.byte	0x14
 1498 08c5 09       		.uleb128 0x9
 1499 08c6 E5010000 		.4byte	.LASF120
 1500 08ca 0F       		.byte	0xf
 1501 08cb 7D       		.byte	0x7d
 1502 08cc C3060000 		.4byte	0x6c3
 1503 08d0 18       		.byte	0x18
 1504 08d1 09       		.uleb128 0x9
 1505 08d2 96000000 		.4byte	.LASF121
 1506 08d6 0F       		.byte	0xf
 1507 08d7 7D       		.byte	0x7d
 1508 08d8 E7060000 		.4byte	0x6e7
 1509 08dc 1C       		.byte	0x1c
 1510 08dd 00       		.byte	0
 1511 08de 06       		.uleb128 0x6
 1512 08df 04       		.byte	0x4
 1513 08e0 E4080000 		.4byte	0x8e4
 1514 08e4 07       		.uleb128 0x7
 1515 08e5 71080000 		.4byte	0x871
 1516 08e9 1A       		.uleb128 0x1a
 1517 08ea E0000000 		.4byte	0xe0
 1518 08ee F9080000 		.4byte	0x8f9
 1519 08f2 1B       		.uleb128 0x1b
 1520 08f3 BF000000 		.4byte	0xbf
 1521 08f7 0F       		.byte	0xf
 1522 08f8 00       		.byte	0
 1523 08f9 06       		.uleb128 0x6
 1524 08fa 04       		.byte	0x4
 1525 08fb 60060000 		.4byte	0x660
 1526 08ff 1C       		.uleb128 0x1c
 1527 0900 82000000 		.4byte	.LASF122
 1528 0904 01       		.byte	0x1
 1529 0905 44       		.byte	0x44
 1530 0906 01       		.byte	0x1
 1531 0907 29090000 		.4byte	0x929
 1532 090b 1D       		.uleb128 0x1d
 1533 090c 6E00     		.ascii	"n\000"
 1534 090e 01       		.byte	0x1
 1535 090f 44       		.byte	0x44
 1536 0910 EB000000 		.4byte	0xeb
 1537 0914 1E       		.uleb128 0x1e
ARM GAS  /tmp/ccX5TMNs.s 			page 28


 1538 0915 62756600 		.ascii	"buf\000"
 1539 0919 01       		.byte	0x1
 1540 091a 45       		.byte	0x45
 1541 091b 29090000 		.4byte	0x929
 1542 091f 1E       		.uleb128 0x1e
 1543 0920 7000     		.ascii	"p\000"
 1544 0922 01       		.byte	0x1
 1545 0923 45       		.byte	0x45
 1546 0924 C8000000 		.4byte	0xc8
 1547 0928 00       		.byte	0
 1548 0929 1A       		.uleb128 0x1a
 1549 092a CE000000 		.4byte	0xce
 1550 092e 39090000 		.4byte	0x939
 1551 0932 1B       		.uleb128 0x1b
 1552 0933 BF000000 		.4byte	0xbf
 1553 0937 0F       		.byte	0xf
 1554 0938 00       		.byte	0
 1555 0939 1C       		.uleb128 0x1c
 1556 093a 7C000000 		.4byte	.LASF123
 1557 093e 01       		.byte	0x1
 1558 093f 2F       		.byte	0x2f
 1559 0940 01       		.byte	0x1
 1560 0941 4F090000 		.4byte	0x94f
 1561 0945 1D       		.uleb128 0x1d
 1562 0946 7000     		.ascii	"p\000"
 1563 0948 01       		.byte	0x1
 1564 0949 2F       		.byte	0x2f
 1565 094a C8000000 		.4byte	0xc8
 1566 094e 00       		.byte	0
 1567 094f 1F       		.uleb128 0x1f
 1568 0950 6E030000 		.4byte	.LASF144
 1569 0954 01       		.byte	0x1
 1570 0955 5C       		.byte	0x5c
 1571 0956 EB000000 		.4byte	0xeb
 1572 095a 01       		.byte	0x1
 1573 095b 81090000 		.4byte	0x981
 1574 095f 1D       		.uleb128 0x1d
 1575 0960 6D736200 		.ascii	"msb\000"
 1576 0964 01       		.byte	0x1
 1577 0965 5C       		.byte	0x5c
 1578 0966 E0000000 		.4byte	0xe0
 1579 096a 1D       		.uleb128 0x1d
 1580 096b 6C736200 		.ascii	"lsb\000"
 1581 096f 01       		.byte	0x1
 1582 0970 5C       		.byte	0x5c
 1583 0971 E0000000 		.4byte	0xe0
 1584 0975 20       		.uleb128 0x20
 1585 0976 59030000 		.4byte	.LASF124
 1586 097a 01       		.byte	0x1
 1587 097b 5D       		.byte	0x5d
 1588 097c F6000000 		.4byte	0xf6
 1589 0980 00       		.byte	0
 1590 0981 1C       		.uleb128 0x1c
 1591 0982 98040000 		.4byte	.LASF125
 1592 0986 01       		.byte	0x1
 1593 0987 39       		.byte	0x39
 1594 0988 01       		.byte	0x1
ARM GAS  /tmp/ccX5TMNs.s 			page 29


 1595 0989 97090000 		.4byte	0x997
 1596 098d 1D       		.uleb128 0x1d
 1597 098e 7000     		.ascii	"p\000"
 1598 0990 01       		.byte	0x1
 1599 0991 39       		.byte	0x39
 1600 0992 C8000000 		.4byte	0xc8
 1601 0996 00       		.byte	0
 1602 0997 21       		.uleb128 0x21
 1603 0998 FF080000 		.4byte	0x8ff
 1604 099c 00000000 		.4byte	.LFB113
 1605 09a0 84000000 		.4byte	.LFE113-.LFB113
 1606 09a4 01       		.uleb128 0x1
 1607 09a5 9C       		.byte	0x9c
 1608 09a6 380A0000 		.4byte	0xa38
 1609 09aa 22       		.uleb128 0x22
 1610 09ab 0B090000 		.4byte	0x90b
 1611 09af 00000000 		.4byte	.LLST0
 1612 09b3 23       		.uleb128 0x23
 1613 09b4 14090000 		.4byte	0x914
 1614 09b8 02       		.uleb128 0x2
 1615 09b9 91       		.byte	0x91
 1616 09ba 60       		.sleb128 -32
 1617 09bb 24       		.uleb128 0x24
 1618 09bc 1F090000 		.4byte	0x91f
 1619 09c0 45000000 		.4byte	.LLST1
 1620 09c4 25       		.uleb128 0x25
 1621 09c5 00000000 		.4byte	.Ldebug_ranges0+0
 1622 09c9 F9090000 		.4byte	0x9f9
 1623 09cd 26       		.uleb128 0x26
 1624 09ce 0B090000 		.4byte	0x90b
 1625 09d2 27       		.uleb128 0x27
 1626 09d3 00000000 		.4byte	.Ldebug_ranges0+0
 1627 09d7 28       		.uleb128 0x28
 1628 09d8 14090000 		.4byte	0x914
 1629 09dc 28       		.uleb128 0x28
 1630 09dd 1F090000 		.4byte	0x91f
 1631 09e1 29       		.uleb128 0x29
 1632 09e2 7A000000 		.4byte	.LVL14
 1633 09e6 A70C0000 		.4byte	0xca7
 1634 09ea 2A       		.uleb128 0x2a
 1635 09eb 01       		.uleb128 0x1
 1636 09ec 51       		.byte	0x51
 1637 09ed 02       		.uleb128 0x2
 1638 09ee 08       		.byte	0x8
 1639 09ef 30       		.byte	0x30
 1640 09f0 2A       		.uleb128 0x2a
 1641 09f1 01       		.uleb128 0x1
 1642 09f2 52       		.byte	0x52
 1643 09f3 02       		.uleb128 0x2
 1644 09f4 09       		.byte	0x9
 1645 09f5 FF       		.byte	0xff
 1646 09f6 00       		.byte	0
 1647 09f7 00       		.byte	0
 1648 09f8 00       		.byte	0
 1649 09f9 2B       		.uleb128 0x2b
 1650 09fa 14000000 		.4byte	.LVL2
 1651 09fe A70C0000 		.4byte	0xca7
ARM GAS  /tmp/ccX5TMNs.s 			page 30


 1652 0a02 130A0000 		.4byte	0xa13
 1653 0a06 2A       		.uleb128 0x2a
 1654 0a07 01       		.uleb128 0x1
 1655 0a08 51       		.byte	0x51
 1656 0a09 02       		.uleb128 0x2
 1657 0a0a 08       		.byte	0x8
 1658 0a0b 2B       		.byte	0x2b
 1659 0a0c 2A       		.uleb128 0x2a
 1660 0a0d 01       		.uleb128 0x1
 1661 0a0e 52       		.byte	0x52
 1662 0a0f 02       		.uleb128 0x2
 1663 0a10 09       		.byte	0x9
 1664 0a11 FF       		.byte	0xff
 1665 0a12 00       		.byte	0
 1666 0a13 2B       		.uleb128 0x2b
 1667 0a14 50000000 		.4byte	.LVL8
 1668 0a18 A70C0000 		.4byte	0xca7
 1669 0a1c 270A0000 		.4byte	0xa27
 1670 0a20 2A       		.uleb128 0x2a
 1671 0a21 01       		.uleb128 0x1
 1672 0a22 52       		.byte	0x52
 1673 0a23 02       		.uleb128 0x2
 1674 0a24 09       		.byte	0x9
 1675 0a25 FF       		.byte	0xff
 1676 0a26 00       		.byte	0
 1677 0a27 2C       		.uleb128 0x2c
 1678 0a28 64000000 		.4byte	.LVL12
 1679 0a2c A70C0000 		.4byte	0xca7
 1680 0a30 2A       		.uleb128 0x2a
 1681 0a31 01       		.uleb128 0x1
 1682 0a32 51       		.byte	0x51
 1683 0a33 02       		.uleb128 0x2
 1684 0a34 08       		.byte	0x8
 1685 0a35 2D       		.byte	0x2d
 1686 0a36 00       		.byte	0
 1687 0a37 00       		.byte	0
 1688 0a38 21       		.uleb128 0x21
 1689 0a39 4F090000 		.4byte	0x94f
 1690 0a3d 00000000 		.4byte	.LFB114
 1691 0a41 08000000 		.4byte	.LFE114-.LFB114
 1692 0a45 01       		.uleb128 0x1
 1693 0a46 9C       		.byte	0x9c
 1694 0a47 650A0000 		.4byte	0xa65
 1695 0a4b 22       		.uleb128 0x22
 1696 0a4c 5F090000 		.4byte	0x95f
 1697 0a50 7B000000 		.4byte	.LLST2
 1698 0a54 2D       		.uleb128 0x2d
 1699 0a55 6A090000 		.4byte	0x96a
 1700 0a59 01       		.uleb128 0x1
 1701 0a5a 51       		.byte	0x51
 1702 0a5b 24       		.uleb128 0x24
 1703 0a5c 75090000 		.4byte	0x975
 1704 0a60 9C000000 		.4byte	.LLST3
 1705 0a64 00       		.byte	0
 1706 0a65 2E       		.uleb128 0x2e
 1707 0a66 1C060000 		.4byte	.LASF145
 1708 0a6a 01       		.byte	0x1
ARM GAS  /tmp/ccX5TMNs.s 			page 31


 1709 0a6b 68       		.byte	0x68
 1710 0a6c 37000000 		.4byte	0x37
 1711 0a70 00000000 		.4byte	.LFB115
 1712 0a74 FC000000 		.4byte	.LFE115-.LFB115
 1713 0a78 01       		.uleb128 0x1
 1714 0a79 9C       		.byte	0x9c
 1715 0a7a 1A0C0000 		.4byte	0xc1a
 1716 0a7e 2F       		.uleb128 0x2f
 1717 0a7f DD050000 		.4byte	.LASF126
 1718 0a83 01       		.byte	0x1
 1719 0a84 69       		.byte	0x69
 1720 0a85 4A010000 		.4byte	0x14a
 1721 0a89 00       		.byte	0
 1722 0a8a 30       		.uleb128 0x30
 1723 0a8b 746D6F00 		.ascii	"tmo\000"
 1724 0a8f 01       		.byte	0x1
 1725 0a90 6A       		.byte	0x6a
 1726 0a91 6B010000 		.4byte	0x16b
 1727 0a95 04       		.byte	0x4
 1728 0a96 31       		.uleb128 0x31
 1729 0a97 39090000 		.4byte	0x939
 1730 0a9b 6A000000 		.4byte	.LBB28
 1731 0a9f 12000000 		.4byte	.LBE28-.LBB28
 1732 0aa3 01       		.byte	0x1
 1733 0aa4 A4       		.byte	0xa4
 1734 0aa5 C30A0000 		.4byte	0xac3
 1735 0aa9 22       		.uleb128 0x22
 1736 0aaa 45090000 		.4byte	0x945
 1737 0aae D5000000 		.4byte	.LLST4
 1738 0ab2 2C       		.uleb128 0x2c
 1739 0ab3 74000000 		.4byte	.LVL27
 1740 0ab7 A70C0000 		.4byte	0xca7
 1741 0abb 2A       		.uleb128 0x2a
 1742 0abc 01       		.uleb128 0x1
 1743 0abd 52       		.byte	0x52
 1744 0abe 02       		.uleb128 0x2
 1745 0abf 09       		.byte	0x9
 1746 0ac0 FF       		.byte	0xff
 1747 0ac1 00       		.byte	0
 1748 0ac2 00       		.byte	0
 1749 0ac3 31       		.uleb128 0x31
 1750 0ac4 39090000 		.4byte	0x939
 1751 0ac8 88000000 		.4byte	.LBB30
 1752 0acc 12000000 		.4byte	.LBE30-.LBB30
 1753 0ad0 01       		.byte	0x1
 1754 0ad1 A6       		.byte	0xa6
 1755 0ad2 F00A0000 		.4byte	0xaf0
 1756 0ad6 22       		.uleb128 0x22
 1757 0ad7 45090000 		.4byte	0x945
 1758 0adb 05010000 		.4byte	.LLST5
 1759 0adf 2C       		.uleb128 0x2c
 1760 0ae0 92000000 		.4byte	.LVL32
 1761 0ae4 A70C0000 		.4byte	0xca7
 1762 0ae8 2A       		.uleb128 0x2a
 1763 0ae9 01       		.uleb128 0x1
 1764 0aea 52       		.byte	0x52
 1765 0aeb 02       		.uleb128 0x2
ARM GAS  /tmp/ccX5TMNs.s 			page 32


 1766 0aec 09       		.byte	0x9
 1767 0aed FF       		.byte	0xff
 1768 0aee 00       		.byte	0
 1769 0aef 00       		.byte	0
 1770 0af0 31       		.uleb128 0x31
 1771 0af1 39090000 		.4byte	0x939
 1772 0af5 A6000000 		.4byte	.LBB32
 1773 0af9 12000000 		.4byte	.LBE32-.LBB32
 1774 0afd 01       		.byte	0x1
 1775 0afe A8       		.byte	0xa8
 1776 0aff 1D0B0000 		.4byte	0xb1d
 1777 0b03 22       		.uleb128 0x22
 1778 0b04 45090000 		.4byte	0x945
 1779 0b08 35010000 		.4byte	.LLST6
 1780 0b0c 2C       		.uleb128 0x2c
 1781 0b0d B0000000 		.4byte	.LVL37
 1782 0b11 A70C0000 		.4byte	0xca7
 1783 0b15 2A       		.uleb128 0x2a
 1784 0b16 01       		.uleb128 0x1
 1785 0b17 52       		.byte	0x52
 1786 0b18 02       		.uleb128 0x2
 1787 0b19 09       		.byte	0x9
 1788 0b1a FF       		.byte	0xff
 1789 0b1b 00       		.byte	0
 1790 0b1c 00       		.byte	0
 1791 0b1d 31       		.uleb128 0x31
 1792 0b1e 81090000 		.4byte	0x981
 1793 0b22 C0000000 		.4byte	.LBB34
 1794 0b26 3C000000 		.4byte	.LBE34-.LBB34
 1795 0b2a 01       		.byte	0x1
 1796 0b2b AA       		.byte	0xaa
 1797 0b2c 5B0B0000 		.4byte	0xb5b
 1798 0b30 2D       		.uleb128 0x2d
 1799 0b31 8D090000 		.4byte	0x98d
 1800 0b35 06       		.uleb128 0x6
 1801 0b36 F2       		.byte	0xf2
 1802 0b37 B30C0000 		.4byte	.Ldebug_info0+3251
 1803 0b3b 00       		.sleb128 0
 1804 0b3c 2C       		.uleb128 0x2c
 1805 0b3d CE000000 		.4byte	.LVL41
 1806 0b41 B80C0000 		.4byte	0xcb8
 1807 0b45 2A       		.uleb128 0x2a
 1808 0b46 01       		.uleb128 0x1
 1809 0b47 51       		.byte	0x51
 1810 0b48 05       		.uleb128 0x5
 1811 0b49 03       		.byte	0x3
 1812 0b4a 14000000 		.4byte	.LC3
 1813 0b4e 2A       		.uleb128 0x2a
 1814 0b4f 01       		.uleb128 0x1
 1815 0b50 52       		.byte	0x52
 1816 0b51 01       		.uleb128 0x1
 1817 0b52 32       		.byte	0x32
 1818 0b53 2A       		.uleb128 0x2a
 1819 0b54 01       		.uleb128 0x1
 1820 0b55 53       		.byte	0x53
 1821 0b56 02       		.uleb128 0x2
 1822 0b57 09       		.byte	0x9
ARM GAS  /tmp/ccX5TMNs.s 			page 33


 1823 0b58 FF       		.byte	0xff
 1824 0b59 00       		.byte	0
 1825 0b5a 00       		.byte	0
 1826 0b5b 32       		.uleb128 0x32
 1827 0b5c 08000000 		.4byte	.LVL18
 1828 0b60 C40C0000 		.4byte	0xcc4
 1829 0b64 32       		.uleb128 0x32
 1830 0b65 0C000000 		.4byte	.LVL19
 1831 0b69 CF0C0000 		.4byte	0xccf
 1832 0b6d 2B       		.uleb128 0x2b
 1833 0b6e 1E000000 		.4byte	.LVL20
 1834 0b72 DA0C0000 		.4byte	0xcda
 1835 0b76 800B0000 		.4byte	0xb80
 1836 0b7a 2A       		.uleb128 0x2a
 1837 0b7b 01       		.uleb128 0x1
 1838 0b7c 51       		.byte	0x51
 1839 0b7d 01       		.uleb128 0x1
 1840 0b7e 30       		.byte	0x30
 1841 0b7f 00       		.byte	0
 1842 0b80 2B       		.uleb128 0x2b
 1843 0b81 2C000000 		.4byte	.LVL21
 1844 0b85 E60C0000 		.4byte	0xce6
 1845 0b89 A50B0000 		.4byte	0xba5
 1846 0b8d 2A       		.uleb128 0x2a
 1847 0b8e 01       		.uleb128 0x1
 1848 0b8f 50       		.byte	0x50
 1849 0b90 05       		.uleb128 0x5
 1850 0b91 0C       		.byte	0xc
 1851 0b92 00000240 		.4byte	0x40020000
 1852 0b96 2A       		.uleb128 0x2a
 1853 0b97 01       		.uleb128 0x1
 1854 0b98 51       		.byte	0x51
 1855 0b99 03       		.uleb128 0x3
 1856 0b9a 0A       		.byte	0xa
 1857 0b9b 0002     		.2byte	0x200
 1858 0b9d 2A       		.uleb128 0x2a
 1859 0b9e 01       		.uleb128 0x1
 1860 0b9f 52       		.byte	0x52
 1861 0ba0 03       		.uleb128 0x3
 1862 0ba1 0A       		.byte	0xa
 1863 0ba2 8203     		.2byte	0x382
 1864 0ba4 00       		.byte	0
 1865 0ba5 2B       		.uleb128 0x2b
 1866 0ba6 3A000000 		.4byte	.LVL22
 1867 0baa E60C0000 		.4byte	0xce6
 1868 0bae CA0B0000 		.4byte	0xbca
 1869 0bb2 2A       		.uleb128 0x2a
 1870 0bb3 01       		.uleb128 0x1
 1871 0bb4 50       		.byte	0x50
 1872 0bb5 05       		.uleb128 0x5
 1873 0bb6 0C       		.byte	0xc
 1874 0bb7 00000240 		.4byte	0x40020000
 1875 0bbb 2A       		.uleb128 0x2a
 1876 0bbc 01       		.uleb128 0x1
 1877 0bbd 51       		.byte	0x51
 1878 0bbe 03       		.uleb128 0x3
 1879 0bbf 0A       		.byte	0xa
ARM GAS  /tmp/ccX5TMNs.s 			page 34


 1880 0bc0 0004     		.2byte	0x400
 1881 0bc2 2A       		.uleb128 0x2a
 1882 0bc3 01       		.uleb128 0x1
 1883 0bc4 52       		.byte	0x52
 1884 0bc5 03       		.uleb128 0x3
 1885 0bc6 0A       		.byte	0xa
 1886 0bc7 8203     		.2byte	0x382
 1887 0bc9 00       		.byte	0
 1888 0bca 2B       		.uleb128 0x2b
 1889 0bcb 46000000 		.4byte	.LVL23
 1890 0bcf E60C0000 		.4byte	0xce6
 1891 0bd3 EA0B0000 		.4byte	0xbea
 1892 0bd7 2A       		.uleb128 0x2a
 1893 0bd8 01       		.uleb128 0x1
 1894 0bd9 50       		.byte	0x50
 1895 0bda 02       		.uleb128 0x2
 1896 0bdb 76       		.byte	0x76
 1897 0bdc 00       		.sleb128 0
 1898 0bdd 2A       		.uleb128 0x2a
 1899 0bde 01       		.uleb128 0x1
 1900 0bdf 51       		.byte	0x51
 1901 0be0 03       		.uleb128 0x3
 1902 0be1 0A       		.byte	0xa
 1903 0be2 0020     		.2byte	0x2000
 1904 0be4 2A       		.uleb128 0x2a
 1905 0be5 01       		.uleb128 0x1
 1906 0be6 52       		.byte	0x52
 1907 0be7 01       		.uleb128 0x1
 1908 0be8 31       		.byte	0x31
 1909 0be9 00       		.byte	0
 1910 0bea 2B       		.uleb128 0x2b
 1911 0beb 56000000 		.4byte	.LVL24
 1912 0bef F20C0000 		.4byte	0xcf2
 1913 0bf3 FE0B0000 		.4byte	0xbfe
 1914 0bf7 2A       		.uleb128 0x2a
 1915 0bf8 01       		.uleb128 0x1
 1916 0bf9 50       		.byte	0x50
 1917 0bfa 02       		.uleb128 0x2
 1918 0bfb 08       		.byte	0x8
 1919 0bfc 64       		.byte	0x64
 1920 0bfd 00       		.byte	0
 1921 0bfe 32       		.uleb128 0x32
 1922 0bff 86000000 		.4byte	.LVL30
 1923 0c03 FF080000 		.4byte	0x8ff
 1924 0c07 32       		.uleb128 0x32
 1925 0c08 A4000000 		.4byte	.LVL35
 1926 0c0c FF080000 		.4byte	0x8ff
 1927 0c10 32       		.uleb128 0x32
 1928 0c11 C0000000 		.4byte	.LVL40
 1929 0c15 FF080000 		.4byte	0x8ff
 1930 0c19 00       		.byte	0
 1931 0c1a 1A       		.uleb128 0x1a
 1932 0c1b E0000000 		.4byte	0xe0
 1933 0c1f 2A0C0000 		.4byte	0xc2a
 1934 0c23 1B       		.uleb128 0x1b
 1935 0c24 BF000000 		.4byte	0xbf
 1936 0c28 05       		.byte	0x5
ARM GAS  /tmp/ccX5TMNs.s 			page 35


 1937 0c29 00       		.byte	0
 1938 0c2a 20       		.uleb128 0x20
 1939 0c2b 89000000 		.4byte	.LASF127
 1940 0c2f 01       		.byte	0x1
 1941 0c30 26       		.byte	0x26
 1942 0c31 1A0C0000 		.4byte	0xc1a
 1943 0c35 1A       		.uleb128 0x1a
 1944 0c36 E0000000 		.4byte	0xe0
 1945 0c3a 450C0000 		.4byte	0xc45
 1946 0c3e 1B       		.uleb128 0x1b
 1947 0c3f BF000000 		.4byte	0xbf
 1948 0c43 03       		.byte	0x3
 1949 0c44 00       		.byte	0
 1950 0c45 20       		.uleb128 0x20
 1951 0c46 61010000 		.4byte	.LASF128
 1952 0c4a 01       		.byte	0x1
 1953 0c4b 27       		.byte	0x27
 1954 0c4c 350C0000 		.4byte	0xc35
 1955 0c50 2F       		.uleb128 0x2f
 1956 0c51 7E010000 		.4byte	.LASF129
 1957 0c55 01       		.byte	0x1
 1958 0c56 28       		.byte	0x28
 1959 0c57 C5070000 		.4byte	0x7c5
 1960 0c5b 00       		.byte	0
 1961 0c5c 33       		.uleb128 0x33
 1962 0c5d 89040000 		.4byte	.LASF130
 1963 0c61 01       		.byte	0x1
 1964 0c62 29       		.byte	0x29
 1965 0c63 EB000000 		.4byte	0xeb
 1966 0c67 05       		.uleb128 0x5
 1967 0c68 03       		.byte	0x3
 1968 0c69 00000000 		.4byte	acceleration_x
 1969 0c6d 33       		.uleb128 0x33
 1970 0c6e 31060000 		.4byte	.LASF131
 1971 0c72 01       		.byte	0x1
 1972 0c73 29       		.byte	0x29
 1973 0c74 EB000000 		.4byte	0xeb
 1974 0c78 05       		.uleb128 0x5
 1975 0c79 03       		.byte	0x3
 1976 0c7a 00000000 		.4byte	acceleration_y
 1977 0c7e 33       		.uleb128 0x33
 1978 0c7f 40060000 		.4byte	.LASF132
 1979 0c83 01       		.byte	0x1
 1980 0c84 29       		.byte	0x29
 1981 0c85 EB000000 		.4byte	0xeb
 1982 0c89 05       		.uleb128 0x5
 1983 0c8a 03       		.byte	0x3
 1984 0c8b 00000000 		.4byte	acceleration_z
 1985 0c8f 34       		.uleb128 0x34
 1986 0c90 39040000 		.4byte	.LASF133
 1987 0c94 12       		.byte	0x12
 1988 0c95 9806     		.2byte	0x698
 1989 0c97 9D050000 		.4byte	0x59d
 1990 0c9b 35       		.uleb128 0x35
 1991 0c9c 53443100 		.ascii	"SD1\000"
 1992 0ca0 13       		.byte	0x13
 1993 0ca1 0F01     		.2byte	0x10f
ARM GAS  /tmp/ccX5TMNs.s 			page 36


 1994 0ca3 FB070000 		.4byte	0x7fb
 1995 0ca7 36       		.uleb128 0x36
 1996 0ca8 00000000 		.4byte	.LASF134
 1997 0cac 00000000 		.4byte	.LASF134
 1998 0cb0 0B       		.byte	0xb
 1999 0cb1 6D01     		.2byte	0x16d
 2000 0cb3 37       		.uleb128 0x37
 2001 0cb4 03       		.uleb128 0x3
 2002 0cb5 9E       		.byte	0x9e
 2003 0cb6 01       		.uleb128 0x1
 2004 0cb7 00       		.byte	0
 2005 0cb8 36       		.uleb128 0x36
 2006 0cb9 42020000 		.4byte	.LASF135
 2007 0cbd 42020000 		.4byte	.LASF135
 2008 0cc1 0B       		.byte	0xb
 2009 0cc2 6F01     		.2byte	0x16f
 2010 0cc4 38       		.uleb128 0x38
 2011 0cc5 A4010000 		.4byte	.LASF136
 2012 0cc9 A4010000 		.4byte	.LASF136
 2013 0ccd 10       		.byte	0x10
 2014 0cce D0       		.byte	0xd0
 2015 0ccf 38       		.uleb128 0x38
 2016 0cd0 C5000000 		.4byte	.LASF137
 2017 0cd4 C5000000 		.4byte	.LASF137
 2018 0cd8 11       		.byte	0x11
 2019 0cd9 F6       		.byte	0xf6
 2020 0cda 36       		.uleb128 0x36
 2021 0cdb 14050000 		.4byte	.LASF138
 2022 0cdf 14050000 		.4byte	.LASF138
 2023 0ce3 0F       		.byte	0xf
 2024 0ce4 3701     		.2byte	0x137
 2025 0ce6 36       		.uleb128 0x36
 2026 0ce7 99050000 		.4byte	.LASF139
 2027 0ceb 99050000 		.4byte	.LASF139
 2028 0cef 0D       		.byte	0xd
 2029 0cf0 C201     		.2byte	0x1c2
 2030 0cf2 36       		.uleb128 0x36
 2031 0cf3 9F030000 		.4byte	.LASF140
 2032 0cf7 9F030000 		.4byte	.LASF140
 2033 0cfb 07       		.byte	0x7
 2034 0cfc 7501     		.2byte	0x175
 2035 0cfe 00       		.byte	0
 2036              		.section	.debug_abbrev,"",%progbits
 2037              	.Ldebug_abbrev0:
 2038 0000 01       		.uleb128 0x1
 2039 0001 11       		.uleb128 0x11
 2040 0002 01       		.byte	0x1
 2041 0003 25       		.uleb128 0x25
 2042 0004 0E       		.uleb128 0xe
 2043 0005 13       		.uleb128 0x13
 2044 0006 0B       		.uleb128 0xb
 2045 0007 03       		.uleb128 0x3
 2046 0008 0E       		.uleb128 0xe
 2047 0009 1B       		.uleb128 0x1b
 2048 000a 0E       		.uleb128 0xe
 2049 000b 55       		.uleb128 0x55
 2050 000c 17       		.uleb128 0x17
ARM GAS  /tmp/ccX5TMNs.s 			page 37


 2051 000d 11       		.uleb128 0x11
 2052 000e 01       		.uleb128 0x1
 2053 000f 10       		.uleb128 0x10
 2054 0010 17       		.uleb128 0x17
 2055 0011 00       		.byte	0
 2056 0012 00       		.byte	0
 2057 0013 02       		.uleb128 0x2
 2058 0014 16       		.uleb128 0x16
 2059 0015 00       		.byte	0
 2060 0016 03       		.uleb128 0x3
 2061 0017 0E       		.uleb128 0xe
 2062 0018 3A       		.uleb128 0x3a
 2063 0019 0B       		.uleb128 0xb
 2064 001a 3B       		.uleb128 0x3b
 2065 001b 0B       		.uleb128 0xb
 2066 001c 49       		.uleb128 0x49
 2067 001d 13       		.uleb128 0x13
 2068 001e 00       		.byte	0
 2069 001f 00       		.byte	0
 2070 0020 03       		.uleb128 0x3
 2071 0021 24       		.uleb128 0x24
 2072 0022 00       		.byte	0
 2073 0023 0B       		.uleb128 0xb
 2074 0024 0B       		.uleb128 0xb
 2075 0025 3E       		.uleb128 0x3e
 2076 0026 0B       		.uleb128 0xb
 2077 0027 03       		.uleb128 0x3
 2078 0028 0E       		.uleb128 0xe
 2079 0029 00       		.byte	0
 2080 002a 00       		.byte	0
 2081 002b 04       		.uleb128 0x4
 2082 002c 24       		.uleb128 0x24
 2083 002d 00       		.byte	0
 2084 002e 0B       		.uleb128 0xb
 2085 002f 0B       		.uleb128 0xb
 2086 0030 3E       		.uleb128 0x3e
 2087 0031 0B       		.uleb128 0xb
 2088 0032 03       		.uleb128 0x3
 2089 0033 08       		.uleb128 0x8
 2090 0034 00       		.byte	0
 2091 0035 00       		.byte	0
 2092 0036 05       		.uleb128 0x5
 2093 0037 0F       		.uleb128 0xf
 2094 0038 00       		.byte	0
 2095 0039 0B       		.uleb128 0xb
 2096 003a 0B       		.uleb128 0xb
 2097 003b 00       		.byte	0
 2098 003c 00       		.byte	0
 2099 003d 06       		.uleb128 0x6
 2100 003e 0F       		.uleb128 0xf
 2101 003f 00       		.byte	0
 2102 0040 0B       		.uleb128 0xb
 2103 0041 0B       		.uleb128 0xb
 2104 0042 49       		.uleb128 0x49
 2105 0043 13       		.uleb128 0x13
 2106 0044 00       		.byte	0
 2107 0045 00       		.byte	0
ARM GAS  /tmp/ccX5TMNs.s 			page 38


 2108 0046 07       		.uleb128 0x7
 2109 0047 26       		.uleb128 0x26
 2110 0048 00       		.byte	0
 2111 0049 49       		.uleb128 0x49
 2112 004a 13       		.uleb128 0x13
 2113 004b 00       		.byte	0
 2114 004c 00       		.byte	0
 2115 004d 08       		.uleb128 0x8
 2116 004e 13       		.uleb128 0x13
 2117 004f 01       		.byte	0x1
 2118 0050 03       		.uleb128 0x3
 2119 0051 0E       		.uleb128 0xe
 2120 0052 0B       		.uleb128 0xb
 2121 0053 0B       		.uleb128 0xb
 2122 0054 3A       		.uleb128 0x3a
 2123 0055 0B       		.uleb128 0xb
 2124 0056 3B       		.uleb128 0x3b
 2125 0057 0B       		.uleb128 0xb
 2126 0058 01       		.uleb128 0x1
 2127 0059 13       		.uleb128 0x13
 2128 005a 00       		.byte	0
 2129 005b 00       		.byte	0
 2130 005c 09       		.uleb128 0x9
 2131 005d 0D       		.uleb128 0xd
 2132 005e 00       		.byte	0
 2133 005f 03       		.uleb128 0x3
 2134 0060 0E       		.uleb128 0xe
 2135 0061 3A       		.uleb128 0x3a
 2136 0062 0B       		.uleb128 0xb
 2137 0063 3B       		.uleb128 0x3b
 2138 0064 0B       		.uleb128 0xb
 2139 0065 49       		.uleb128 0x49
 2140 0066 13       		.uleb128 0x13
 2141 0067 38       		.uleb128 0x38
 2142 0068 0B       		.uleb128 0xb
 2143 0069 00       		.byte	0
 2144 006a 00       		.byte	0
 2145 006b 0A       		.uleb128 0xa
 2146 006c 0D       		.uleb128 0xd
 2147 006d 00       		.byte	0
 2148 006e 03       		.uleb128 0x3
 2149 006f 08       		.uleb128 0x8
 2150 0070 3A       		.uleb128 0x3a
 2151 0071 0B       		.uleb128 0xb
 2152 0072 3B       		.uleb128 0x3b
 2153 0073 0B       		.uleb128 0xb
 2154 0074 49       		.uleb128 0x49
 2155 0075 13       		.uleb128 0x13
 2156 0076 38       		.uleb128 0x38
 2157 0077 0B       		.uleb128 0xb
 2158 0078 00       		.byte	0
 2159 0079 00       		.byte	0
 2160 007a 0B       		.uleb128 0xb
 2161 007b 13       		.uleb128 0x13
 2162 007c 01       		.byte	0x1
 2163 007d 0B       		.uleb128 0xb
 2164 007e 0B       		.uleb128 0xb
ARM GAS  /tmp/ccX5TMNs.s 			page 39


 2165 007f 3A       		.uleb128 0x3a
 2166 0080 0B       		.uleb128 0xb
 2167 0081 3B       		.uleb128 0x3b
 2168 0082 0B       		.uleb128 0xb
 2169 0083 01       		.uleb128 0x1
 2170 0084 13       		.uleb128 0x13
 2171 0085 00       		.byte	0
 2172 0086 00       		.byte	0
 2173 0087 0C       		.uleb128 0xc
 2174 0088 13       		.uleb128 0x13
 2175 0089 01       		.byte	0x1
 2176 008a 03       		.uleb128 0x3
 2177 008b 0E       		.uleb128 0xe
 2178 008c 0B       		.uleb128 0xb
 2179 008d 0B       		.uleb128 0xb
 2180 008e 3A       		.uleb128 0x3a
 2181 008f 0B       		.uleb128 0xb
 2182 0090 3B       		.uleb128 0x3b
 2183 0091 05       		.uleb128 0x5
 2184 0092 01       		.uleb128 0x1
 2185 0093 13       		.uleb128 0x13
 2186 0094 00       		.byte	0
 2187 0095 00       		.byte	0
 2188 0096 0D       		.uleb128 0xd
 2189 0097 0D       		.uleb128 0xd
 2190 0098 00       		.byte	0
 2191 0099 03       		.uleb128 0x3
 2192 009a 08       		.uleb128 0x8
 2193 009b 3A       		.uleb128 0x3a
 2194 009c 0B       		.uleb128 0xb
 2195 009d 3B       		.uleb128 0x3b
 2196 009e 05       		.uleb128 0x5
 2197 009f 49       		.uleb128 0x49
 2198 00a0 13       		.uleb128 0x13
 2199 00a1 38       		.uleb128 0x38
 2200 00a2 0B       		.uleb128 0xb
 2201 00a3 00       		.byte	0
 2202 00a4 00       		.byte	0
 2203 00a5 0E       		.uleb128 0xe
 2204 00a6 35       		.uleb128 0x35
 2205 00a7 00       		.byte	0
 2206 00a8 49       		.uleb128 0x49
 2207 00a9 13       		.uleb128 0x13
 2208 00aa 00       		.byte	0
 2209 00ab 00       		.byte	0
 2210 00ac 0F       		.uleb128 0xf
 2211 00ad 17       		.uleb128 0x17
 2212 00ae 01       		.byte	0x1
 2213 00af 0B       		.uleb128 0xb
 2214 00b0 0B       		.uleb128 0xb
 2215 00b1 3A       		.uleb128 0x3a
 2216 00b2 0B       		.uleb128 0xb
 2217 00b3 3B       		.uleb128 0x3b
 2218 00b4 0B       		.uleb128 0xb
 2219 00b5 01       		.uleb128 0x1
 2220 00b6 13       		.uleb128 0x13
 2221 00b7 00       		.byte	0
ARM GAS  /tmp/ccX5TMNs.s 			page 40


 2222 00b8 00       		.byte	0
 2223 00b9 10       		.uleb128 0x10
 2224 00ba 0D       		.uleb128 0xd
 2225 00bb 00       		.byte	0
 2226 00bc 03       		.uleb128 0x3
 2227 00bd 0E       		.uleb128 0xe
 2228 00be 3A       		.uleb128 0x3a
 2229 00bf 0B       		.uleb128 0xb
 2230 00c0 3B       		.uleb128 0x3b
 2231 00c1 0B       		.uleb128 0xb
 2232 00c2 49       		.uleb128 0x49
 2233 00c3 13       		.uleb128 0x13
 2234 00c4 00       		.byte	0
 2235 00c5 00       		.byte	0
 2236 00c6 11       		.uleb128 0x11
 2237 00c7 15       		.uleb128 0x15
 2238 00c8 01       		.byte	0x1
 2239 00c9 27       		.uleb128 0x27
 2240 00ca 19       		.uleb128 0x19
 2241 00cb 49       		.uleb128 0x49
 2242 00cc 13       		.uleb128 0x13
 2243 00cd 01       		.uleb128 0x1
 2244 00ce 13       		.uleb128 0x13
 2245 00cf 00       		.byte	0
 2246 00d0 00       		.byte	0
 2247 00d1 12       		.uleb128 0x12
 2248 00d2 05       		.uleb128 0x5
 2249 00d3 00       		.byte	0
 2250 00d4 49       		.uleb128 0x49
 2251 00d5 13       		.uleb128 0x13
 2252 00d6 00       		.byte	0
 2253 00d7 00       		.byte	0
 2254 00d8 13       		.uleb128 0x13
 2255 00d9 15       		.uleb128 0x15
 2256 00da 01       		.byte	0x1
 2257 00db 27       		.uleb128 0x27
 2258 00dc 19       		.uleb128 0x19
 2259 00dd 01       		.uleb128 0x1
 2260 00de 13       		.uleb128 0x13
 2261 00df 00       		.byte	0
 2262 00e0 00       		.byte	0
 2263 00e1 14       		.uleb128 0x14
 2264 00e2 13       		.uleb128 0x13
 2265 00e3 01       		.byte	0x1
 2266 00e4 0B       		.uleb128 0xb
 2267 00e5 0B       		.uleb128 0xb
 2268 00e6 3A       		.uleb128 0x3a
 2269 00e7 0B       		.uleb128 0xb
 2270 00e8 3B       		.uleb128 0x3b
 2271 00e9 05       		.uleb128 0x5
 2272 00ea 01       		.uleb128 0x1
 2273 00eb 13       		.uleb128 0x13
 2274 00ec 00       		.byte	0
 2275 00ed 00       		.byte	0
 2276 00ee 15       		.uleb128 0x15
 2277 00ef 0D       		.uleb128 0xd
 2278 00f0 00       		.byte	0
ARM GAS  /tmp/ccX5TMNs.s 			page 41


 2279 00f1 03       		.uleb128 0x3
 2280 00f2 0E       		.uleb128 0xe
 2281 00f3 3A       		.uleb128 0x3a
 2282 00f4 0B       		.uleb128 0xb
 2283 00f5 3B       		.uleb128 0x3b
 2284 00f6 05       		.uleb128 0x5
 2285 00f7 49       		.uleb128 0x49
 2286 00f8 13       		.uleb128 0x13
 2287 00f9 38       		.uleb128 0x38
 2288 00fa 0B       		.uleb128 0xb
 2289 00fb 00       		.byte	0
 2290 00fc 00       		.byte	0
 2291 00fd 16       		.uleb128 0x16
 2292 00fe 16       		.uleb128 0x16
 2293 00ff 00       		.byte	0
 2294 0100 03       		.uleb128 0x3
 2295 0101 0E       		.uleb128 0xe
 2296 0102 3A       		.uleb128 0x3a
 2297 0103 0B       		.uleb128 0xb
 2298 0104 3B       		.uleb128 0x3b
 2299 0105 05       		.uleb128 0x5
 2300 0106 49       		.uleb128 0x49
 2301 0107 13       		.uleb128 0x13
 2302 0108 00       		.byte	0
 2303 0109 00       		.byte	0
 2304 010a 17       		.uleb128 0x17
 2305 010b 0D       		.uleb128 0xd
 2306 010c 00       		.byte	0
 2307 010d 03       		.uleb128 0x3
 2308 010e 08       		.uleb128 0x8
 2309 010f 3A       		.uleb128 0x3a
 2310 0110 0B       		.uleb128 0xb
 2311 0111 3B       		.uleb128 0x3b
 2312 0112 0B       		.uleb128 0xb
 2313 0113 49       		.uleb128 0x49
 2314 0114 13       		.uleb128 0x13
 2315 0115 00       		.byte	0
 2316 0116 00       		.byte	0
 2317 0117 18       		.uleb128 0x18
 2318 0118 04       		.uleb128 0x4
 2319 0119 01       		.byte	0x1
 2320 011a 0B       		.uleb128 0xb
 2321 011b 0B       		.uleb128 0xb
 2322 011c 49       		.uleb128 0x49
 2323 011d 13       		.uleb128 0x13
 2324 011e 3A       		.uleb128 0x3a
 2325 011f 0B       		.uleb128 0xb
 2326 0120 3B       		.uleb128 0x3b
 2327 0121 0B       		.uleb128 0xb
 2328 0122 01       		.uleb128 0x1
 2329 0123 13       		.uleb128 0x13
 2330 0124 00       		.byte	0
 2331 0125 00       		.byte	0
 2332 0126 19       		.uleb128 0x19
 2333 0127 28       		.uleb128 0x28
 2334 0128 00       		.byte	0
 2335 0129 03       		.uleb128 0x3
ARM GAS  /tmp/ccX5TMNs.s 			page 42


 2336 012a 0E       		.uleb128 0xe
 2337 012b 1C       		.uleb128 0x1c
 2338 012c 0B       		.uleb128 0xb
 2339 012d 00       		.byte	0
 2340 012e 00       		.byte	0
 2341 012f 1A       		.uleb128 0x1a
 2342 0130 01       		.uleb128 0x1
 2343 0131 01       		.byte	0x1
 2344 0132 49       		.uleb128 0x49
 2345 0133 13       		.uleb128 0x13
 2346 0134 01       		.uleb128 0x1
 2347 0135 13       		.uleb128 0x13
 2348 0136 00       		.byte	0
 2349 0137 00       		.byte	0
 2350 0138 1B       		.uleb128 0x1b
 2351 0139 21       		.uleb128 0x21
 2352 013a 00       		.byte	0
 2353 013b 49       		.uleb128 0x49
 2354 013c 13       		.uleb128 0x13
 2355 013d 2F       		.uleb128 0x2f
 2356 013e 0B       		.uleb128 0xb
 2357 013f 00       		.byte	0
 2358 0140 00       		.byte	0
 2359 0141 1C       		.uleb128 0x1c
 2360 0142 2E       		.uleb128 0x2e
 2361 0143 01       		.byte	0x1
 2362 0144 03       		.uleb128 0x3
 2363 0145 0E       		.uleb128 0xe
 2364 0146 3A       		.uleb128 0x3a
 2365 0147 0B       		.uleb128 0xb
 2366 0148 3B       		.uleb128 0x3b
 2367 0149 0B       		.uleb128 0xb
 2368 014a 27       		.uleb128 0x27
 2369 014b 19       		.uleb128 0x19
 2370 014c 20       		.uleb128 0x20
 2371 014d 0B       		.uleb128 0xb
 2372 014e 01       		.uleb128 0x1
 2373 014f 13       		.uleb128 0x13
 2374 0150 00       		.byte	0
 2375 0151 00       		.byte	0
 2376 0152 1D       		.uleb128 0x1d
 2377 0153 05       		.uleb128 0x5
 2378 0154 00       		.byte	0
 2379 0155 03       		.uleb128 0x3
 2380 0156 08       		.uleb128 0x8
 2381 0157 3A       		.uleb128 0x3a
 2382 0158 0B       		.uleb128 0xb
 2383 0159 3B       		.uleb128 0x3b
 2384 015a 0B       		.uleb128 0xb
 2385 015b 49       		.uleb128 0x49
 2386 015c 13       		.uleb128 0x13
 2387 015d 00       		.byte	0
 2388 015e 00       		.byte	0
 2389 015f 1E       		.uleb128 0x1e
 2390 0160 34       		.uleb128 0x34
 2391 0161 00       		.byte	0
 2392 0162 03       		.uleb128 0x3
ARM GAS  /tmp/ccX5TMNs.s 			page 43


 2393 0163 08       		.uleb128 0x8
 2394 0164 3A       		.uleb128 0x3a
 2395 0165 0B       		.uleb128 0xb
 2396 0166 3B       		.uleb128 0x3b
 2397 0167 0B       		.uleb128 0xb
 2398 0168 49       		.uleb128 0x49
 2399 0169 13       		.uleb128 0x13
 2400 016a 00       		.byte	0
 2401 016b 00       		.byte	0
 2402 016c 1F       		.uleb128 0x1f
 2403 016d 2E       		.uleb128 0x2e
 2404 016e 01       		.byte	0x1
 2405 016f 3F       		.uleb128 0x3f
 2406 0170 19       		.uleb128 0x19
 2407 0171 03       		.uleb128 0x3
 2408 0172 0E       		.uleb128 0xe
 2409 0173 3A       		.uleb128 0x3a
 2410 0174 0B       		.uleb128 0xb
 2411 0175 3B       		.uleb128 0x3b
 2412 0176 0B       		.uleb128 0xb
 2413 0177 27       		.uleb128 0x27
 2414 0178 19       		.uleb128 0x19
 2415 0179 49       		.uleb128 0x49
 2416 017a 13       		.uleb128 0x13
 2417 017b 20       		.uleb128 0x20
 2418 017c 0B       		.uleb128 0xb
 2419 017d 01       		.uleb128 0x1
 2420 017e 13       		.uleb128 0x13
 2421 017f 00       		.byte	0
 2422 0180 00       		.byte	0
 2423 0181 20       		.uleb128 0x20
 2424 0182 34       		.uleb128 0x34
 2425 0183 00       		.byte	0
 2426 0184 03       		.uleb128 0x3
 2427 0185 0E       		.uleb128 0xe
 2428 0186 3A       		.uleb128 0x3a
 2429 0187 0B       		.uleb128 0xb
 2430 0188 3B       		.uleb128 0x3b
 2431 0189 0B       		.uleb128 0xb
 2432 018a 49       		.uleb128 0x49
 2433 018b 13       		.uleb128 0x13
 2434 018c 00       		.byte	0
 2435 018d 00       		.byte	0
 2436 018e 21       		.uleb128 0x21
 2437 018f 2E       		.uleb128 0x2e
 2438 0190 01       		.byte	0x1
 2439 0191 31       		.uleb128 0x31
 2440 0192 13       		.uleb128 0x13
 2441 0193 11       		.uleb128 0x11
 2442 0194 01       		.uleb128 0x1
 2443 0195 12       		.uleb128 0x12
 2444 0196 06       		.uleb128 0x6
 2445 0197 40       		.uleb128 0x40
 2446 0198 18       		.uleb128 0x18
 2447 0199 9742     		.uleb128 0x2117
 2448 019b 19       		.uleb128 0x19
 2449 019c 01       		.uleb128 0x1
ARM GAS  /tmp/ccX5TMNs.s 			page 44


 2450 019d 13       		.uleb128 0x13
 2451 019e 00       		.byte	0
 2452 019f 00       		.byte	0
 2453 01a0 22       		.uleb128 0x22
 2454 01a1 05       		.uleb128 0x5
 2455 01a2 00       		.byte	0
 2456 01a3 31       		.uleb128 0x31
 2457 01a4 13       		.uleb128 0x13
 2458 01a5 02       		.uleb128 0x2
 2459 01a6 17       		.uleb128 0x17
 2460 01a7 00       		.byte	0
 2461 01a8 00       		.byte	0
 2462 01a9 23       		.uleb128 0x23
 2463 01aa 34       		.uleb128 0x34
 2464 01ab 00       		.byte	0
 2465 01ac 31       		.uleb128 0x31
 2466 01ad 13       		.uleb128 0x13
 2467 01ae 02       		.uleb128 0x2
 2468 01af 18       		.uleb128 0x18
 2469 01b0 00       		.byte	0
 2470 01b1 00       		.byte	0
 2471 01b2 24       		.uleb128 0x24
 2472 01b3 34       		.uleb128 0x34
 2473 01b4 00       		.byte	0
 2474 01b5 31       		.uleb128 0x31
 2475 01b6 13       		.uleb128 0x13
 2476 01b7 02       		.uleb128 0x2
 2477 01b8 17       		.uleb128 0x17
 2478 01b9 00       		.byte	0
 2479 01ba 00       		.byte	0
 2480 01bb 25       		.uleb128 0x25
 2481 01bc 0B       		.uleb128 0xb
 2482 01bd 01       		.byte	0x1
 2483 01be 55       		.uleb128 0x55
 2484 01bf 17       		.uleb128 0x17
 2485 01c0 01       		.uleb128 0x1
 2486 01c1 13       		.uleb128 0x13
 2487 01c2 00       		.byte	0
 2488 01c3 00       		.byte	0
 2489 01c4 26       		.uleb128 0x26
 2490 01c5 05       		.uleb128 0x5
 2491 01c6 00       		.byte	0
 2492 01c7 31       		.uleb128 0x31
 2493 01c8 13       		.uleb128 0x13
 2494 01c9 00       		.byte	0
 2495 01ca 00       		.byte	0
 2496 01cb 27       		.uleb128 0x27
 2497 01cc 0B       		.uleb128 0xb
 2498 01cd 01       		.byte	0x1
 2499 01ce 55       		.uleb128 0x55
 2500 01cf 17       		.uleb128 0x17
 2501 01d0 00       		.byte	0
 2502 01d1 00       		.byte	0
 2503 01d2 28       		.uleb128 0x28
 2504 01d3 34       		.uleb128 0x34
 2505 01d4 00       		.byte	0
 2506 01d5 31       		.uleb128 0x31
ARM GAS  /tmp/ccX5TMNs.s 			page 45


 2507 01d6 13       		.uleb128 0x13
 2508 01d7 00       		.byte	0
 2509 01d8 00       		.byte	0
 2510 01d9 29       		.uleb128 0x29
 2511 01da 898201   		.uleb128 0x4109
 2512 01dd 01       		.byte	0x1
 2513 01de 11       		.uleb128 0x11
 2514 01df 01       		.uleb128 0x1
 2515 01e0 9542     		.uleb128 0x2115
 2516 01e2 19       		.uleb128 0x19
 2517 01e3 31       		.uleb128 0x31
 2518 01e4 13       		.uleb128 0x13
 2519 01e5 00       		.byte	0
 2520 01e6 00       		.byte	0
 2521 01e7 2A       		.uleb128 0x2a
 2522 01e8 8A8201   		.uleb128 0x410a
 2523 01eb 00       		.byte	0
 2524 01ec 02       		.uleb128 0x2
 2525 01ed 18       		.uleb128 0x18
 2526 01ee 9142     		.uleb128 0x2111
 2527 01f0 18       		.uleb128 0x18
 2528 01f1 00       		.byte	0
 2529 01f2 00       		.byte	0
 2530 01f3 2B       		.uleb128 0x2b
 2531 01f4 898201   		.uleb128 0x4109
 2532 01f7 01       		.byte	0x1
 2533 01f8 11       		.uleb128 0x11
 2534 01f9 01       		.uleb128 0x1
 2535 01fa 31       		.uleb128 0x31
 2536 01fb 13       		.uleb128 0x13
 2537 01fc 01       		.uleb128 0x1
 2538 01fd 13       		.uleb128 0x13
 2539 01fe 00       		.byte	0
 2540 01ff 00       		.byte	0
 2541 0200 2C       		.uleb128 0x2c
 2542 0201 898201   		.uleb128 0x4109
 2543 0204 01       		.byte	0x1
 2544 0205 11       		.uleb128 0x11
 2545 0206 01       		.uleb128 0x1
 2546 0207 31       		.uleb128 0x31
 2547 0208 13       		.uleb128 0x13
 2548 0209 00       		.byte	0
 2549 020a 00       		.byte	0
 2550 020b 2D       		.uleb128 0x2d
 2551 020c 05       		.uleb128 0x5
 2552 020d 00       		.byte	0
 2553 020e 31       		.uleb128 0x31
 2554 020f 13       		.uleb128 0x13
 2555 0210 02       		.uleb128 0x2
 2556 0211 18       		.uleb128 0x18
 2557 0212 00       		.byte	0
 2558 0213 00       		.byte	0
 2559 0214 2E       		.uleb128 0x2e
 2560 0215 2E       		.uleb128 0x2e
 2561 0216 01       		.byte	0x1
 2562 0217 3F       		.uleb128 0x3f
 2563 0218 19       		.uleb128 0x19
ARM GAS  /tmp/ccX5TMNs.s 			page 46


 2564 0219 03       		.uleb128 0x3
 2565 021a 0E       		.uleb128 0xe
 2566 021b 3A       		.uleb128 0x3a
 2567 021c 0B       		.uleb128 0xb
 2568 021d 3B       		.uleb128 0x3b
 2569 021e 0B       		.uleb128 0xb
 2570 021f 27       		.uleb128 0x27
 2571 0220 19       		.uleb128 0x19
 2572 0221 49       		.uleb128 0x49
 2573 0222 13       		.uleb128 0x13
 2574 0223 8701     		.uleb128 0x87
 2575 0225 19       		.uleb128 0x19
 2576 0226 11       		.uleb128 0x11
 2577 0227 01       		.uleb128 0x1
 2578 0228 12       		.uleb128 0x12
 2579 0229 06       		.uleb128 0x6
 2580 022a 40       		.uleb128 0x40
 2581 022b 18       		.uleb128 0x18
 2582 022c 9742     		.uleb128 0x2117
 2583 022e 19       		.uleb128 0x19
 2584 022f 01       		.uleb128 0x1
 2585 0230 13       		.uleb128 0x13
 2586 0231 00       		.byte	0
 2587 0232 00       		.byte	0
 2588 0233 2F       		.uleb128 0x2f
 2589 0234 34       		.uleb128 0x34
 2590 0235 00       		.byte	0
 2591 0236 03       		.uleb128 0x3
 2592 0237 0E       		.uleb128 0xe
 2593 0238 3A       		.uleb128 0x3a
 2594 0239 0B       		.uleb128 0xb
 2595 023a 3B       		.uleb128 0x3b
 2596 023b 0B       		.uleb128 0xb
 2597 023c 49       		.uleb128 0x49
 2598 023d 13       		.uleb128 0x13
 2599 023e 1C       		.uleb128 0x1c
 2600 023f 0B       		.uleb128 0xb
 2601 0240 00       		.byte	0
 2602 0241 00       		.byte	0
 2603 0242 30       		.uleb128 0x30
 2604 0243 34       		.uleb128 0x34
 2605 0244 00       		.byte	0
 2606 0245 03       		.uleb128 0x3
 2607 0246 08       		.uleb128 0x8
 2608 0247 3A       		.uleb128 0x3a
 2609 0248 0B       		.uleb128 0xb
 2610 0249 3B       		.uleb128 0x3b
 2611 024a 0B       		.uleb128 0xb
 2612 024b 49       		.uleb128 0x49
 2613 024c 13       		.uleb128 0x13
 2614 024d 1C       		.uleb128 0x1c
 2615 024e 0B       		.uleb128 0xb
 2616 024f 00       		.byte	0
 2617 0250 00       		.byte	0
 2618 0251 31       		.uleb128 0x31
 2619 0252 1D       		.uleb128 0x1d
 2620 0253 01       		.byte	0x1
ARM GAS  /tmp/ccX5TMNs.s 			page 47


 2621 0254 31       		.uleb128 0x31
 2622 0255 13       		.uleb128 0x13
 2623 0256 11       		.uleb128 0x11
 2624 0257 01       		.uleb128 0x1
 2625 0258 12       		.uleb128 0x12
 2626 0259 06       		.uleb128 0x6
 2627 025a 58       		.uleb128 0x58
 2628 025b 0B       		.uleb128 0xb
 2629 025c 59       		.uleb128 0x59
 2630 025d 0B       		.uleb128 0xb
 2631 025e 01       		.uleb128 0x1
 2632 025f 13       		.uleb128 0x13
 2633 0260 00       		.byte	0
 2634 0261 00       		.byte	0
 2635 0262 32       		.uleb128 0x32
 2636 0263 898201   		.uleb128 0x4109
 2637 0266 00       		.byte	0
 2638 0267 11       		.uleb128 0x11
 2639 0268 01       		.uleb128 0x1
 2640 0269 31       		.uleb128 0x31
 2641 026a 13       		.uleb128 0x13
 2642 026b 00       		.byte	0
 2643 026c 00       		.byte	0
 2644 026d 33       		.uleb128 0x33
 2645 026e 34       		.uleb128 0x34
 2646 026f 00       		.byte	0
 2647 0270 03       		.uleb128 0x3
 2648 0271 0E       		.uleb128 0xe
 2649 0272 3A       		.uleb128 0x3a
 2650 0273 0B       		.uleb128 0xb
 2651 0274 3B       		.uleb128 0x3b
 2652 0275 0B       		.uleb128 0xb
 2653 0276 49       		.uleb128 0x49
 2654 0277 13       		.uleb128 0x13
 2655 0278 02       		.uleb128 0x2
 2656 0279 18       		.uleb128 0x18
 2657 027a 00       		.byte	0
 2658 027b 00       		.byte	0
 2659 027c 34       		.uleb128 0x34
 2660 027d 34       		.uleb128 0x34
 2661 027e 00       		.byte	0
 2662 027f 03       		.uleb128 0x3
 2663 0280 0E       		.uleb128 0xe
 2664 0281 3A       		.uleb128 0x3a
 2665 0282 0B       		.uleb128 0xb
 2666 0283 3B       		.uleb128 0x3b
 2667 0284 05       		.uleb128 0x5
 2668 0285 49       		.uleb128 0x49
 2669 0286 13       		.uleb128 0x13
 2670 0287 3F       		.uleb128 0x3f
 2671 0288 19       		.uleb128 0x19
 2672 0289 3C       		.uleb128 0x3c
 2673 028a 19       		.uleb128 0x19
 2674 028b 00       		.byte	0
 2675 028c 00       		.byte	0
 2676 028d 35       		.uleb128 0x35
 2677 028e 34       		.uleb128 0x34
ARM GAS  /tmp/ccX5TMNs.s 			page 48


 2678 028f 00       		.byte	0
 2679 0290 03       		.uleb128 0x3
 2680 0291 08       		.uleb128 0x8
 2681 0292 3A       		.uleb128 0x3a
 2682 0293 0B       		.uleb128 0xb
 2683 0294 3B       		.uleb128 0x3b
 2684 0295 05       		.uleb128 0x5
 2685 0296 49       		.uleb128 0x49
 2686 0297 13       		.uleb128 0x13
 2687 0298 3F       		.uleb128 0x3f
 2688 0299 19       		.uleb128 0x19
 2689 029a 3C       		.uleb128 0x3c
 2690 029b 19       		.uleb128 0x19
 2691 029c 00       		.byte	0
 2692 029d 00       		.byte	0
 2693 029e 36       		.uleb128 0x36
 2694 029f 2E       		.uleb128 0x2e
 2695 02a0 00       		.byte	0
 2696 02a1 3F       		.uleb128 0x3f
 2697 02a2 19       		.uleb128 0x19
 2698 02a3 3C       		.uleb128 0x3c
 2699 02a4 19       		.uleb128 0x19
 2700 02a5 6E       		.uleb128 0x6e
 2701 02a6 0E       		.uleb128 0xe
 2702 02a7 03       		.uleb128 0x3
 2703 02a8 0E       		.uleb128 0xe
 2704 02a9 3A       		.uleb128 0x3a
 2705 02aa 0B       		.uleb128 0xb
 2706 02ab 3B       		.uleb128 0x3b
 2707 02ac 05       		.uleb128 0x5
 2708 02ad 00       		.byte	0
 2709 02ae 00       		.byte	0
 2710 02af 37       		.uleb128 0x37
 2711 02b0 36       		.uleb128 0x36
 2712 02b1 00       		.byte	0
 2713 02b2 02       		.uleb128 0x2
 2714 02b3 18       		.uleb128 0x18
 2715 02b4 00       		.byte	0
 2716 02b5 00       		.byte	0
 2717 02b6 38       		.uleb128 0x38
 2718 02b7 2E       		.uleb128 0x2e
 2719 02b8 00       		.byte	0
 2720 02b9 3F       		.uleb128 0x3f
 2721 02ba 19       		.uleb128 0x19
 2722 02bb 3C       		.uleb128 0x3c
 2723 02bc 19       		.uleb128 0x19
 2724 02bd 6E       		.uleb128 0x6e
 2725 02be 0E       		.uleb128 0xe
 2726 02bf 03       		.uleb128 0x3
 2727 02c0 0E       		.uleb128 0xe
 2728 02c1 3A       		.uleb128 0x3a
 2729 02c2 0B       		.uleb128 0xb
 2730 02c3 3B       		.uleb128 0x3b
 2731 02c4 0B       		.uleb128 0xb
 2732 02c5 00       		.byte	0
 2733 02c6 00       		.byte	0
 2734 02c7 00       		.byte	0
ARM GAS  /tmp/ccX5TMNs.s 			page 49


 2735              		.section	.debug_loc,"",%progbits
 2736              	.Ldebug_loc0:
 2737              	.LLST0:
 2738 0000 00000000 		.4byte	.LVL0
 2739 0004 10000000 		.4byte	.LVL1
 2740 0008 0100     		.2byte	0x1
 2741 000a 50       		.byte	0x50
 2742 000b 10000000 		.4byte	.LVL1
 2743 000f 14000000 		.4byte	.LVL2
 2744 0013 0400     		.2byte	0x4
 2745 0015 F3       		.byte	0xf3
 2746 0016 01       		.uleb128 0x1
 2747 0017 50       		.byte	0x50
 2748 0018 9F       		.byte	0x9f
 2749 0019 36000000 		.4byte	.LVL4
 2750 001d 42000000 		.4byte	.LVL6
 2751 0021 0100     		.2byte	0x1
 2752 0023 53       		.byte	0x53
 2753 0024 58000000 		.4byte	.LVL10
 2754 0028 5E000000 		.4byte	.LVL11
 2755 002c 0100     		.2byte	0x1
 2756 002e 50       		.byte	0x50
 2757 002f 5E000000 		.4byte	.LVL11
 2758 0033 64000000 		.4byte	.LVL12
 2759 0037 0400     		.2byte	0x4
 2760 0039 F3       		.byte	0xf3
 2761 003a 01       		.uleb128 0x1
 2762 003b 50       		.byte	0x50
 2763 003c 9F       		.byte	0x9f
 2764 003d 00000000 		.4byte	0
 2765 0041 00000000 		.4byte	0
 2766              	.LLST1:
 2767 0045 14000000 		.4byte	.LVL2
 2768 0049 1A000000 		.4byte	.LVL3
 2769 004d 0100     		.2byte	0x1
 2770 004f 5D       		.byte	0x5d
 2771 0050 1A000000 		.4byte	.LVL3
 2772 0054 40000000 		.4byte	.LVL5
 2773 0058 0100     		.2byte	0x1
 2774 005a 55       		.byte	0x55
 2775 005b 40000000 		.4byte	.LVL5
 2776 005f 42000000 		.4byte	.LVL6
 2777 0063 0300     		.2byte	0x3
 2778 0065 75       		.byte	0x75
 2779 0066 01       		.sleb128 1
 2780 0067 9F       		.byte	0x9f
 2781 0068 42000000 		.4byte	.LVL6
 2782 006c 54000000 		.4byte	.LVL9
 2783 0070 0100     		.2byte	0x1
 2784 0072 55       		.byte	0x55
 2785 0073 00000000 		.4byte	0
 2786 0077 00000000 		.4byte	0
 2787              	.LLST2:
 2788 007b 00000000 		.4byte	.LVL15
 2789 007f 04000000 		.4byte	.LVL16
 2790 0083 0100     		.2byte	0x1
 2791 0085 50       		.byte	0x50
ARM GAS  /tmp/ccX5TMNs.s 			page 50


 2792 0086 04000000 		.4byte	.LVL16
 2793 008a 08000000 		.4byte	.LFE114
 2794 008e 0400     		.2byte	0x4
 2795 0090 F3       		.byte	0xf3
 2796 0091 01       		.uleb128 0x1
 2797 0092 50       		.byte	0x50
 2798 0093 9F       		.byte	0x9f
 2799 0094 00000000 		.4byte	0
 2800 0098 00000000 		.4byte	0
 2801              	.LLST3:
 2802 009c 00000000 		.4byte	.LVL15
 2803 00a0 04000000 		.4byte	.LVL16
 2804 00a4 0E00     		.2byte	0xe
 2805 00a6 70       		.byte	0x70
 2806 00a7 00       		.sleb128 0
 2807 00a8 08       		.byte	0x8
 2808 00a9 FF       		.byte	0xff
 2809 00aa 1A       		.byte	0x1a
 2810 00ab 38       		.byte	0x38
 2811 00ac 24       		.byte	0x24
 2812 00ad 71       		.byte	0x71
 2813 00ae 00       		.sleb128 0
 2814 00af 08       		.byte	0x8
 2815 00b0 FF       		.byte	0xff
 2816 00b1 1A       		.byte	0x1a
 2817 00b2 22       		.byte	0x22
 2818 00b3 9F       		.byte	0x9f
 2819 00b4 04000000 		.4byte	.LVL16
 2820 00b8 08000000 		.4byte	.LFE114
 2821 00bc 0F00     		.2byte	0xf
 2822 00be F3       		.byte	0xf3
 2823 00bf 01       		.uleb128 0x1
 2824 00c0 50       		.byte	0x50
 2825 00c1 08       		.byte	0x8
 2826 00c2 FF       		.byte	0xff
 2827 00c3 1A       		.byte	0x1a
 2828 00c4 38       		.byte	0x38
 2829 00c5 24       		.byte	0x24
 2830 00c6 71       		.byte	0x71
 2831 00c7 00       		.sleb128 0
 2832 00c8 08       		.byte	0x8
 2833 00c9 FF       		.byte	0xff
 2834 00ca 1A       		.byte	0x1a
 2835 00cb 22       		.byte	0x22
 2836 00cc 9F       		.byte	0x9f
 2837 00cd 00000000 		.4byte	0
 2838 00d1 00000000 		.4byte	0
 2839              	.LLST4:
 2840 00d5 68000000 		.4byte	.LVL25
 2841 00d9 6A000000 		.4byte	.LVL26
 2842 00dd 0600     		.2byte	0x6
 2843 00df 03       		.byte	0x3
 2844 00e0 00000000 		.4byte	.LC0
 2845 00e4 9F       		.byte	0x9f
 2846 00e5 6A000000 		.4byte	.LVL26
 2847 00e9 78000000 		.4byte	.LVL28
 2848 00ed 0100     		.2byte	0x1
ARM GAS  /tmp/ccX5TMNs.s 			page 51


 2849 00ef 54       		.byte	0x54
 2850 00f0 78000000 		.4byte	.LVL28
 2851 00f4 7C000000 		.4byte	.LVL29
 2852 00f8 0300     		.2byte	0x3
 2853 00fa 74       		.byte	0x74
 2854 00fb 7F       		.sleb128 -1
 2855 00fc 9F       		.byte	0x9f
 2856 00fd 00000000 		.4byte	0
 2857 0101 00000000 		.4byte	0
 2858              	.LLST5:
 2859 0105 86000000 		.4byte	.LVL30
 2860 0109 88000000 		.4byte	.LVL31
 2861 010d 0600     		.2byte	0x6
 2862 010f 03       		.byte	0x3
 2863 0110 04000000 		.4byte	.LC1
 2864 0114 9F       		.byte	0x9f
 2865 0115 88000000 		.4byte	.LVL31
 2866 0119 96000000 		.4byte	.LVL33
 2867 011d 0100     		.2byte	0x1
 2868 011f 54       		.byte	0x54
 2869 0120 96000000 		.4byte	.LVL33
 2870 0124 9A000000 		.4byte	.LVL34
 2871 0128 0300     		.2byte	0x3
 2872 012a 74       		.byte	0x74
 2873 012b 7F       		.sleb128 -1
 2874 012c 9F       		.byte	0x9f
 2875 012d 00000000 		.4byte	0
 2876 0131 00000000 		.4byte	0
 2877              	.LLST6:
 2878 0135 A4000000 		.4byte	.LVL35
 2879 0139 A6000000 		.4byte	.LVL36
 2880 013d 0600     		.2byte	0x6
 2881 013f 03       		.byte	0x3
 2882 0140 0C000000 		.4byte	.LC2
 2883 0144 9F       		.byte	0x9f
 2884 0145 A6000000 		.4byte	.LVL36
 2885 0149 B4000000 		.4byte	.LVL38
 2886 014d 0100     		.2byte	0x1
 2887 014f 54       		.byte	0x54
 2888 0150 B4000000 		.4byte	.LVL38
 2889 0154 B8000000 		.4byte	.LVL39
 2890 0158 0300     		.2byte	0x3
 2891 015a 74       		.byte	0x74
 2892 015b 7F       		.sleb128 -1
 2893 015c 9F       		.byte	0x9f
 2894 015d 00000000 		.4byte	0
 2895 0161 00000000 		.4byte	0
 2896              		.section	.debug_aranges,"",%progbits
 2897 0000 2C000000 		.4byte	0x2c
 2898 0004 0200     		.2byte	0x2
 2899 0006 00000000 		.4byte	.Ldebug_info0
 2900 000a 04       		.byte	0x4
 2901 000b 00       		.byte	0
 2902 000c 0000     		.2byte	0
 2903 000e 0000     		.2byte	0
 2904 0010 00000000 		.4byte	.LFB113
 2905 0014 84000000 		.4byte	.LFE113-.LFB113
ARM GAS  /tmp/ccX5TMNs.s 			page 52


 2906 0018 00000000 		.4byte	.LFB114
 2907 001c 08000000 		.4byte	.LFE114-.LFB114
 2908 0020 00000000 		.4byte	.LFB115
 2909 0024 FC000000 		.4byte	.LFE115-.LFB115
 2910 0028 00000000 		.4byte	0
 2911 002c 00000000 		.4byte	0
 2912              		.section	.debug_ranges,"",%progbits
 2913              	.Ldebug_ranges0:
 2914 0000 68000000 		.4byte	.LBB16
 2915 0004 70000000 		.4byte	.LBE16
 2916 0008 76000000 		.4byte	.LBB19
 2917 000c 84000000 		.4byte	.LBE19
 2918 0010 00000000 		.4byte	0
 2919 0014 00000000 		.4byte	0
 2920 0018 00000000 		.4byte	.LFB113
 2921 001c 84000000 		.4byte	.LFE113
 2922 0020 00000000 		.4byte	.LFB114
 2923 0024 08000000 		.4byte	.LFE114
 2924 0028 00000000 		.4byte	.LFB115
 2925 002c FC000000 		.4byte	.LFE115
 2926 0030 00000000 		.4byte	0
 2927 0034 00000000 		.4byte	0
 2928              		.section	.debug_line,"",%progbits
 2929              	.Ldebug_line0:
 2930 0000 9B040000 		.section	.debug_str,"MS",%progbits,1
 2930      0200D403 
 2930      00000201 
 2930      FB0E0D00 
 2930      01010101 
 2931              	.LASF134:
 2932 0000 63684F51 		.ascii	"chOQPutTimeout\000"
 2932      50757454 
 2932      696D656F 
 2932      757400
 2933              	.LASF4:
 2934 000f 73697A65 		.ascii	"size_t\000"
 2934      5F7400
 2935              	.LASF68:
 2936 0016 7264796D 		.ascii	"rdymsg\000"
 2936      736700
 2937              	.LASF24:
 2938 001d 75696E74 		.ascii	"uint64_t\000"
 2938      36345F74 
 2938      00
 2939              	.LASF83:
 2940 0026 4F757470 		.ascii	"OutputQueue\000"
 2940      75745175 
 2940      65756500 
 2941              	.LASF5:
 2942 0032 5F5F7569 		.ascii	"__uint8_t\000"
 2942      6E74385F 
 2942      7400
 2943              	.LASF95:
 2944 003c 4F545950 		.ascii	"OTYPER\000"
 2944      455200
 2945              	.LASF103:
 2946 0043 696F706F 		.ascii	"ioportmask_t\000"
ARM GAS  /tmp/ccX5TMNs.s 			page 53


 2946      72746D61 
 2946      736B5F74 
 2946      00
 2947              	.LASF94:
 2948 0050 4D4F4445 		.ascii	"MODER\000"
 2948      5200
 2949              	.LASF16:
 2950 0056 6C6F6E67 		.ascii	"long long unsigned int\000"
 2950      206C6F6E 
 2950      6720756E 
 2950      7369676E 
 2950      65642069 
 2951              	.LASF97:
 2952 006d 50555044 		.ascii	"PUPDR\000"
 2952      5200
 2953              	.LASF69:
 2954 0073 65786974 		.ascii	"exitcode\000"
 2954      636F6465 
 2954      00
 2955              	.LASF123:
 2956 007c 7072696E 		.ascii	"print\000"
 2956      7400
 2957              	.LASF122:
 2958 0082 7072696E 		.ascii	"printn\000"
 2958      746E00
 2959              	.LASF127:
 2960 0089 72786275 		.ascii	"rxbuf\000"
 2960      6600
 2961              	.LASF36:
 2962 008f 705F7072 		.ascii	"p_prio\000"
 2962      696F00
 2963              	.LASF121:
 2964 0096 72656164 		.ascii	"readt\000"
 2964      7400
 2965              	.LASF73:
 2966 009c 715F7761 		.ascii	"q_waiting\000"
 2966      6974696E 
 2966      6700
 2967              	.LASF1:
 2968 00a6 6C6F6E67 		.ascii	"long long int\000"
 2968      206C6F6E 
 2968      6720696E 
 2968      7400
 2969              	.LASF3:
 2970 00b4 7369676E 		.ascii	"signed char\000"
 2970      65642063 
 2970      68617200 
 2971              	.LASF98:
 2972 00c0 42535252 		.ascii	"BSRR\000"
 2972      00
 2973              	.LASF137:
 2974 00c5 63685379 		.ascii	"chSysInit\000"
 2974      73496E69 
 2974      7400
 2975              	.LASF90:
 2976 00cf 47545052 		.ascii	"GTPR\000"
 2976      00
ARM GAS  /tmp/ccX5TMNs.s 			page 54


 2977              	.LASF106:
 2978 00d4 53445F53 		.ascii	"SD_STOP\000"
 2978      544F5000 
 2979              	.LASF58:
 2980 00dc 6D5F7175 		.ascii	"m_queue\000"
 2980      65756500 
 2981              	.LASF111:
 2982 00e4 73746174 		.ascii	"state\000"
 2982      6500
 2983              	.LASF12:
 2984 00ea 6C6F6E67 		.ascii	"long int\000"
 2984      20696E74 
 2984      00
 2985              	.LASF27:
 2986 00f3 74737461 		.ascii	"tstate_t\000"
 2986      74655F74 
 2986      00
 2987              	.LASF75:
 2988 00fc 715F6275 		.ascii	"q_buffer\000"
 2988      66666572 
 2988      00
 2989              	.LASF77:
 2990 0105 715F7772 		.ascii	"q_wrptr\000"
 2990      70747200 
 2991              	.LASF80:
 2992 010d 715F6C69 		.ascii	"q_link\000"
 2992      6E6B00
 2993              	.LASF38:
 2994 0114 705F6E65 		.ascii	"p_newer\000"
 2994      77657200 
 2995              	.LASF96:
 2996 011c 4F535045 		.ascii	"OSPEEDR\000"
 2996      45445200 
 2997              	.LASF13:
 2998 0124 5F5F7569 		.ascii	"__uint32_t\000"
 2998      6E743332 
 2998      5F7400
 2999              	.LASF53:
 3000 012f 72656761 		.ascii	"regarm_t\000"
 3000      726D5F74 
 3000      00
 3001              	.LASF7:
 3002 0138 5F5F696E 		.ascii	"__int16_t\000"
 3002      7431365F 
 3002      7400
 3003              	.LASF66:
 3004 0142 4576656E 		.ascii	"EventSource\000"
 3004      74536F75 
 3004      72636500 
 3005              	.LASF114:
 3006 014e 75736172 		.ascii	"usart\000"
 3006      7400
 3007              	.LASF0:
 3008 0154 756E7369 		.ascii	"unsigned int\000"
 3008      676E6564 
 3008      20696E74 
 3008      00
ARM GAS  /tmp/ccX5TMNs.s 			page 55


 3009              	.LASF128:
 3010 0161 74786275 		.ascii	"txbuf\000"
 3010      6600
 3011              	.LASF115:
 3012 0167 53657269 		.ascii	"SerialDriverVMT\000"
 3012      616C4472 
 3012      69766572 
 3012      564D5400 
 3013              	.LASF44:
 3014 0177 705F7469 		.ascii	"p_time\000"
 3014      6D6500
 3015              	.LASF129:
 3016 017e 6572726F 		.ascii	"errors\000"
 3016      727300
 3017              	.LASF112:
 3018 0185 69717565 		.ascii	"iqueue\000"
 3018      756500
 3019              	.LASF46:
 3020 018c 705F6D73 		.ascii	"p_msgqueue\000"
 3020      67717565 
 3020      756500
 3021              	.LASF102:
 3022 0197 4750494F 		.ascii	"GPIO_TypeDef\000"
 3022      5F547970 
 3022      65446566 
 3022      00
 3023              	.LASF136:
 3024 01a4 68616C49 		.ascii	"halInit\000"
 3024      6E697400 
 3025              	.LASF119:
 3026 01ac 67657474 		.ascii	"gett\000"
 3026      00
 3027              	.LASF110:
 3028 01b1 6576656E 		.ascii	"event\000"
 3028      7400
 3029              	.LASF10:
 3030 01b7 73686F72 		.ascii	"short unsigned int\000"
 3030      7420756E 
 3030      7369676E 
 3030      65642069 
 3030      6E7400
 3031              	.LASF29:
 3032 01ca 6D73675F 		.ascii	"msg_t\000"
 3032      7400
 3033              	.LASF113:
 3034 01d0 6F717565 		.ascii	"oqueue\000"
 3034      756500
 3035              	.LASF92:
 3036 01d7 55534152 		.ascii	"USART_TypeDef\000"
 3036      545F5479 
 3036      70654465 
 3036      6600
 3037              	.LASF120:
 3038 01e5 77726974 		.ascii	"writet\000"
 3038      657400
 3039              	.LASF26:
 3040 01ec 746D6F64 		.ascii	"tmode_t\000"
ARM GAS  /tmp/ccX5TMNs.s 			page 56


 3040      655F7400 
 3041              	.LASF21:
 3042 01f4 75696E74 		.ascii	"uint16_t\000"
 3042      31365F74 
 3042      00
 3043              	.LASF52:
 3044 01fd 54687265 		.ascii	"ThreadsList\000"
 3044      6164734C 
 3044      69737400 
 3045              	.LASF30:
 3046 0209 6576656E 		.ascii	"eventmask_t\000"
 3046      746D6173 
 3046      6B5F7400 
 3047              	.LASF82:
 3048 0215 496E7075 		.ascii	"InputQueue\000"
 3048      74517565 
 3048      756500
 3049              	.LASF81:
 3050 0220 716E6F74 		.ascii	"qnotify_t\000"
 3050      6966795F 
 3050      7400
 3051              	.LASF72:
 3052 022a 47656E65 		.ascii	"GenericQueue\000"
 3052      72696351 
 3052      75657565 
 3052      00
 3053              	.LASF54:
 3054 0237 73746B61 		.ascii	"stkalign_t\000"
 3054      6C69676E 
 3054      5F7400
 3055              	.LASF135:
 3056 0242 63684F51 		.ascii	"chOQWriteTimeout\000"
 3056      57726974 
 3056      6554696D 
 3056      656F7574 
 3056      00
 3057              	.LASF116:
 3058 0253 77726974 		.ascii	"write\000"
 3058      6500
 3059              	.LASF141:
 3060 0259 474E5520 		.ascii	"GNU C11 5.2.1 20151202 (release) [ARM/embedded-5-br"
 3060      43313120 
 3060      352E322E 
 3060      31203230 
 3060      31353132 
 3061 028c 616E6368 		.ascii	"anch revision 231848] -mcpu=cortex-m4 -mno-thumb-in"
 3061      20726576 
 3061      6973696F 
 3061      6E203233 
 3061      31383438 
 3062 02bf 74657277 		.ascii	"terwork -mthumb -ggdb -O2 -fomit-frame-pointer -fal"
 3062      6F726B20 
 3062      2D6D7468 
 3062      756D6220 
 3062      2D676764 
 3063 02f2 69676E2D 		.ascii	"ign-functions=16 -ffunction-sections -fdata-section"
 3063      66756E63 
ARM GAS  /tmp/ccX5TMNs.s 			page 57


 3063      74696F6E 
 3063      733D3136 
 3063      202D6666 
 3064 0325 73202D66 		.ascii	"s -fno-common\000"
 3064      6E6F2D63 
 3064      6F6D6D6F 
 3064      6E00
 3065              	.LASF118:
 3066 0333 70757474 		.ascii	"putt\000"
 3066      00
 3067              	.LASF17:
 3068 0338 73697A65 		.ascii	"sizetype\000"
 3068      74797065 
 3068      00
 3069              	.LASF93:
 3070 0341 636C6561 		.ascii	"clear\000"
 3070      7200
 3071              	.LASF2:
 3072 0347 6C6F6E67 		.ascii	"long double\000"
 3072      20646F75 
 3072      626C6500 
 3073              	.LASF57:
 3074 0353 4D757465 		.ascii	"Mutex\000"
 3074      7800
 3075              	.LASF124:
 3076 0359 776F7264 		.ascii	"word\000"
 3076      00
 3077              	.LASF64:
 3078 035e 656C5F6D 		.ascii	"el_mask\000"
 3078      61736B00 
 3079              	.LASF39:
 3080 0366 705F6F6C 		.ascii	"p_older\000"
 3080      64657200 
 3081              	.LASF144:
 3082 036e 636F6D70 		.ascii	"complement2signed\000"
 3082      6C656D65 
 3082      6E743273 
 3082      69676E65 
 3082      6400
 3083              	.LASF51:
 3084 0380 54687265 		.ascii	"ThreadsQueue\000"
 3084      61647351 
 3084      75657565 
 3084      00
 3085              	.LASF41:
 3086 038d 705F7374 		.ascii	"p_stklimit\000"
 3086      6B6C696D 
 3086      697400
 3087              	.LASF142:
 3088 0398 6D61696E 		.ascii	"main.c\000"
 3088      2E6300
 3089              	.LASF140:
 3090 039f 63685468 		.ascii	"chThdSleep\000"
 3090      64536C65 
 3090      657000
 3091              	.LASF15:
 3092 03aa 5F5F7569 		.ascii	"__uint64_t\000"
ARM GAS  /tmp/ccX5TMNs.s 			page 58


 3092      6E743634 
 3092      5F7400
 3093              	.LASF101:
 3094 03b5 41465248 		.ascii	"AFRH\000"
 3094      00
 3095              	.LASF100:
 3096 03ba 4146524C 		.ascii	"AFRL\000"
 3096      00
 3097              	.LASF84:
 3098 03bf 52455345 		.ascii	"RESERVED0\000"
 3098      52564544 
 3098      3000
 3099              	.LASF85:
 3100 03c9 52455345 		.ascii	"RESERVED1\000"
 3100      52564544 
 3100      3100
 3101              	.LASF86:
 3102 03d3 52455345 		.ascii	"RESERVED2\000"
 3102      52564544 
 3102      3200
 3103              	.LASF87:
 3104 03dd 52455345 		.ascii	"RESERVED3\000"
 3104      52564544 
 3104      3300
 3105              	.LASF88:
 3106 03e7 52455345 		.ascii	"RESERVED4\000"
 3106      52564544 
 3106      3400
 3107              	.LASF35:
 3108 03f1 705F7072 		.ascii	"p_prev\000"
 3108      657600
 3109              	.LASF91:
 3110 03f8 52455345 		.ascii	"RESERVED6\000"
 3110      52564544 
 3110      3600
 3111              	.LASF28:
 3112 0402 74707269 		.ascii	"tprio_t\000"
 3112      6F5F7400 
 3113              	.LASF78:
 3114 040a 715F7264 		.ascii	"q_rdptr\000"
 3114      70747200 
 3115              	.LASF104:
 3116 0412 69326366 		.ascii	"i2cflags_t\000"
 3116      6C616773 
 3116      5F7400
 3117              	.LASF25:
 3118 041d 5F426F6F 		.ascii	"_Bool\000"
 3118      6C00
 3119              	.LASF22:
 3120 0423 696E7433 		.ascii	"int32_t\000"
 3120      325F7400 
 3121              	.LASF6:
 3122 042b 756E7369 		.ascii	"unsigned char\000"
 3122      676E6564 
 3122      20636861 
 3122      7200
 3123              	.LASF133:
ARM GAS  /tmp/ccX5TMNs.s 			page 59


 3124 0439 49544D5F 		.ascii	"ITM_RxBuffer\000"
 3124      52784275 
 3124      66666572 
 3124      00
 3125              	.LASF65:
 3126 0446 656C5F66 		.ascii	"el_flags\000"
 3126      6C616773 
 3126      00
 3127              	.LASF49:
 3128 044f 705F6D74 		.ascii	"p_mtxlist\000"
 3128      786C6973 
 3128      7400
 3129              	.LASF8:
 3130 0459 73686F72 		.ascii	"short int\000"
 3130      7420696E 
 3130      7400
 3131              	.LASF42:
 3132 0463 705F7374 		.ascii	"p_state\000"
 3132      61746500 
 3133              	.LASF71:
 3134 046b 65776D61 		.ascii	"ewmask\000"
 3134      736B00
 3135              	.LASF34:
 3136 0472 705F6E65 		.ascii	"p_next\000"
 3136      787400
 3137              	.LASF43:
 3138 0479 705F666C 		.ascii	"p_flags\000"
 3138      61677300 
 3139              	.LASF62:
 3140 0481 656C5F6E 		.ascii	"el_next\000"
 3140      65787400 
 3141              	.LASF130:
 3142 0489 61636365 		.ascii	"acceleration_x\000"
 3142      6C657261 
 3142      74696F6E 
 3142      5F7800
 3143              	.LASF125:
 3144 0498 7072696E 		.ascii	"println\000"
 3144      746C6E00 
 3145              	.LASF33:
 3146 04a0 54687265 		.ascii	"Thread\000"
 3146      616400
 3147              	.LASF99:
 3148 04a7 4C434B52 		.ascii	"LCKR\000"
 3148      00
 3149              	.LASF31:
 3150 04ac 666C6167 		.ascii	"flagsmask_t\000"
 3150      736D6173 
 3150      6B5F7400 
 3151              	.LASF48:
 3152 04b8 705F6570 		.ascii	"p_epending\000"
 3152      656E6469 
 3152      6E6700
 3153              	.LASF105:
 3154 04c3 53445F55 		.ascii	"SD_UNINIT\000"
 3154      4E494E49 
 3154      5400
ARM GAS  /tmp/ccX5TMNs.s 			page 60


 3155              	.LASF89:
 3156 04cd 52455345 		.ascii	"RESERVED5\000"
 3156      52564544 
 3156      3500
 3157              	.LASF74:
 3158 04d7 715F636F 		.ascii	"q_counter\000"
 3158      756E7465 
 3158      7200
 3159              	.LASF108:
 3160 04e1 73647374 		.ascii	"sdstate_t\000"
 3160      6174655F 
 3160      7400
 3161              	.LASF109:
 3162 04eb 53657269 		.ascii	"SerialDriver\000"
 3162      616C4472 
 3162      69766572 
 3162      00
 3163              	.LASF14:
 3164 04f8 6C6F6E67 		.ascii	"long unsigned int\000"
 3164      20756E73 
 3164      69676E65 
 3164      6420696E 
 3164      7400
 3165              	.LASF117:
 3166 050a 72656164 		.ascii	"read\000"
 3166      00
 3167              	.LASF18:
 3168 050f 63686172 		.ascii	"char\000"
 3168      00
 3169              	.LASF138:
 3170 0514 73645374 		.ascii	"sdStart\000"
 3170      61727400 
 3171              	.LASF9:
 3172 051c 5F5F7569 		.ascii	"__uint16_t\000"
 3172      6E743136 
 3172      5F7400
 3173              	.LASF143:
 3174 0527 2F686F6D 		.ascii	"/home/z80/projects/stm32f238.git/firmware/testhal/S"
 3174      652F7A38 
 3174      302F7072 
 3174      6F6A6563 
 3174      74732F73 
 3175 055a 544D3332 		.ascii	"TM32F4xx/_serial\000"
 3175      46347878 
 3175      2F5F7365 
 3175      7269616C 
 3175      00
 3176              	.LASF60:
 3177 056b 6D5F6E65 		.ascii	"m_next\000"
 3177      787400
 3178              	.LASF32:
 3179 0572 73797374 		.ascii	"systime_t\000"
 3179      696D655F 
 3179      7400
 3180              	.LASF50:
 3181 057c 705F7265 		.ascii	"p_realprio\000"
 3181      616C7072 
ARM GAS  /tmp/ccX5TMNs.s 			page 61


 3181      696F00
 3182              	.LASF11:
 3183 0587 5F5F696E 		.ascii	"__int32_t\000"
 3183      7433325F 
 3183      7400
 3184              	.LASF56:
 3185 0591 636F6E74 		.ascii	"context\000"
 3185      65787400 
 3186              	.LASF139:
 3187 0599 5F70616C 		.ascii	"_pal_lld_setgroupmode\000"
 3187      5F6C6C64 
 3187      5F736574 
 3187      67726F75 
 3187      706D6F64 
 3188              	.LASF55:
 3189 05af 696E7463 		.ascii	"intctx\000"
 3189      747800
 3190              	.LASF107:
 3191 05b6 53445F52 		.ascii	"SD_READY\000"
 3191      45414459 
 3191      00
 3192              	.LASF23:
 3193 05bf 75696E74 		.ascii	"uint32_t\000"
 3193      33325F74 
 3193      00
 3194              	.LASF76:
 3195 05c8 715F746F 		.ascii	"q_top\000"
 3195      7000
 3196              	.LASF40:
 3197 05ce 705F6E61 		.ascii	"p_name\000"
 3197      6D6500
 3198              	.LASF67:
 3199 05d5 65735F6E 		.ascii	"es_next\000"
 3199      65787400 
 3200              	.LASF126:
 3201 05dd 73746174 		.ascii	"status\000"
 3201      757300
 3202              	.LASF79:
 3203 05e4 715F6E6F 		.ascii	"q_notify\000"
 3203      74696679 
 3203      00
 3204              	.LASF19:
 3205 05ed 75696E74 		.ascii	"uint8_t\000"
 3205      385F7400 
 3206              	.LASF61:
 3207 05f5 4576656E 		.ascii	"EventListener\000"
 3207      744C6973 
 3207      74656E65 
 3207      7200
 3208              	.LASF70:
 3209 0603 77746F62 		.ascii	"wtobjp\000"
 3209      6A7000
 3210              	.LASF63:
 3211 060a 656C5F6C 		.ascii	"el_listener\000"
 3211      69737465 
 3211      6E657200 
 3212              	.LASF47:
ARM GAS  /tmp/ccX5TMNs.s 			page 62


 3213 0616 705F6D73 		.ascii	"p_msg\000"
 3213      6700
 3214              	.LASF145:
 3215 061c 6D61696E 		.ascii	"main\000"
 3215      00
 3216              	.LASF20:
 3217 0621 696E7431 		.ascii	"int16_t\000"
 3217      365F7400 
 3218              	.LASF59:
 3219 0629 6D5F6F77 		.ascii	"m_owner\000"
 3219      6E657200 
 3220              	.LASF131:
 3221 0631 61636365 		.ascii	"acceleration_y\000"
 3221      6C657261 
 3221      74696F6E 
 3221      5F7900
 3222              	.LASF132:
 3223 0640 61636365 		.ascii	"acceleration_z\000"
 3223      6C657261 
 3223      74696F6E 
 3223      5F7A00
 3224              	.LASF37:
 3225 064f 705F6374 		.ascii	"p_ctx\000"
 3225      7800
 3226              	.LASF45:
 3227 0655 705F7761 		.ascii	"p_waiting\000"
 3227      6974696E 
 3227      6700
 3228              		.ident	"GCC: (GNU Tools for ARM Embedded Processors) 5.2.1 20151202 (release) [ARM/embedded-5-bran
ARM GAS  /tmp/ccX5TMNs.s 			page 63


DEFINED SYMBOLS
                            *ABS*:00000000 main.c
     /tmp/ccX5TMNs.s:20     .text.printn:00000000 $t
     /tmp/ccX5TMNs.s:25     .text.printn:00000000 printn
     /tmp/ccX5TMNs.s:147    .text.printn:0000007c $d
     /tmp/ccX5TMNs.s:155    .text.complement2signed:00000000 $t
     /tmp/ccX5TMNs.s:161    .text.complement2signed:00000000 complement2signed
     /tmp/ccX5TMNs.s:178    .text.startup.main:00000000 $t
     /tmp/ccX5TMNs.s:184    .text.startup.main:00000000 main
     /tmp/ccX5TMNs.s:340    .text.startup.main:000000d0 $d
     /tmp/ccX5TMNs.s:357    .rodata.str1.4:00000000 $d
     /tmp/ccX5TMNs.s:369    .bss.acceleration_x:00000000 $d
     /tmp/ccX5TMNs.s:373    .bss.acceleration_x:00000000 acceleration_x
     /tmp/ccX5TMNs.s:376    .bss.acceleration_y:00000000 $d
     /tmp/ccX5TMNs.s:380    .bss.acceleration_y:00000000 acceleration_y
     /tmp/ccX5TMNs.s:383    .bss.acceleration_z:00000000 $d
     /tmp/ccX5TMNs.s:387    .bss.acceleration_z:00000000 acceleration_z
                     .debug_frame:00000010 $d

UNDEFINED SYMBOLS
chOQPutTimeout
SD1
halInit
chSysInit
sdStart
_pal_lld_setgroupmode
chThdSleep
chOQWriteTimeout
