ARM GAS  /tmp/ccX5TMNs.s 			page 1


   1              		.syntax unified
   2              		.cpu cortex-m4
   3              		.fpu softvfp
   4              		.eabi_attribute 20, 1
   5              		.eabi_attribute 21, 1
   6              		.eabi_attribute 23, 3
   7              		.eabi_attribute 24, 1
   8              		.eabi_attribute 25, 1
   9              		.eabi_attribute 26, 1
  10              		.eabi_attribute 30, 2
  11              		.eabi_attribute 34, 1
  12              		.eabi_attribute 18, 4
  13              		.thumb
  14              		.syntax unified
  15              		.file	"main.c"
  16              		.text
  17              	.Ltext0:
  18              		.cfi_sections	.debug_frame
  19              		.section	.text.printn,"ax",%progbits
  20              		.align	2
  21              		.p2align 4,,15
  22              		.thumb
  23              		.thumb_func
  24              		.type	printn, %function
  25              	printn:
  26              	.LFB113:
  27              		.file 1 "main.c"
  28              		.loc 1 68 0
  29              		.cfi_startproc
  30              		@ args = 0, pretend = 0, frame = 16
  31              		@ frame_needed = 0, uses_anonymous_args = 0
  32              	.LVL0:
  33 0000 70B5     		push	{r4, r5, r6, lr}
  34              		.cfi_def_cfa_offset 16
  35              		.cfi_offset 4, -16
  36              		.cfi_offset 5, -12
  37              		.cfi_offset 6, -8
  38              		.cfi_offset 14, -4
  39              		.loc 1 71 0
  40 0002 041E     		subs	r4, r0, #0
  41              		.loc 1 68 0
  42 0004 84B0     		sub	sp, sp, #16
  43              		.cfi_def_cfa_offset 32
  44              		.loc 1 72 0
  45 0006 4FF0FF32 		mov	r2, #-1
  46              		.loc 1 71 0
  47 000a 25DD     		ble	.L2
  48              		.loc 1 72 0
  49 000c 2B21     		movs	r1, #43
  50 000e 1B48     		ldr	r0, .L13
  51              	.LVL1:
  52 0010 FFF7FEFF 		bl	chOQPutTimeout
  53              	.LVL2:
  54              	.L3:
  55              		.loc 1 83 0
  56 0014 1A48     		ldr	r0, .L13+4
  57              		.loc 1 68 0
ARM GAS  /tmp/ccX5TMNs.s 			page 2


  58 0016 6E46     		mov	r6, sp
  59 0018 6D46     		mov	r5, sp
  60              	.LVL3:
  61              	.L5:
  62              		.loc 1 83 0
  63 001a 80FB0432 		smull	r3, r2, r0, r4
  64 001e E317     		asrs	r3, r4, #31
  65 0020 C3EBA203 		rsb	r3, r3, r2, asr #2
  66 0024 03EB8301 		add	r1, r3, r3, lsl #2
  67 0028 A4EB4101 		sub	r1, r4, r1, lsl #1
  68 002c 3031     		adds	r1, r1, #48
  69 002e C9B2     		uxtb	r1, r1
  70 0030 1CB2     		sxth	r4, r3
  71 0032 05F8011B 		strb	r1, [r5], #1
  72              	.LVL4:
  73              		.loc 1 82 0
  74 0036 002C     		cmp	r4, #0
  75 0038 EFD1     		bne	.L5
  76              		.loc 1 84 0
  77 003a B542     		cmp	r5, r6
  78 003c 0AD9     		bls	.L1
  79 003e 013D     		subs	r5, r5, #1
  80              	.LVL5:
  81 0040 01E0     		b	.L7
  82              	.LVL6:
  83              	.L12:
  84 0042 15F8011D 		ldrb	r1, [r5, #-1]!	@ zero_extendqisi2
  85              	.LVL7:
  86              	.L7:
  87              		.loc 1 85 0
  88 0046 0D48     		ldr	r0, .L13
  89 0048 4FF0FF32 		mov	r2, #-1
  90 004c FFF7FEFF 		bl	chOQPutTimeout
  91              	.LVL8:
  92              		.loc 1 84 0
  93 0050 AE42     		cmp	r6, r5
  94 0052 F6D1     		bne	.L12
  95              	.LVL9:
  96              	.L1:
  97              		.loc 1 87 0
  98 0054 04B0     		add	sp, sp, #16
  99              		.cfi_remember_state
 100              		.cfi_def_cfa_offset 16
 101              		@ sp needed
 102 0056 70BD     		pop	{r4, r5, r6, pc}
 103              	.LVL10:
 104              	.L2:
 105              		.cfi_restore_state
 106              		.loc 1 75 0
 107 0058 6442     		negs	r4, r4
 108              		.loc 1 74 0
 109 005a 2D21     		movs	r1, #45
 110 005c 0748     		ldr	r0, .L13
 111              	.LVL11:
 112              		.loc 1 75 0
 113 005e 24B2     		sxth	r4, r4
 114              		.loc 1 74 0
ARM GAS  /tmp/ccX5TMNs.s 			page 3


 115 0060 FFF7FEFF 		bl	chOQPutTimeout
 116              	.LVL12:
 117              		.loc 1 78 0
 118 0064 002C     		cmp	r4, #0
 119 0066 D5D1     		bne	.L3
 120              	.LVL13:
 121              	.LBB16:
 122              	.LBB17:
 123              		.loc 1 79 0
 124 0068 0448     		ldr	r0, .L13
 125 006a 4FF0FF32 		mov	r2, #-1
 126 006e 3021     		movs	r1, #48
 127              	.LBE17:
 128              	.LBE16:
 129              		.loc 1 87 0
 130 0070 04B0     		add	sp, sp, #16
 131              		.cfi_def_cfa_offset 16
 132              		@ sp needed
 133 0072 BDE87040 		pop	{r4, r5, r6, lr}
 134              		.cfi_restore 14
 135              		.cfi_restore 6
 136              		.cfi_restore 5
 137              		.cfi_restore 4
 138              		.cfi_def_cfa_offset 0
 139              	.LBB19:
 140              	.LBB18:
 141              		.loc 1 79 0
 142 0076 FFF7FEBF 		b	chOQPutTimeout
 143              	.LVL14:
 144              	.L14:
 145 007a 00BF     		.align	2
 146              	.L13:
 147 007c 30000000 		.word	SD1+48
 148 0080 67666666 		.word	1717986919
 149              	.LBE18:
 150              	.LBE19:
 151              		.cfi_endproc
 152              	.LFE113:
 153              		.size	printn, .-printn
 154              		.section	.text.complement2signed,"ax",%progbits
 155              		.align	2
 156              		.p2align 4,,15
 157              		.global	complement2signed
 158              		.thumb
 159              		.thumb_func
 160              		.type	complement2signed, %function
 161              	complement2signed:
 162              	.LFB114:
 163              		.loc 1 92 0
 164              		.cfi_startproc
 165              		@ args = 0, pretend = 0, frame = 0
 166              		@ frame_needed = 0, uses_anonymous_args = 0
 167              		@ link register save eliminated.
 168              	.LVL15:
 169 0000 01EB0020 		add	r0, r1, r0, lsl #8
 170              	.LVL16:
 171              		.loc 1 99 0
ARM GAS  /tmp/ccX5TMNs.s 			page 4


 172 0004 00B2     		sxth	r0, r0
 173 0006 7047     		bx	lr
 174              		.cfi_endproc
 175              	.LFE114:
 176              		.size	complement2signed, .-complement2signed
 177              		.section	.text.startup.main,"ax",%progbits
 178              		.align	2
 179              		.p2align 4,,15
 180              		.global	main
 181              		.thumb
 182              		.thumb_func
 183              		.type	main, %function
 184              	main:
 185              	.LFB115:
 186              		.loc 1 104 0
 187              		.cfi_startproc
 188              		@ args = 0, pretend = 0, frame = 0
 189              		@ frame_needed = 0, uses_anonymous_args = 0
 190              	.LVL17:
 191 0000 2DE9F041 		push	{r4, r5, r6, r7, r8, lr}
 192              		.cfi_def_cfa_offset 24
 193              		.cfi_offset 4, -24
 194              		.cfi_offset 5, -20
 195              		.cfi_offset 6, -16
 196              		.cfi_offset 7, -12
 197              		.cfi_offset 8, -8
 198              		.cfi_offset 14, -4
 199              		.loc 1 115 0
 200 0004 FFF7FEFF 		bl	halInit
 201              	.LVL18:
 202              		.loc 1 116 0
 203 0008 FFF7FEFF 		bl	chSysInit
 204              	.LVL19:
 205              		.loc 1 126 0
 206 000c 0021     		movs	r1, #0
 207 000e 3048     		ldr	r0, .L31
 208              		.loc 1 148 0
 209 0010 304E     		ldr	r6, .L31+4
 210 0012 314F     		ldr	r7, .L31+8
 211 0014 DFF8E080 		ldr	r8, .L31+40
 212 0018 304D     		ldr	r5, .L31+12
 213              		.loc 1 126 0
 214 001a FFF7FEFF 		bl	sdStart
 215              	.LVL20:
 216              		.loc 1 127 0
 217 001e 40F28232 		movw	r2, #898
 218 0022 4FF40071 		mov	r1, #512
 219 0026 2E48     		ldr	r0, .L31+16
 220 0028 FFF7FEFF 		bl	_pal_lld_setgroupmode
 221              	.LVL21:
 222              		.loc 1 128 0
 223 002c 40F28232 		movw	r2, #898
 224 0030 4FF48061 		mov	r1, #1024
 225 0034 2A48     		ldr	r0, .L31+16
 226 0036 FFF7FEFF 		bl	_pal_lld_setgroupmode
 227              	.LVL22:
 228              		.loc 1 146 0
ARM GAS  /tmp/ccX5TMNs.s 			page 5


 229 003a 0122     		movs	r2, #1
 230 003c 4FF40051 		mov	r1, #8192
 231 0040 3046     		mov	r0, r6
 232 0042 FFF7FEFF 		bl	_pal_lld_setgroupmode
 233              	.LVL23:
 234              	.L22:
 235              		.loc 1 148 0 discriminator 1
 236 0046 7369     		ldr	r3, [r6, #20]
 237              		.loc 1 162 0 discriminator 1
 238 0048 264C     		ldr	r4, .L31+20
 239              		.loc 1 148 0 discriminator 1
 240 004a 83F40053 		eor	r3, r3, #8192
 241 004e 7361     		str	r3, [r6, #20]
 242              		.loc 1 149 0 discriminator 1
 243 0050 6420     		movs	r0, #100
 244 0052 FFF7FEFF 		bl	chThdSleep
 245              	.LVL24:
 246              		.loc 1 160 0 discriminator 1
 247 0056 0121     		movs	r1, #1
 248              		.loc 1 161 0 discriminator 1
 249 0058 40F20322 		movw	r2, #515
 250              		.loc 1 162 0 discriminator 1
 251 005c 40F20543 		movw	r3, #1029
 252              		.loc 1 160 0 discriminator 1
 253 0060 3980     		strh	r1, [r7]	@ movhi
 254              		.loc 1 161 0 discriminator 1
 255 0062 A8F80020 		strh	r2, [r8]	@ movhi
 256              		.loc 1 162 0 discriminator 1
 257 0066 2B80     		strh	r3, [r5]	@ movhi
 258              	.LVL25:
 259 0068 7821     		movs	r1, #120
 260              	.LVL26:
 261              	.L17:
 262              	.LBB28:
 263              	.LBB29:
 264              		.loc 1 50 0
 265 006a 4FF0FF32 		mov	r2, #-1
 266 006e 1E48     		ldr	r0, .L31+24
 267 0070 FFF7FEFF 		bl	chOQPutTimeout
 268              	.LVL27:
 269              		.loc 1 49 0
 270 0074 14F8011F 		ldrb	r1, [r4, #1]!	@ zero_extendqisi2
 271              	.LVL28:
 272 0078 0029     		cmp	r1, #0
 273 007a F6D1     		bne	.L17
 274              	.LVL29:
 275              	.LBE29:
 276              	.LBE28:
 277              		.loc 1 165 0
 278 007c B7F90000 		ldrsh	r0, [r7]
 279 0080 1A4C     		ldr	r4, .L31+28
 280 0082 FFF7FEFF 		bl	printn
 281              	.LVL30:
 282 0086 2021     		movs	r1, #32
 283              	.LVL31:
 284              	.L19:
 285              	.LBB30:
ARM GAS  /tmp/ccX5TMNs.s 			page 6


 286              	.LBB31:
 287              		.loc 1 50 0
 288 0088 4FF0FF32 		mov	r2, #-1
 289 008c 1648     		ldr	r0, .L31+24
 290 008e FFF7FEFF 		bl	chOQPutTimeout
 291              	.LVL32:
 292              		.loc 1 49 0
 293 0092 14F8011F 		ldrb	r1, [r4, #1]!	@ zero_extendqisi2
 294              	.LVL33:
 295 0096 0029     		cmp	r1, #0
 296 0098 F6D1     		bne	.L19
 297              	.LVL34:
 298              	.LBE31:
 299              	.LBE30:
 300              		.loc 1 167 0
 301 009a B8F90000 		ldrsh	r0, [r8]
 302 009e 144C     		ldr	r4, .L31+32
 303 00a0 FFF7FEFF 		bl	printn
 304              	.LVL35:
 305 00a4 2021     		movs	r1, #32
 306              	.LVL36:
 307              	.L21:
 308              	.LBB32:
 309              	.LBB33:
 310              		.loc 1 50 0
 311 00a6 4FF0FF32 		mov	r2, #-1
 312 00aa 0F48     		ldr	r0, .L31+24
 313 00ac FFF7FEFF 		bl	chOQPutTimeout
 314              	.LVL37:
 315              		.loc 1 49 0
 316 00b0 14F8011F 		ldrb	r1, [r4, #1]!	@ zero_extendqisi2
 317              	.LVL38:
 318 00b4 0029     		cmp	r1, #0
 319 00b6 F6D1     		bne	.L21
 320              	.LVL39:
 321              	.LBE33:
 322              	.LBE32:
 323              		.loc 1 169 0 discriminator 1
 324 00b8 B5F90000 		ldrsh	r0, [r5]
 325 00bc FFF7FEFF 		bl	printn
 326              	.LVL40:
 327              	.LBB34:
 328              	.LBB35:
 329              		.loc 1 62 0 discriminator 1
 330 00c0 4FF0FF33 		mov	r3, #-1
 331 00c4 0222     		movs	r2, #2
 332 00c6 0B49     		ldr	r1, .L31+36
 333 00c8 0748     		ldr	r0, .L31+24
 334 00ca FFF7FEFF 		bl	chOQWriteTimeout
 335              	.LVL41:
 336 00ce BAE7     		b	.L22
 337              	.L32:
 338              		.align	2
 339              	.L31:
 340 00d0 00000000 		.word	SD1
 341 00d4 00180240 		.word	1073879040
 342 00d8 00000000 		.word	.LANCHOR0
ARM GAS  /tmp/ccX5TMNs.s 			page 7


 343 00dc 00000000 		.word	.LANCHOR2
 344 00e0 00000240 		.word	1073872896
 345 00e4 00000000 		.word	.LC0
 346 00e8 30000000 		.word	SD1+48
 347 00ec 04000000 		.word	.LC1
 348 00f0 0C000000 		.word	.LC2
 349 00f4 14000000 		.word	.LC3
 350 00f8 00000000 		.word	.LANCHOR1
 351              	.LBE35:
 352              	.LBE34:
 353              		.cfi_endproc
 354              	.LFE115:
 355              		.size	main, .-main
 356              		.section	.rodata.str1.4,"aMS",%progbits,1
 357              		.align	2
 358              	.LC0:
 359 0000 783A2000 		.ascii	"x: \000"
 360              	.LC1:
 361 0004 20793A20 		.ascii	" y: \000"
 361      00
 362 0009 000000   		.space	3
 363              	.LC2:
 364 000c 207A3A20 		.ascii	" z: \000"
 364      00
 365 0011 000000   		.space	3
 366              	.LC3:
 367 0014 0D0A00   		.ascii	"\015\012\000"
 368              		.section	.bss.acceleration_x,"aw",%nobits
 369              		.align	1
 370              		.set	.LANCHOR0,. + 0
 371              		.type	acceleration_x, %object
 372              		.size	acceleration_x, 2
 373              	acceleration_x:
 374 0000 0000     		.space	2
 375              		.section	.bss.acceleration_y,"aw",%nobits
 376              		.align	1
 377              		.set	.LANCHOR1,. + 0
 378              		.type	acceleration_y, %object
 379              		.size	acceleration_y, 2
 380              	acceleration_y:
 381 0000 0000     		.space	2
 382              		.section	.bss.acceleration_z,"aw",%nobits
 383              		.align	1
 384              		.set	.LANCHOR2,. + 0
 385              		.type	acceleration_z, %object
 386              		.size	acceleration_z, 2
 387              	acceleration_z:
 388 0000 0000     		.space	2
 389              		.text
 390              	.Letext0:
 391              		.file 2 "/home/z80/programs/sw4stm32/plugins/fr.ac6.mcu.externaltools.arm-none.linux32_1.7.0.20160
 392              		.file 3 "/home/z80/programs/sw4stm32/plugins/fr.ac6.mcu.externaltools.arm-none.linux32_1.7.0.20160
 393              		.file 4 "/home/z80/programs/sw4stm32/plugins/fr.ac6.mcu.externaltools.arm-none.linux32_1.7.0.20160
 394              		.file 5 "../../../os/ports/GCC/ARMCMx/chtypes.h"
 395              		.file 6 "../../../os/kernel/include/chlists.h"
 396              		.file 7 "../../../os/kernel/include/chthreads.h"
 397              		.file 8 "../../../os/ports/GCC/ARMCMx/chcore_v7m.h"
ARM GAS  /tmp/ccX5TMNs.s 			page 8


 398              		.file 9 "../../../os/kernel/include/chmtx.h"
 399              		.file 10 "../../../os/kernel/include/chevents.h"
 400              		.file 11 "../../../os/kernel/include/chqueues.h"
 401              		.file 12 "../../../os/hal/platforms/STM32F4xx/stm32f4xx.h"
 402              		.file 13 "../../../os/hal/platforms/STM32/GPIOv2/pal_lld.h"
 403              		.file 14 "../../../os/hal/platforms/STM32/I2Cv1/i2c_lld.h"
 404              		.file 15 "../../../os/hal/include/serial.h"
 405              		.file 16 "../../../os/hal/include/hal.h"
 406              		.file 17 "../../../os/kernel/include/chsys.h"
 407              		.file 18 "../../../os/ports/common/ARMCMx/CMSIS/include/core_cm4.h"
 408              		.file 19 "../../../os/hal/platforms/STM32/USARTv1/serial_lld.h"