ARM GAS  /tmp/ccN9O0aW.s 			page 1


   1              		.syntax unified
   2              		.cpu cortex-m4
   3              		.fpu softvfp
   4              		.eabi_attribute 20, 1
   5              		.eabi_attribute 21, 1
   6              		.eabi_attribute 23, 3
   7              		.eabi_attribute 24, 1
   8              		.eabi_attribute 25, 1
   9              		.eabi_attribute 26, 1
  10              		.eabi_attribute 30, 2
  11              		.eabi_attribute 34, 1
  12              		.eabi_attribute 18, 4
  13              		.thumb
  14              		.syntax unified
  15              		.file	"nvic.c"
  16              		.text
  17              	.Ltext0:
  18              		.cfi_sections	.debug_frame
  19              		.section	.text.nvicEnableVector,"ax",%progbits
  20              		.align	2
  21              		.p2align 4,,15
  22              		.global	nvicEnableVector
  23              		.thumb
  24              		.thumb_func
  25              		.type	nvicEnableVector, %function
  26              	nvicEnableVector:
  27              	.LFB0:
  28              		.file 1 "../../../os/ports/common/ARMCMx/nvic.c"
  29              		.loc 1 46 0
  30              		.cfi_startproc
  31              		@ args = 0, pretend = 0, frame = 0
  32              		@ frame_needed = 0, uses_anonymous_args = 0
  33              		@ link register save eliminated.
  34              	.LVL0:
  35 0000 70B4     		push	{r4, r5, r6}
  36              		.cfi_def_cfa_offset 12
  37              		.cfi_offset 4, -12
  38              		.cfi_offset 5, -8
  39              		.cfi_offset 6, -4
  40 0002 20F00304 		bic	r4, r0, #3
  41 0006 04F16044 		add	r4, r4, #-536870912
  42 000a 04F56144 		add	r4, r4, #57600
  43              		.loc 1 47 0
  44 000e C200     		lsls	r2, r0, #3
  45 0010 4309     		lsrs	r3, r0, #5
  46              		.loc 1 49 0
  47 0012 D4F80053 		ldr	r5, [r4, #768]
  48              		.loc 1 47 0
  49 0016 02F01802 		and	r2, r2, #24
  50              	.LVL1:
  51              		.loc 1 49 0
  52 001a FF26     		movs	r6, #255
  53 001c 9B00     		lsls	r3, r3, #2
  54 001e 9640     		lsls	r6, r6, r2
  55 0020 03F16043 		add	r3, r3, #-536870912
  56 0024 9140     		lsls	r1, r1, r2
  57              	.LVL2:
ARM GAS  /tmp/ccN9O0aW.s 			page 2


  58 0026 03F56143 		add	r3, r3, #57600
  59 002a 25EA0602 		bic	r2, r5, r6
  60              	.LVL3:
  61              		.loc 1 50 0
  62 002e 00F01F00 		and	r0, r0, #31
  63              	.LVL4:
  64 0032 0125     		movs	r5, #1
  65 0034 05FA00F0 		lsl	r0, r5, r0
  66              		.loc 1 49 0
  67 0038 1143     		orrs	r1, r1, r2
  68 003a C4F80013 		str	r1, [r4, #768]
  69              		.loc 1 50 0
  70 003e C3F88001 		str	r0, [r3, #384]
  71              		.loc 1 52 0
  72 0042 70BC     		pop	{r4, r5, r6}
  73              		.cfi_restore 6
  74              		.cfi_restore 5
  75              		.cfi_restore 4
  76              		.cfi_def_cfa_offset 0
  77              		.loc 1 51 0
  78 0044 1860     		str	r0, [r3]
  79              		.loc 1 52 0
  80 0046 7047     		bx	lr
  81              		.cfi_endproc
  82              	.LFE0:
  83              		.size	nvicEnableVector, .-nvicEnableVector
  84              		.section	.text.nvicDisableVector,"ax",%progbits
  85              		.align	2
  86              		.p2align 4,,15
  87              		.global	nvicDisableVector
  88              		.thumb
  89              		.thumb_func
  90              		.type	nvicDisableVector, %function
  91              	nvicDisableVector:
  92              	.LFB1:
  93              		.loc 1 60 0
  94              		.cfi_startproc
  95              		@ args = 0, pretend = 0, frame = 0
  96              		@ frame_needed = 0, uses_anonymous_args = 0
  97              		@ link register save eliminated.
  98              	.LVL5:
  99              		.loc 1 63 0
 100 0000 4209     		lsrs	r2, r0, #5
 101              		.loc 1 60 0
 102 0002 30B4     		push	{r4, r5}
 103              		.cfi_def_cfa_offset 8
 104              		.cfi_offset 4, -8
 105              		.cfi_offset 5, -4
 106              		.loc 1 63 0
 107 0004 2032     		adds	r2, r2, #32
 108 0006 00F01F05 		and	r5, r0, #31
 109 000a 0C4C     		ldr	r4, .L5
 110 000c 20F00303 		bic	r3, r0, #3
 111 0010 0121     		movs	r1, #1
 112 0012 A940     		lsls	r1, r1, r5
 113 0014 03F16043 		add	r3, r3, #-536870912
 114 0018 44F82210 		str	r1, [r4, r2, lsl #2]
ARM GAS  /tmp/ccN9O0aW.s 			page 3


 115 001c 03F56143 		add	r3, r3, #57600
 116              		.loc 1 64 0
 117 0020 C000     		lsls	r0, r0, #3
 118              	.LVL6:
 119 0022 D3F80023 		ldr	r2, [r3, #768]
 120 0026 00F01800 		and	r0, r0, #24
 121              	.LVL7:
 122 002a FF21     		movs	r1, #255
 123 002c 01FA00F0 		lsl	r0, r1, r0
 124              	.LVL8:
 125 0030 22EA0000 		bic	r0, r2, r0
 126 0034 C3F80003 		str	r0, [r3, #768]
 127              		.loc 1 65 0
 128 0038 30BC     		pop	{r4, r5}
 129              		.cfi_restore 5
 130              		.cfi_restore 4
 131              		.cfi_def_cfa_offset 0
 132 003a 7047     		bx	lr
 133              	.L6:
 134              		.align	2
 135              	.L5:
 136 003c 00E100E0 		.word	-536813312
 137              		.cfi_endproc
 138              	.LFE1:
 139              		.size	nvicDisableVector, .-nvicDisableVector
 140              		.section	.text.nvicSetSystemHandlerPriority,"ax",%progbits
 141              		.align	2
 142              		.p2align 4,,15
 143              		.global	nvicSetSystemHandlerPriority
 144              		.thumb
 145              		.thumb_func
 146              		.type	nvicSetSystemHandlerPriority, %function
 147              	nvicSetSystemHandlerPriority:
 148              	.LFB2:
 149              		.loc 1 74 0
 150              		.cfi_startproc
 151              		@ args = 0, pretend = 0, frame = 0
 152              		@ frame_needed = 0, uses_anonymous_args = 0
 153              		@ link register save eliminated.
 154              	.LVL9:
 155 0000 20F00303 		bic	r3, r0, #3
 156 0004 03F16043 		add	r3, r3, #-536870912
 157 0008 03F56D43 		add	r3, r3, #60672
 158              		.loc 1 75 0
 159 000c 00F00300 		and	r0, r0, #3
 160              	.LVL10:
 161              		.loc 1 74 0
 162 0010 10B4     		push	{r4}
 163              		.cfi_def_cfa_offset 4
 164              		.cfi_offset 4, -4
 165              		.loc 1 75 0
 166 0012 C000     		lsls	r0, r0, #3
 167              	.LVL11:
 168              		.loc 1 77 0
 169 0014 9A69     		ldr	r2, [r3, #24]
 170              		.loc 1 78 0
 171 0016 FF24     		movs	r4, #255
ARM GAS  /tmp/ccN9O0aW.s 			page 4


 172 0018 8440     		lsls	r4, r4, r0
 173 001a 8140     		lsls	r1, r1, r0
 174              	.LVL12:
 175 001c 22EA0400 		bic	r0, r2, r4
 176              	.LVL13:
 177 0020 0843     		orrs	r0, r0, r1
 178              		.loc 1 77 0
 179 0022 9861     		str	r0, [r3, #24]
 180              		.loc 1 79 0
 181 0024 10BC     		pop	{r4}
 182              		.cfi_restore 4
 183              		.cfi_def_cfa_offset 0
 184 0026 7047     		bx	lr
 185              		.cfi_endproc
 186              	.LFE2:
 187              		.size	nvicSetSystemHandlerPriority, .-nvicSetSystemHandlerPriority
 188              		.text
 189              	.Letext0:
 190              		.file 2 "/home/z80/programs/sw4stm32/plugins/fr.ac6.mcu.externaltools.arm-none.linux32_1.7.0.20160
 191              		.file 3 "/home/z80/programs/sw4stm32/plugins/fr.ac6.mcu.externaltools.arm-none.linux32_1.7.0.20160
 192              		.file 4 "../../../os/ports/common/ARMCMx/nvic.h"
 193              		.section	.debug_info,"",%progbits
 194              	.Ldebug_info0:
 195 0000 09040000 		.4byte	0x409
 196 0004 0400     		.2byte	0x4
 197 0006 00000000 		.4byte	.Ldebug_abbrev0
 198 000a 04       		.byte	0x4
 199 000b 01       		.uleb128 0x1
 200 000c 4E000000 		.4byte	.LASF48
 201 0010 0C       		.byte	0xc
 202 0011 27000000 		.4byte	.LASF49
 203 0015 50020000 		.4byte	.LASF50
 204 0019 00000000 		.4byte	.Ldebug_ranges0+0
 205 001d 00000000 		.4byte	0
 206 0021 00000000 		.4byte	.Ldebug_line0
 207 0025 02       		.uleb128 0x2
 208 0026 04       		.byte	0x4
 209 0027 05       		.byte	0x5
 210 0028 696E7400 		.ascii	"int\000"
 211 002c 03       		.uleb128 0x3
 212 002d 04       		.byte	0x4
 213 002e 07       		.byte	0x7
 214 002f D0010000 		.4byte	.LASF0
 215 0033 03       		.uleb128 0x3
 216 0034 08       		.byte	0x8
 217 0035 05       		.byte	0x5
 218 0036 27020000 		.4byte	.LASF1
 219 003a 03       		.uleb128 0x3
 220 003b 08       		.byte	0x8
 221 003c 04       		.byte	0x4
 222 003d B1020000 		.4byte	.LASF2
 223 0041 03       		.uleb128 0x3
 224 0042 01       		.byte	0x1
 225 0043 06       		.byte	0x6
 226 0044 BD020000 		.4byte	.LASF3
 227 0048 03       		.uleb128 0x3
 228 0049 01       		.byte	0x1
ARM GAS  /tmp/ccN9O0aW.s 			page 5


 229 004a 08       		.byte	0x8
 230 004b 4D010000 		.4byte	.LASF4
 231 004f 03       		.uleb128 0x3
 232 0050 02       		.byte	0x2
 233 0051 05       		.byte	0x5
 234 0052 36010000 		.4byte	.LASF5
 235 0056 03       		.uleb128 0x3
 236 0057 02       		.byte	0x2
 237 0058 07       		.byte	0x7
 238 0059 8B010000 		.4byte	.LASF6
 239 005d 03       		.uleb128 0x3
 240 005e 04       		.byte	0x4
 241 005f 05       		.byte	0x5
 242 0060 A3020000 		.4byte	.LASF7
 243 0064 04       		.uleb128 0x4
 244 0065 C5010000 		.4byte	.LASF10
 245 0069 02       		.byte	0x2
 246 006a 41       		.byte	0x41
 247 006b 6F000000 		.4byte	0x6f
 248 006f 03       		.uleb128 0x3
 249 0070 04       		.byte	0x4
 250 0071 07       		.byte	0x7
 251 0072 A8010000 		.4byte	.LASF8
 252 0076 03       		.uleb128 0x3
 253 0077 08       		.byte	0x8
 254 0078 07       		.byte	0x7
 255 0079 E7010000 		.4byte	.LASF9
 256 007d 04       		.uleb128 0x4
 257 007e 9A020000 		.4byte	.LASF11
 258 0082 03       		.byte	0x3
 259 0083 20       		.byte	0x20
 260 0084 64000000 		.4byte	0x64
 261 0088 03       		.uleb128 0x3
 262 0089 01       		.byte	0x1
 263 008a 02       		.byte	0x2
 264 008b 0F000000 		.4byte	.LASF12
 265 008f 04       		.uleb128 0x4
 266 0090 45010000 		.4byte	.LASF13
 267 0094 04       		.byte	0x4
 268 0095 3A       		.byte	0x3a
 269 0096 9A000000 		.4byte	0x9a
 270 009a 05       		.uleb128 0x5
 271 009b 7D000000 		.4byte	0x7d
 272 009f 06       		.uleb128 0x6
 273 00a0 040E     		.2byte	0xe04
 274 00a2 04       		.byte	0x4
 275 00a3 6A       		.byte	0x6a
 276 00a4 4E010000 		.4byte	0x14e
 277 00a8 07       		.uleb128 0x7
 278 00a9 40020000 		.4byte	.LASF14
 279 00ad 04       		.byte	0x4
 280 00ae 6B       		.byte	0x6b
 281 00af 65010000 		.4byte	0x165
 282 00b3 00       		.byte	0
 283 00b4 07       		.uleb128 0x7
 284 00b5 5B010000 		.4byte	.LASF15
 285 00b9 04       		.byte	0x4
ARM GAS  /tmp/ccN9O0aW.s 			page 6


 286 00ba 6C       		.byte	0x6c
 287 00bb 7A010000 		.4byte	0x17a
 288 00bf 20       		.byte	0x20
 289 00c0 07       		.uleb128 0x7
 290 00c1 40010000 		.4byte	.LASF16
 291 00c5 04       		.byte	0x4
 292 00c6 6D       		.byte	0x6d
 293 00c7 7F010000 		.4byte	0x17f
 294 00cb 80       		.byte	0x80
 295 00cc 07       		.uleb128 0x7
 296 00cd 63010000 		.4byte	.LASF17
 297 00d1 04       		.byte	0x4
 298 00d2 6E       		.byte	0x6e
 299 00d3 84010000 		.4byte	0x184
 300 00d7 A0       		.byte	0xa0
 301 00d8 08       		.uleb128 0x8
 302 00d9 DD010000 		.4byte	.LASF18
 303 00dd 04       		.byte	0x4
 304 00de 6F       		.byte	0x6f
 305 00df 89010000 		.4byte	0x189
 306 00e3 0001     		.2byte	0x100
 307 00e5 08       		.uleb128 0x8
 308 00e6 6B010000 		.4byte	.LASF19
 309 00ea 04       		.byte	0x4
 310 00eb 70       		.byte	0x70
 311 00ec 8E010000 		.4byte	0x18e
 312 00f0 2001     		.2byte	0x120
 313 00f2 08       		.uleb128 0x8
 314 00f3 05000000 		.4byte	.LASF20
 315 00f7 04       		.byte	0x4
 316 00f8 71       		.byte	0x71
 317 00f9 93010000 		.4byte	0x193
 318 00fd 8001     		.2byte	0x180
 319 00ff 08       		.uleb128 0x8
 320 0100 73010000 		.4byte	.LASF21
 321 0104 04       		.byte	0x4
 322 0105 72       		.byte	0x72
 323 0106 98010000 		.4byte	0x198
 324 010a A001     		.2byte	0x1a0
 325 010c 08       		.uleb128 0x8
 326 010d E6020000 		.4byte	.LASF22
 327 0111 04       		.byte	0x4
 328 0112 73       		.byte	0x73
 329 0113 9D010000 		.4byte	0x19d
 330 0117 0002     		.2byte	0x200
 331 0119 08       		.uleb128 0x8
 332 011a 7B010000 		.4byte	.LASF23
 333 011e 04       		.byte	0x4
 334 011f 74       		.byte	0x74
 335 0120 B2010000 		.4byte	0x1b2
 336 0124 2002     		.2byte	0x220
 337 0126 09       		.uleb128 0x9
 338 0127 49505200 		.ascii	"IPR\000"
 339 012b 04       		.byte	0x4
 340 012c 75       		.byte	0x75
 341 012d C7010000 		.4byte	0x1c7
 342 0131 0003     		.2byte	0x300
ARM GAS  /tmp/ccN9O0aW.s 			page 7


 343 0133 08       		.uleb128 0x8
 344 0134 83010000 		.4byte	.LASF24
 345 0138 04       		.byte	0x4
 346 0139 76       		.byte	0x76
 347 013a DD010000 		.4byte	0x1dd
 348 013e F003     		.2byte	0x3f0
 349 0140 08       		.uleb128 0x8
 350 0141 C0010000 		.4byte	.LASF25
 351 0145 04       		.byte	0x4
 352 0146 77       		.byte	0x77
 353 0147 8F000000 		.4byte	0x8f
 354 014b 000E     		.2byte	0xe00
 355 014d 00       		.byte	0
 356 014e 0A       		.uleb128 0xa
 357 014f 8F000000 		.4byte	0x8f
 358 0153 5E010000 		.4byte	0x15e
 359 0157 0B       		.uleb128 0xb
 360 0158 5E010000 		.4byte	0x15e
 361 015c 07       		.byte	0x7
 362 015d 00       		.byte	0
 363 015e 03       		.uleb128 0x3
 364 015f 04       		.byte	0x4
 365 0160 07       		.byte	0x7
 366 0161 1E020000 		.4byte	.LASF26
 367 0165 05       		.uleb128 0x5
 368 0166 4E010000 		.4byte	0x14e
 369 016a 0A       		.uleb128 0xa
 370 016b 8F000000 		.4byte	0x8f
 371 016f 7A010000 		.4byte	0x17a
 372 0173 0B       		.uleb128 0xb
 373 0174 5E010000 		.4byte	0x15e
 374 0178 17       		.byte	0x17
 375 0179 00       		.byte	0
 376 017a 05       		.uleb128 0x5
 377 017b 6A010000 		.4byte	0x16a
 378 017f 05       		.uleb128 0x5
 379 0180 4E010000 		.4byte	0x14e
 380 0184 05       		.uleb128 0x5
 381 0185 6A010000 		.4byte	0x16a
 382 0189 05       		.uleb128 0x5
 383 018a 4E010000 		.4byte	0x14e
 384 018e 05       		.uleb128 0x5
 385 018f 6A010000 		.4byte	0x16a
 386 0193 05       		.uleb128 0x5
 387 0194 4E010000 		.4byte	0x14e
 388 0198 05       		.uleb128 0x5
 389 0199 6A010000 		.4byte	0x16a
 390 019d 05       		.uleb128 0x5
 391 019e 4E010000 		.4byte	0x14e
 392 01a2 0A       		.uleb128 0xa
 393 01a3 8F000000 		.4byte	0x8f
 394 01a7 B2010000 		.4byte	0x1b2
 395 01ab 0B       		.uleb128 0xb
 396 01ac 5E010000 		.4byte	0x15e
 397 01b0 37       		.byte	0x37
 398 01b1 00       		.byte	0
 399 01b2 05       		.uleb128 0x5
ARM GAS  /tmp/ccN9O0aW.s 			page 8


 400 01b3 A2010000 		.4byte	0x1a2
 401 01b7 0A       		.uleb128 0xa
 402 01b8 8F000000 		.4byte	0x8f
 403 01bc C7010000 		.4byte	0x1c7
 404 01c0 0B       		.uleb128 0xb
 405 01c1 5E010000 		.4byte	0x15e
 406 01c5 3B       		.byte	0x3b
 407 01c6 00       		.byte	0
 408 01c7 05       		.uleb128 0x5
 409 01c8 B7010000 		.4byte	0x1b7
 410 01cc 0A       		.uleb128 0xa
 411 01cd 8F000000 		.4byte	0x8f
 412 01d1 DD010000 		.4byte	0x1dd
 413 01d5 0C       		.uleb128 0xc
 414 01d6 5E010000 		.4byte	0x15e
 415 01da 8302     		.2byte	0x283
 416 01dc 00       		.byte	0
 417 01dd 05       		.uleb128 0x5
 418 01de CC010000 		.4byte	0x1cc
 419 01e2 04       		.uleb128 0x4
 420 01e3 28010000 		.4byte	.LASF27
 421 01e7 04       		.byte	0x4
 422 01e8 78       		.byte	0x78
 423 01e9 9F000000 		.4byte	0x9f
 424 01ed 0D       		.uleb128 0xd
 425 01ee 8C       		.byte	0x8c
 426 01ef 04       		.byte	0x4
 427 01f0 89       		.byte	0x89
 428 01f1 F2020000 		.4byte	0x2f2
 429 01f5 07       		.uleb128 0x7
 430 01f6 35020000 		.4byte	.LASF28
 431 01fa 04       		.byte	0x4
 432 01fb 8A       		.byte	0x8a
 433 01fc 8F000000 		.4byte	0x8f
 434 0200 00       		.byte	0
 435 0201 07       		.uleb128 0x7
 436 0202 FE010000 		.4byte	.LASF29
 437 0206 04       		.byte	0x4
 438 0207 8B       		.byte	0x8b
 439 0208 8F000000 		.4byte	0x8f
 440 020c 04       		.byte	0x4
 441 020d 07       		.uleb128 0x7
 442 020e 31010000 		.4byte	.LASF30
 443 0212 04       		.byte	0x4
 444 0213 8C       		.byte	0x8c
 445 0214 8F000000 		.4byte	0x8f
 446 0218 08       		.byte	0x8
 447 0219 07       		.uleb128 0x7
 448 021a 0B020000 		.4byte	.LASF31
 449 021e 04       		.byte	0x4
 450 021f 8D       		.byte	0x8d
 451 0220 8F000000 		.4byte	0x8f
 452 0224 0C       		.byte	0xc
 453 0225 0E       		.uleb128 0xe
 454 0226 53435200 		.ascii	"SCR\000"
 455 022a 04       		.byte	0x4
 456 022b 8E       		.byte	0x8e
ARM GAS  /tmp/ccN9O0aW.s 			page 9


 457 022c 8F000000 		.4byte	0x8f
 458 0230 10       		.byte	0x10
 459 0231 0E       		.uleb128 0xe
 460 0232 43435200 		.ascii	"CCR\000"
 461 0236 04       		.byte	0x4
 462 0237 8F       		.byte	0x8f
 463 0238 8F000000 		.4byte	0x8f
 464 023c 14       		.byte	0x14
 465 023d 07       		.uleb128 0x7
 466 023e AC020000 		.4byte	.LASF32
 467 0242 04       		.byte	0x4
 468 0243 90       		.byte	0x90
 469 0244 02030000 		.4byte	0x302
 470 0248 18       		.byte	0x18
 471 0249 07       		.uleb128 0x7
 472 024a 94020000 		.4byte	.LASF33
 473 024e 04       		.byte	0x4
 474 024f 91       		.byte	0x91
 475 0250 8F000000 		.4byte	0x8f
 476 0254 24       		.byte	0x24
 477 0255 07       		.uleb128 0x7
 478 0256 9E010000 		.4byte	.LASF34
 479 025a 04       		.byte	0x4
 480 025b 92       		.byte	0x92
 481 025c 8F000000 		.4byte	0x8f
 482 0260 28       		.byte	0x28
 483 0261 07       		.uleb128 0x7
 484 0262 A3010000 		.4byte	.LASF35
 485 0266 04       		.byte	0x4
 486 0267 93       		.byte	0x93
 487 0268 8F000000 		.4byte	0x8f
 488 026c 2C       		.byte	0x2c
 489 026d 07       		.uleb128 0x7
 490 026e E2010000 		.4byte	.LASF36
 491 0272 04       		.byte	0x4
 492 0273 94       		.byte	0x94
 493 0274 8F000000 		.4byte	0x8f
 494 0278 30       		.byte	0x30
 495 0279 07       		.uleb128 0x7
 496 027a 4A020000 		.4byte	.LASF37
 497 027e 04       		.byte	0x4
 498 027f 95       		.byte	0x95
 499 0280 8F000000 		.4byte	0x8f
 500 0284 34       		.byte	0x34
 501 0285 07       		.uleb128 0x7
 502 0286 11020000 		.4byte	.LASF38
 503 028a 04       		.byte	0x4
 504 028b 96       		.byte	0x96
 505 028c 8F000000 		.4byte	0x8f
 506 0290 38       		.byte	0x38
 507 0291 07       		.uleb128 0x7
 508 0292 45020000 		.4byte	.LASF39
 509 0296 04       		.byte	0x4
 510 0297 97       		.byte	0x97
 511 0298 8F000000 		.4byte	0x8f
 512 029c 3C       		.byte	0x3c
 513 029d 0E       		.uleb128 0xe
ARM GAS  /tmp/ccN9O0aW.s 			page 10


 514 029e 50465200 		.ascii	"PFR\000"
 515 02a2 04       		.byte	0x4
 516 02a3 98       		.byte	0x98
 517 02a4 17030000 		.4byte	0x317
 518 02a8 40       		.byte	0x40
 519 02a9 0E       		.uleb128 0xe
 520 02aa 44465200 		.ascii	"DFR\000"
 521 02ae 04       		.byte	0x4
 522 02af 99       		.byte	0x99
 523 02b0 8F000000 		.4byte	0x8f
 524 02b4 48       		.byte	0x48
 525 02b5 0E       		.uleb128 0xe
 526 02b6 41445200 		.ascii	"ADR\000"
 527 02ba 04       		.byte	0x4
 528 02bb 9A       		.byte	0x9a
 529 02bc 8F000000 		.4byte	0x8f
 530 02c0 4C       		.byte	0x4c
 531 02c1 07       		.uleb128 0x7
 532 02c2 0A000000 		.4byte	.LASF40
 533 02c6 04       		.byte	0x4
 534 02c7 9B       		.byte	0x9b
 535 02c8 2C030000 		.4byte	0x32c
 536 02cc 50       		.byte	0x50
 537 02cd 0E       		.uleb128 0xe
 538 02ce 53415200 		.ascii	"SAR\000"
 539 02d2 04       		.byte	0x4
 540 02d3 9C       		.byte	0x9c
 541 02d4 41030000 		.4byte	0x341
 542 02d8 60       		.byte	0x60
 543 02d9 07       		.uleb128 0x7
 544 02da 5B010000 		.4byte	.LASF15
 545 02de 04       		.byte	0x4
 546 02df 9D       		.byte	0x9d
 547 02e0 46030000 		.4byte	0x346
 548 02e4 74       		.byte	0x74
 549 02e5 07       		.uleb128 0x7
 550 02e6 BA010000 		.4byte	.LASF41
 551 02ea 04       		.byte	0x4
 552 02eb 9E       		.byte	0x9e
 553 02ec 8F000000 		.4byte	0x8f
 554 02f0 88       		.byte	0x88
 555 02f1 00       		.byte	0
 556 02f2 0A       		.uleb128 0xa
 557 02f3 8F000000 		.4byte	0x8f
 558 02f7 02030000 		.4byte	0x302
 559 02fb 0B       		.uleb128 0xb
 560 02fc 5E010000 		.4byte	0x15e
 561 0300 02       		.byte	0x2
 562 0301 00       		.byte	0
 563 0302 05       		.uleb128 0x5
 564 0303 F2020000 		.4byte	0x2f2
 565 0307 0A       		.uleb128 0xa
 566 0308 8F000000 		.4byte	0x8f
 567 030c 17030000 		.4byte	0x317
 568 0310 0B       		.uleb128 0xb
 569 0311 5E010000 		.4byte	0x15e
 570 0315 01       		.byte	0x1
ARM GAS  /tmp/ccN9O0aW.s 			page 11


 571 0316 00       		.byte	0
 572 0317 05       		.uleb128 0x5
 573 0318 07030000 		.4byte	0x307
 574 031c 0A       		.uleb128 0xa
 575 031d 8F000000 		.4byte	0x8f
 576 0321 2C030000 		.4byte	0x32c
 577 0325 0B       		.uleb128 0xb
 578 0326 5E010000 		.4byte	0x15e
 579 032a 03       		.byte	0x3
 580 032b 00       		.byte	0
 581 032c 05       		.uleb128 0x5
 582 032d 1C030000 		.4byte	0x31c
 583 0331 0A       		.uleb128 0xa
 584 0332 8F000000 		.4byte	0x8f
 585 0336 41030000 		.4byte	0x341
 586 033a 0B       		.uleb128 0xb
 587 033b 5E010000 		.4byte	0x15e
 588 033f 04       		.byte	0x4
 589 0340 00       		.byte	0
 590 0341 05       		.uleb128 0x5
 591 0342 31030000 		.4byte	0x331
 592 0346 05       		.uleb128 0x5
 593 0347 31030000 		.4byte	0x331
 594 034b 04       		.uleb128 0x4
 595 034c 03020000 		.4byte	.LASF42
 596 0350 04       		.byte	0x4
 597 0351 9F       		.byte	0x9f
 598 0352 ED010000 		.4byte	0x1ed
 599 0356 03       		.uleb128 0x3
 600 0357 01       		.byte	0x1
 601 0358 08       		.byte	0x8
 602 0359 3B020000 		.4byte	.LASF43
 603 035d 0F       		.uleb128 0xf
 604 035e EB020000 		.4byte	.LASF45
 605 0362 01       		.byte	0x1
 606 0363 2E       		.byte	0x2e
 607 0364 00000000 		.4byte	.LFB0
 608 0368 48000000 		.4byte	.LFE0-.LFB0
 609 036c 01       		.uleb128 0x1
 610 036d 9C       		.byte	0x9c
 611 036e 9D030000 		.4byte	0x39d
 612 0372 10       		.uleb128 0x10
 613 0373 6E00     		.ascii	"n\000"
 614 0375 01       		.byte	0x1
 615 0376 2E       		.byte	0x2e
 616 0377 7D000000 		.4byte	0x7d
 617 037b 00000000 		.4byte	.LLST0
 618 037f 11       		.uleb128 0x11
 619 0380 00000000 		.4byte	.LASF44
 620 0384 01       		.byte	0x1
 621 0385 2E       		.byte	0x2e
 622 0386 7D000000 		.4byte	0x7d
 623 038a 21000000 		.4byte	.LLST1
 624 038e 12       		.uleb128 0x12
 625 038f 736800   		.ascii	"sh\000"
 626 0392 01       		.byte	0x1
 627 0393 2F       		.byte	0x2f
ARM GAS  /tmp/ccN9O0aW.s 			page 12


 628 0394 2C000000 		.4byte	0x2c
 629 0398 42000000 		.4byte	.LLST2
 630 039c 00       		.byte	0
 631 039d 0F       		.uleb128 0xf
 632 039e 15000000 		.4byte	.LASF46
 633 03a2 01       		.byte	0x1
 634 03a3 3C       		.byte	0x3c
 635 03a4 00000000 		.4byte	.LFB1
 636 03a8 40000000 		.4byte	.LFE1-.LFB1
 637 03ac 01       		.uleb128 0x1
 638 03ad 9C       		.byte	0x9c
 639 03ae CE030000 		.4byte	0x3ce
 640 03b2 10       		.uleb128 0x10
 641 03b3 6E00     		.ascii	"n\000"
 642 03b5 01       		.byte	0x1
 643 03b6 3C       		.byte	0x3c
 644 03b7 7D000000 		.4byte	0x7d
 645 03bb 78000000 		.4byte	.LLST3
 646 03bf 12       		.uleb128 0x12
 647 03c0 736800   		.ascii	"sh\000"
 648 03c3 01       		.byte	0x1
 649 03c4 3D       		.byte	0x3d
 650 03c5 2C000000 		.4byte	0x2c
 651 03c9 99000000 		.4byte	.LLST4
 652 03cd 00       		.byte	0
 653 03ce 13       		.uleb128 0x13
 654 03cf C9020000 		.4byte	.LASF51
 655 03d3 01       		.byte	0x1
 656 03d4 4A       		.byte	0x4a
 657 03d5 00000000 		.4byte	.LFB2
 658 03d9 28000000 		.4byte	.LFE2-.LFB2
 659 03dd 01       		.uleb128 0x1
 660 03de 9C       		.byte	0x9c
 661 03df 11       		.uleb128 0x11
 662 03e0 16020000 		.4byte	.LASF47
 663 03e4 01       		.byte	0x1
 664 03e5 4A       		.byte	0x4a
 665 03e6 7D000000 		.4byte	0x7d
 666 03ea E1000000 		.4byte	.LLST5
 667 03ee 11       		.uleb128 0x11
 668 03ef 00000000 		.4byte	.LASF44
 669 03f3 01       		.byte	0x1
 670 03f4 4A       		.byte	0x4a
 671 03f5 7D000000 		.4byte	0x7d
 672 03f9 02010000 		.4byte	.LLST6
 673 03fd 12       		.uleb128 0x12
 674 03fe 736800   		.ascii	"sh\000"
 675 0401 01       		.byte	0x1
 676 0402 4B       		.byte	0x4b
 677 0403 2C000000 		.4byte	0x2c
 678 0407 23010000 		.4byte	.LLST7
 679 040b 00       		.byte	0
 680 040c 00       		.byte	0
 681              		.section	.debug_abbrev,"",%progbits
 682              	.Ldebug_abbrev0:
 683 0000 01       		.uleb128 0x1
 684 0001 11       		.uleb128 0x11
ARM GAS  /tmp/ccN9O0aW.s 			page 13


 685 0002 01       		.byte	0x1
 686 0003 25       		.uleb128 0x25
 687 0004 0E       		.uleb128 0xe
 688 0005 13       		.uleb128 0x13
 689 0006 0B       		.uleb128 0xb
 690 0007 03       		.uleb128 0x3
 691 0008 0E       		.uleb128 0xe
 692 0009 1B       		.uleb128 0x1b
 693 000a 0E       		.uleb128 0xe
 694 000b 55       		.uleb128 0x55
 695 000c 17       		.uleb128 0x17
 696 000d 11       		.uleb128 0x11
 697 000e 01       		.uleb128 0x1
 698 000f 10       		.uleb128 0x10
 699 0010 17       		.uleb128 0x17
 700 0011 00       		.byte	0
 701 0012 00       		.byte	0
 702 0013 02       		.uleb128 0x2
 703 0014 24       		.uleb128 0x24
 704 0015 00       		.byte	0
 705 0016 0B       		.uleb128 0xb
 706 0017 0B       		.uleb128 0xb
 707 0018 3E       		.uleb128 0x3e
 708 0019 0B       		.uleb128 0xb
 709 001a 03       		.uleb128 0x3
 710 001b 08       		.uleb128 0x8
 711 001c 00       		.byte	0
 712 001d 00       		.byte	0
 713 001e 03       		.uleb128 0x3
 714 001f 24       		.uleb128 0x24
 715 0020 00       		.byte	0
 716 0021 0B       		.uleb128 0xb
 717 0022 0B       		.uleb128 0xb
 718 0023 3E       		.uleb128 0x3e
 719 0024 0B       		.uleb128 0xb
 720 0025 03       		.uleb128 0x3
 721 0026 0E       		.uleb128 0xe
 722 0027 00       		.byte	0
 723 0028 00       		.byte	0
 724 0029 04       		.uleb128 0x4
 725 002a 16       		.uleb128 0x16
 726 002b 00       		.byte	0
 727 002c 03       		.uleb128 0x3
 728 002d 0E       		.uleb128 0xe
 729 002e 3A       		.uleb128 0x3a
 730 002f 0B       		.uleb128 0xb
 731 0030 3B       		.uleb128 0x3b
 732 0031 0B       		.uleb128 0xb
 733 0032 49       		.uleb128 0x49
 734 0033 13       		.uleb128 0x13
 735 0034 00       		.byte	0
 736 0035 00       		.byte	0
 737 0036 05       		.uleb128 0x5
 738 0037 35       		.uleb128 0x35
 739 0038 00       		.byte	0
 740 0039 49       		.uleb128 0x49
 741 003a 13       		.uleb128 0x13
ARM GAS  /tmp/ccN9O0aW.s 			page 14


 742 003b 00       		.byte	0
 743 003c 00       		.byte	0
 744 003d 06       		.uleb128 0x6
 745 003e 13       		.uleb128 0x13
 746 003f 01       		.byte	0x1
 747 0040 0B       		.uleb128 0xb
 748 0041 05       		.uleb128 0x5
 749 0042 3A       		.uleb128 0x3a
 750 0043 0B       		.uleb128 0xb
 751 0044 3B       		.uleb128 0x3b
 752 0045 0B       		.uleb128 0xb
 753 0046 01       		.uleb128 0x1
 754 0047 13       		.uleb128 0x13
 755 0048 00       		.byte	0
 756 0049 00       		.byte	0
 757 004a 07       		.uleb128 0x7
 758 004b 0D       		.uleb128 0xd
 759 004c 00       		.byte	0
 760 004d 03       		.uleb128 0x3
 761 004e 0E       		.uleb128 0xe
 762 004f 3A       		.uleb128 0x3a
 763 0050 0B       		.uleb128 0xb
 764 0051 3B       		.uleb128 0x3b
 765 0052 0B       		.uleb128 0xb
 766 0053 49       		.uleb128 0x49
 767 0054 13       		.uleb128 0x13
 768 0055 38       		.uleb128 0x38
 769 0056 0B       		.uleb128 0xb
 770 0057 00       		.byte	0
 771 0058 00       		.byte	0
 772 0059 08       		.uleb128 0x8
 773 005a 0D       		.uleb128 0xd
 774 005b 00       		.byte	0
 775 005c 03       		.uleb128 0x3
 776 005d 0E       		.uleb128 0xe
 777 005e 3A       		.uleb128 0x3a
 778 005f 0B       		.uleb128 0xb
 779 0060 3B       		.uleb128 0x3b
 780 0061 0B       		.uleb128 0xb
 781 0062 49       		.uleb128 0x49
 782 0063 13       		.uleb128 0x13
 783 0064 38       		.uleb128 0x38
 784 0065 05       		.uleb128 0x5
 785 0066 00       		.byte	0
 786 0067 00       		.byte	0
 787 0068 09       		.uleb128 0x9
 788 0069 0D       		.uleb128 0xd
 789 006a 00       		.byte	0
 790 006b 03       		.uleb128 0x3
 791 006c 08       		.uleb128 0x8
 792 006d 3A       		.uleb128 0x3a
 793 006e 0B       		.uleb128 0xb
 794 006f 3B       		.uleb128 0x3b
 795 0070 0B       		.uleb128 0xb
 796 0071 49       		.uleb128 0x49
 797 0072 13       		.uleb128 0x13
 798 0073 38       		.uleb128 0x38
ARM GAS  /tmp/ccN9O0aW.s 			page 15


 799 0074 05       		.uleb128 0x5
 800 0075 00       		.byte	0
 801 0076 00       		.byte	0
 802 0077 0A       		.uleb128 0xa
 803 0078 01       		.uleb128 0x1
 804 0079 01       		.byte	0x1
 805 007a 49       		.uleb128 0x49
 806 007b 13       		.uleb128 0x13
 807 007c 01       		.uleb128 0x1
 808 007d 13       		.uleb128 0x13
 809 007e 00       		.byte	0
 810 007f 00       		.byte	0
 811 0080 0B       		.uleb128 0xb
 812 0081 21       		.uleb128 0x21
 813 0082 00       		.byte	0
 814 0083 49       		.uleb128 0x49
 815 0084 13       		.uleb128 0x13
 816 0085 2F       		.uleb128 0x2f
 817 0086 0B       		.uleb128 0xb
 818 0087 00       		.byte	0
 819 0088 00       		.byte	0
 820 0089 0C       		.uleb128 0xc
 821 008a 21       		.uleb128 0x21
 822 008b 00       		.byte	0
 823 008c 49       		.uleb128 0x49
 824 008d 13       		.uleb128 0x13
 825 008e 2F       		.uleb128 0x2f
 826 008f 05       		.uleb128 0x5
 827 0090 00       		.byte	0
 828 0091 00       		.byte	0
 829 0092 0D       		.uleb128 0xd
 830 0093 13       		.uleb128 0x13
 831 0094 01       		.byte	0x1
 832 0095 0B       		.uleb128 0xb
 833 0096 0B       		.uleb128 0xb
 834 0097 3A       		.uleb128 0x3a
 835 0098 0B       		.uleb128 0xb
 836 0099 3B       		.uleb128 0x3b
 837 009a 0B       		.uleb128 0xb
 838 009b 01       		.uleb128 0x1
 839 009c 13       		.uleb128 0x13
 840 009d 00       		.byte	0
 841 009e 00       		.byte	0
 842 009f 0E       		.uleb128 0xe
 843 00a0 0D       		.uleb128 0xd
 844 00a1 00       		.byte	0
 845 00a2 03       		.uleb128 0x3
 846 00a3 08       		.uleb128 0x8
 847 00a4 3A       		.uleb128 0x3a
 848 00a5 0B       		.uleb128 0xb
 849 00a6 3B       		.uleb128 0x3b
 850 00a7 0B       		.uleb128 0xb
 851 00a8 49       		.uleb128 0x49
 852 00a9 13       		.uleb128 0x13
 853 00aa 38       		.uleb128 0x38
 854 00ab 0B       		.uleb128 0xb
 855 00ac 00       		.byte	0
ARM GAS  /tmp/ccN9O0aW.s 			page 16


 856 00ad 00       		.byte	0
 857 00ae 0F       		.uleb128 0xf
 858 00af 2E       		.uleb128 0x2e
 859 00b0 01       		.byte	0x1
 860 00b1 3F       		.uleb128 0x3f
 861 00b2 19       		.uleb128 0x19
 862 00b3 03       		.uleb128 0x3
 863 00b4 0E       		.uleb128 0xe
 864 00b5 3A       		.uleb128 0x3a
 865 00b6 0B       		.uleb128 0xb
 866 00b7 3B       		.uleb128 0x3b
 867 00b8 0B       		.uleb128 0xb
 868 00b9 27       		.uleb128 0x27
 869 00ba 19       		.uleb128 0x19
 870 00bb 11       		.uleb128 0x11
 871 00bc 01       		.uleb128 0x1
 872 00bd 12       		.uleb128 0x12
 873 00be 06       		.uleb128 0x6
 874 00bf 40       		.uleb128 0x40
 875 00c0 18       		.uleb128 0x18
 876 00c1 9742     		.uleb128 0x2117
 877 00c3 19       		.uleb128 0x19
 878 00c4 01       		.uleb128 0x1
 879 00c5 13       		.uleb128 0x13
 880 00c6 00       		.byte	0
 881 00c7 00       		.byte	0
 882 00c8 10       		.uleb128 0x10
 883 00c9 05       		.uleb128 0x5
 884 00ca 00       		.byte	0
 885 00cb 03       		.uleb128 0x3
 886 00cc 08       		.uleb128 0x8
 887 00cd 3A       		.uleb128 0x3a
 888 00ce 0B       		.uleb128 0xb
 889 00cf 3B       		.uleb128 0x3b
 890 00d0 0B       		.uleb128 0xb
 891 00d1 49       		.uleb128 0x49
 892 00d2 13       		.uleb128 0x13
 893 00d3 02       		.uleb128 0x2
 894 00d4 17       		.uleb128 0x17
 895 00d5 00       		.byte	0
 896 00d6 00       		.byte	0
 897 00d7 11       		.uleb128 0x11
 898 00d8 05       		.uleb128 0x5
 899 00d9 00       		.byte	0
 900 00da 03       		.uleb128 0x3
 901 00db 0E       		.uleb128 0xe
 902 00dc 3A       		.uleb128 0x3a
 903 00dd 0B       		.uleb128 0xb
 904 00de 3B       		.uleb128 0x3b
 905 00df 0B       		.uleb128 0xb
 906 00e0 49       		.uleb128 0x49
 907 00e1 13       		.uleb128 0x13
 908 00e2 02       		.uleb128 0x2
 909 00e3 17       		.uleb128 0x17
 910 00e4 00       		.byte	0
 911 00e5 00       		.byte	0
 912 00e6 12       		.uleb128 0x12
ARM GAS  /tmp/ccN9O0aW.s 			page 17


 913 00e7 34       		.uleb128 0x34
 914 00e8 00       		.byte	0
 915 00e9 03       		.uleb128 0x3
 916 00ea 08       		.uleb128 0x8
 917 00eb 3A       		.uleb128 0x3a
 918 00ec 0B       		.uleb128 0xb
 919 00ed 3B       		.uleb128 0x3b
 920 00ee 0B       		.uleb128 0xb
 921 00ef 49       		.uleb128 0x49
 922 00f0 13       		.uleb128 0x13
 923 00f1 02       		.uleb128 0x2
 924 00f2 17       		.uleb128 0x17
 925 00f3 00       		.byte	0
 926 00f4 00       		.byte	0
 927 00f5 13       		.uleb128 0x13
 928 00f6 2E       		.uleb128 0x2e
 929 00f7 01       		.byte	0x1
 930 00f8 3F       		.uleb128 0x3f
 931 00f9 19       		.uleb128 0x19
 932 00fa 03       		.uleb128 0x3
 933 00fb 0E       		.uleb128 0xe
 934 00fc 3A       		.uleb128 0x3a
 935 00fd 0B       		.uleb128 0xb
 936 00fe 3B       		.uleb128 0x3b
 937 00ff 0B       		.uleb128 0xb
 938 0100 27       		.uleb128 0x27
 939 0101 19       		.uleb128 0x19
 940 0102 11       		.uleb128 0x11
 941 0103 01       		.uleb128 0x1
 942 0104 12       		.uleb128 0x12
 943 0105 06       		.uleb128 0x6
 944 0106 40       		.uleb128 0x40
 945 0107 18       		.uleb128 0x18
 946 0108 9742     		.uleb128 0x2117
 947 010a 19       		.uleb128 0x19
 948 010b 00       		.byte	0
 949 010c 00       		.byte	0
 950 010d 00       		.byte	0
 951              		.section	.debug_loc,"",%progbits
 952              	.Ldebug_loc0:
 953              	.LLST0:
 954 0000 00000000 		.4byte	.LVL0
 955 0004 32000000 		.4byte	.LVL4
 956 0008 0100     		.2byte	0x1
 957 000a 50       		.byte	0x50
 958 000b 32000000 		.4byte	.LVL4
 959 000f 48000000 		.4byte	.LFE0
 960 0013 0400     		.2byte	0x4
 961 0015 F3       		.byte	0xf3
 962 0016 01       		.uleb128 0x1
 963 0017 50       		.byte	0x50
 964 0018 9F       		.byte	0x9f
 965 0019 00000000 		.4byte	0
 966 001d 00000000 		.4byte	0
 967              	.LLST1:
 968 0021 00000000 		.4byte	.LVL0
 969 0025 26000000 		.4byte	.LVL2
ARM GAS  /tmp/ccN9O0aW.s 			page 18


 970 0029 0100     		.2byte	0x1
 971 002b 51       		.byte	0x51
 972 002c 26000000 		.4byte	.LVL2
 973 0030 48000000 		.4byte	.LFE0
 974 0034 0400     		.2byte	0x4
 975 0036 F3       		.byte	0xf3
 976 0037 01       		.uleb128 0x1
 977 0038 51       		.byte	0x51
 978 0039 9F       		.byte	0x9f
 979 003a 00000000 		.4byte	0
 980 003e 00000000 		.4byte	0
 981              	.LLST2:
 982 0042 1A000000 		.4byte	.LVL1
 983 0046 2E000000 		.4byte	.LVL3
 984 004a 0100     		.2byte	0x1
 985 004c 52       		.byte	0x52
 986 004d 2E000000 		.4byte	.LVL3
 987 0051 32000000 		.4byte	.LVL4
 988 0055 0700     		.2byte	0x7
 989 0057 70       		.byte	0x70
 990 0058 00       		.sleb128 0
 991 0059 33       		.byte	0x33
 992 005a 24       		.byte	0x24
 993 005b 48       		.byte	0x48
 994 005c 1A       		.byte	0x1a
 995 005d 9F       		.byte	0x9f
 996 005e 32000000 		.4byte	.LVL4
 997 0062 48000000 		.4byte	.LFE0
 998 0066 0800     		.2byte	0x8
 999 0068 F3       		.byte	0xf3
 1000 0069 01       		.uleb128 0x1
 1001 006a 50       		.byte	0x50
 1002 006b 33       		.byte	0x33
 1003 006c 24       		.byte	0x24
 1004 006d 48       		.byte	0x48
 1005 006e 1A       		.byte	0x1a
 1006 006f 9F       		.byte	0x9f
 1007 0070 00000000 		.4byte	0
 1008 0074 00000000 		.4byte	0
 1009              	.LLST3:
 1010 0078 00000000 		.4byte	.LVL5
 1011 007c 22000000 		.4byte	.LVL6
 1012 0080 0100     		.2byte	0x1
 1013 0082 50       		.byte	0x50
 1014 0083 22000000 		.4byte	.LVL6
 1015 0087 40000000 		.4byte	.LFE1
 1016 008b 0400     		.2byte	0x4
 1017 008d F3       		.byte	0xf3
 1018 008e 01       		.uleb128 0x1
 1019 008f 50       		.byte	0x50
 1020 0090 9F       		.byte	0x9f
 1021 0091 00000000 		.4byte	0
 1022 0095 00000000 		.4byte	0
 1023              	.LLST4:
 1024 0099 00000000 		.4byte	.LVL5
 1025 009d 22000000 		.4byte	.LVL6
 1026 00a1 0700     		.2byte	0x7
ARM GAS  /tmp/ccN9O0aW.s 			page 19


 1027 00a3 70       		.byte	0x70
 1028 00a4 00       		.sleb128 0
 1029 00a5 33       		.byte	0x33
 1030 00a6 24       		.byte	0x24
 1031 00a7 48       		.byte	0x48
 1032 00a8 1A       		.byte	0x1a
 1033 00a9 9F       		.byte	0x9f
 1034 00aa 22000000 		.4byte	.LVL6
 1035 00ae 2A000000 		.4byte	.LVL7
 1036 00b2 0800     		.2byte	0x8
 1037 00b4 F3       		.byte	0xf3
 1038 00b5 01       		.uleb128 0x1
 1039 00b6 50       		.byte	0x50
 1040 00b7 33       		.byte	0x33
 1041 00b8 24       		.byte	0x24
 1042 00b9 48       		.byte	0x48
 1043 00ba 1A       		.byte	0x1a
 1044 00bb 9F       		.byte	0x9f
 1045 00bc 2A000000 		.4byte	.LVL7
 1046 00c0 30000000 		.4byte	.LVL8
 1047 00c4 0100     		.2byte	0x1
 1048 00c6 50       		.byte	0x50
 1049 00c7 30000000 		.4byte	.LVL8
 1050 00cb 40000000 		.4byte	.LFE1
 1051 00cf 0800     		.2byte	0x8
 1052 00d1 F3       		.byte	0xf3
 1053 00d2 01       		.uleb128 0x1
 1054 00d3 50       		.byte	0x50
 1055 00d4 33       		.byte	0x33
 1056 00d5 24       		.byte	0x24
 1057 00d6 48       		.byte	0x48
 1058 00d7 1A       		.byte	0x1a
 1059 00d8 9F       		.byte	0x9f
 1060 00d9 00000000 		.4byte	0
 1061 00dd 00000000 		.4byte	0
 1062              	.LLST5:
 1063 00e1 00000000 		.4byte	.LVL9
 1064 00e5 10000000 		.4byte	.LVL10
 1065 00e9 0100     		.2byte	0x1
 1066 00eb 50       		.byte	0x50
 1067 00ec 10000000 		.4byte	.LVL10
 1068 00f0 28000000 		.4byte	.LFE2
 1069 00f4 0400     		.2byte	0x4
 1070 00f6 F3       		.byte	0xf3
 1071 00f7 01       		.uleb128 0x1
 1072 00f8 50       		.byte	0x50
 1073 00f9 9F       		.byte	0x9f
 1074 00fa 00000000 		.4byte	0
 1075 00fe 00000000 		.4byte	0
 1076              	.LLST6:
 1077 0102 00000000 		.4byte	.LVL9
 1078 0106 1C000000 		.4byte	.LVL12
 1079 010a 0100     		.2byte	0x1
 1080 010c 51       		.byte	0x51
 1081 010d 1C000000 		.4byte	.LVL12
 1082 0111 28000000 		.4byte	.LFE2
 1083 0115 0400     		.2byte	0x4
ARM GAS  /tmp/ccN9O0aW.s 			page 20


 1084 0117 F3       		.byte	0xf3
 1085 0118 01       		.uleb128 0x1
 1086 0119 51       		.byte	0x51
 1087 011a 9F       		.byte	0x9f
 1088 011b 00000000 		.4byte	0
 1089 011f 00000000 		.4byte	0
 1090              	.LLST7:
 1091 0123 14000000 		.4byte	.LVL11
 1092 0127 20000000 		.4byte	.LVL13
 1093 012b 0100     		.2byte	0x1
 1094 012d 50       		.byte	0x50
 1095 012e 20000000 		.4byte	.LVL13
 1096 0132 28000000 		.4byte	.LFE2
 1097 0136 0800     		.2byte	0x8
 1098 0138 F3       		.byte	0xf3
 1099 0139 01       		.uleb128 0x1
 1100 013a 50       		.byte	0x50
 1101 013b 33       		.byte	0x33
 1102 013c 1A       		.byte	0x1a
 1103 013d 33       		.byte	0x33
 1104 013e 24       		.byte	0x24
 1105 013f 9F       		.byte	0x9f
 1106 0140 00000000 		.4byte	0
 1107 0144 00000000 		.4byte	0
 1108              		.section	.debug_aranges,"",%progbits
 1109 0000 2C000000 		.4byte	0x2c
 1110 0004 0200     		.2byte	0x2
 1111 0006 00000000 		.4byte	.Ldebug_info0
 1112 000a 04       		.byte	0x4
 1113 000b 00       		.byte	0
 1114 000c 0000     		.2byte	0
 1115 000e 0000     		.2byte	0
 1116 0010 00000000 		.4byte	.LFB0
 1117 0014 48000000 		.4byte	.LFE0-.LFB0
 1118 0018 00000000 		.4byte	.LFB1
 1119 001c 40000000 		.4byte	.LFE1-.LFB1
 1120 0020 00000000 		.4byte	.LFB2
 1121 0024 28000000 		.4byte	.LFE2-.LFB2
 1122 0028 00000000 		.4byte	0
 1123 002c 00000000 		.4byte	0
 1124              		.section	.debug_ranges,"",%progbits
 1125              	.Ldebug_ranges0:
 1126 0000 00000000 		.4byte	.LFB0
 1127 0004 48000000 		.4byte	.LFE0
 1128 0008 00000000 		.4byte	.LFB1
 1129 000c 40000000 		.4byte	.LFE1
 1130 0010 00000000 		.4byte	.LFB2
 1131 0014 28000000 		.4byte	.LFE2
 1132 0018 00000000 		.4byte	0
 1133 001c 00000000 		.4byte	0
 1134              		.section	.debug_line,"",%progbits
 1135              	.Ldebug_line0:
 1136 0000 CA010000 		.section	.debug_str,"MS",%progbits,1
 1136      02008001 
 1136      00000201 
 1136      FB0E0D00 
 1136      01010101 
ARM GAS  /tmp/ccN9O0aW.s 			page 21


 1137              	.LASF44:
 1138 0000 7072696F 		.ascii	"prio\000"
 1138      00
 1139              	.LASF20:
 1140 0005 49435052 		.ascii	"ICPR\000"
 1140      00
 1141              	.LASF40:
 1142 000a 4D4D4652 		.ascii	"MMFR\000"
 1142      00
 1143              	.LASF12:
 1144 000f 5F426F6F 		.ascii	"_Bool\000"
 1144      6C00
 1145              	.LASF46:
 1146 0015 6E766963 		.ascii	"nvicDisableVector\000"
 1146      44697361 
 1146      626C6556 
 1146      6563746F 
 1146      7200
 1147              	.LASF49:
 1148 0027 2E2E2F2E 		.ascii	"../../../os/ports/common/ARMCMx/nvic.c\000"
 1148      2E2F2E2E 
 1148      2F6F732F 
 1148      706F7274 
 1148      732F636F 
 1149              	.LASF48:
 1150 004e 474E5520 		.ascii	"GNU C11 5.2.1 20151202 (release) [ARM/embedded-5-br"
 1150      43313120 
 1150      352E322E 
 1150      31203230 
 1150      31353132 
 1151 0081 616E6368 		.ascii	"anch revision 231848] -mcpu=cortex-m4 -mno-thumb-in"
 1151      20726576 
 1151      6973696F 
 1151      6E203233 
 1151      31383438 
 1152 00b4 74657277 		.ascii	"terwork -mthumb -ggdb -O2 -fomit-frame-pointer -fal"
 1152      6F726B20 
 1152      2D6D7468 
 1152      756D6220 
 1152      2D676764 
 1153 00e7 69676E2D 		.ascii	"ign-functions=16 -ffunction-sections -fdata-section"
 1153      66756E63 
 1153      74696F6E 
 1153      733D3136 
 1153      202D6666 
 1154 011a 73202D66 		.ascii	"s -fno-common\000"
 1154      6E6F2D63 
 1154      6F6D6D6F 
 1154      6E00
 1155              	.LASF27:
 1156 0128 434D785F 		.ascii	"CMx_NVIC\000"
 1156      4E564943 
 1156      00
 1157              	.LASF30:
 1158 0131 56544F52 		.ascii	"VTOR\000"
 1158      00
 1159              	.LASF5:
ARM GAS  /tmp/ccN9O0aW.s 			page 22


 1160 0136 73686F72 		.ascii	"short int\000"
 1160      7420696E 
 1160      7400
 1161              	.LASF16:
 1162 0140 49434552 		.ascii	"ICER\000"
 1162      00
 1163              	.LASF13:
 1164 0145 494F5245 		.ascii	"IOREG32\000"
 1164      47333200 
 1165              	.LASF4:
 1166 014d 756E7369 		.ascii	"unsigned char\000"
 1166      676E6564 
 1166      20636861 
 1166      7200
 1167              	.LASF15:
 1168 015b 756E7573 		.ascii	"unused1\000"
 1168      65643100 
 1169              	.LASF17:
 1170 0163 756E7573 		.ascii	"unused2\000"
 1170      65643200 
 1171              	.LASF19:
 1172 016b 756E7573 		.ascii	"unused3\000"
 1172      65643300 
 1173              	.LASF21:
 1174 0173 756E7573 		.ascii	"unused4\000"
 1174      65643400 
 1175              	.LASF23:
 1176 017b 756E7573 		.ascii	"unused5\000"
 1176      65643500 
 1177              	.LASF24:
 1178 0183 756E7573 		.ascii	"unused6\000"
 1178      65643600 
 1179              	.LASF6:
 1180 018b 73686F72 		.ascii	"short unsigned int\000"
 1180      7420756E 
 1180      7369676E 
 1180      65642069 
 1180      6E7400
 1181              	.LASF34:
 1182 019e 43465352 		.ascii	"CFSR\000"
 1182      00
 1183              	.LASF35:
 1184 01a3 48465352 		.ascii	"HFSR\000"
 1184      00
 1185              	.LASF8:
 1186 01a8 6C6F6E67 		.ascii	"long unsigned int\000"
 1186      20756E73 
 1186      69676E65 
 1186      6420696E 
 1186      7400
 1187              	.LASF41:
 1188 01ba 43504143 		.ascii	"CPACR\000"
 1188      5200
 1189              	.LASF25:
 1190 01c0 53544952 		.ascii	"STIR\000"
 1190      00
 1191              	.LASF10:
ARM GAS  /tmp/ccN9O0aW.s 			page 23


 1192 01c5 5F5F7569 		.ascii	"__uint32_t\000"
 1192      6E743332 
 1192      5F7400
 1193              	.LASF0:
 1194 01d0 756E7369 		.ascii	"unsigned int\000"
 1194      676E6564 
 1194      20696E74 
 1194      00
 1195              	.LASF18:
 1196 01dd 49535052 		.ascii	"ISPR\000"
 1196      00
 1197              	.LASF36:
 1198 01e2 44465352 		.ascii	"DFSR\000"
 1198      00
 1199              	.LASF9:
 1200 01e7 6C6F6E67 		.ascii	"long long unsigned int\000"
 1200      206C6F6E 
 1200      6720756E 
 1200      7369676E 
 1200      65642069 
 1201              	.LASF29:
 1202 01fe 49435352 		.ascii	"ICSR\000"
 1202      00
 1203              	.LASF42:
 1204 0203 434D785F 		.ascii	"CMx_SCB\000"
 1204      53434200 
 1205              	.LASF31:
 1206 020b 41495243 		.ascii	"AIRCR\000"
 1206      5200
 1207              	.LASF38:
 1208 0211 42464152 		.ascii	"BFAR\000"
 1208      00
 1209              	.LASF47:
 1210 0216 68616E64 		.ascii	"handler\000"
 1210      6C657200 
 1211              	.LASF26:
 1212 021e 73697A65 		.ascii	"sizetype\000"
 1212      74797065 
 1212      00
 1213              	.LASF1:
 1214 0227 6C6F6E67 		.ascii	"long long int\000"
 1214      206C6F6E 
 1214      6720696E 
 1214      7400
 1215              	.LASF28:
 1216 0235 43505549 		.ascii	"CPUID\000"
 1216      4400
 1217              	.LASF43:
 1218 023b 63686172 		.ascii	"char\000"
 1218      00
 1219              	.LASF14:
 1220 0240 49534552 		.ascii	"ISER\000"
 1220      00
 1221              	.LASF39:
 1222 0245 41465352 		.ascii	"AFSR\000"
 1222      00
 1223              	.LASF37:
ARM GAS  /tmp/ccN9O0aW.s 			page 24


 1224 024a 4D4D4641 		.ascii	"MMFAR\000"
 1224      5200
 1225              	.LASF50:
 1226 0250 2F686F6D 		.ascii	"/home/z80/projects/stm32f238.git/firmware/testhal/S"
 1226      652F7A38 
 1226      302F7072 
 1226      6F6A6563 
 1226      74732F73 
 1227 0283 544D3332 		.ascii	"TM32F4xx/_serial\000"
 1227      46347878 
 1227      2F5F7365 
 1227      7269616C 
 1227      00
 1228              	.LASF33:
 1229 0294 53484353 		.ascii	"SHCSR\000"
 1229      5200
 1230              	.LASF11:
 1231 029a 75696E74 		.ascii	"uint32_t\000"
 1231      33325F74 
 1231      00
 1232              	.LASF7:
 1233 02a3 6C6F6E67 		.ascii	"long int\000"
 1233      20696E74 
 1233      00
 1234              	.LASF32:
 1235 02ac 53485052 		.ascii	"SHPR\000"
 1235      00
 1236              	.LASF2:
 1237 02b1 6C6F6E67 		.ascii	"long double\000"
 1237      20646F75 
 1237      626C6500 
 1238              	.LASF3:
 1239 02bd 7369676E 		.ascii	"signed char\000"
 1239      65642063 
 1239      68617200 
 1240              	.LASF51:
 1241 02c9 6E766963 		.ascii	"nvicSetSystemHandlerPriority\000"
 1241      53657453 
 1241      79737465 
 1241      6D48616E 
 1241      646C6572 
 1242              	.LASF22:
 1243 02e6 49414252 		.ascii	"IABR\000"
 1243      00
 1244              	.LASF45:
 1245 02eb 6E766963 		.ascii	"nvicEnableVector\000"
 1245      456E6162 
 1245      6C655665 
 1245      63746F72 
 1245      00
 1246              		.ident	"GCC: (GNU Tools for ARM Embedded Processors) 5.2.1 20151202 (release) [ARM/embedded-5-bran
ARM GAS  /tmp/ccN9O0aW.s 			page 25


DEFINED SYMBOLS
                            *ABS*:00000000 nvic.c
     /tmp/ccN9O0aW.s:20     .text.nvicEnableVector:00000000 $t
     /tmp/ccN9O0aW.s:26     .text.nvicEnableVector:00000000 nvicEnableVector
     /tmp/ccN9O0aW.s:85     .text.nvicDisableVector:00000000 $t
     /tmp/ccN9O0aW.s:91     .text.nvicDisableVector:00000000 nvicDisableVector
     /tmp/ccN9O0aW.s:136    .text.nvicDisableVector:0000003c $d
     /tmp/ccN9O0aW.s:141    .text.nvicSetSystemHandlerPriority:00000000 $t
     /tmp/ccN9O0aW.s:147    .text.nvicSetSystemHandlerPriority:00000000 nvicSetSystemHandlerPriority
                     .debug_frame:00000010 $d

NO UNDEFINED SYMBOLS
