ARM GAS  /tmp/ccN9O0aW.s 			page 1


   1              		.syntax unified
   2              		.cpu cortex-m4
   3              		.fpu softvfp
   4              		.eabi_attribute 20, 1
   5              		.eabi_attribute 21, 1
   6              		.eabi_attribute 23, 3
   7              		.eabi_attribute 24, 1
   8              		.eabi_attribute 25, 1
   9              		.eabi_attribute 26, 1
  10              		.eabi_attribute 30, 2
  11              		.eabi_attribute 34, 1
  12              		.eabi_attribute 18, 4
  13              		.thumb
  14              		.syntax unified
  15              		.file	"nvic.c"
  16              		.text
  17              	.Ltext0:
  18              		.cfi_sections	.debug_frame
  19              		.section	.text.nvicEnableVector,"ax",%progbits
  20              		.align	2
  21              		.p2align 4,,15
  22              		.global	nvicEnableVector
  23              		.thumb
  24              		.thumb_func
  25              		.type	nvicEnableVector, %function
  26              	nvicEnableVector:
  27              	.LFB0:
  28              		.file 1 "../../../os/ports/common/ARMCMx/nvic.c"
  29              		.loc 1 46 0
  30              		.cfi_startproc
  31              		@ args = 0, pretend = 0, frame = 0
  32              		@ frame_needed = 0, uses_anonymous_args = 0
  33              		@ link register save eliminated.
  34              	.LVL0:
  35 0000 70B4     		push	{r4, r5, r6}
  36              		.cfi_def_cfa_offset 12
  37              		.cfi_offset 4, -12
  38              		.cfi_offset 5, -8
  39              		.cfi_offset 6, -4
  40 0002 20F00304 		bic	r4, r0, #3
  41 0006 04F16044 		add	r4, r4, #-536870912
  42 000a 04F56144 		add	r4, r4, #57600
  43              		.loc 1 47 0
  44 000e C200     		lsls	r2, r0, #3
  45 0010 4309     		lsrs	r3, r0, #5
  46              		.loc 1 49 0
  47 0012 D4F80053 		ldr	r5, [r4, #768]
  48              		.loc 1 47 0
  49 0016 02F01802 		and	r2, r2, #24
  50              	.LVL1:
  51              		.loc 1 49 0
  52 001a FF26     		movs	r6, #255
  53 001c 9B00     		lsls	r3, r3, #2
  54 001e 9640     		lsls	r6, r6, r2
  55 0020 03F16043 		add	r3, r3, #-536870912
  56 0024 9140     		lsls	r1, r1, r2
  57              	.LVL2:
ARM GAS  /tmp/ccN9O0aW.s 			page 2


  58 0026 03F56143 		add	r3, r3, #57600
  59 002a 25EA0602 		bic	r2, r5, r6
  60              	.LVL3:
  61              		.loc 1 50 0
  62 002e 00F01F00 		and	r0, r0, #31
  63              	.LVL4:
  64 0032 0125     		movs	r5, #1
  65 0034 05FA00F0 		lsl	r0, r5, r0
  66              		.loc 1 49 0
  67 0038 1143     		orrs	r1, r1, r2
  68 003a C4F80013 		str	r1, [r4, #768]
  69              		.loc 1 50 0
  70 003e C3F88001 		str	r0, [r3, #384]
  71              		.loc 1 52 0
  72 0042 70BC     		pop	{r4, r5, r6}
  73              		.cfi_restore 6
  74              		.cfi_restore 5
  75              		.cfi_restore 4
  76              		.cfi_def_cfa_offset 0
  77              		.loc 1 51 0
  78 0044 1860     		str	r0, [r3]
  79              		.loc 1 52 0
  80 0046 7047     		bx	lr
  81              		.cfi_endproc
  82              	.LFE0:
  83              		.size	nvicEnableVector, .-nvicEnableVector
  84              		.section	.text.nvicDisableVector,"ax",%progbits
  85              		.align	2
  86              		.p2align 4,,15
  87              		.global	nvicDisableVector
  88              		.thumb
  89              		.thumb_func
  90              		.type	nvicDisableVector, %function
  91              	nvicDisableVector:
  92              	.LFB1:
  93              		.loc 1 60 0
  94              		.cfi_startproc
  95              		@ args = 0, pretend = 0, frame = 0
  96              		@ frame_needed = 0, uses_anonymous_args = 0
  97              		@ link register save eliminated.
  98              	.LVL5:
  99              		.loc 1 63 0
 100 0000 4209     		lsrs	r2, r0, #5
 101              		.loc 1 60 0
 102 0002 30B4     		push	{r4, r5}
 103              		.cfi_def_cfa_offset 8
 104              		.cfi_offset 4, -8
 105              		.cfi_offset 5, -4
 106              		.loc 1 63 0
 107 0004 2032     		adds	r2, r2, #32
 108 0006 00F01F05 		and	r5, r0, #31
 109 000a 0C4C     		ldr	r4, .L5
 110 000c 20F00303 		bic	r3, r0, #3
 111 0010 0121     		movs	r1, #1
 112 0012 A940     		lsls	r1, r1, r5
 113 0014 03F16043 		add	r3, r3, #-536870912
 114 0018 44F82210 		str	r1, [r4, r2, lsl #2]
ARM GAS  /tmp/ccN9O0aW.s 			page 3


 115 001c 03F56143 		add	r3, r3, #57600
 116              		.loc 1 64 0
 117 0020 C000     		lsls	r0, r0, #3
 118              	.LVL6:
 119 0022 D3F80023 		ldr	r2, [r3, #768]
 120 0026 00F01800 		and	r0, r0, #24
 121              	.LVL7:
 122 002a FF21     		movs	r1, #255
 123 002c 01FA00F0 		lsl	r0, r1, r0
 124              	.LVL8:
 125 0030 22EA0000 		bic	r0, r2, r0
 126 0034 C3F80003 		str	r0, [r3, #768]
 127              		.loc 1 65 0
 128 0038 30BC     		pop	{r4, r5}
 129              		.cfi_restore 5
 130              		.cfi_restore 4
 131              		.cfi_def_cfa_offset 0
 132 003a 7047     		bx	lr
 133              	.L6:
 134              		.align	2
 135              	.L5:
 136 003c 00E100E0 		.word	-536813312
 137              		.cfi_endproc
 138              	.LFE1:
 139              		.size	nvicDisableVector, .-nvicDisableVector
 140              		.section	.text.nvicSetSystemHandlerPriority,"ax",%progbits
 141              		.align	2
 142              		.p2align 4,,15
 143              		.global	nvicSetSystemHandlerPriority
 144              		.thumb
 145              		.thumb_func
 146              		.type	nvicSetSystemHandlerPriority, %function
 147              	nvicSetSystemHandlerPriority:
 148              	.LFB2:
 149              		.loc 1 74 0
 150              		.cfi_startproc
 151              		@ args = 0, pretend = 0, frame = 0
 152              		@ frame_needed = 0, uses_anonymous_args = 0
 153              		@ link register save eliminated.
 154              	.LVL9:
 155 0000 20F00303 		bic	r3, r0, #3
 156 0004 03F16043 		add	r3, r3, #-536870912
 157 0008 03F56D43 		add	r3, r3, #60672
 158              		.loc 1 75 0
 159 000c 00F00300 		and	r0, r0, #3
 160              	.LVL10:
 161              		.loc 1 74 0
 162 0010 10B4     		push	{r4}
 163              		.cfi_def_cfa_offset 4
 164              		.cfi_offset 4, -4
 165              		.loc 1 75 0
 166 0012 C000     		lsls	r0, r0, #3
 167              	.LVL11:
 168              		.loc 1 77 0
 169 0014 9A69     		ldr	r2, [r3, #24]
 170              		.loc 1 78 0
 171 0016 FF24     		movs	r4, #255
ARM GAS  /tmp/ccN9O0aW.s 			page 4


 172 0018 8440     		lsls	r4, r4, r0
 173 001a 8140     		lsls	r1, r1, r0
 174              	.LVL12:
 175 001c 22EA0400 		bic	r0, r2, r4
 176              	.LVL13:
 177 0020 0843     		orrs	r0, r0, r1
 178              		.loc 1 77 0
 179 0022 9861     		str	r0, [r3, #24]
 180              		.loc 1 79 0
 181 0024 10BC     		pop	{r4}
 182              		.cfi_restore 4
 183              		.cfi_def_cfa_offset 0
 184 0026 7047     		bx	lr
 185              		.cfi_endproc
 186              	.LFE2:
 187              		.size	nvicSetSystemHandlerPriority, .-nvicSetSystemHandlerPriority
 188              		.text
 189              	.Letext0:
 190              		.file 2 "/home/z80/programs/sw4stm32/plugins/fr.ac6.mcu.externaltools.arm-none.linux32_1.7.0.20160
 191              		.file 3 "/home/z80/programs/sw4stm32/plugins/fr.ac6.mcu.externaltools.arm-none.linux32_1.7.0.20160
 192              		.file 4 "../../../os/ports/common/ARMCMx/nvic.h"