ARM GAS  /tmp/ccm9fKtd.s 			page 1


   1              		.syntax unified
   2              		.cpu cortex-m4
   3              		.fpu softvfp
   4              		.eabi_attribute 20, 1
   5              		.eabi_attribute 21, 1
   6              		.eabi_attribute 23, 3
   7              		.eabi_attribute 24, 1
   8              		.eabi_attribute 25, 1
   9              		.eabi_attribute 26, 1
  10              		.eabi_attribute 30, 2
  11              		.eabi_attribute 34, 1
  12              		.eabi_attribute 18, 4
  13              		.thumb
  14              		.syntax unified
  15              		.file	"pal.c"
  16              		.text
  17              	.Ltext0:
  18              		.cfi_sections	.debug_frame
  19              		.section	.text.palReadBus,"ax",%progbits
  20              		.align	2
  21              		.p2align 4,,15
  22              		.global	palReadBus
  23              		.thumb
  24              		.thumb_func
  25              		.type	palReadBus, %function
  26              	palReadBus:
  27              	.LFB111:
  28              		.file 1 "../../../os/hal/src/pal.c"
  29              		.loc 1 77 0
  30              		.cfi_startproc
  31              		@ args = 0, pretend = 0, frame = 0
  32              		@ frame_needed = 0, uses_anonymous_args = 0
  33              	.LVL0:
  34 0000 10B5     		push	{r4, lr}
  35              		.cfi_def_cfa_offset 8
  36              		.cfi_offset 4, -8
  37              		.cfi_offset 14, -4
  38              		.loc 1 79 0
  39 0002 0446     		mov	r4, r0
  40 0004 10B1     		cbz	r0, .L2
  41              		.loc 1 79 0 is_stmt 0 discriminator 2
  42 0006 8268     		ldr	r2, [r0, #8]
  43 0008 0F2A     		cmp	r2, #15
  44 000a 03D9     		bls	.L3
  45              	.L2:
  46              		.loc 1 79 0 discriminator 3
  47 000c 0448     		ldr	r0, .L9
  48              	.LVL1:
  49 000e FFF7FEFF 		bl	chDbgPanic
  50              	.LVL2:
  51 0012 A268     		ldr	r2, [r4, #8]
  52              	.L3:
  53              		.loc 1 82 0 is_stmt 1
  54 0014 2368     		ldr	r3, [r4]
  55 0016 6068     		ldr	r0, [r4, #4]
  56 0018 1B69     		ldr	r3, [r3, #16]
  57 001a D340     		lsrs	r3, r3, r2
ARM GAS  /tmp/ccm9fKtd.s 			page 2


  58              		.loc 1 83 0
  59 001c 1840     		ands	r0, r0, r3
  60 001e 10BD     		pop	{r4, pc}
  61              	.LVL3:
  62              	.L10:
  63              		.align	2
  64              	.L9:
  65 0020 00000000 		.word	.LC0
  66              		.cfi_endproc
  67              	.LFE111:
  68              		.size	palReadBus, .-palReadBus
  69              		.section	.text.palWriteBus,"ax",%progbits
  70              		.align	2
  71              		.p2align 4,,15
  72              		.global	palWriteBus
  73              		.thumb
  74              		.thumb_func
  75              		.type	palWriteBus, %function
  76              	palWriteBus:
  77              	.LFB112:
  78              		.loc 1 103 0
  79              		.cfi_startproc
  80              		@ args = 0, pretend = 0, frame = 0
  81              		@ frame_needed = 0, uses_anonymous_args = 0
  82              	.LVL4:
  83 0000 38B5     		push	{r3, r4, r5, lr}
  84              		.cfi_def_cfa_offset 16
  85              		.cfi_offset 3, -16
  86              		.cfi_offset 4, -12
  87              		.cfi_offset 5, -8
  88              		.cfi_offset 14, -4
  89              		.loc 1 103 0
  90 0002 0D46     		mov	r5, r1
  91              		.loc 1 105 0
  92 0004 0446     		mov	r4, r0
  93 0006 10B1     		cbz	r0, .L12
  94              		.loc 1 105 0 is_stmt 0 discriminator 2
  95 0008 8268     		ldr	r2, [r0, #8]
  96 000a 0F2A     		cmp	r2, #15
  97 000c 03D9     		bls	.L13
  98              	.L12:
  99              		.loc 1 105 0 discriminator 3
 100 000e 0948     		ldr	r0, .L18
 101              	.LVL5:
 102 0010 FFF7FEFF 		bl	chDbgPanic
 103              	.LVL6:
 104 0014 A268     		ldr	r2, [r4, #8]
 105              	.L13:
 106              		.loc 1 108 0 is_stmt 1
 107 0016 6368     		ldr	r3, [r4, #4]
 108 0018 2468     		ldr	r4, [r4]
 109              	.LVL7:
 110 001a 23EA0500 		bic	r0, r3, r5
 111 001e 05EA0301 		and	r1, r5, r3
 112 0022 02F11003 		add	r3, r2, #16
 113 0026 9140     		lsls	r1, r1, r2
 114 0028 00FA03F3 		lsl	r3, r0, r3
ARM GAS  /tmp/ccm9fKtd.s 			page 3


 115 002c 0B43     		orrs	r3, r3, r1
 116 002e A361     		str	r3, [r4, #24]
 117 0030 38BD     		pop	{r3, r4, r5, pc}
 118              	.LVL8:
 119              	.L19:
 120 0032 00BF     		.align	2
 121              	.L18:
 122 0034 10000000 		.word	.LC1
 123              		.cfi_endproc
 124              	.LFE112:
 125              		.size	palWriteBus, .-palWriteBus
 126              		.section	.text.palSetBusMode,"ax",%progbits
 127              		.align	2
 128              		.p2align 4,,15
 129              		.global	palSetBusMode
 130              		.thumb
 131              		.thumb_func
 132              		.type	palSetBusMode, %function
 133              	palSetBusMode:
 134              	.LFB113:
 135              		.loc 1 127 0
 136              		.cfi_startproc
 137              		@ args = 0, pretend = 0, frame = 0
 138              		@ frame_needed = 0, uses_anonymous_args = 0
 139              	.LVL9:
 140 0000 70B5     		push	{r4, r5, r6, lr}
 141              		.cfi_def_cfa_offset 16
 142              		.cfi_offset 4, -16
 143              		.cfi_offset 5, -12
 144              		.cfi_offset 6, -8
 145              		.cfi_offset 14, -4
 146              		.loc 1 127 0
 147 0002 0E46     		mov	r6, r1
 148              		.loc 1 129 0
 149 0004 0446     		mov	r4, r0
 150 0006 10B1     		cbz	r0, .L21
 151              		.loc 1 129 0 is_stmt 0 discriminator 2
 152 0008 8168     		ldr	r1, [r0, #8]
 153              	.LVL10:
 154 000a 0F29     		cmp	r1, #15
 155 000c 03D9     		bls	.L22
 156              	.L21:
 157              		.loc 1 129 0 discriminator 3
 158 000e 0648     		ldr	r0, .L27
 159              	.LVL11:
 160 0010 FFF7FEFF 		bl	chDbgPanic
 161              	.LVL12:
 162 0014 A168     		ldr	r1, [r4, #8]
 163              	.L22:
 164              		.loc 1 132 0 is_stmt 1
 165 0016 94E82100 		ldmia	r4, {r0, r5}
 166 001a 3246     		mov	r2, r6
 167 001c 05FA01F1 		lsl	r1, r5, r1
 168              		.loc 1 133 0
 169 0020 BDE87040 		pop	{r4, r5, r6, lr}
 170              		.cfi_restore 14
 171              		.cfi_restore 6
ARM GAS  /tmp/ccm9fKtd.s 			page 4


 172              		.cfi_restore 5
 173              		.cfi_restore 4
 174              		.cfi_def_cfa_offset 0
 175              	.LVL13:
 176              		.loc 1 132 0
 177 0024 FFF7FEBF 		b	_pal_lld_setgroupmode
 178              	.LVL14:
 179              	.L28:
 180              		.align	2
 181              	.L27:
 182 0028 20000000 		.word	.LC2
 183              		.cfi_endproc
 184              	.LFE113:
 185              		.size	palSetBusMode, .-palSetBusMode
 186              		.section	.rodata.str1.4,"aMS",%progbits,1
 187              		.align	2
 188              	.LC0:
 189 0000 2270616C 		.ascii	"\"palReadBus\"()\000"
 189      52656164 
 189      42757322 
 189      282900
 190 000f 00       		.space	1
 191              	.LC1:
 192 0010 2270616C 		.ascii	"\"palWriteBus\"()\000"
 192      57726974 
 192      65427573 
 192      22282900 
 193              	.LC2:
 194 0020 2270616C 		.ascii	"\"palSetBusMode\"()\000"
 194      53657442 
 194      75734D6F 
 194      64652228 
 194      2900
 195              		.text
 196              	.Letext0:
 197              		.file 2 "/home/z80/programs/sw4stm32/plugins/fr.ac6.mcu.externaltools.arm-none.linux32_1.7.0.20160
 198              		.file 3 "/home/z80/programs/sw4stm32/plugins/fr.ac6.mcu.externaltools.arm-none.linux32_1.7.0.20160
 199              		.file 4 "/home/z80/programs/sw4stm32/plugins/fr.ac6.mcu.externaltools.arm-none.linux32_1.7.0.20160
 200              		.file 5 "../../../os/hal/platforms/STM32/GPIOv2/pal_lld.h"
 201              		.file 6 "../../../os/hal/include/pal.h"
 202              		.file 7 "../../../os/kernel/include/chdebug.h"
 203              		.file 8 "../../../os/ports/common/ARMCMx/CMSIS/include/core_cm4.h"