ARM GAS  /tmp/cchCJuIg.s 			page 1


   1              		.syntax unified
   2              		.cpu cortex-m4
   3              		.fpu softvfp
   4              		.eabi_attribute 20, 1
   5              		.eabi_attribute 21, 1
   6              		.eabi_attribute 23, 3
   7              		.eabi_attribute 24, 1
   8              		.eabi_attribute 25, 1
   9              		.eabi_attribute 26, 1
  10              		.eabi_attribute 30, 2
  11              		.eabi_attribute 34, 1
  12              		.eabi_attribute 18, 4
  13              		.thumb
  14              		.syntax unified
  15              		.file	"pal_lld.c"
  16              		.text
  17              	.Ltext0:
  18              		.cfi_sections	.debug_frame
  19              		.section	.text._pal_lld_init,"ax",%progbits
  20              		.align	2
  21              		.p2align 4,,15
  22              		.global	_pal_lld_init
  23              		.thumb
  24              		.thumb_func
  25              		.type	_pal_lld_init, %function
  26              	_pal_lld_init:
  27              	.LFB112:
  28              		.file 1 "../../../os/hal/platforms/STM32/GPIOv2/pal_lld.c"
  29              		.loc 1 113 0
  30              		.cfi_startproc
  31              		@ args = 0, pretend = 0, frame = 0
  32              		@ frame_needed = 0, uses_anonymous_args = 0
  33              		@ link register save eliminated.
  34              	.LVL0:
  35 0000 F0B4     		push	{r4, r5, r6, r7}
  36              		.cfi_def_cfa_offset 16
  37              		.cfi_offset 4, -16
  38              		.cfi_offset 5, -12
  39              		.cfi_offset 6, -8
  40              		.cfi_offset 7, -4
  41              		.loc 1 126 0
  42 0002 654D     		ldr	r5, .L3
  43              	.LBB20:
  44              	.LBB21:
  45              		.loc 1 88 0
  46 0004 654C     		ldr	r4, .L3+4
  47              	.LBE21:
  48              	.LBE20:
  49              		.loc 1 126 0
  50 0006 2F6B     		ldr	r7, [r5, #48]
  51              	.LBB23:
  52              	.LBB24:
  53              		.loc 1 88 0
  54 0008 6549     		ldr	r1, .L3+8
  55              	.LBE24:
  56              	.LBE23:
  57              	.LBB26:
ARM GAS  /tmp/cchCJuIg.s 			page 2


  58              	.LBB27:
  59 000a 664A     		ldr	r2, .L3+12
  60              	.LBE27:
  61              	.LBE26:
  62              	.LBB29:
  63              	.LBB30:
  64 000c 664B     		ldr	r3, .L3+16
  65              	.LBE30:
  66              	.LBE29:
  67              		.loc 1 126 0
  68 000e 40F2FF16 		movw	r6, #511
  69 0012 3743     		orrs	r7, r7, r6
  70 0014 2F63     		str	r7, [r5, #48]
  71              		.loc 1 127 0
  72 0016 2F6D     		ldr	r7, [r5, #80]
  73 0018 3E43     		orrs	r6, r6, r7
  74 001a 2E65     		str	r6, [r5, #80]
  75              	.LVL1:
  76              	.LBB32:
  77              	.LBB22:
  78              		.loc 1 88 0
  79 001c 4568     		ldr	r5, [r0, #4]
  80 001e 6560     		str	r5, [r4, #4]
  81              		.loc 1 89 0
  82 0020 8568     		ldr	r5, [r0, #8]
  83 0022 A560     		str	r5, [r4, #8]
  84              		.loc 1 90 0
  85 0024 C568     		ldr	r5, [r0, #12]
  86 0026 E560     		str	r5, [r4, #12]
  87              		.loc 1 91 0
  88 0028 0569     		ldr	r5, [r0, #16]
  89 002a 6561     		str	r5, [r4, #20]
  90              		.loc 1 92 0
  91 002c 4569     		ldr	r5, [r0, #20]
  92 002e 2562     		str	r5, [r4, #32]
  93              		.loc 1 93 0
  94 0030 8569     		ldr	r5, [r0, #24]
  95 0032 6562     		str	r5, [r4, #36]
  96              		.loc 1 94 0
  97 0034 0568     		ldr	r5, [r0]
  98 0036 2560     		str	r5, [r4]
  99              	.LVL2:
 100              	.LBE22:
 101              	.LBE32:
 102              	.LBB33:
 103              	.LBB25:
 104              		.loc 1 88 0
 105 0038 046A     		ldr	r4, [r0, #32]
 106 003a 4C60     		str	r4, [r1, #4]
 107              		.loc 1 89 0
 108 003c 446A     		ldr	r4, [r0, #36]
 109 003e 8C60     		str	r4, [r1, #8]
 110              		.loc 1 90 0
 111 0040 846A     		ldr	r4, [r0, #40]
 112 0042 CC60     		str	r4, [r1, #12]
 113              		.loc 1 91 0
 114 0044 C46A     		ldr	r4, [r0, #44]
ARM GAS  /tmp/cchCJuIg.s 			page 3


 115 0046 4C61     		str	r4, [r1, #20]
 116              		.loc 1 92 0
 117 0048 046B     		ldr	r4, [r0, #48]
 118 004a 0C62     		str	r4, [r1, #32]
 119              		.loc 1 93 0
 120 004c 446B     		ldr	r4, [r0, #52]
 121 004e 4C62     		str	r4, [r1, #36]
 122              		.loc 1 94 0
 123 0050 C469     		ldr	r4, [r0, #28]
 124 0052 0C60     		str	r4, [r1]
 125              	.LVL3:
 126              	.LBE25:
 127              	.LBE33:
 128              	.LBB34:
 129              	.LBB28:
 130              		.loc 1 88 0
 131 0054 C16B     		ldr	r1, [r0, #60]
 132 0056 5160     		str	r1, [r2, #4]
 133              		.loc 1 89 0
 134 0058 016C     		ldr	r1, [r0, #64]
 135 005a 9160     		str	r1, [r2, #8]
 136              		.loc 1 90 0
 137 005c 416C     		ldr	r1, [r0, #68]
 138 005e D160     		str	r1, [r2, #12]
 139              		.loc 1 91 0
 140 0060 816C     		ldr	r1, [r0, #72]
 141 0062 5161     		str	r1, [r2, #20]
 142              		.loc 1 92 0
 143 0064 C16C     		ldr	r1, [r0, #76]
 144 0066 1162     		str	r1, [r2, #32]
 145              		.loc 1 93 0
 146 0068 016D     		ldr	r1, [r0, #80]
 147 006a 5162     		str	r1, [r2, #36]
 148              		.loc 1 94 0
 149 006c 816B     		ldr	r1, [r0, #56]
 150 006e 1160     		str	r1, [r2]
 151              	.LVL4:
 152              	.LBE28:
 153              	.LBE34:
 154              	.LBB35:
 155              	.LBB31:
 156              		.loc 1 88 0
 157 0070 826D     		ldr	r2, [r0, #88]
 158 0072 5A60     		str	r2, [r3, #4]
 159              		.loc 1 89 0
 160 0074 C26D     		ldr	r2, [r0, #92]
 161 0076 9A60     		str	r2, [r3, #8]
 162              		.loc 1 90 0
 163 0078 026E     		ldr	r2, [r0, #96]
 164 007a DA60     		str	r2, [r3, #12]
 165              		.loc 1 91 0
 166 007c 426E     		ldr	r2, [r0, #100]
 167 007e 5A61     		str	r2, [r3, #20]
 168              		.loc 1 92 0
 169 0080 826E     		ldr	r2, [r0, #104]
 170 0082 1A62     		str	r2, [r3, #32]
 171              		.loc 1 93 0
ARM GAS  /tmp/cchCJuIg.s 			page 4


 172 0084 C26E     		ldr	r2, [r0, #108]
 173 0086 5A62     		str	r2, [r3, #36]
 174              		.loc 1 94 0
 175 0088 426D     		ldr	r2, [r0, #84]
 176 008a 1A60     		str	r2, [r3]
 177              	.LVL5:
 178              	.LBE31:
 179              	.LBE35:
 180              	.LBB36:
 181              	.LBB37:
 182              		.loc 1 88 0
 183 008c 426F     		ldr	r2, [r0, #116]
 184 008e C3F80424 		str	r2, [r3, #1028]
 185              		.loc 1 89 0
 186 0092 826F     		ldr	r2, [r0, #120]
 187 0094 C3F80824 		str	r2, [r3, #1032]
 188              		.loc 1 90 0
 189 0098 C26F     		ldr	r2, [r0, #124]
 190 009a C3F80C24 		str	r2, [r3, #1036]
 191              		.loc 1 91 0
 192 009e D0F88020 		ldr	r2, [r0, #128]
 193 00a2 C3F81424 		str	r2, [r3, #1044]
 194              		.loc 1 92 0
 195 00a6 D0F88420 		ldr	r2, [r0, #132]
 196 00aa C3F82024 		str	r2, [r3, #1056]
 197              		.loc 1 93 0
 198 00ae D0F88820 		ldr	r2, [r0, #136]
 199 00b2 C3F82424 		str	r2, [r3, #1060]
 200              		.loc 1 94 0
 201 00b6 026F     		ldr	r2, [r0, #112]
 202 00b8 C3F80024 		str	r2, [r3, #1024]
 203              	.LVL6:
 204              	.LBE37:
 205              	.LBE36:
 206              	.LBB38:
 207              	.LBB39:
 208              		.loc 1 88 0
 209 00bc D0F89020 		ldr	r2, [r0, #144]
 210 00c0 C3F80428 		str	r2, [r3, #2052]
 211              		.loc 1 89 0
 212 00c4 D0F89420 		ldr	r2, [r0, #148]
 213 00c8 C3F80828 		str	r2, [r3, #2056]
 214              		.loc 1 90 0
 215 00cc D0F89820 		ldr	r2, [r0, #152]
 216 00d0 C3F80C28 		str	r2, [r3, #2060]
 217              		.loc 1 91 0
 218 00d4 D0F89C20 		ldr	r2, [r0, #156]
 219 00d8 C3F81428 		str	r2, [r3, #2068]
 220              		.loc 1 92 0
 221 00dc D0F8A020 		ldr	r2, [r0, #160]
 222 00e0 C3F82028 		str	r2, [r3, #2080]
 223              		.loc 1 93 0
 224 00e4 D0F8A420 		ldr	r2, [r0, #164]
 225 00e8 C3F82428 		str	r2, [r3, #2084]
 226              		.loc 1 94 0
 227 00ec D0F88C20 		ldr	r2, [r0, #140]
 228 00f0 C3F80028 		str	r2, [r3, #2048]
ARM GAS  /tmp/cchCJuIg.s 			page 5


 229              	.LVL7:
 230              	.LBE39:
 231              	.LBE38:
 232              	.LBB40:
 233              	.LBB41:
 234              		.loc 1 88 0
 235 00f4 03F54063 		add	r3, r3, #3072
 236 00f8 D0F8AC20 		ldr	r2, [r0, #172]
 237 00fc 5A60     		str	r2, [r3, #4]
 238              		.loc 1 89 0
 239 00fe D0F8B020 		ldr	r2, [r0, #176]
 240 0102 9A60     		str	r2, [r3, #8]
 241              		.loc 1 90 0
 242 0104 D0F8B420 		ldr	r2, [r0, #180]
 243 0108 DA60     		str	r2, [r3, #12]
 244              		.loc 1 91 0
 245 010a D0F8B820 		ldr	r2, [r0, #184]
 246 010e 5A61     		str	r2, [r3, #20]
 247              		.loc 1 92 0
 248 0110 D0F8BC20 		ldr	r2, [r0, #188]
 249 0114 1A62     		str	r2, [r3, #32]
 250              		.loc 1 93 0
 251 0116 D0F8C020 		ldr	r2, [r0, #192]
 252 011a 5A62     		str	r2, [r3, #36]
 253              		.loc 1 94 0
 254 011c D0F8A820 		ldr	r2, [r0, #168]
 255 0120 1A60     		str	r2, [r3]
 256              	.LVL8:
 257              	.LBE41:
 258              	.LBE40:
 259              	.LBB42:
 260              	.LBB43:
 261              		.loc 1 88 0
 262 0122 D0F8C820 		ldr	r2, [r0, #200]
 263 0126 C3F80424 		str	r2, [r3, #1028]
 264              		.loc 1 89 0
 265 012a D0F8CC20 		ldr	r2, [r0, #204]
 266 012e C3F80824 		str	r2, [r3, #1032]
 267              		.loc 1 90 0
 268 0132 D0F8D020 		ldr	r2, [r0, #208]
 269 0136 C3F80C24 		str	r2, [r3, #1036]
 270              		.loc 1 91 0
 271 013a D0F8D420 		ldr	r2, [r0, #212]
 272 013e C3F81424 		str	r2, [r3, #1044]
 273              		.loc 1 92 0
 274 0142 D0F8D820 		ldr	r2, [r0, #216]
 275 0146 C3F82024 		str	r2, [r3, #1056]
 276              		.loc 1 93 0
 277 014a D0F8DC20 		ldr	r2, [r0, #220]
 278 014e C3F82424 		str	r2, [r3, #1060]
 279              		.loc 1 94 0
 280 0152 D0F8C420 		ldr	r2, [r0, #196]
 281 0156 C3F80024 		str	r2, [r3, #1024]
 282              	.LVL9:
 283              	.LBE43:
 284              	.LBE42:
 285              	.LBB44:
ARM GAS  /tmp/cchCJuIg.s 			page 6


 286              	.LBB45:
 287              		.loc 1 88 0
 288 015a D0F8E420 		ldr	r2, [r0, #228]
 289 015e C3F80428 		str	r2, [r3, #2052]
 290              		.loc 1 89 0
 291 0162 D0F8E820 		ldr	r2, [r0, #232]
 292 0166 C3F80828 		str	r2, [r3, #2056]
 293              		.loc 1 90 0
 294 016a D0F8EC20 		ldr	r2, [r0, #236]
 295 016e C3F80C28 		str	r2, [r3, #2060]
 296              		.loc 1 91 0
 297 0172 D0F8F020 		ldr	r2, [r0, #240]
 298 0176 C3F81428 		str	r2, [r3, #2068]
 299              		.loc 1 92 0
 300 017a D0F8F420 		ldr	r2, [r0, #244]
 301 017e C3F82028 		str	r2, [r3, #2080]
 302              		.loc 1 93 0
 303 0182 D0F8F820 		ldr	r2, [r0, #248]
 304 0186 C3F82428 		str	r2, [r3, #2084]
 305              		.loc 1 94 0
 306 018a D0F8E020 		ldr	r2, [r0, #224]
 307 018e C3F80028 		str	r2, [r3, #2048]
 308              	.LVL10:
 309              	.LBE45:
 310              	.LBE44:
 311              		.loc 1 160 0
 312 0192 F0BC     		pop	{r4, r5, r6, r7}
 313              		.cfi_restore 7
 314              		.cfi_restore 6
 315              		.cfi_restore 5
 316              		.cfi_restore 4
 317              		.cfi_def_cfa_offset 0
 318 0194 7047     		bx	lr
 319              	.L4:
 320 0196 00BF     		.align	2
 321              	.L3:
 322 0198 00380240 		.word	1073887232
 323 019c 00000240 		.word	1073872896
 324 01a0 00040240 		.word	1073873920
 325 01a4 00080240 		.word	1073874944
 326 01a8 000C0240 		.word	1073875968
 327              		.cfi_endproc
 328              	.LFE112:
 329              		.size	_pal_lld_init, .-_pal_lld_init
 330              		.section	.text._pal_lld_setgroupmode,"ax",%progbits
 331              		.align	2
 332              		.p2align 4,,15
 333              		.global	_pal_lld_setgroupmode
 334              		.thumb
 335              		.thumb_func
 336              		.type	_pal_lld_setgroupmode, %function
 337              	_pal_lld_setgroupmode:
 338              	.LFB113:
 339              		.loc 1 178 0
 340              		.cfi_startproc
 341              		@ args = 0, pretend = 0, frame = 0
 342              		@ frame_needed = 0, uses_anonymous_args = 0
ARM GAS  /tmp/cchCJuIg.s 			page 7


 343              	.LVL11:
 344 0000 2DE9F04F 		push	{r4, r5, r6, r7, r8, r9, r10, fp, lr}
 345              		.cfi_def_cfa_offset 36
 346              		.cfi_offset 4, -36
 347              		.cfi_offset 5, -32
 348              		.cfi_offset 6, -28
 349              		.cfi_offset 7, -24
 350              		.cfi_offset 8, -20
 351              		.cfi_offset 9, -16
 352              		.cfi_offset 10, -12
 353              		.cfi_offset 11, -8
 354              		.cfi_offset 14, -4
 355              	.LBB46:
 356              		.loc 1 191 0
 357 0004 4FF00F0C 		mov	ip, #15
 358              	.LBE46:
 359              		.loc 1 180 0
 360 0008 02F0030E 		and	lr, r2, #3
 361              	.LVL12:
 362              		.loc 1 181 0
 363 000c C2F38007 		ubfx	r7, r2, #2, #1
 364              	.LVL13:
 365              		.loc 1 182 0
 366 0010 C2F3C106 		ubfx	r6, r2, #3, #2
 367              	.LVL14:
 368              		.loc 1 183 0
 369 0014 C2F34115 		ubfx	r5, r2, #5, #2
 370              	.LVL15:
 371              		.loc 1 185 0
 372 0018 0024     		movs	r4, #0
 373              		.loc 1 184 0
 374 001a C2F3C312 		ubfx	r2, r2, #7, #4
 375              	.LVL16:
 376              	.LBB47:
 377              		.loc 1 197 0
 378 001e 4FF00109 		mov	r9, #1
 379              		.loc 1 199 0
 380 0022 4FF00308 		mov	r8, #3
 381 0026 30E0     		b	.L10
 382              	.LVL17:
 383              	.L16:
 384              		.loc 1 193 0
 385 0028 D0F820B0 		ldr	fp, [r0, #32]
 386 002c 2BEA0303 		bic	r3, fp, r3
 387              	.LVL18:
 388 0030 43EA0A03 		orr	r3, r3, r10
 389 0034 0362     		str	r3, [r0, #32]
 390              	.L8:
 391              	.LVL19:
 392              		.loc 1 197 0
 393 0036 4368     		ldr	r3, [r0, #4]
 394 0038 09FA04FA 		lsl	r10, r9, r4
 395              	.LVL20:
 396 003c 23EA0A03 		bic	r3, r3, r10
 397 0040 3B43     		orrs	r3, r3, r7
 398 0042 4360     		str	r3, [r0, #4]
 399              	.LVL21:
ARM GAS  /tmp/cchCJuIg.s 			page 8


 400              		.loc 1 199 0
 401 0044 6300     		lsls	r3, r4, #1
 402 0046 D0F808A0 		ldr	r10, [r0, #8]
 403 004a 08FA03F3 		lsl	r3, r8, r3
 404 004e DB43     		mvns	r3, r3
 405 0050 0AEA030A 		and	r10, r10, r3
 406 0054 4AEA060A 		orr	r10, r10, r6
 407 0058 C0F808A0 		str	r10, [r0, #8]
 408              		.loc 1 200 0
 409 005c D0F80CA0 		ldr	r10, [r0, #12]
 410 0060 03EA0A0A 		and	r10, r3, r10
 411 0064 4AEA050A 		orr	r10, r10, r5
 412 0068 C0F80CA0 		str	r10, [r0, #12]
 413              		.loc 1 201 0
 414 006c D0F800A0 		ldr	r10, [r0]
 415 0070 03EA0A03 		and	r3, r3, r10
 416 0074 43EA0E03 		orr	r3, r3, lr
 417 0078 0360     		str	r3, [r0]
 418              	.LVL22:
 419              	.L6:
 420              	.LBE47:
 421              		.loc 1 204 0
 422 007a 4908     		lsrs	r1, r1, #1
 423              	.LVL23:
 424 007c 19D0     		beq	.L5
 425              		.loc 1 206 0
 426 007e 7F00     		lsls	r7, r7, #1
 427              	.LVL24:
 428              		.loc 1 207 0
 429 0080 B600     		lsls	r6, r6, #2
 430              	.LVL25:
 431              		.loc 1 208 0
 432 0082 AD00     		lsls	r5, r5, #2
 433              	.LVL26:
 434              		.loc 1 209 0
 435 0084 4FEA8E0E 		lsl	lr, lr, #2
 436              	.LVL27:
 437              		.loc 1 210 0
 438 0088 0134     		adds	r4, r4, #1
 439              	.LVL28:
 440              	.L10:
 441              	.LBB48:
 442              		.loc 1 190 0
 443 008a 04F00703 		and	r3, r4, #7
 444 008e 9B00     		lsls	r3, r3, #2
 445              	.LBE48:
 446              		.loc 1 187 0
 447 0090 11F0010F 		tst	r1, #1
 448              	.LBB49:
 449              		.loc 1 190 0
 450 0094 02FA03FA 		lsl	r10, r2, r3
 451              	.LVL29:
 452              		.loc 1 191 0
 453 0098 0CFA03F3 		lsl	r3, ip, r3
 454              	.LVL30:
 455              	.LBE49:
 456              		.loc 1 187 0
ARM GAS  /tmp/cchCJuIg.s 			page 9


 457 009c EDD0     		beq	.L6
 458              	.LBB50:
 459              		.loc 1 192 0
 460 009e 072C     		cmp	r4, #7
 461 00a0 C2D9     		bls	.L16
 462              		.loc 1 195 0
 463 00a2 D0F824B0 		ldr	fp, [r0, #36]
 464 00a6 2BEA0303 		bic	r3, fp, r3
 465              	.LVL31:
 466 00aa 43EA0A03 		orr	r3, r3, r10
 467 00ae 4362     		str	r3, [r0, #36]
 468 00b0 C1E7     		b	.L8
 469              	.LVL32:
 470              	.L5:
 471 00b2 BDE8F08F 		pop	{r4, r5, r6, r7, r8, r9, r10, fp, pc}
 472              	.LBE50:
 473              		.cfi_endproc
 474              	.LFE113:
 475              		.size	_pal_lld_setgroupmode, .-_pal_lld_setgroupmode
 476 00b6 00BF     		.text
 477              	.Letext0:
 478              		.file 2 "/home/z80/programs/sw4stm32/plugins/fr.ac6.mcu.externaltools.arm-none.linux32_1.7.0.20160
 479              		.file 3 "/home/z80/programs/sw4stm32/plugins/fr.ac6.mcu.externaltools.arm-none.linux32_1.7.0.20160
 480              		.file 4 "../../../os/hal/platforms/STM32F4xx/stm32f4xx.h"
 481              		.file 5 "../../../os/hal/platforms/STM32/GPIOv2/pal_lld.h"
 482              		.file 6 "../../../os/ports/common/ARMCMx/CMSIS/include/core_cm4.h"
 483              		.section	.debug_info,"",%progbits
 484              	.Ldebug_info0:
 485 0000 FB060000 		.4byte	0x6fb
 486 0004 0400     		.2byte	0x4
 487 0006 00000000 		.4byte	.Ldebug_abbrev0
 488 000a 04       		.byte	0x4
 489 000b 01       		.uleb128 0x1
 490 000c 1E030000 		.4byte	.LASF88
 491 0010 0C       		.byte	0xc
 492 0011 A4010000 		.4byte	.LASF89
 493 0015 27010000 		.4byte	.LASF90
 494 0019 90000000 		.4byte	.Ldebug_ranges0+0x90
 495 001d 00000000 		.4byte	0
 496 0021 00000000 		.4byte	.Ldebug_line0
 497 0025 02       		.uleb128 0x2
 498 0026 04       		.byte	0x4
 499 0027 05       		.byte	0x5
 500 0028 696E7400 		.ascii	"int\000"
 501 002c 03       		.uleb128 0x3
 502 002d 04       		.byte	0x4
 503 002e 07       		.byte	0x7
 504 002f 53040000 		.4byte	.LASF0
 505 0033 03       		.uleb128 0x3
 506 0034 08       		.byte	0x8
 507 0035 05       		.byte	0x5
 508 0036 13010000 		.4byte	.LASF1
 509 003a 03       		.uleb128 0x3
 510 003b 08       		.byte	0x8
 511 003c 04       		.byte	0x4
 512 003d EE010000 		.4byte	.LASF2
 513 0041 03       		.uleb128 0x3
ARM GAS  /tmp/cchCJuIg.s 			page 10


 514 0042 01       		.byte	0x1
 515 0043 06       		.byte	0x6
 516 0044 10020000 		.4byte	.LASF3
 517 0048 03       		.uleb128 0x3
 518 0049 01       		.byte	0x1
 519 004a 08       		.byte	0x8
 520 004b FA010000 		.4byte	.LASF4
 521 004f 03       		.uleb128 0x3
 522 0050 02       		.byte	0x2
 523 0051 05       		.byte	0x5
 524 0052 60000000 		.4byte	.LASF5
 525 0056 04       		.uleb128 0x4
 526 0057 A4000000 		.4byte	.LASF7
 527 005b 02       		.byte	0x2
 528 005c 2B       		.byte	0x2b
 529 005d 61000000 		.4byte	0x61
 530 0061 03       		.uleb128 0x3
 531 0062 02       		.byte	0x2
 532 0063 07       		.byte	0x7
 533 0064 79020000 		.4byte	.LASF6
 534 0068 04       		.uleb128 0x4
 535 0069 A3020000 		.4byte	.LASF8
 536 006d 02       		.byte	0x2
 537 006e 3F       		.byte	0x3f
 538 006f 73000000 		.4byte	0x73
 539 0073 03       		.uleb128 0x3
 540 0074 04       		.byte	0x4
 541 0075 05       		.byte	0x5
 542 0076 73010000 		.4byte	.LASF9
 543 007a 04       		.uleb128 0x4
 544 007b 99000000 		.4byte	.LASF10
 545 007f 02       		.byte	0x2
 546 0080 41       		.byte	0x41
 547 0081 85000000 		.4byte	0x85
 548 0085 03       		.uleb128 0x3
 549 0086 04       		.byte	0x4
 550 0087 07       		.byte	0x7
 551 0088 55020000 		.4byte	.LASF11
 552 008c 03       		.uleb128 0x3
 553 008d 08       		.byte	0x8
 554 008e 07       		.byte	0x7
 555 008f 1C020000 		.4byte	.LASF12
 556 0093 04       		.uleb128 0x4
 557 0094 4C020000 		.4byte	.LASF13
 558 0098 03       		.byte	0x3
 559 0099 1A       		.byte	0x1a
 560 009a 56000000 		.4byte	0x56
 561 009e 04       		.uleb128 0x4
 562 009f 9B020000 		.4byte	.LASF14
 563 00a3 03       		.byte	0x3
 564 00a4 1F       		.byte	0x1f
 565 00a5 68000000 		.4byte	0x68
 566 00a9 04       		.uleb128 0x4
 567 00aa 33020000 		.4byte	.LASF15
 568 00ae 03       		.byte	0x3
 569 00af 20       		.byte	0x20
 570 00b0 7A000000 		.4byte	0x7a
ARM GAS  /tmp/cchCJuIg.s 			page 11


 571 00b4 03       		.uleb128 0x3
 572 00b5 01       		.byte	0x1
 573 00b6 02       		.byte	0x2
 574 00b7 B7020000 		.4byte	.LASF16
 575 00bb 05       		.uleb128 0x5
 576 00bc A9000000 		.4byte	0xa9
 577 00c0 03       		.uleb128 0x3
 578 00c1 04       		.byte	0x4
 579 00c2 07       		.byte	0x7
 580 00c3 73000000 		.4byte	.LASF17
 581 00c7 03       		.uleb128 0x3
 582 00c8 01       		.byte	0x1
 583 00c9 08       		.byte	0x8
 584 00ca 96020000 		.4byte	.LASF18
 585 00ce 06       		.uleb128 0x6
 586 00cf A9000000 		.4byte	0xa9
 587 00d3 DE000000 		.4byte	0xde
 588 00d7 07       		.uleb128 0x7
 589 00d8 C0000000 		.4byte	0xc0
 590 00dc 01       		.byte	0x1
 591 00dd 00       		.byte	0
 592 00de 05       		.uleb128 0x5
 593 00df 9E000000 		.4byte	0x9e
 594 00e3 08       		.uleb128 0x8
 595 00e4 90       		.byte	0x90
 596 00e5 04       		.byte	0x4
 597 00e6 5804     		.2byte	0x458
 598 00e8 8C020000 		.4byte	0x28c
 599 00ec 09       		.uleb128 0x9
 600 00ed 435200   		.ascii	"CR\000"
 601 00f0 04       		.byte	0x4
 602 00f1 5A04     		.2byte	0x45a
 603 00f3 BB000000 		.4byte	0xbb
 604 00f7 00       		.byte	0
 605 00f8 0A       		.uleb128 0xa
 606 00f9 6C020000 		.4byte	.LASF19
 607 00fd 04       		.byte	0x4
 608 00fe 5B04     		.2byte	0x45b
 609 0100 BB000000 		.4byte	0xbb
 610 0104 04       		.byte	0x4
 611 0105 0A       		.uleb128 0xa
 612 0106 60040000 		.4byte	.LASF20
 613 010a 04       		.byte	0x4
 614 010b 5C04     		.2byte	0x45c
 615 010d BB000000 		.4byte	0xbb
 616 0111 08       		.byte	0x8
 617 0112 09       		.uleb128 0x9
 618 0113 43495200 		.ascii	"CIR\000"
 619 0117 04       		.byte	0x4
 620 0118 5D04     		.2byte	0x45d
 621 011a BB000000 		.4byte	0xbb
 622 011e 0C       		.byte	0xc
 623 011f 0A       		.uleb128 0xa
 624 0120 BC000000 		.4byte	.LASF21
 625 0124 04       		.byte	0x4
 626 0125 5E04     		.2byte	0x45e
 627 0127 BB000000 		.4byte	0xbb
ARM GAS  /tmp/cchCJuIg.s 			page 12


 628 012b 10       		.byte	0x10
 629 012c 0A       		.uleb128 0xa
 630 012d 43020000 		.4byte	.LASF22
 631 0131 04       		.byte	0x4
 632 0132 5F04     		.2byte	0x45f
 633 0134 BB000000 		.4byte	0xbb
 634 0138 14       		.byte	0x14
 635 0139 0A       		.uleb128 0xa
 636 013a 2F040000 		.4byte	.LASF23
 637 013e 04       		.byte	0x4
 638 013f 6004     		.2byte	0x460
 639 0141 BB000000 		.4byte	0xbb
 640 0145 18       		.byte	0x18
 641 0146 0A       		.uleb128 0xa
 642 0147 D8020000 		.4byte	.LASF24
 643 014b 04       		.byte	0x4
 644 014c 6104     		.2byte	0x461
 645 014e A9000000 		.4byte	0xa9
 646 0152 1C       		.byte	0x1c
 647 0153 0A       		.uleb128 0xa
 648 0154 27000000 		.4byte	.LASF25
 649 0158 04       		.byte	0x4
 650 0159 6204     		.2byte	0x462
 651 015b BB000000 		.4byte	0xbb
 652 015f 20       		.byte	0x20
 653 0160 0A       		.uleb128 0xa
 654 0161 95010000 		.4byte	.LASF26
 655 0165 04       		.byte	0x4
 656 0166 6304     		.2byte	0x463
 657 0168 BB000000 		.4byte	0xbb
 658 016c 24       		.byte	0x24
 659 016d 0A       		.uleb128 0xa
 660 016e E2020000 		.4byte	.LASF27
 661 0172 04       		.byte	0x4
 662 0173 6404     		.2byte	0x464
 663 0175 CE000000 		.4byte	0xce
 664 0179 28       		.byte	0x28
 665 017a 0A       		.uleb128 0xa
 666 017b FF030000 		.4byte	.LASF28
 667 017f 04       		.byte	0x4
 668 0180 6504     		.2byte	0x465
 669 0182 BB000000 		.4byte	0xbb
 670 0186 30       		.byte	0x30
 671 0187 0A       		.uleb128 0xa
 672 0188 30000000 		.4byte	.LASF29
 673 018c 04       		.byte	0x4
 674 018d 6604     		.2byte	0x466
 675 018f BB000000 		.4byte	0xbb
 676 0193 34       		.byte	0x34
 677 0194 0A       		.uleb128 0xa
 678 0195 03010000 		.4byte	.LASF30
 679 0199 04       		.byte	0x4
 680 019a 6704     		.2byte	0x467
 681 019c BB000000 		.4byte	0xbb
 682 01a0 38       		.byte	0x38
 683 01a1 0A       		.uleb128 0xa
 684 01a2 EC020000 		.4byte	.LASF31
ARM GAS  /tmp/cchCJuIg.s 			page 13


 685 01a6 04       		.byte	0x4
 686 01a7 6804     		.2byte	0x468
 687 01a9 A9000000 		.4byte	0xa9
 688 01ad 3C       		.byte	0x3c
 689 01ae 0A       		.uleb128 0xa
 690 01af DF000000 		.4byte	.LASF32
 691 01b3 04       		.byte	0x4
 692 01b4 6904     		.2byte	0x469
 693 01b6 BB000000 		.4byte	0xbb
 694 01ba 40       		.byte	0x40
 695 01bb 0A       		.uleb128 0xa
 696 01bc 08020000 		.4byte	.LASF33
 697 01c0 04       		.byte	0x4
 698 01c1 6A04     		.2byte	0x46a
 699 01c3 BB000000 		.4byte	0xbb
 700 01c7 44       		.byte	0x44
 701 01c8 0A       		.uleb128 0xa
 702 01c9 F6020000 		.4byte	.LASF34
 703 01cd 04       		.byte	0x4
 704 01ce 6B04     		.2byte	0x46b
 705 01d0 CE000000 		.4byte	0xce
 706 01d4 48       		.byte	0x48
 707 01d5 0A       		.uleb128 0xa
 708 01d6 00000000 		.4byte	.LASF35
 709 01da 04       		.byte	0x4
 710 01db 6C04     		.2byte	0x46c
 711 01dd BB000000 		.4byte	0xbb
 712 01e1 50       		.byte	0x50
 713 01e2 0A       		.uleb128 0xa
 714 01e3 C2020000 		.4byte	.LASF36
 715 01e7 04       		.byte	0x4
 716 01e8 6D04     		.2byte	0x46d
 717 01ea BB000000 		.4byte	0xbb
 718 01ee 54       		.byte	0x54
 719 01ef 0A       		.uleb128 0xa
 720 01f0 D5000000 		.4byte	.LASF37
 721 01f4 04       		.byte	0x4
 722 01f5 6E04     		.2byte	0x46e
 723 01f7 BB000000 		.4byte	0xbb
 724 01fb 58       		.byte	0x58
 725 01fc 0A       		.uleb128 0xa
 726 01fd 00030000 		.4byte	.LASF38
 727 0201 04       		.byte	0x4
 728 0202 6F04     		.2byte	0x46f
 729 0204 A9000000 		.4byte	0xa9
 730 0208 5C       		.byte	0x5c
 731 0209 0A       		.uleb128 0xa
 732 020a 8C020000 		.4byte	.LASF39
 733 020e 04       		.byte	0x4
 734 020f 7004     		.2byte	0x470
 735 0211 BB000000 		.4byte	0xbb
 736 0215 60       		.byte	0x60
 737 0216 0A       		.uleb128 0xa
 738 0217 75040000 		.4byte	.LASF40
 739 021b 04       		.byte	0x4
 740 021c 7104     		.2byte	0x471
 741 021e BB000000 		.4byte	0xbb
ARM GAS  /tmp/cchCJuIg.s 			page 14


 742 0222 64       		.byte	0x64
 743 0223 0A       		.uleb128 0xa
 744 0224 0A030000 		.4byte	.LASF41
 745 0228 04       		.byte	0x4
 746 0229 7204     		.2byte	0x472
 747 022b CE000000 		.4byte	0xce
 748 022f 68       		.byte	0x68
 749 0230 0A       		.uleb128 0xa
 750 0231 7C000000 		.4byte	.LASF42
 751 0235 04       		.byte	0x4
 752 0236 7304     		.2byte	0x473
 753 0238 BB000000 		.4byte	0xbb
 754 023c 70       		.byte	0x70
 755 023d 09       		.uleb128 0x9
 756 023e 43535200 		.ascii	"CSR\000"
 757 0242 04       		.byte	0x4
 758 0243 7404     		.2byte	0x474
 759 0245 BB000000 		.4byte	0xbb
 760 0249 74       		.byte	0x74
 761 024a 0A       		.uleb128 0xa
 762 024b 14030000 		.4byte	.LASF43
 763 024f 04       		.byte	0x4
 764 0250 7504     		.2byte	0x475
 765 0252 CE000000 		.4byte	0xce
 766 0256 78       		.byte	0x78
 767 0257 0A       		.uleb128 0xa
 768 0258 AF000000 		.4byte	.LASF44
 769 025c 04       		.byte	0x4
 770 025d 7604     		.2byte	0x476
 771 025f BB000000 		.4byte	0xbb
 772 0263 80       		.byte	0x80
 773 0264 0A       		.uleb128 0xa
 774 0265 88000000 		.4byte	.LASF45
 775 0269 04       		.byte	0x4
 776 026a 7704     		.2byte	0x477
 777 026c BB000000 		.4byte	0xbb
 778 0270 84       		.byte	0x84
 779 0271 0A       		.uleb128 0xa
 780 0272 65040000 		.4byte	.LASF46
 781 0276 04       		.byte	0x4
 782 0277 7804     		.2byte	0x478
 783 0279 BB000000 		.4byte	0xbb
 784 027d 88       		.byte	0x88
 785 027e 0A       		.uleb128 0xa
 786 027f FB000000 		.4byte	.LASF47
 787 0283 04       		.byte	0x4
 788 0284 7904     		.2byte	0x479
 789 0286 BB000000 		.4byte	0xbb
 790 028a 8C       		.byte	0x8c
 791 028b 00       		.byte	0
 792 028c 0B       		.uleb128 0xb
 793 028d 83010000 		.4byte	.LASF48
 794 0291 04       		.byte	0x4
 795 0292 7B04     		.2byte	0x47b
 796 0294 E3000000 		.4byte	0xe3
 797 0298 0C       		.uleb128 0xc
 798 0299 04       		.byte	0x4
ARM GAS  /tmp/cchCJuIg.s 			page 15


 799 029a 05       		.byte	0x5
 800 029b 96       		.byte	0x96
 801 029c B9020000 		.4byte	0x2b9
 802 02a0 0D       		.uleb128 0xd
 803 02a1 73657400 		.ascii	"set\000"
 804 02a5 05       		.byte	0x5
 805 02a6 97       		.byte	0x97
 806 02a7 93000000 		.4byte	0x93
 807 02ab 00       		.byte	0
 808 02ac 0E       		.uleb128 0xe
 809 02ad 9E010000 		.4byte	.LASF49
 810 02b1 05       		.byte	0x5
 811 02b2 98       		.byte	0x98
 812 02b3 93000000 		.4byte	0x93
 813 02b7 02       		.byte	0x2
 814 02b8 00       		.byte	0
 815 02b9 0F       		.uleb128 0xf
 816 02ba 04       		.byte	0x4
 817 02bb 05       		.byte	0x5
 818 02bc 94       		.byte	0x94
 819 02bd D4020000 		.4byte	0x2d4
 820 02c1 10       		.uleb128 0x10
 821 02c2 5700     		.ascii	"W\000"
 822 02c4 05       		.byte	0x5
 823 02c5 95       		.byte	0x95
 824 02c6 A9000000 		.4byte	0xa9
 825 02ca 10       		.uleb128 0x10
 826 02cb 4800     		.ascii	"H\000"
 827 02cd 05       		.byte	0x5
 828 02ce 99       		.byte	0x99
 829 02cf 98020000 		.4byte	0x298
 830 02d3 00       		.byte	0
 831 02d4 0C       		.uleb128 0xc
 832 02d5 28       		.byte	0x28
 833 02d6 05       		.byte	0x5
 834 02d7 8C       		.byte	0x8c
 835 02d8 55030000 		.4byte	0x355
 836 02dc 0E       		.uleb128 0xe
 837 02dd 8F010000 		.4byte	.LASF50
 838 02e1 05       		.byte	0x5
 839 02e2 8E       		.byte	0x8e
 840 02e3 BB000000 		.4byte	0xbb
 841 02e7 00       		.byte	0
 842 02e8 0E       		.uleb128 0xe
 843 02e9 F4000000 		.4byte	.LASF51
 844 02ed 05       		.byte	0x5
 845 02ee 8F       		.byte	0x8f
 846 02ef BB000000 		.4byte	0xbb
 847 02f3 04       		.byte	0x4
 848 02f4 0E       		.uleb128 0xe
 849 02f5 0B010000 		.4byte	.LASF52
 850 02f9 05       		.byte	0x5
 851 02fa 90       		.byte	0x90
 852 02fb BB000000 		.4byte	0xbb
 853 02ff 08       		.byte	0x8
 854 0300 0E       		.uleb128 0xe
 855 0301 21010000 		.4byte	.LASF53
ARM GAS  /tmp/cchCJuIg.s 			page 16


 856 0305 05       		.byte	0x5
 857 0306 91       		.byte	0x91
 858 0307 BB000000 		.4byte	0xbb
 859 030b 0C       		.byte	0xc
 860 030c 0D       		.uleb128 0xd
 861 030d 49445200 		.ascii	"IDR\000"
 862 0311 05       		.byte	0x5
 863 0312 92       		.byte	0x92
 864 0313 BB000000 		.4byte	0xbb
 865 0317 10       		.byte	0x10
 866 0318 0D       		.uleb128 0xd
 867 0319 4F445200 		.ascii	"ODR\000"
 868 031d 05       		.byte	0x5
 869 031e 93       		.byte	0x93
 870 031f BB000000 		.4byte	0xbb
 871 0323 14       		.byte	0x14
 872 0324 0E       		.uleb128 0xe
 873 0325 7F040000 		.4byte	.LASF54
 874 0329 05       		.byte	0x5
 875 032a 9A       		.byte	0x9a
 876 032b 55030000 		.4byte	0x355
 877 032f 18       		.byte	0x18
 878 0330 0E       		.uleb128 0xe
 879 0331 70040000 		.4byte	.LASF55
 880 0335 05       		.byte	0x5
 881 0336 9B       		.byte	0x9b
 882 0337 BB000000 		.4byte	0xbb
 883 033b 1C       		.byte	0x1c
 884 033c 0E       		.uleb128 0xe
 885 033d 74020000 		.4byte	.LASF56
 886 0341 05       		.byte	0x5
 887 0342 9C       		.byte	0x9c
 888 0343 BB000000 		.4byte	0xbb
 889 0347 20       		.byte	0x20
 890 0348 0E       		.uleb128 0xe
 891 0349 67020000 		.4byte	.LASF57
 892 034d 05       		.byte	0x5
 893 034e 9D       		.byte	0x9d
 894 034f BB000000 		.4byte	0xbb
 895 0353 24       		.byte	0x24
 896 0354 00       		.byte	0
 897 0355 05       		.uleb128 0x5
 898 0356 B9020000 		.4byte	0x2b9
 899 035a 04       		.uleb128 0x4
 900 035b 22040000 		.4byte	.LASF58
 901 035f 05       		.byte	0x5
 902 0360 9E       		.byte	0x9e
 903 0361 D4020000 		.4byte	0x2d4
 904 0365 0C       		.uleb128 0xc
 905 0366 1C       		.byte	0x1c
 906 0367 05       		.byte	0x5
 907 0368 A3       		.byte	0xa3
 908 0369 C2030000 		.4byte	0x3c2
 909 036d 0E       		.uleb128 0xe
 910 036e 1C040000 		.4byte	.LASF59
 911 0372 05       		.byte	0x5
 912 0373 A5       		.byte	0xa5
ARM GAS  /tmp/cchCJuIg.s 			page 17


 913 0374 A9000000 		.4byte	0xa9
 914 0378 00       		.byte	0
 915 0379 0E       		.uleb128 0xe
 916 037a 3C020000 		.4byte	.LASF60
 917 037e 05       		.byte	0x5
 918 037f A7       		.byte	0xa7
 919 0380 A9000000 		.4byte	0xa9
 920 0384 04       		.byte	0x4
 921 0385 0E       		.uleb128 0xe
 922 0386 6B010000 		.4byte	.LASF61
 923 038a 05       		.byte	0x5
 924 038b A9       		.byte	0xa9
 925 038c A9000000 		.4byte	0xa9
 926 0390 08       		.byte	0x8
 927 0391 0E       		.uleb128 0xe
 928 0392 0C040000 		.4byte	.LASF62
 929 0396 05       		.byte	0x5
 930 0397 AB       		.byte	0xab
 931 0398 A9000000 		.4byte	0xa9
 932 039c 0C       		.byte	0xc
 933 039d 0D       		.uleb128 0xd
 934 039e 6F647200 		.ascii	"odr\000"
 935 03a2 05       		.byte	0x5
 936 03a3 AD       		.byte	0xad
 937 03a4 A9000000 		.4byte	0xa9
 938 03a8 10       		.byte	0x10
 939 03a9 0E       		.uleb128 0xe
 940 03aa 17040000 		.4byte	.LASF63
 941 03ae 05       		.byte	0x5
 942 03af AF       		.byte	0xaf
 943 03b0 A9000000 		.4byte	0xa9
 944 03b4 14       		.byte	0x14
 945 03b5 0E       		.uleb128 0xe
 946 03b6 12040000 		.4byte	.LASF64
 947 03ba 05       		.byte	0x5
 948 03bb B1       		.byte	0xb1
 949 03bc A9000000 		.4byte	0xa9
 950 03c0 18       		.byte	0x18
 951 03c1 00       		.byte	0
 952 03c2 04       		.uleb128 0x4
 953 03c3 38000000 		.4byte	.LASF65
 954 03c7 05       		.byte	0x5
 955 03c8 B2       		.byte	0xb2
 956 03c9 65030000 		.4byte	0x365
 957 03cd 0C       		.uleb128 0xc
 958 03ce FC       		.byte	0xfc
 959 03cf 05       		.byte	0x5
 960 03d0 BB       		.byte	0xbb
 961 03d1 42040000 		.4byte	0x442
 962 03d5 0E       		.uleb128 0xe
 963 03d6 DC010000 		.4byte	.LASF66
 964 03da 05       		.byte	0x5
 965 03db BE       		.byte	0xbe
 966 03dc C2030000 		.4byte	0x3c2
 967 03e0 00       		.byte	0
 968 03e1 0E       		.uleb128 0xe
 969 03e2 B5000000 		.4byte	.LASF67
ARM GAS  /tmp/cchCJuIg.s 			page 18


 970 03e6 05       		.byte	0x5
 971 03e7 C2       		.byte	0xc2
 972 03e8 C2030000 		.4byte	0x3c2
 973 03ec 1C       		.byte	0x1c
 974 03ed 0E       		.uleb128 0xe
 975 03ee 0A000000 		.4byte	.LASF68
 976 03f2 05       		.byte	0x5
 977 03f3 C6       		.byte	0xc6
 978 03f4 C2030000 		.4byte	0x3c2
 979 03f8 38       		.byte	0x38
 980 03f9 0E       		.uleb128 0xe
 981 03fa 7C010000 		.4byte	.LASF69
 982 03fe 05       		.byte	0x5
 983 03ff CA       		.byte	0xca
 984 0400 C2030000 		.4byte	0x3c2
 985 0404 54       		.byte	0x54
 986 0405 0E       		.uleb128 0xe
 987 0406 D1020000 		.4byte	.LASF70
 988 040a 05       		.byte	0x5
 989 040b CE       		.byte	0xce
 990 040c C2030000 		.4byte	0x3c2
 991 0410 70       		.byte	0x70
 992 0411 0E       		.uleb128 0xe
 993 0412 4B000000 		.4byte	.LASF71
 994 0416 05       		.byte	0x5
 995 0417 D2       		.byte	0xd2
 996 0418 C2030000 		.4byte	0x3c2
 997 041c 8C       		.byte	0x8c
 998 041d 0E       		.uleb128 0xe
 999 041e D5010000 		.4byte	.LASF72
 1000 0422 05       		.byte	0x5
 1001 0423 D6       		.byte	0xd6
 1002 0424 C2030000 		.4byte	0x3c2
 1003 0428 A8       		.byte	0xa8
 1004 0429 0E       		.uleb128 0xe
 1005 042a F8030000 		.4byte	.LASF73
 1006 042e 05       		.byte	0x5
 1007 042f DA       		.byte	0xda
 1008 0430 C2030000 		.4byte	0x3c2
 1009 0434 C4       		.byte	0xc4
 1010 0435 0E       		.uleb128 0xe
 1011 0436 81000000 		.4byte	.LASF74
 1012 043a 05       		.byte	0x5
 1013 043b DE       		.byte	0xde
 1014 043c C2030000 		.4byte	0x3c2
 1015 0440 E0       		.byte	0xe0
 1016 0441 00       		.byte	0
 1017 0442 04       		.uleb128 0x4
 1018 0443 AD020000 		.4byte	.LASF75
 1019 0447 05       		.byte	0x5
 1020 0448 E0       		.byte	0xe0
 1021 0449 CD030000 		.4byte	0x3cd
 1022 044d 04       		.uleb128 0x4
 1023 044e E7000000 		.4byte	.LASF76
 1024 0452 05       		.byte	0x5
 1025 0453 F0       		.byte	0xf0
 1026 0454 A9000000 		.4byte	0xa9
ARM GAS  /tmp/cchCJuIg.s 			page 19


 1027 0458 04       		.uleb128 0x4
 1028 0459 CC000000 		.4byte	.LASF77
 1029 045d 05       		.byte	0x5
 1030 045e F5       		.byte	0xf5
 1031 045f A9000000 		.4byte	0xa9
 1032 0463 04       		.uleb128 0x4
 1033 0464 E3010000 		.4byte	.LASF78
 1034 0468 05       		.byte	0x5
 1035 0469 FD       		.byte	0xfd
 1036 046a 6E040000 		.4byte	0x46e
 1037 046e 11       		.uleb128 0x11
 1038 046f 04       		.byte	0x4
 1039 0470 5A030000 		.4byte	0x35a
 1040 0474 12       		.uleb128 0x12
 1041 0475 6A000000 		.4byte	.LASF91
 1042 0479 01       		.byte	0x1
 1043 047a 56       		.byte	0x56
 1044 047b 01       		.byte	0x1
 1045 047c 97040000 		.4byte	0x497
 1046 0480 13       		.uleb128 0x13
 1047 0481 93000000 		.4byte	.LASF79
 1048 0485 01       		.byte	0x1
 1049 0486 56       		.byte	0x56
 1050 0487 6E040000 		.4byte	0x46e
 1051 048b 13       		.uleb128 0x13
 1052 048c C5000000 		.4byte	.LASF80
 1053 0490 01       		.byte	0x1
 1054 0491 56       		.byte	0x56
 1055 0492 97040000 		.4byte	0x497
 1056 0496 00       		.byte	0
 1057 0497 11       		.uleb128 0x11
 1058 0498 04       		.byte	0x4
 1059 0499 9D040000 		.4byte	0x49d
 1060 049d 14       		.uleb128 0x14
 1061 049e C2030000 		.4byte	0x3c2
 1062 04a2 15       		.uleb128 0x15
 1063 04a3 52000000 		.4byte	.LASF81
 1064 04a7 01       		.byte	0x1
 1065 04a8 71       		.byte	0x71
 1066 04a9 00000000 		.4byte	.LFB112
 1067 04ad AC010000 		.4byte	.LFE112-.LFB112
 1068 04b1 01       		.uleb128 0x1
 1069 04b2 9C       		.byte	0x9c
 1070 04b3 17060000 		.4byte	0x617
 1071 04b7 16       		.uleb128 0x16
 1072 04b8 C5000000 		.4byte	.LASF80
 1073 04bc 01       		.byte	0x1
 1074 04bd 71       		.byte	0x71
 1075 04be 17060000 		.4byte	0x617
 1076 04c2 01       		.uleb128 0x1
 1077 04c3 50       		.byte	0x50
 1078 04c4 17       		.uleb128 0x17
 1079 04c5 74040000 		.4byte	0x474
 1080 04c9 04000000 		.4byte	.LBB20
 1081 04cd 00000000 		.4byte	.Ldebug_ranges0+0
 1082 04d1 01       		.byte	0x1
 1083 04d2 86       		.byte	0x86
ARM GAS  /tmp/cchCJuIg.s 			page 20


 1084 04d3 EA040000 		.4byte	0x4ea
 1085 04d7 18       		.uleb128 0x18
 1086 04d8 8B040000 		.4byte	0x48b
 1087 04dc 00000000 		.4byte	.LLST0
 1088 04e0 18       		.uleb128 0x18
 1089 04e1 80040000 		.4byte	0x480
 1090 04e5 13000000 		.4byte	.LLST1
 1091 04e9 00       		.byte	0
 1092 04ea 17       		.uleb128 0x17
 1093 04eb 74040000 		.4byte	0x474
 1094 04ef 08000000 		.4byte	.LBB23
 1095 04f3 18000000 		.4byte	.Ldebug_ranges0+0x18
 1096 04f7 01       		.byte	0x1
 1097 04f8 89       		.byte	0x89
 1098 04f9 10050000 		.4byte	0x510
 1099 04fd 18       		.uleb128 0x18
 1100 04fe 8B040000 		.4byte	0x48b
 1101 0502 2B000000 		.4byte	.LLST2
 1102 0506 18       		.uleb128 0x18
 1103 0507 80040000 		.4byte	0x480
 1104 050b 40000000 		.4byte	.LLST3
 1105 050f 00       		.byte	0
 1106 0510 17       		.uleb128 0x17
 1107 0511 74040000 		.4byte	0x474
 1108 0515 0A000000 		.4byte	.LBB26
 1109 0519 30000000 		.4byte	.Ldebug_ranges0+0x30
 1110 051d 01       		.byte	0x1
 1111 051e 8C       		.byte	0x8c
 1112 051f 36050000 		.4byte	0x536
 1113 0523 18       		.uleb128 0x18
 1114 0524 8B040000 		.4byte	0x48b
 1115 0528 58000000 		.4byte	.LLST4
 1116 052c 18       		.uleb128 0x18
 1117 052d 80040000 		.4byte	0x480
 1118 0531 6D000000 		.4byte	.LLST5
 1119 0535 00       		.byte	0
 1120 0536 17       		.uleb128 0x17
 1121 0537 74040000 		.4byte	0x474
 1122 053b 0C000000 		.4byte	.LBB29
 1123 053f 48000000 		.4byte	.Ldebug_ranges0+0x48
 1124 0543 01       		.byte	0x1
 1125 0544 8F       		.byte	0x8f
 1126 0545 5C050000 		.4byte	0x55c
 1127 0549 18       		.uleb128 0x18
 1128 054a 8B040000 		.4byte	0x48b
 1129 054e 85000000 		.4byte	.LLST6
 1130 0552 18       		.uleb128 0x18
 1131 0553 80040000 		.4byte	0x480
 1132 0557 9B000000 		.4byte	.LLST7
 1133 055b 00       		.byte	0
 1134 055c 19       		.uleb128 0x19
 1135 055d 74040000 		.4byte	0x474
 1136 0561 8C000000 		.4byte	.LBB36
 1137 0565 30000000 		.4byte	.LBE36-.LBB36
 1138 0569 01       		.byte	0x1
 1139 056a 92       		.byte	0x92
 1140 056b 82050000 		.4byte	0x582
ARM GAS  /tmp/cchCJuIg.s 			page 21


 1141 056f 18       		.uleb128 0x18
 1142 0570 8B040000 		.4byte	0x48b
 1143 0574 B3000000 		.4byte	.LLST8
 1144 0578 18       		.uleb128 0x18
 1145 0579 80040000 		.4byte	0x480
 1146 057d C9000000 		.4byte	.LLST9
 1147 0581 00       		.byte	0
 1148 0582 19       		.uleb128 0x19
 1149 0583 74040000 		.4byte	0x474
 1150 0587 BC000000 		.4byte	.LBB38
 1151 058b 38000000 		.4byte	.LBE38-.LBB38
 1152 058f 01       		.byte	0x1
 1153 0590 95       		.byte	0x95
 1154 0591 A8050000 		.4byte	0x5a8
 1155 0595 18       		.uleb128 0x18
 1156 0596 8B040000 		.4byte	0x48b
 1157 059a E1000000 		.4byte	.LLST10
 1158 059e 18       		.uleb128 0x18
 1159 059f 80040000 		.4byte	0x480
 1160 05a3 F7000000 		.4byte	.LLST11
 1161 05a7 00       		.byte	0
 1162 05a8 19       		.uleb128 0x19
 1163 05a9 74040000 		.4byte	0x474
 1164 05ad F4000000 		.4byte	.LBB40
 1165 05b1 2E000000 		.4byte	.LBE40-.LBB40
 1166 05b5 01       		.byte	0x1
 1167 05b6 98       		.byte	0x98
 1168 05b7 CE050000 		.4byte	0x5ce
 1169 05bb 18       		.uleb128 0x18
 1170 05bc 8B040000 		.4byte	0x48b
 1171 05c0 0F010000 		.4byte	.LLST12
 1172 05c4 18       		.uleb128 0x18
 1173 05c5 80040000 		.4byte	0x480
 1174 05c9 25010000 		.4byte	.LLST13
 1175 05cd 00       		.byte	0
 1176 05ce 19       		.uleb128 0x19
 1177 05cf 74040000 		.4byte	0x474
 1178 05d3 22010000 		.4byte	.LBB42
 1179 05d7 38000000 		.4byte	.LBE42-.LBB42
 1180 05db 01       		.byte	0x1
 1181 05dc 9B       		.byte	0x9b
 1182 05dd F4050000 		.4byte	0x5f4
 1183 05e1 18       		.uleb128 0x18
 1184 05e2 8B040000 		.4byte	0x48b
 1185 05e6 3D010000 		.4byte	.LLST14
 1186 05ea 18       		.uleb128 0x18
 1187 05eb 80040000 		.4byte	0x480
 1188 05ef 53010000 		.4byte	.LLST15
 1189 05f3 00       		.byte	0
 1190 05f4 1A       		.uleb128 0x1a
 1191 05f5 74040000 		.4byte	0x474
 1192 05f9 5A010000 		.4byte	.LBB44
 1193 05fd 38000000 		.4byte	.LBE44-.LBB44
 1194 0601 01       		.byte	0x1
 1195 0602 9E       		.byte	0x9e
 1196 0603 18       		.uleb128 0x18
 1197 0604 8B040000 		.4byte	0x48b
ARM GAS  /tmp/cchCJuIg.s 			page 22


 1198 0608 6B010000 		.4byte	.LLST16
 1199 060c 18       		.uleb128 0x18
 1200 060d 80040000 		.4byte	0x480
 1201 0611 81010000 		.4byte	.LLST17
 1202 0615 00       		.byte	0
 1203 0616 00       		.byte	0
 1204 0617 11       		.uleb128 0x11
 1205 0618 04       		.byte	0x4
 1206 0619 1D060000 		.4byte	0x61d
 1207 061d 14       		.uleb128 0x14
 1208 061e 42040000 		.4byte	0x442
 1209 0622 15       		.uleb128 0x15
 1210 0623 11000000 		.4byte	.LASF82
 1211 0627 01       		.byte	0x1
 1212 0628 B0       		.byte	0xb0
 1213 0629 00000000 		.4byte	.LFB113
 1214 062d B6000000 		.4byte	.LFE113-.LFB113
 1215 0631 01       		.uleb128 0x1
 1216 0632 9C       		.byte	0x9c
 1217 0633 F2060000 		.4byte	0x6f2
 1218 0637 16       		.uleb128 0x16
 1219 0638 CC020000 		.4byte	.LASF83
 1220 063c 01       		.byte	0x1
 1221 063d B0       		.byte	0xb0
 1222 063e 63040000 		.4byte	0x463
 1223 0642 01       		.uleb128 0x1
 1224 0643 50       		.byte	0x50
 1225 0644 1B       		.uleb128 0x1b
 1226 0645 07040000 		.4byte	.LASF84
 1227 0649 01       		.byte	0x1
 1228 064a B1       		.byte	0xb1
 1229 064b 4D040000 		.4byte	0x44d
 1230 064f 99010000 		.4byte	.LLST18
 1231 0653 1B       		.uleb128 0x1b
 1232 0654 BD020000 		.4byte	.LASF85
 1233 0658 01       		.byte	0x1
 1234 0659 B2       		.byte	0xb2
 1235 065a 58040000 		.4byte	0x458
 1236 065e C6010000 		.4byte	.LLST19
 1237 0662 1C       		.uleb128 0x1c
 1238 0663 1C040000 		.4byte	.LASF59
 1239 0667 01       		.byte	0x1
 1240 0668 B4       		.byte	0xb4
 1241 0669 A9000000 		.4byte	0xa9
 1242 066d 01       		.uleb128 0x1
 1243 066e 5E       		.byte	0x5e
 1244 066f 1C       		.uleb128 0x1c
 1245 0670 3C020000 		.4byte	.LASF60
 1246 0674 01       		.byte	0x1
 1247 0675 B5       		.byte	0xb5
 1248 0676 A9000000 		.4byte	0xa9
 1249 067a 01       		.uleb128 0x1
 1250 067b 57       		.byte	0x57
 1251 067c 1C       		.uleb128 0x1c
 1252 067d 6B010000 		.4byte	.LASF61
 1253 0681 01       		.byte	0x1
 1254 0682 B6       		.byte	0xb6
ARM GAS  /tmp/cchCJuIg.s 			page 23


 1255 0683 A9000000 		.4byte	0xa9
 1256 0687 01       		.uleb128 0x1
 1257 0688 56       		.byte	0x56
 1258 0689 1C       		.uleb128 0x1c
 1259 068a 0C040000 		.4byte	.LASF62
 1260 068e 01       		.byte	0x1
 1261 068f B7       		.byte	0xb7
 1262 0690 A9000000 		.4byte	0xa9
 1263 0694 01       		.uleb128 0x1
 1264 0695 55       		.byte	0x55
 1265 0696 1C       		.uleb128 0x1c
 1266 0697 38040000 		.4byte	.LASF86
 1267 069b 01       		.byte	0x1
 1268 069c B8       		.byte	0xb8
 1269 069d A9000000 		.4byte	0xa9
 1270 06a1 01       		.uleb128 0x1
 1271 06a2 52       		.byte	0x52
 1272 06a3 1D       		.uleb128 0x1d
 1273 06a4 62697400 		.ascii	"bit\000"
 1274 06a8 01       		.byte	0x1
 1275 06a9 B9       		.byte	0xb9
 1276 06aa A9000000 		.4byte	0xa9
 1277 06ae E7010000 		.4byte	.LLST20
 1278 06b2 1E       		.uleb128 0x1e
 1279 06b3 60000000 		.4byte	.Ldebug_ranges0+0x60
 1280 06b7 1F       		.uleb128 0x1f
 1281 06b8 4A040000 		.4byte	.LASF87
 1282 06bc 01       		.byte	0x1
 1283 06bd BC       		.byte	0xbc
 1284 06be A9000000 		.4byte	0xa9
 1285 06c2 06020000 		.4byte	.LLST21
 1286 06c6 1D       		.uleb128 0x1d
 1287 06c7 6D3100   		.ascii	"m1\000"
 1288 06ca 01       		.byte	0x1
 1289 06cb BC       		.byte	0xbc
 1290 06cc A9000000 		.4byte	0xa9
 1291 06d0 4C020000 		.4byte	.LLST22
 1292 06d4 1D       		.uleb128 0x1d
 1293 06d5 6D3200   		.ascii	"m2\000"
 1294 06d8 01       		.byte	0x1
 1295 06d9 BC       		.byte	0xbc
 1296 06da A9000000 		.4byte	0xa9
 1297 06de 63020000 		.4byte	.LLST23
 1298 06e2 1D       		.uleb128 0x1d
 1299 06e3 6D3400   		.ascii	"m4\000"
 1300 06e6 01       		.byte	0x1
 1301 06e7 BC       		.byte	0xbc
 1302 06e8 A9000000 		.4byte	0xa9
 1303 06ec 7C020000 		.4byte	.LLST24
 1304 06f0 00       		.byte	0
 1305 06f1 00       		.byte	0
 1306 06f2 20       		.uleb128 0x20
 1307 06f3 3D040000 		.4byte	.LASF92
 1308 06f7 06       		.byte	0x6
 1309 06f8 9806     		.2byte	0x698
 1310 06fa DE000000 		.4byte	0xde
 1311 06fe 00       		.byte	0
ARM GAS  /tmp/cchCJuIg.s 			page 24


 1312              		.section	.debug_abbrev,"",%progbits
 1313              	.Ldebug_abbrev0:
 1314 0000 01       		.uleb128 0x1
 1315 0001 11       		.uleb128 0x11
 1316 0002 01       		.byte	0x1
 1317 0003 25       		.uleb128 0x25
 1318 0004 0E       		.uleb128 0xe
 1319 0005 13       		.uleb128 0x13
 1320 0006 0B       		.uleb128 0xb
 1321 0007 03       		.uleb128 0x3
 1322 0008 0E       		.uleb128 0xe
 1323 0009 1B       		.uleb128 0x1b
 1324 000a 0E       		.uleb128 0xe
 1325 000b 55       		.uleb128 0x55
 1326 000c 17       		.uleb128 0x17
 1327 000d 11       		.uleb128 0x11
 1328 000e 01       		.uleb128 0x1
 1329 000f 10       		.uleb128 0x10
 1330 0010 17       		.uleb128 0x17
 1331 0011 00       		.byte	0
 1332 0012 00       		.byte	0
 1333 0013 02       		.uleb128 0x2
 1334 0014 24       		.uleb128 0x24
 1335 0015 00       		.byte	0
 1336 0016 0B       		.uleb128 0xb
 1337 0017 0B       		.uleb128 0xb
 1338 0018 3E       		.uleb128 0x3e
 1339 0019 0B       		.uleb128 0xb
 1340 001a 03       		.uleb128 0x3
 1341 001b 08       		.uleb128 0x8
 1342 001c 00       		.byte	0
 1343 001d 00       		.byte	0
 1344 001e 03       		.uleb128 0x3
 1345 001f 24       		.uleb128 0x24
 1346 0020 00       		.byte	0
 1347 0021 0B       		.uleb128 0xb
 1348 0022 0B       		.uleb128 0xb
 1349 0023 3E       		.uleb128 0x3e
 1350 0024 0B       		.uleb128 0xb
 1351 0025 03       		.uleb128 0x3
 1352 0026 0E       		.uleb128 0xe
 1353 0027 00       		.byte	0
 1354 0028 00       		.byte	0
 1355 0029 04       		.uleb128 0x4
 1356 002a 16       		.uleb128 0x16
 1357 002b 00       		.byte	0
 1358 002c 03       		.uleb128 0x3
 1359 002d 0E       		.uleb128 0xe
 1360 002e 3A       		.uleb128 0x3a
 1361 002f 0B       		.uleb128 0xb
 1362 0030 3B       		.uleb128 0x3b
 1363 0031 0B       		.uleb128 0xb
 1364 0032 49       		.uleb128 0x49
 1365 0033 13       		.uleb128 0x13
 1366 0034 00       		.byte	0
 1367 0035 00       		.byte	0
 1368 0036 05       		.uleb128 0x5
ARM GAS  /tmp/cchCJuIg.s 			page 25


 1369 0037 35       		.uleb128 0x35
 1370 0038 00       		.byte	0
 1371 0039 49       		.uleb128 0x49
 1372 003a 13       		.uleb128 0x13
 1373 003b 00       		.byte	0
 1374 003c 00       		.byte	0
 1375 003d 06       		.uleb128 0x6
 1376 003e 01       		.uleb128 0x1
 1377 003f 01       		.byte	0x1
 1378 0040 49       		.uleb128 0x49
 1379 0041 13       		.uleb128 0x13
 1380 0042 01       		.uleb128 0x1
 1381 0043 13       		.uleb128 0x13
 1382 0044 00       		.byte	0
 1383 0045 00       		.byte	0
 1384 0046 07       		.uleb128 0x7
 1385 0047 21       		.uleb128 0x21
 1386 0048 00       		.byte	0
 1387 0049 49       		.uleb128 0x49
 1388 004a 13       		.uleb128 0x13
 1389 004b 2F       		.uleb128 0x2f
 1390 004c 0B       		.uleb128 0xb
 1391 004d 00       		.byte	0
 1392 004e 00       		.byte	0
 1393 004f 08       		.uleb128 0x8
 1394 0050 13       		.uleb128 0x13
 1395 0051 01       		.byte	0x1
 1396 0052 0B       		.uleb128 0xb
 1397 0053 0B       		.uleb128 0xb
 1398 0054 3A       		.uleb128 0x3a
 1399 0055 0B       		.uleb128 0xb
 1400 0056 3B       		.uleb128 0x3b
 1401 0057 05       		.uleb128 0x5
 1402 0058 01       		.uleb128 0x1
 1403 0059 13       		.uleb128 0x13
 1404 005a 00       		.byte	0
 1405 005b 00       		.byte	0
 1406 005c 09       		.uleb128 0x9
 1407 005d 0D       		.uleb128 0xd
 1408 005e 00       		.byte	0
 1409 005f 03       		.uleb128 0x3
 1410 0060 08       		.uleb128 0x8
 1411 0061 3A       		.uleb128 0x3a
 1412 0062 0B       		.uleb128 0xb
 1413 0063 3B       		.uleb128 0x3b
 1414 0064 05       		.uleb128 0x5
 1415 0065 49       		.uleb128 0x49
 1416 0066 13       		.uleb128 0x13
 1417 0067 38       		.uleb128 0x38
 1418 0068 0B       		.uleb128 0xb
 1419 0069 00       		.byte	0
 1420 006a 00       		.byte	0
 1421 006b 0A       		.uleb128 0xa
 1422 006c 0D       		.uleb128 0xd
 1423 006d 00       		.byte	0
 1424 006e 03       		.uleb128 0x3
 1425 006f 0E       		.uleb128 0xe
ARM GAS  /tmp/cchCJuIg.s 			page 26


 1426 0070 3A       		.uleb128 0x3a
 1427 0071 0B       		.uleb128 0xb
 1428 0072 3B       		.uleb128 0x3b
 1429 0073 05       		.uleb128 0x5
 1430 0074 49       		.uleb128 0x49
 1431 0075 13       		.uleb128 0x13
 1432 0076 38       		.uleb128 0x38
 1433 0077 0B       		.uleb128 0xb
 1434 0078 00       		.byte	0
 1435 0079 00       		.byte	0
 1436 007a 0B       		.uleb128 0xb
 1437 007b 16       		.uleb128 0x16
 1438 007c 00       		.byte	0
 1439 007d 03       		.uleb128 0x3
 1440 007e 0E       		.uleb128 0xe
 1441 007f 3A       		.uleb128 0x3a
 1442 0080 0B       		.uleb128 0xb
 1443 0081 3B       		.uleb128 0x3b
 1444 0082 05       		.uleb128 0x5
 1445 0083 49       		.uleb128 0x49
 1446 0084 13       		.uleb128 0x13
 1447 0085 00       		.byte	0
 1448 0086 00       		.byte	0
 1449 0087 0C       		.uleb128 0xc
 1450 0088 13       		.uleb128 0x13
 1451 0089 01       		.byte	0x1
 1452 008a 0B       		.uleb128 0xb
 1453 008b 0B       		.uleb128 0xb
 1454 008c 3A       		.uleb128 0x3a
 1455 008d 0B       		.uleb128 0xb
 1456 008e 3B       		.uleb128 0x3b
 1457 008f 0B       		.uleb128 0xb
 1458 0090 01       		.uleb128 0x1
 1459 0091 13       		.uleb128 0x13
 1460 0092 00       		.byte	0
 1461 0093 00       		.byte	0
 1462 0094 0D       		.uleb128 0xd
 1463 0095 0D       		.uleb128 0xd
 1464 0096 00       		.byte	0
 1465 0097 03       		.uleb128 0x3
 1466 0098 08       		.uleb128 0x8
 1467 0099 3A       		.uleb128 0x3a
 1468 009a 0B       		.uleb128 0xb
 1469 009b 3B       		.uleb128 0x3b
 1470 009c 0B       		.uleb128 0xb
 1471 009d 49       		.uleb128 0x49
 1472 009e 13       		.uleb128 0x13
 1473 009f 38       		.uleb128 0x38
 1474 00a0 0B       		.uleb128 0xb
 1475 00a1 00       		.byte	0
 1476 00a2 00       		.byte	0
 1477 00a3 0E       		.uleb128 0xe
 1478 00a4 0D       		.uleb128 0xd
 1479 00a5 00       		.byte	0
 1480 00a6 03       		.uleb128 0x3
 1481 00a7 0E       		.uleb128 0xe
 1482 00a8 3A       		.uleb128 0x3a
ARM GAS  /tmp/cchCJuIg.s 			page 27


 1483 00a9 0B       		.uleb128 0xb
 1484 00aa 3B       		.uleb128 0x3b
 1485 00ab 0B       		.uleb128 0xb
 1486 00ac 49       		.uleb128 0x49
 1487 00ad 13       		.uleb128 0x13
 1488 00ae 38       		.uleb128 0x38
 1489 00af 0B       		.uleb128 0xb
 1490 00b0 00       		.byte	0
 1491 00b1 00       		.byte	0
 1492 00b2 0F       		.uleb128 0xf
 1493 00b3 17       		.uleb128 0x17
 1494 00b4 01       		.byte	0x1
 1495 00b5 0B       		.uleb128 0xb
 1496 00b6 0B       		.uleb128 0xb
 1497 00b7 3A       		.uleb128 0x3a
 1498 00b8 0B       		.uleb128 0xb
 1499 00b9 3B       		.uleb128 0x3b
 1500 00ba 0B       		.uleb128 0xb
 1501 00bb 01       		.uleb128 0x1
 1502 00bc 13       		.uleb128 0x13
 1503 00bd 00       		.byte	0
 1504 00be 00       		.byte	0
 1505 00bf 10       		.uleb128 0x10
 1506 00c0 0D       		.uleb128 0xd
 1507 00c1 00       		.byte	0
 1508 00c2 03       		.uleb128 0x3
 1509 00c3 08       		.uleb128 0x8
 1510 00c4 3A       		.uleb128 0x3a
 1511 00c5 0B       		.uleb128 0xb
 1512 00c6 3B       		.uleb128 0x3b
 1513 00c7 0B       		.uleb128 0xb
 1514 00c8 49       		.uleb128 0x49
 1515 00c9 13       		.uleb128 0x13
 1516 00ca 00       		.byte	0
 1517 00cb 00       		.byte	0
 1518 00cc 11       		.uleb128 0x11
 1519 00cd 0F       		.uleb128 0xf
 1520 00ce 00       		.byte	0
 1521 00cf 0B       		.uleb128 0xb
 1522 00d0 0B       		.uleb128 0xb
 1523 00d1 49       		.uleb128 0x49
 1524 00d2 13       		.uleb128 0x13
 1525 00d3 00       		.byte	0
 1526 00d4 00       		.byte	0
 1527 00d5 12       		.uleb128 0x12
 1528 00d6 2E       		.uleb128 0x2e
 1529 00d7 01       		.byte	0x1
 1530 00d8 03       		.uleb128 0x3
 1531 00d9 0E       		.uleb128 0xe
 1532 00da 3A       		.uleb128 0x3a
 1533 00db 0B       		.uleb128 0xb
 1534 00dc 3B       		.uleb128 0x3b
 1535 00dd 0B       		.uleb128 0xb
 1536 00de 27       		.uleb128 0x27
 1537 00df 19       		.uleb128 0x19
 1538 00e0 20       		.uleb128 0x20
 1539 00e1 0B       		.uleb128 0xb
ARM GAS  /tmp/cchCJuIg.s 			page 28


 1540 00e2 01       		.uleb128 0x1
 1541 00e3 13       		.uleb128 0x13
 1542 00e4 00       		.byte	0
 1543 00e5 00       		.byte	0
 1544 00e6 13       		.uleb128 0x13
 1545 00e7 05       		.uleb128 0x5
 1546 00e8 00       		.byte	0
 1547 00e9 03       		.uleb128 0x3
 1548 00ea 0E       		.uleb128 0xe
 1549 00eb 3A       		.uleb128 0x3a
 1550 00ec 0B       		.uleb128 0xb
 1551 00ed 3B       		.uleb128 0x3b
 1552 00ee 0B       		.uleb128 0xb
 1553 00ef 49       		.uleb128 0x49
 1554 00f0 13       		.uleb128 0x13
 1555 00f1 00       		.byte	0
 1556 00f2 00       		.byte	0
 1557 00f3 14       		.uleb128 0x14
 1558 00f4 26       		.uleb128 0x26
 1559 00f5 00       		.byte	0
 1560 00f6 49       		.uleb128 0x49
 1561 00f7 13       		.uleb128 0x13
 1562 00f8 00       		.byte	0
 1563 00f9 00       		.byte	0
 1564 00fa 15       		.uleb128 0x15
 1565 00fb 2E       		.uleb128 0x2e
 1566 00fc 01       		.byte	0x1
 1567 00fd 3F       		.uleb128 0x3f
 1568 00fe 19       		.uleb128 0x19
 1569 00ff 03       		.uleb128 0x3
 1570 0100 0E       		.uleb128 0xe
 1571 0101 3A       		.uleb128 0x3a
 1572 0102 0B       		.uleb128 0xb
 1573 0103 3B       		.uleb128 0x3b
 1574 0104 0B       		.uleb128 0xb
 1575 0105 27       		.uleb128 0x27
 1576 0106 19       		.uleb128 0x19
 1577 0107 11       		.uleb128 0x11
 1578 0108 01       		.uleb128 0x1
 1579 0109 12       		.uleb128 0x12
 1580 010a 06       		.uleb128 0x6
 1581 010b 40       		.uleb128 0x40
 1582 010c 18       		.uleb128 0x18
 1583 010d 9742     		.uleb128 0x2117
 1584 010f 19       		.uleb128 0x19
 1585 0110 01       		.uleb128 0x1
 1586 0111 13       		.uleb128 0x13
 1587 0112 00       		.byte	0
 1588 0113 00       		.byte	0
 1589 0114 16       		.uleb128 0x16
 1590 0115 05       		.uleb128 0x5
 1591 0116 00       		.byte	0
 1592 0117 03       		.uleb128 0x3
 1593 0118 0E       		.uleb128 0xe
 1594 0119 3A       		.uleb128 0x3a
 1595 011a 0B       		.uleb128 0xb
 1596 011b 3B       		.uleb128 0x3b
ARM GAS  /tmp/cchCJuIg.s 			page 29


 1597 011c 0B       		.uleb128 0xb
 1598 011d 49       		.uleb128 0x49
 1599 011e 13       		.uleb128 0x13
 1600 011f 02       		.uleb128 0x2
 1601 0120 18       		.uleb128 0x18
 1602 0121 00       		.byte	0
 1603 0122 00       		.byte	0
 1604 0123 17       		.uleb128 0x17
 1605 0124 1D       		.uleb128 0x1d
 1606 0125 01       		.byte	0x1
 1607 0126 31       		.uleb128 0x31
 1608 0127 13       		.uleb128 0x13
 1609 0128 52       		.uleb128 0x52
 1610 0129 01       		.uleb128 0x1
 1611 012a 55       		.uleb128 0x55
 1612 012b 17       		.uleb128 0x17
 1613 012c 58       		.uleb128 0x58
 1614 012d 0B       		.uleb128 0xb
 1615 012e 59       		.uleb128 0x59
 1616 012f 0B       		.uleb128 0xb
 1617 0130 01       		.uleb128 0x1
 1618 0131 13       		.uleb128 0x13
 1619 0132 00       		.byte	0
 1620 0133 00       		.byte	0
 1621 0134 18       		.uleb128 0x18
 1622 0135 05       		.uleb128 0x5
 1623 0136 00       		.byte	0
 1624 0137 31       		.uleb128 0x31
 1625 0138 13       		.uleb128 0x13
 1626 0139 02       		.uleb128 0x2
 1627 013a 17       		.uleb128 0x17
 1628 013b 00       		.byte	0
 1629 013c 00       		.byte	0
 1630 013d 19       		.uleb128 0x19
 1631 013e 1D       		.uleb128 0x1d
 1632 013f 01       		.byte	0x1
 1633 0140 31       		.uleb128 0x31
 1634 0141 13       		.uleb128 0x13
 1635 0142 11       		.uleb128 0x11
 1636 0143 01       		.uleb128 0x1
 1637 0144 12       		.uleb128 0x12
 1638 0145 06       		.uleb128 0x6
 1639 0146 58       		.uleb128 0x58
 1640 0147 0B       		.uleb128 0xb
 1641 0148 59       		.uleb128 0x59
 1642 0149 0B       		.uleb128 0xb
 1643 014a 01       		.uleb128 0x1
 1644 014b 13       		.uleb128 0x13
 1645 014c 00       		.byte	0
 1646 014d 00       		.byte	0
 1647 014e 1A       		.uleb128 0x1a
 1648 014f 1D       		.uleb128 0x1d
 1649 0150 01       		.byte	0x1
 1650 0151 31       		.uleb128 0x31
 1651 0152 13       		.uleb128 0x13
 1652 0153 11       		.uleb128 0x11
 1653 0154 01       		.uleb128 0x1
ARM GAS  /tmp/cchCJuIg.s 			page 30


 1654 0155 12       		.uleb128 0x12
 1655 0156 06       		.uleb128 0x6
 1656 0157 58       		.uleb128 0x58
 1657 0158 0B       		.uleb128 0xb
 1658 0159 59       		.uleb128 0x59
 1659 015a 0B       		.uleb128 0xb
 1660 015b 00       		.byte	0
 1661 015c 00       		.byte	0
 1662 015d 1B       		.uleb128 0x1b
 1663 015e 05       		.uleb128 0x5
 1664 015f 00       		.byte	0
 1665 0160 03       		.uleb128 0x3
 1666 0161 0E       		.uleb128 0xe
 1667 0162 3A       		.uleb128 0x3a
 1668 0163 0B       		.uleb128 0xb
 1669 0164 3B       		.uleb128 0x3b
 1670 0165 0B       		.uleb128 0xb
 1671 0166 49       		.uleb128 0x49
 1672 0167 13       		.uleb128 0x13
 1673 0168 02       		.uleb128 0x2
 1674 0169 17       		.uleb128 0x17
 1675 016a 00       		.byte	0
 1676 016b 00       		.byte	0
 1677 016c 1C       		.uleb128 0x1c
 1678 016d 34       		.uleb128 0x34
 1679 016e 00       		.byte	0
 1680 016f 03       		.uleb128 0x3
 1681 0170 0E       		.uleb128 0xe
 1682 0171 3A       		.uleb128 0x3a
 1683 0172 0B       		.uleb128 0xb
 1684 0173 3B       		.uleb128 0x3b
 1685 0174 0B       		.uleb128 0xb
 1686 0175 49       		.uleb128 0x49
 1687 0176 13       		.uleb128 0x13
 1688 0177 02       		.uleb128 0x2
 1689 0178 18       		.uleb128 0x18
 1690 0179 00       		.byte	0
 1691 017a 00       		.byte	0
 1692 017b 1D       		.uleb128 0x1d
 1693 017c 34       		.uleb128 0x34
 1694 017d 00       		.byte	0
 1695 017e 03       		.uleb128 0x3
 1696 017f 08       		.uleb128 0x8
 1697 0180 3A       		.uleb128 0x3a
 1698 0181 0B       		.uleb128 0xb
 1699 0182 3B       		.uleb128 0x3b
 1700 0183 0B       		.uleb128 0xb
 1701 0184 49       		.uleb128 0x49
 1702 0185 13       		.uleb128 0x13
 1703 0186 02       		.uleb128 0x2
 1704 0187 17       		.uleb128 0x17
 1705 0188 00       		.byte	0
 1706 0189 00       		.byte	0
 1707 018a 1E       		.uleb128 0x1e
 1708 018b 0B       		.uleb128 0xb
 1709 018c 01       		.byte	0x1
 1710 018d 55       		.uleb128 0x55
ARM GAS  /tmp/cchCJuIg.s 			page 31


 1711 018e 17       		.uleb128 0x17
 1712 018f 00       		.byte	0
 1713 0190 00       		.byte	0
 1714 0191 1F       		.uleb128 0x1f
 1715 0192 34       		.uleb128 0x34
 1716 0193 00       		.byte	0
 1717 0194 03       		.uleb128 0x3
 1718 0195 0E       		.uleb128 0xe
 1719 0196 3A       		.uleb128 0x3a
 1720 0197 0B       		.uleb128 0xb
 1721 0198 3B       		.uleb128 0x3b
 1722 0199 0B       		.uleb128 0xb
 1723 019a 49       		.uleb128 0x49
 1724 019b 13       		.uleb128 0x13
 1725 019c 02       		.uleb128 0x2
 1726 019d 17       		.uleb128 0x17
 1727 019e 00       		.byte	0
 1728 019f 00       		.byte	0
 1729 01a0 20       		.uleb128 0x20
 1730 01a1 34       		.uleb128 0x34
 1731 01a2 00       		.byte	0
 1732 01a3 03       		.uleb128 0x3
 1733 01a4 0E       		.uleb128 0xe
 1734 01a5 3A       		.uleb128 0x3a
 1735 01a6 0B       		.uleb128 0xb
 1736 01a7 3B       		.uleb128 0x3b
 1737 01a8 05       		.uleb128 0x5
 1738 01a9 49       		.uleb128 0x49
 1739 01aa 13       		.uleb128 0x13
 1740 01ab 3F       		.uleb128 0x3f
 1741 01ac 19       		.uleb128 0x19
 1742 01ad 3C       		.uleb128 0x3c
 1743 01ae 19       		.uleb128 0x19
 1744 01af 00       		.byte	0
 1745 01b0 00       		.byte	0
 1746 01b1 00       		.byte	0
 1747              		.section	.debug_loc,"",%progbits
 1748              	.Ldebug_loc0:
 1749              	.LLST0:
 1750 0000 1C000000 		.4byte	.LVL1
 1751 0004 38000000 		.4byte	.LVL2
 1752 0008 0100     		.2byte	0x1
 1753 000a 50       		.byte	0x50
 1754 000b 00000000 		.4byte	0
 1755 000f 00000000 		.4byte	0
 1756              	.LLST1:
 1757 0013 1C000000 		.4byte	.LVL1
 1758 0017 38000000 		.4byte	.LVL2
 1759 001b 0600     		.2byte	0x6
 1760 001d 0C       		.byte	0xc
 1761 001e 00000240 		.4byte	0x40020000
 1762 0022 9F       		.byte	0x9f
 1763 0023 00000000 		.4byte	0
 1764 0027 00000000 		.4byte	0
 1765              	.LLST2:
 1766 002b 38000000 		.4byte	.LVL2
 1767 002f 54000000 		.4byte	.LVL3
ARM GAS  /tmp/cchCJuIg.s 			page 32


 1768 0033 0300     		.2byte	0x3
 1769 0035 70       		.byte	0x70
 1770 0036 1C       		.sleb128 28
 1771 0037 9F       		.byte	0x9f
 1772 0038 00000000 		.4byte	0
 1773 003c 00000000 		.4byte	0
 1774              	.LLST3:
 1775 0040 38000000 		.4byte	.LVL2
 1776 0044 54000000 		.4byte	.LVL3
 1777 0048 0600     		.2byte	0x6
 1778 004a 0C       		.byte	0xc
 1779 004b 00040240 		.4byte	0x40020400
 1780 004f 9F       		.byte	0x9f
 1781 0050 00000000 		.4byte	0
 1782 0054 00000000 		.4byte	0
 1783              	.LLST4:
 1784 0058 54000000 		.4byte	.LVL3
 1785 005c 70000000 		.4byte	.LVL4
 1786 0060 0300     		.2byte	0x3
 1787 0062 70       		.byte	0x70
 1788 0063 38       		.sleb128 56
 1789 0064 9F       		.byte	0x9f
 1790 0065 00000000 		.4byte	0
 1791 0069 00000000 		.4byte	0
 1792              	.LLST5:
 1793 006d 54000000 		.4byte	.LVL3
 1794 0071 70000000 		.4byte	.LVL4
 1795 0075 0600     		.2byte	0x6
 1796 0077 0C       		.byte	0xc
 1797 0078 00080240 		.4byte	0x40020800
 1798 007c 9F       		.byte	0x9f
 1799 007d 00000000 		.4byte	0
 1800 0081 00000000 		.4byte	0
 1801              	.LLST6:
 1802 0085 70000000 		.4byte	.LVL4
 1803 0089 8C000000 		.4byte	.LVL5
 1804 008d 0400     		.2byte	0x4
 1805 008f 70       		.byte	0x70
 1806 0090 D400     		.sleb128 84
 1807 0092 9F       		.byte	0x9f
 1808 0093 00000000 		.4byte	0
 1809 0097 00000000 		.4byte	0
 1810              	.LLST7:
 1811 009b 70000000 		.4byte	.LVL4
 1812 009f 8C000000 		.4byte	.LVL5
 1813 00a3 0600     		.2byte	0x6
 1814 00a5 0C       		.byte	0xc
 1815 00a6 000C0240 		.4byte	0x40020c00
 1816 00aa 9F       		.byte	0x9f
 1817 00ab 00000000 		.4byte	0
 1818 00af 00000000 		.4byte	0
 1819              	.LLST8:
 1820 00b3 8C000000 		.4byte	.LVL5
 1821 00b7 BC000000 		.4byte	.LVL6
 1822 00bb 0400     		.2byte	0x4
 1823 00bd 70       		.byte	0x70
 1824 00be F000     		.sleb128 112
ARM GAS  /tmp/cchCJuIg.s 			page 33


 1825 00c0 9F       		.byte	0x9f
 1826 00c1 00000000 		.4byte	0
 1827 00c5 00000000 		.4byte	0
 1828              	.LLST9:
 1829 00c9 8C000000 		.4byte	.LVL5
 1830 00cd BC000000 		.4byte	.LVL6
 1831 00d1 0600     		.2byte	0x6
 1832 00d3 0C       		.byte	0xc
 1833 00d4 00100240 		.4byte	0x40021000
 1834 00d8 9F       		.byte	0x9f
 1835 00d9 00000000 		.4byte	0
 1836 00dd 00000000 		.4byte	0
 1837              	.LLST10:
 1838 00e1 BC000000 		.4byte	.LVL6
 1839 00e5 F4000000 		.4byte	.LVL7
 1840 00e9 0400     		.2byte	0x4
 1841 00eb 70       		.byte	0x70
 1842 00ec 8C01     		.sleb128 140
 1843 00ee 9F       		.byte	0x9f
 1844 00ef 00000000 		.4byte	0
 1845 00f3 00000000 		.4byte	0
 1846              	.LLST11:
 1847 00f7 BC000000 		.4byte	.LVL6
 1848 00fb F4000000 		.4byte	.LVL7
 1849 00ff 0600     		.2byte	0x6
 1850 0101 0C       		.byte	0xc
 1851 0102 00140240 		.4byte	0x40021400
 1852 0106 9F       		.byte	0x9f
 1853 0107 00000000 		.4byte	0
 1854 010b 00000000 		.4byte	0
 1855              	.LLST12:
 1856 010f F4000000 		.4byte	.LVL7
 1857 0113 22010000 		.4byte	.LVL8
 1858 0117 0400     		.2byte	0x4
 1859 0119 70       		.byte	0x70
 1860 011a A801     		.sleb128 168
 1861 011c 9F       		.byte	0x9f
 1862 011d 00000000 		.4byte	0
 1863 0121 00000000 		.4byte	0
 1864              	.LLST13:
 1865 0125 F4000000 		.4byte	.LVL7
 1866 0129 22010000 		.4byte	.LVL8
 1867 012d 0600     		.2byte	0x6
 1868 012f 0C       		.byte	0xc
 1869 0130 00180240 		.4byte	0x40021800
 1870 0134 9F       		.byte	0x9f
 1871 0135 00000000 		.4byte	0
 1872 0139 00000000 		.4byte	0
 1873              	.LLST14:
 1874 013d 22010000 		.4byte	.LVL8
 1875 0141 5A010000 		.4byte	.LVL9
 1876 0145 0400     		.2byte	0x4
 1877 0147 70       		.byte	0x70
 1878 0148 C401     		.sleb128 196
 1879 014a 9F       		.byte	0x9f
 1880 014b 00000000 		.4byte	0
 1881 014f 00000000 		.4byte	0
ARM GAS  /tmp/cchCJuIg.s 			page 34


 1882              	.LLST15:
 1883 0153 22010000 		.4byte	.LVL8
 1884 0157 5A010000 		.4byte	.LVL9
 1885 015b 0600     		.2byte	0x6
 1886 015d 0C       		.byte	0xc
 1887 015e 001C0240 		.4byte	0x40021c00
 1888 0162 9F       		.byte	0x9f
 1889 0163 00000000 		.4byte	0
 1890 0167 00000000 		.4byte	0
 1891              	.LLST16:
 1892 016b 5A010000 		.4byte	.LVL9
 1893 016f 92010000 		.4byte	.LVL10
 1894 0173 0400     		.2byte	0x4
 1895 0175 70       		.byte	0x70
 1896 0176 E001     		.sleb128 224
 1897 0178 9F       		.byte	0x9f
 1898 0179 00000000 		.4byte	0
 1899 017d 00000000 		.4byte	0
 1900              	.LLST17:
 1901 0181 5A010000 		.4byte	.LVL9
 1902 0185 92010000 		.4byte	.LVL10
 1903 0189 0600     		.2byte	0x6
 1904 018b 0C       		.byte	0xc
 1905 018c 00200240 		.4byte	0x40022000
 1906 0190 9F       		.byte	0x9f
 1907 0191 00000000 		.4byte	0
 1908 0195 00000000 		.4byte	0
 1909              	.LLST18:
 1910 0199 00000000 		.4byte	.LVL11
 1911 019d 7A000000 		.4byte	.LVL22
 1912 01a1 0100     		.2byte	0x1
 1913 01a3 51       		.byte	0x51
 1914 01a4 7A000000 		.4byte	.LVL22
 1915 01a8 7C000000 		.4byte	.LVL23
 1916 01ac 0500     		.2byte	0x5
 1917 01ae 71       		.byte	0x71
 1918 01af 00       		.sleb128 0
 1919 01b0 31       		.byte	0x31
 1920 01b1 25       		.byte	0x25
 1921 01b2 9F       		.byte	0x9f
 1922 01b3 7C000000 		.4byte	.LVL23
 1923 01b7 B6000000 		.4byte	.LFE113
 1924 01bb 0100     		.2byte	0x1
 1925 01bd 51       		.byte	0x51
 1926 01be 00000000 		.4byte	0
 1927 01c2 00000000 		.4byte	0
 1928              	.LLST19:
 1929 01c6 00000000 		.4byte	.LVL11
 1930 01ca 1E000000 		.4byte	.LVL16
 1931 01ce 0100     		.2byte	0x1
 1932 01d0 52       		.byte	0x52
 1933 01d1 1E000000 		.4byte	.LVL16
 1934 01d5 B6000000 		.4byte	.LFE113
 1935 01d9 0400     		.2byte	0x4
 1936 01db F3       		.byte	0xf3
 1937 01dc 01       		.uleb128 0x1
 1938 01dd 52       		.byte	0x52
ARM GAS  /tmp/cchCJuIg.s 			page 35


 1939 01de 9F       		.byte	0x9f
 1940 01df 00000000 		.4byte	0
 1941 01e3 00000000 		.4byte	0
 1942              	.LLST20:
 1943 01e7 1E000000 		.4byte	.LVL16
 1944 01eb 28000000 		.4byte	.LVL17
 1945 01ef 0200     		.2byte	0x2
 1946 01f1 30       		.byte	0x30
 1947 01f2 9F       		.byte	0x9f
 1948 01f3 28000000 		.4byte	.LVL17
 1949 01f7 B6000000 		.4byte	.LFE113
 1950 01fb 0100     		.2byte	0x1
 1951 01fd 54       		.byte	0x54
 1952 01fe 00000000 		.4byte	0
 1953 0202 00000000 		.4byte	0
 1954              	.LLST21:
 1955 0206 28000000 		.4byte	.LVL17
 1956 020a 3C000000 		.4byte	.LVL20
 1957 020e 0100     		.2byte	0x1
 1958 0210 5A       		.byte	0x5a
 1959 0211 3C000000 		.4byte	.LVL20
 1960 0215 8A000000 		.4byte	.LVL28
 1961 0219 0A00     		.2byte	0xa
 1962 021b 72       		.byte	0x72
 1963 021c 00       		.sleb128 0
 1964 021d 74       		.byte	0x74
 1965 021e 00       		.sleb128 0
 1966 021f 37       		.byte	0x37
 1967 0220 1A       		.byte	0x1a
 1968 0221 32       		.byte	0x32
 1969 0222 24       		.byte	0x24
 1970 0223 24       		.byte	0x24
 1971 0224 9F       		.byte	0x9f
 1972 0225 98000000 		.4byte	.LVL29
 1973 0229 B2000000 		.4byte	.LVL32
 1974 022d 0100     		.2byte	0x1
 1975 022f 5A       		.byte	0x5a
 1976 0230 B2000000 		.4byte	.LVL32
 1977 0234 B6000000 		.4byte	.LFE113
 1978 0238 0A00     		.2byte	0xa
 1979 023a 72       		.byte	0x72
 1980 023b 00       		.sleb128 0
 1981 023c 74       		.byte	0x74
 1982 023d 00       		.sleb128 0
 1983 023e 37       		.byte	0x37
 1984 023f 1A       		.byte	0x1a
 1985 0240 32       		.byte	0x32
 1986 0241 24       		.byte	0x24
 1987 0242 24       		.byte	0x24
 1988 0243 9F       		.byte	0x9f
 1989 0244 00000000 		.4byte	0
 1990 0248 00000000 		.4byte	0
 1991              	.LLST22:
 1992 024c 36000000 		.4byte	.LVL19
 1993 0250 7A000000 		.4byte	.LVL22
 1994 0254 0500     		.2byte	0x5
 1995 0256 31       		.byte	0x31
ARM GAS  /tmp/cchCJuIg.s 			page 36


 1996 0257 74       		.byte	0x74
 1997 0258 00       		.sleb128 0
 1998 0259 24       		.byte	0x24
 1999 025a 9F       		.byte	0x9f
 2000 025b 00000000 		.4byte	0
 2001 025f 00000000 		.4byte	0
 2002              	.LLST23:
 2003 0263 44000000 		.4byte	.LVL21
 2004 0267 7A000000 		.4byte	.LVL22
 2005 026b 0700     		.2byte	0x7
 2006 026d 33       		.byte	0x33
 2007 026e 74       		.byte	0x74
 2008 026f 00       		.sleb128 0
 2009 0270 31       		.byte	0x31
 2010 0271 24       		.byte	0x24
 2011 0272 24       		.byte	0x24
 2012 0273 9F       		.byte	0x9f
 2013 0274 00000000 		.4byte	0
 2014 0278 00000000 		.4byte	0
 2015              	.LLST24:
 2016 027c 28000000 		.4byte	.LVL17
 2017 0280 30000000 		.4byte	.LVL18
 2018 0284 0100     		.2byte	0x1
 2019 0286 53       		.byte	0x53
 2020 0287 30000000 		.4byte	.LVL18
 2021 028b 8A000000 		.4byte	.LVL28
 2022 028f 0A00     		.2byte	0xa
 2023 0291 7C       		.byte	0x7c
 2024 0292 00       		.sleb128 0
 2025 0293 74       		.byte	0x74
 2026 0294 00       		.sleb128 0
 2027 0295 37       		.byte	0x37
 2028 0296 1A       		.byte	0x1a
 2029 0297 32       		.byte	0x32
 2030 0298 24       		.byte	0x24
 2031 0299 24       		.byte	0x24
 2032 029a 9F       		.byte	0x9f
 2033 029b 9C000000 		.4byte	.LVL30
 2034 029f AA000000 		.4byte	.LVL31
 2035 02a3 0100     		.2byte	0x1
 2036 02a5 53       		.byte	0x53
 2037 02a6 AA000000 		.4byte	.LVL31
 2038 02aa B6000000 		.4byte	.LFE113
 2039 02ae 0A00     		.2byte	0xa
 2040 02b0 7C       		.byte	0x7c
 2041 02b1 00       		.sleb128 0
 2042 02b2 74       		.byte	0x74
 2043 02b3 00       		.sleb128 0
 2044 02b4 37       		.byte	0x37
 2045 02b5 1A       		.byte	0x1a
 2046 02b6 32       		.byte	0x32
 2047 02b7 24       		.byte	0x24
 2048 02b8 24       		.byte	0x24
 2049 02b9 9F       		.byte	0x9f
 2050 02ba 00000000 		.4byte	0
 2051 02be 00000000 		.4byte	0
 2052              		.section	.debug_aranges,"",%progbits
ARM GAS  /tmp/cchCJuIg.s 			page 37


 2053 0000 24000000 		.4byte	0x24
 2054 0004 0200     		.2byte	0x2
 2055 0006 00000000 		.4byte	.Ldebug_info0
 2056 000a 04       		.byte	0x4
 2057 000b 00       		.byte	0
 2058 000c 0000     		.2byte	0
 2059 000e 0000     		.2byte	0
 2060 0010 00000000 		.4byte	.LFB112
 2061 0014 AC010000 		.4byte	.LFE112-.LFB112
 2062 0018 00000000 		.4byte	.LFB113
 2063 001c B6000000 		.4byte	.LFE113-.LFB113
 2064 0020 00000000 		.4byte	0
 2065 0024 00000000 		.4byte	0
 2066              		.section	.debug_ranges,"",%progbits
 2067              	.Ldebug_ranges0:
 2068 0000 04000000 		.4byte	.LBB20
 2069 0004 06000000 		.4byte	.LBE20
 2070 0008 1C000000 		.4byte	.LBB32
 2071 000c 38000000 		.4byte	.LBE32
 2072 0010 00000000 		.4byte	0
 2073 0014 00000000 		.4byte	0
 2074 0018 08000000 		.4byte	.LBB23
 2075 001c 0A000000 		.4byte	.LBE23
 2076 0020 38000000 		.4byte	.LBB33
 2077 0024 54000000 		.4byte	.LBE33
 2078 0028 00000000 		.4byte	0
 2079 002c 00000000 		.4byte	0
 2080 0030 0A000000 		.4byte	.LBB26
 2081 0034 0C000000 		.4byte	.LBE26
 2082 0038 54000000 		.4byte	.LBB34
 2083 003c 70000000 		.4byte	.LBE34
 2084 0040 00000000 		.4byte	0
 2085 0044 00000000 		.4byte	0
 2086 0048 0C000000 		.4byte	.LBB29
 2087 004c 0E000000 		.4byte	.LBE29
 2088 0050 70000000 		.4byte	.LBB35
 2089 0054 8C000000 		.4byte	.LBE35
 2090 0058 00000000 		.4byte	0
 2091 005c 00000000 		.4byte	0
 2092 0060 04000000 		.4byte	.LBB46
 2093 0064 08000000 		.4byte	.LBE46
 2094 0068 1E000000 		.4byte	.LBB47
 2095 006c 7A000000 		.4byte	.LBE47
 2096 0070 8A000000 		.4byte	.LBB48
 2097 0074 90000000 		.4byte	.LBE48
 2098 0078 94000000 		.4byte	.LBB49
 2099 007c 9C000000 		.4byte	.LBE49
 2100 0080 9E000000 		.4byte	.LBB50
 2101 0084 B6000000 		.4byte	.LBE50
 2102 0088 00000000 		.4byte	0
 2103 008c 00000000 		.4byte	0
 2104 0090 00000000 		.4byte	.LFB112
 2105 0094 AC010000 		.4byte	.LFE112
 2106 0098 00000000 		.4byte	.LFB113
 2107 009c B6000000 		.4byte	.LFE113
 2108 00a0 00000000 		.4byte	0
 2109 00a4 00000000 		.4byte	0
ARM GAS  /tmp/cchCJuIg.s 			page 38


 2110              		.section	.debug_line,"",%progbits
 2111              	.Ldebug_line0:
 2112 0000 AC020000 		.section	.debug_str,"MS",%progbits,1
 2112      0200FC01 
 2112      00000201 
 2112      FB0E0D00 
 2112      01010101 
 2113              	.LASF35:
 2114 0000 41484231 		.ascii	"AHB1LPENR\000"
 2114      4C50454E 
 2114      5200
 2115              	.LASF68:
 2116 000a 50434461 		.ascii	"PCData\000"
 2116      746100
 2117              	.LASF82:
 2118 0011 5F70616C 		.ascii	"_pal_lld_setgroupmode\000"
 2118      5F6C6C64 
 2118      5F736574 
 2118      67726F75 
 2118      706D6F64 
 2119              	.LASF25:
 2120 0027 41504231 		.ascii	"APB1RSTR\000"
 2120      52535452 
 2120      00
 2121              	.LASF29:
 2122 0030 41484232 		.ascii	"AHB2ENR\000"
 2122      454E5200 
 2123              	.LASF65:
 2124 0038 73746D33 		.ascii	"stm32_gpio_setup_t\000"
 2124      325F6770 
 2124      696F5F73 
 2124      65747570 
 2124      5F7400
 2125              	.LASF71:
 2126 004b 50464461 		.ascii	"PFData\000"
 2126      746100
 2127              	.LASF81:
 2128 0052 5F70616C 		.ascii	"_pal_lld_init\000"
 2128      5F6C6C64 
 2128      5F696E69 
 2128      7400
 2129              	.LASF5:
 2130 0060 73686F72 		.ascii	"short int\000"
 2130      7420696E 
 2130      7400
 2131              	.LASF91:
 2132 006a 696E6974 		.ascii	"initgpio\000"
 2132      6770696F 
 2132      00
 2133              	.LASF17:
 2134 0073 73697A65 		.ascii	"sizetype\000"
 2134      74797065 
 2134      00
 2135              	.LASF42:
 2136 007c 42444352 		.ascii	"BDCR\000"
 2136      00
 2137              	.LASF74:
ARM GAS  /tmp/cchCJuIg.s 			page 39


 2138 0081 50494461 		.ascii	"PIData\000"
 2138      746100
 2139              	.LASF45:
 2140 0088 504C4C49 		.ascii	"PLLI2SCFGR\000"
 2140      32534346 
 2140      475200
 2141              	.LASF79:
 2142 0093 6770696F 		.ascii	"gpiop\000"
 2142      7000
 2143              	.LASF10:
 2144 0099 5F5F7569 		.ascii	"__uint32_t\000"
 2144      6E743332 
 2144      5F7400
 2145              	.LASF7:
 2146 00a4 5F5F7569 		.ascii	"__uint16_t\000"
 2146      6E743136 
 2146      5F7400
 2147              	.LASF44:
 2148 00af 53534347 		.ascii	"SSCGR\000"
 2148      5200
 2149              	.LASF67:
 2150 00b5 50424461 		.ascii	"PBData\000"
 2150      746100
 2151              	.LASF21:
 2152 00bc 41484231 		.ascii	"AHB1RSTR\000"
 2152      52535452 
 2152      00
 2153              	.LASF80:
 2154 00c5 636F6E66 		.ascii	"config\000"
 2154      696700
 2155              	.LASF77:
 2156 00cc 696F6D6F 		.ascii	"iomode_t\000"
 2156      64655F74 
 2156      00
 2157              	.LASF37:
 2158 00d5 41484233 		.ascii	"AHB3LPENR\000"
 2158      4C50454E 
 2158      5200
 2159              	.LASF32:
 2160 00df 41504231 		.ascii	"APB1ENR\000"
 2160      454E5200 
 2161              	.LASF76:
 2162 00e7 696F706F 		.ascii	"ioportmask_t\000"
 2162      72746D61 
 2162      736B5F74 
 2162      00
 2163              	.LASF51:
 2164 00f4 4F545950 		.ascii	"OTYPER\000"
 2164      455200
 2165              	.LASF47:
 2166 00fb 44434B43 		.ascii	"DCKCFGR\000"
 2166      46475200 
 2167              	.LASF30:
 2168 0103 41484233 		.ascii	"AHB3ENR\000"
 2168      454E5200 
 2169              	.LASF52:
 2170 010b 4F535045 		.ascii	"OSPEEDR\000"
ARM GAS  /tmp/cchCJuIg.s 			page 40


 2170      45445200 
 2171              	.LASF1:
 2172 0113 6C6F6E67 		.ascii	"long long int\000"
 2172      206C6F6E 
 2172      6720696E 
 2172      7400
 2173              	.LASF53:
 2174 0121 50555044 		.ascii	"PUPDR\000"
 2174      5200
 2175              	.LASF90:
 2176 0127 2F686F6D 		.ascii	"/home/z80/projects/stm32f238.git/firmware/testhal/S"
 2176      652F7A38 
 2176      302F7072 
 2176      6F6A6563 
 2176      74732F73 
 2177 015a 544D3332 		.ascii	"TM32F4xx/_serial\000"
 2177      46347878 
 2177      2F5F7365 
 2177      7269616C 
 2177      00
 2178              	.LASF61:
 2179 016b 6F737065 		.ascii	"ospeedr\000"
 2179      65647200 
 2180              	.LASF9:
 2181 0173 6C6F6E67 		.ascii	"long int\000"
 2181      20696E74 
 2181      00
 2182              	.LASF69:
 2183 017c 50444461 		.ascii	"PDData\000"
 2183      746100
 2184              	.LASF48:
 2185 0183 5243435F 		.ascii	"RCC_TypeDef\000"
 2185      54797065 
 2185      44656600 
 2186              	.LASF50:
 2187 018f 4D4F4445 		.ascii	"MODER\000"
 2187      5200
 2188              	.LASF26:
 2189 0195 41504232 		.ascii	"APB2RSTR\000"
 2189      52535452 
 2189      00
 2190              	.LASF49:
 2191 019e 636C6561 		.ascii	"clear\000"
 2191      7200
 2192              	.LASF89:
 2193 01a4 2E2E2F2E 		.ascii	"../../../os/hal/platforms/STM32/GPIOv2/pal_lld.c\000"
 2193      2E2F2E2E 
 2193      2F6F732F 
 2193      68616C2F 
 2193      706C6174 
 2194              	.LASF72:
 2195 01d5 50474461 		.ascii	"PGData\000"
 2195      746100
 2196              	.LASF66:
 2197 01dc 50414461 		.ascii	"PAData\000"
 2197      746100
 2198              	.LASF78:
ARM GAS  /tmp/cchCJuIg.s 			page 41


 2199 01e3 696F706F 		.ascii	"ioportid_t\000"
 2199      72746964 
 2199      5F7400
 2200              	.LASF2:
 2201 01ee 6C6F6E67 		.ascii	"long double\000"
 2201      20646F75 
 2201      626C6500 
 2202              	.LASF4:
 2203 01fa 756E7369 		.ascii	"unsigned char\000"
 2203      676E6564 
 2203      20636861 
 2203      7200
 2204              	.LASF33:
 2205 0208 41504232 		.ascii	"APB2ENR\000"
 2205      454E5200 
 2206              	.LASF3:
 2207 0210 7369676E 		.ascii	"signed char\000"
 2207      65642063 
 2207      68617200 
 2208              	.LASF12:
 2209 021c 6C6F6E67 		.ascii	"long long unsigned int\000"
 2209      206C6F6E 
 2209      6720756E 
 2209      7369676E 
 2209      65642069 
 2210              	.LASF15:
 2211 0233 75696E74 		.ascii	"uint32_t\000"
 2211      33325F74 
 2211      00
 2212              	.LASF60:
 2213 023c 6F747970 		.ascii	"otyper\000"
 2213      657200
 2214              	.LASF22:
 2215 0243 41484232 		.ascii	"AHB2RSTR\000"
 2215      52535452 
 2215      00
 2216              	.LASF13:
 2217 024c 75696E74 		.ascii	"uint16_t\000"
 2217      31365F74 
 2217      00
 2218              	.LASF11:
 2219 0255 6C6F6E67 		.ascii	"long unsigned int\000"
 2219      20756E73 
 2219      69676E65 
 2219      6420696E 
 2219      7400
 2220              	.LASF57:
 2221 0267 41465248 		.ascii	"AFRH\000"
 2221      00
 2222              	.LASF19:
 2223 026c 504C4C43 		.ascii	"PLLCFGR\000"
 2223      46475200 
 2224              	.LASF56:
 2225 0274 4146524C 		.ascii	"AFRL\000"
 2225      00
 2226              	.LASF6:
 2227 0279 73686F72 		.ascii	"short unsigned int\000"
ARM GAS  /tmp/cchCJuIg.s 			page 42


 2227      7420756E 
 2227      7369676E 
 2227      65642069 
 2227      6E7400
 2228              	.LASF39:
 2229 028c 41504231 		.ascii	"APB1LPENR\000"
 2229      4C50454E 
 2229      5200
 2230              	.LASF18:
 2231 0296 63686172 		.ascii	"char\000"
 2231      00
 2232              	.LASF14:
 2233 029b 696E7433 		.ascii	"int32_t\000"
 2233      325F7400 
 2234              	.LASF8:
 2235 02a3 5F5F696E 		.ascii	"__int32_t\000"
 2235      7433325F 
 2235      7400
 2236              	.LASF75:
 2237 02ad 50414C43 		.ascii	"PALConfig\000"
 2237      6F6E6669 
 2237      6700
 2238              	.LASF16:
 2239 02b7 5F426F6F 		.ascii	"_Bool\000"
 2239      6C00
 2240              	.LASF85:
 2241 02bd 6D6F6465 		.ascii	"mode\000"
 2241      00
 2242              	.LASF36:
 2243 02c2 41484232 		.ascii	"AHB2LPENR\000"
 2243      4C50454E 
 2243      5200
 2244              	.LASF83:
 2245 02cc 706F7274 		.ascii	"port\000"
 2245      00
 2246              	.LASF70:
 2247 02d1 50454461 		.ascii	"PEData\000"
 2247      746100
 2248              	.LASF24:
 2249 02d8 52455345 		.ascii	"RESERVED0\000"
 2249      52564544 
 2249      3000
 2250              	.LASF27:
 2251 02e2 52455345 		.ascii	"RESERVED1\000"
 2251      52564544 
 2251      3100
 2252              	.LASF31:
 2253 02ec 52455345 		.ascii	"RESERVED2\000"
 2253      52564544 
 2253      3200
 2254              	.LASF34:
 2255 02f6 52455345 		.ascii	"RESERVED3\000"
 2255      52564544 
 2255      3300
 2256              	.LASF38:
 2257 0300 52455345 		.ascii	"RESERVED4\000"
 2257      52564544 
ARM GAS  /tmp/cchCJuIg.s 			page 43


 2257      3400
 2258              	.LASF41:
 2259 030a 52455345 		.ascii	"RESERVED5\000"
 2259      52564544 
 2259      3500
 2260              	.LASF43:
 2261 0314 52455345 		.ascii	"RESERVED6\000"
 2261      52564544 
 2261      3600
 2262              	.LASF88:
 2263 031e 474E5520 		.ascii	"GNU C11 5.2.1 20151202 (release) [ARM/embedded-5-br"
 2263      43313120 
 2263      352E322E 
 2263      31203230 
 2263      31353132 
 2264 0351 616E6368 		.ascii	"anch revision 231848] -mcpu=cortex-m4 -mno-thumb-in"
 2264      20726576 
 2264      6973696F 
 2264      6E203233 
 2264      31383438 
 2265 0384 74657277 		.ascii	"terwork -mthumb -ggdb -O2 -fomit-frame-pointer -fal"
 2265      6F726B20 
 2265      2D6D7468 
 2265      756D6220 
 2265      2D676764 
 2266 03b7 69676E2D 		.ascii	"ign-functions=16 -ffunction-sections -fdata-section"
 2266      66756E63 
 2266      74696F6E 
 2266      733D3136 
 2266      202D6666 
 2267 03ea 73202D66 		.ascii	"s -fno-common\000"
 2267      6E6F2D63 
 2267      6F6D6D6F 
 2267      6E00
 2268              	.LASF73:
 2269 03f8 50484461 		.ascii	"PHData\000"
 2269      746100
 2270              	.LASF28:
 2271 03ff 41484231 		.ascii	"AHB1ENR\000"
 2271      454E5200 
 2272              	.LASF84:
 2273 0407 6D61736B 		.ascii	"mask\000"
 2273      00
 2274              	.LASF62:
 2275 040c 70757064 		.ascii	"pupdr\000"
 2275      7200
 2276              	.LASF64:
 2277 0412 61667268 		.ascii	"afrh\000"
 2277      00
 2278              	.LASF63:
 2279 0417 6166726C 		.ascii	"afrl\000"
 2279      00
 2280              	.LASF59:
 2281 041c 6D6F6465 		.ascii	"moder\000"
 2281      7200
 2282              	.LASF58:
 2283 0422 4750494F 		.ascii	"GPIO_TypeDef\000"
ARM GAS  /tmp/cchCJuIg.s 			page 44


 2283      5F547970 
 2283      65446566 
 2283      00
 2284              	.LASF23:
 2285 042f 41484233 		.ascii	"AHB3RSTR\000"
 2285      52535452 
 2285      00
 2286              	.LASF86:
 2287 0438 616C7472 		.ascii	"altr\000"
 2287      00
 2288              	.LASF92:
 2289 043d 49544D5F 		.ascii	"ITM_RxBuffer\000"
 2289      52784275 
 2289      66666572 
 2289      00
 2290              	.LASF87:
 2291 044a 616C7472 		.ascii	"altrmask\000"
 2291      6D61736B 
 2291      00
 2292              	.LASF0:
 2293 0453 756E7369 		.ascii	"unsigned int\000"
 2293      676E6564 
 2293      20696E74 
 2293      00
 2294              	.LASF20:
 2295 0460 43464752 		.ascii	"CFGR\000"
 2295      00
 2296              	.LASF46:
 2297 0465 504C4C53 		.ascii	"PLLSAICFGR\000"
 2297      41494346 
 2297      475200
 2298              	.LASF55:
 2299 0470 4C434B52 		.ascii	"LCKR\000"
 2299      00
 2300              	.LASF40:
 2301 0475 41504232 		.ascii	"APB2LPENR\000"
 2301      4C50454E 
 2301      5200
 2302              	.LASF54:
 2303 047f 42535252 		.ascii	"BSRR\000"
 2303      00
 2304              		.ident	"GCC: (GNU Tools for ARM Embedded Processors) 5.2.1 20151202 (release) [ARM/embedded-5-bran
ARM GAS  /tmp/cchCJuIg.s 			page 45


DEFINED SYMBOLS
                            *ABS*:00000000 pal_lld.c
     /tmp/cchCJuIg.s:20     .text._pal_lld_init:00000000 $t
     /tmp/cchCJuIg.s:26     .text._pal_lld_init:00000000 _pal_lld_init
     /tmp/cchCJuIg.s:322    .text._pal_lld_init:00000198 $d
     /tmp/cchCJuIg.s:331    .text._pal_lld_setgroupmode:00000000 $t
     /tmp/cchCJuIg.s:337    .text._pal_lld_setgroupmode:00000000 _pal_lld_setgroupmode
                     .debug_frame:00000010 $d

NO UNDEFINED SYMBOLS
