ARM GAS  /tmp/cczMyfWo.s 			page 1


   1              		.syntax unified
   2              		.cpu cortex-m4
   3              		.fpu softvfp
   4              		.eabi_attribute 20, 1
   5              		.eabi_attribute 21, 1
   6              		.eabi_attribute 23, 3
   7              		.eabi_attribute 24, 1
   8              		.eabi_attribute 25, 1
   9              		.eabi_attribute 26, 1
  10              		.eabi_attribute 30, 2
  11              		.eabi_attribute 34, 1
  12              		.eabi_attribute 18, 4
  13              		.thumb
  14              		.syntax unified
  15              		.file	"serial.c"
  16              		.text
  17              	.Ltext0:
  18              		.cfi_sections	.debug_frame
  19              		.section	.text.readt,"ax",%progbits
  20              		.align	2
  21              		.p2align 4,,15
  22              		.thumb
  23              		.thumb_func
  24              		.type	readt, %function
  25              	readt:
  26              	.LFB118:
  27              		.file 1 "../../../os/hal/src/serial.c"
  28              		.loc 1 99 0
  29              		.cfi_startproc
  30              		@ args = 0, pretend = 0, frame = 0
  31              		@ frame_needed = 0, uses_anonymous_args = 0
  32              		@ link register save eliminated.
  33              	.LVL0:
  34              		.loc 1 101 0
  35 0000 0C30     		adds	r0, r0, #12
  36              	.LVL1:
  37 0002 FFF7FEBF 		b	chIQReadTimeout
  38              	.LVL2:
  39              		.cfi_endproc
  40              	.LFE118:
  41              		.size	readt, .-readt
  42 0006 00BF     		.section	.text.read,"ax",%progbits
  43              		.align	2
  44              		.p2align 4,,15
  45              		.thumb
  46              		.thumb_func
  47              		.type	read, %function
  48              	read:
  49              	.LFB112:
  50              		.loc 1 68 0
  51              		.cfi_startproc
  52              		@ args = 0, pretend = 0, frame = 0
  53              		@ frame_needed = 0, uses_anonymous_args = 0
  54              		@ link register save eliminated.
  55              	.LVL3:
  56              		.loc 1 70 0
  57 0000 0C30     		adds	r0, r0, #12
ARM GAS  /tmp/cczMyfWo.s 			page 2


  58              	.LVL4:
  59 0002 4FF0FF33 		mov	r3, #-1
  60 0006 FFF7FEBF 		b	chIQReadTimeout
  61              	.LVL5:
  62              		.cfi_endproc
  63              	.LFE112:
  64              		.size	read, .-read
  65 000a 00BF     		.section	.text.writet,"ax",%progbits
  66              		.align	2
  67              		.p2align 4,,15
  68              		.thumb
  69              		.thumb_func
  70              		.type	writet, %function
  71              	writet:
  72              	.LFB117:
  73              		.loc 1 94 0
  74              		.cfi_startproc
  75              		@ args = 0, pretend = 0, frame = 0
  76              		@ frame_needed = 0, uses_anonymous_args = 0
  77              		@ link register save eliminated.
  78              	.LVL6:
  79              		.loc 1 96 0
  80 0000 3030     		adds	r0, r0, #48
  81              	.LVL7:
  82 0002 FFF7FEBF 		b	chOQWriteTimeout
  83              	.LVL8:
  84              		.cfi_endproc
  85              	.LFE117:
  86              		.size	writet, .-writet
  87 0006 00BF     		.section	.text.write,"ax",%progbits
  88              		.align	2
  89              		.p2align 4,,15
  90              		.thumb
  91              		.thumb_func
  92              		.type	write, %function
  93              	write:
  94              	.LFB111:
  95              		.loc 1 62 0
  96              		.cfi_startproc
  97              		@ args = 0, pretend = 0, frame = 0
  98              		@ frame_needed = 0, uses_anonymous_args = 0
  99              		@ link register save eliminated.
 100              	.LVL9:
 101              		.loc 1 64 0
 102 0000 3030     		adds	r0, r0, #48
 103              	.LVL10:
 104 0002 4FF0FF33 		mov	r3, #-1
 105 0006 FFF7FEBF 		b	chOQWriteTimeout
 106              	.LVL11:
 107              		.cfi_endproc
 108              	.LFE111:
 109              		.size	write, .-write
 110 000a 00BF     		.section	.text.gett,"ax",%progbits
 111              		.align	2
 112              		.p2align 4,,15
 113              		.thumb
 114              		.thumb_func
ARM GAS  /tmp/cczMyfWo.s 			page 3


 115              		.type	gett, %function
 116              	gett:
 117              	.LFB116:
 118              		.loc 1 89 0
 119              		.cfi_startproc
 120              		@ args = 0, pretend = 0, frame = 0
 121              		@ frame_needed = 0, uses_anonymous_args = 0
 122              		@ link register save eliminated.
 123              	.LVL12:
 124              		.loc 1 91 0
 125 0000 0C30     		adds	r0, r0, #12
 126              	.LVL13:
 127 0002 FFF7FEBF 		b	chIQGetTimeout
 128              	.LVL14:
 129              		.cfi_endproc
 130              	.LFE116:
 131              		.size	gett, .-gett
 132 0006 00BF     		.section	.text.get,"ax",%progbits
 133              		.align	2
 134              		.p2align 4,,15
 135              		.thumb
 136              		.thumb_func
 137              		.type	get, %function
 138              	get:
 139              	.LFB114:
 140              		.loc 1 79 0
 141              		.cfi_startproc
 142              		@ args = 0, pretend = 0, frame = 0
 143              		@ frame_needed = 0, uses_anonymous_args = 0
 144              		@ link register save eliminated.
 145              	.LVL15:
 146              		.loc 1 81 0
 147 0000 0C30     		adds	r0, r0, #12
 148              	.LVL16:
 149 0002 4FF0FF31 		mov	r1, #-1
 150 0006 FFF7FEBF 		b	chIQGetTimeout
 151              	.LVL17:
 152              		.cfi_endproc
 153              	.LFE114:
 154              		.size	get, .-get
 155 000a 00BF     		.section	.text.putt,"ax",%progbits
 156              		.align	2
 157              		.p2align 4,,15
 158              		.thumb
 159              		.thumb_func
 160              		.type	putt, %function
 161              	putt:
 162              	.LFB115:
 163              		.loc 1 84 0
 164              		.cfi_startproc
 165              		@ args = 0, pretend = 0, frame = 0
 166              		@ frame_needed = 0, uses_anonymous_args = 0
 167              		@ link register save eliminated.
 168              	.LVL18:
 169              		.loc 1 86 0
 170 0000 3030     		adds	r0, r0, #48
 171              	.LVL19:
ARM GAS  /tmp/cczMyfWo.s 			page 4


 172 0002 FFF7FEBF 		b	chOQPutTimeout
 173              	.LVL20:
 174              		.cfi_endproc
 175              	.LFE115:
 176              		.size	putt, .-putt
 177 0006 00BF     		.section	.text.put,"ax",%progbits
 178              		.align	2
 179              		.p2align 4,,15
 180              		.thumb
 181              		.thumb_func
 182              		.type	put, %function
 183              	put:
 184              	.LFB113:
 185              		.loc 1 74 0
 186              		.cfi_startproc
 187              		@ args = 0, pretend = 0, frame = 0
 188              		@ frame_needed = 0, uses_anonymous_args = 0
 189              		@ link register save eliminated.
 190              	.LVL21:
 191              		.loc 1 76 0
 192 0000 3030     		adds	r0, r0, #48
 193              	.LVL22:
 194 0002 4FF0FF32 		mov	r2, #-1
 195 0006 FFF7FEBF 		b	chOQPutTimeout
 196              	.LVL23:
 197              		.cfi_endproc
 198              	.LFE113:
 199              		.size	put, .-put
 200 000a 00BF     		.section	.text.sdInit,"ax",%progbits
 201              		.align	2
 202              		.p2align 4,,15
 203              		.global	sdInit
 204              		.thumb
 205              		.thumb_func
 206              		.type	sdInit, %function
 207              	sdInit:
 208              	.LFB119:
 209              		.loc 1 120 0
 210              		.cfi_startproc
 211              		@ args = 0, pretend = 0, frame = 0
 212              		@ frame_needed = 0, uses_anonymous_args = 0
 213              		@ link register save eliminated.
 214              		.loc 1 122 0
 215 0000 FFF7FEBF 		b	sd_lld_init
 216              	.LVL24:
 217              		.cfi_endproc
 218              	.LFE119:
 219              		.size	sdInit, .-sdInit
 220              		.section	.text.sdObjectInit,"ax",%progbits
 221              		.align	2
 222              		.p2align 4,,15
 223              		.global	sdObjectInit
 224              		.thumb
 225              		.thumb_func
 226              		.type	sdObjectInit, %function
 227              	sdObjectInit:
 228              	.LFB120:
ARM GAS  /tmp/cczMyfWo.s 			page 5


 229              		.loc 1 140 0
 230              		.cfi_startproc
 231              		@ args = 0, pretend = 0, frame = 0
 232              		@ frame_needed = 0, uses_anonymous_args = 0
 233              	.LVL25:
 234 0000 70B5     		push	{r4, r5, r6, lr}
 235              		.cfi_def_cfa_offset 16
 236              		.cfi_offset 4, -16
 237              		.cfi_offset 5, -12
 238              		.cfi_offset 6, -8
 239              		.cfi_offset 14, -4
 240              		.loc 1 142 0
 241 0002 0E4B     		ldr	r3, .L12
 242              		.loc 1 140 0
 243 0004 0446     		mov	r4, r0
 244 0006 82B0     		sub	sp, sp, #8
 245              		.cfi_def_cfa_offset 24
 246              		.loc 1 142 0
 247 0008 40F8043B 		str	r3, [r0], #4
 248              	.LVL26:
 249              		.loc 1 144 0
 250 000c 0126     		movs	r6, #1
 251              		.loc 1 145 0
 252 000e 0094     		str	r4, [sp]
 253              		.loc 1 140 0
 254 0010 1546     		mov	r5, r2
 255              		.loc 1 145 0
 256 0012 0B46     		mov	r3, r1
 257              		.loc 1 143 0
 258 0014 6060     		str	r0, [r4, #4]
 259              		.loc 1 145 0
 260 0016 04F15401 		add	r1, r4, #84
 261              	.LVL27:
 262 001a 04F10C00 		add	r0, r4, #12
 263              		.loc 1 144 0
 264 001e 2672     		strb	r6, [r4, #8]
 265              		.loc 1 145 0
 266 0020 1022     		movs	r2, #16
 267              	.LVL28:
 268 0022 FFF7FEFF 		bl	chIQInit
 269              	.LVL29:
 270              		.loc 1 146 0
 271 0026 0094     		str	r4, [sp]
 272 0028 2B46     		mov	r3, r5
 273 002a 04F16401 		add	r1, r4, #100
 274 002e 04F13000 		add	r0, r4, #48
 275 0032 1022     		movs	r2, #16
 276 0034 FFF7FEFF 		bl	chOQInit
 277              	.LVL30:
 278              		.loc 1 147 0
 279 0038 02B0     		add	sp, sp, #8
 280              		.cfi_def_cfa_offset 16
 281              		@ sp needed
 282 003a 70BD     		pop	{r4, r5, r6, pc}
 283              	.LVL31:
 284              	.L13:
 285              		.align	2
ARM GAS  /tmp/cczMyfWo.s 			page 6


 286              	.L12:
 287 003c 00000000 		.word	.LANCHOR0
 288              		.cfi_endproc
 289              	.LFE120:
 290              		.size	sdObjectInit, .-sdObjectInit
 291              		.section	.text.sdStart,"ax",%progbits
 292              		.align	2
 293              		.p2align 4,,15
 294              		.global	sdStart
 295              		.thumb
 296              		.thumb_func
 297              		.type	sdStart, %function
 298              	sdStart:
 299              	.LFB121:
 300              		.loc 1 159 0
 301              		.cfi_startproc
 302              		@ args = 0, pretend = 0, frame = 0
 303              		@ frame_needed = 0, uses_anonymous_args = 0
 304              	.LVL32:
 305 0000 38B5     		push	{r3, r4, r5, lr}
 306              		.cfi_def_cfa_offset 16
 307              		.cfi_offset 3, -16
 308              		.cfi_offset 4, -12
 309              		.cfi_offset 5, -8
 310              		.cfi_offset 14, -4
 311              		.loc 1 159 0
 312 0002 0D46     		mov	r5, r1
 313              		.loc 1 161 0
 314 0004 0446     		mov	r4, r0
 315 0006 A8B1     		cbz	r0, .L19
 316              	.LVL33:
 317              	.L15:
 318              		.loc 1 163 0
 319              		.syntax unified
 320              	@ 163 "../../../os/hal/src/serial.c" 1
 321 0008 FFF7FEFF 		bl      _port_lock
 322              	@ 0 "" 2
 323              		.thumb
 324              		.syntax unified
 325 000c FFF7FEFF 		bl	dbg_check_lock
 326              	.LVL34:
 327              		.loc 1 164 0
 328 0010 237A     		ldrb	r3, [r4, #8]	@ zero_extendqisi2
 329 0012 013B     		subs	r3, r3, #1
 330 0014 012B     		cmp	r3, #1
 331 0016 02D9     		bls	.L16
 332              		.loc 1 164 0 is_stmt 0 discriminator 1
 333 0018 0848     		ldr	r0, .L20
 334 001a FFF7FEFF 		bl	chDbgPanic
 335              	.LVL35:
 336              	.L16:
 337              		.loc 1 167 0 is_stmt 1
 338 001e 2946     		mov	r1, r5
 339 0020 2046     		mov	r0, r4
 340 0022 FFF7FEFF 		bl	sd_lld_start
 341              	.LVL36:
 342              		.loc 1 168 0
ARM GAS  /tmp/cczMyfWo.s 			page 7


 343 0026 0223     		movs	r3, #2
 344 0028 2372     		strb	r3, [r4, #8]
 345              		.loc 1 169 0
 346 002a FFF7FEFF 		bl	dbg_check_unlock
 347              	.LVL37:
 348              		.syntax unified
 349              	@ 169 "../../../os/hal/src/serial.c" 1
 350 002e FFF7FEFF 		bl      _port_unlock
 351              	@ 0 "" 2
 352              		.thumb
 353              		.syntax unified
 354 0032 38BD     		pop	{r3, r4, r5, pc}
 355              	.LVL38:
 356              	.L19:
 357              		.loc 1 161 0 discriminator 1
 358 0034 0248     		ldr	r0, .L20+4
 359              	.LVL39:
 360 0036 FFF7FEFF 		bl	chDbgPanic
 361              	.LVL40:
 362 003a E5E7     		b	.L15
 363              	.L21:
 364              		.align	2
 365              	.L20:
 366 003c 0C000000 		.word	.LC1
 367 0040 00000000 		.word	.LC0
 368              		.cfi_endproc
 369              	.LFE121:
 370              		.size	sdStart, .-sdStart
 371              		.section	.text.sdStop,"ax",%progbits
 372              		.align	2
 373              		.p2align 4,,15
 374              		.global	sdStop
 375              		.thumb
 376              		.thumb_func
 377              		.type	sdStop, %function
 378              	sdStop:
 379              	.LFB122:
 380              		.loc 1 181 0
 381              		.cfi_startproc
 382              		@ args = 0, pretend = 0, frame = 0
 383              		@ frame_needed = 0, uses_anonymous_args = 0
 384              	.LVL41:
 385 0000 10B5     		push	{r4, lr}
 386              		.cfi_def_cfa_offset 8
 387              		.cfi_offset 4, -8
 388              		.cfi_offset 14, -4
 389              		.loc 1 183 0
 390 0002 0446     		mov	r4, r0
 391 0004 F0B1     		cbz	r0, .L26
 392              	.LVL42:
 393              	.L23:
 394              		.loc 1 185 0
 395              		.syntax unified
 396              	@ 185 "../../../os/hal/src/serial.c" 1
 397 0006 FFF7FEFF 		bl      _port_lock
 398              	@ 0 "" 2
 399              		.thumb
ARM GAS  /tmp/cczMyfWo.s 			page 8


 400              		.syntax unified
 401 000a FFF7FEFF 		bl	dbg_check_lock
 402              	.LVL43:
 403              		.loc 1 186 0
 404 000e 237A     		ldrb	r3, [r4, #8]	@ zero_extendqisi2
 405 0010 013B     		subs	r3, r3, #1
 406 0012 012B     		cmp	r3, #1
 407 0014 02D9     		bls	.L24
 408              		.loc 1 186 0 is_stmt 0 discriminator 1
 409 0016 0D48     		ldr	r0, .L27
 410 0018 FFF7FEFF 		bl	chDbgPanic
 411              	.LVL44:
 412              	.L24:
 413              		.loc 1 189 0 is_stmt 1
 414 001c 2046     		mov	r0, r4
 415 001e FFF7FEFF 		bl	sd_lld_stop
 416              	.LVL45:
 417              		.loc 1 190 0
 418 0022 0123     		movs	r3, #1
 419 0024 2372     		strb	r3, [r4, #8]
 420              		.loc 1 191 0
 421 0026 04F13000 		add	r0, r4, #48
 422 002a FFF7FEFF 		bl	chOQResetI
 423              	.LVL46:
 424              		.loc 1 192 0
 425 002e 04F10C00 		add	r0, r4, #12
 426 0032 FFF7FEFF 		bl	chIQResetI
 427              	.LVL47:
 428              		.loc 1 193 0
 429 0036 FFF7FEFF 		bl	chSchRescheduleS
 430              	.LVL48:
 431              		.loc 1 194 0
 432 003a FFF7FEFF 		bl	dbg_check_unlock
 433              	.LVL49:
 434              		.syntax unified
 435              	@ 194 "../../../os/hal/src/serial.c" 1
 436 003e FFF7FEFF 		bl      _port_unlock
 437              	@ 0 "" 2
 438              		.thumb
 439              		.syntax unified
 440 0042 10BD     		pop	{r4, pc}
 441              	.LVL50:
 442              	.L26:
 443              		.loc 1 183 0 discriminator 1
 444 0044 0248     		ldr	r0, .L27+4
 445              	.LVL51:
 446 0046 FFF7FEFF 		bl	chDbgPanic
 447              	.LVL52:
 448 004a DCE7     		b	.L23
 449              	.L28:
 450              		.align	2
 451              	.L27:
 452 004c 28000000 		.word	.LC3
 453 0050 1C000000 		.word	.LC2
 454              		.cfi_endproc
 455              	.LFE122:
 456              		.size	sdStop, .-sdStop
ARM GAS  /tmp/cczMyfWo.s 			page 9


 457              		.section	.text.sdIncomingDataI,"ax",%progbits
 458              		.align	2
 459              		.p2align 4,,15
 460              		.global	sdIncomingDataI
 461              		.thumb
 462              		.thumb_func
 463              		.type	sdIncomingDataI, %function
 464              	sdIncomingDataI:
 465              	.LFB123:
 466              		.loc 1 213 0
 467              		.cfi_startproc
 468              		@ args = 0, pretend = 0, frame = 0
 469              		@ frame_needed = 0, uses_anonymous_args = 0
 470              	.LVL53:
 471 0000 38B5     		push	{r3, r4, r5, lr}
 472              		.cfi_def_cfa_offset 16
 473              		.cfi_offset 3, -16
 474              		.cfi_offset 4, -12
 475              		.cfi_offset 5, -8
 476              		.cfi_offset 14, -4
 477              		.loc 1 213 0
 478 0002 0446     		mov	r4, r0
 479 0004 0D46     		mov	r5, r1
 480              		.loc 1 215 0
 481 0006 FFF7FEFF 		bl	chDbgCheckClassI
 482              	.LVL54:
 483              		.loc 1 216 0
 484 000a D4B1     		cbz	r4, .L34
 485              	.L30:
 486              		.loc 1 218 0
 487 000c 6369     		ldr	r3, [r4, #20]
 488 000e 3BB1     		cbz	r3, .L35
 489              		.loc 1 220 0
 490 0010 2946     		mov	r1, r5
 491 0012 04F10C00 		add	r0, r4, #12
 492 0016 FFF7FEFF 		bl	chIQPutI
 493              	.LVL55:
 494 001a 0028     		cmp	r0, #0
 495 001c 0BDB     		blt	.L36
 496              	.L29:
 497 001e 38BD     		pop	{r3, r4, r5, pc}
 498              	.LVL56:
 499              	.L35:
 500              		.loc 1 219 0
 501 0020 0421     		movs	r1, #4
 502 0022 6018     		adds	r0, r4, r1
 503 0024 FFF7FEFF 		bl	chEvtBroadcastFlagsI
 504              	.LVL57:
 505              		.loc 1 220 0
 506 0028 2946     		mov	r1, r5
 507 002a 04F10C00 		add	r0, r4, #12
 508 002e FFF7FEFF 		bl	chIQPutI
 509              	.LVL58:
 510 0032 0028     		cmp	r0, #0
 511 0034 F3DA     		bge	.L29
 512              	.L36:
 513              		.loc 1 221 0
ARM GAS  /tmp/cczMyfWo.s 			page 10


 514 0036 201D     		adds	r0, r4, #4
 515 0038 8021     		movs	r1, #128
 516              		.loc 1 222 0
 517 003a BDE83840 		pop	{r3, r4, r5, lr}
 518              		.cfi_remember_state
 519              		.cfi_restore 14
 520              		.cfi_restore 5
 521              		.cfi_restore 4
 522              		.cfi_restore 3
 523              		.cfi_def_cfa_offset 0
 524              	.LVL59:
 525              		.loc 1 221 0
 526 003e FFF7FEBF 		b	chEvtBroadcastFlagsI
 527              	.LVL60:
 528              	.L34:
 529              		.cfi_restore_state
 530              		.loc 1 216 0 discriminator 1
 531 0042 0248     		ldr	r0, .L37
 532 0044 FFF7FEFF 		bl	chDbgPanic
 533              	.LVL61:
 534 0048 E0E7     		b	.L30
 535              	.L38:
 536 004a 00BF     		.align	2
 537              	.L37:
 538 004c 38000000 		.word	.LC4
 539              		.cfi_endproc
 540              	.LFE123:
 541              		.size	sdIncomingDataI, .-sdIncomingDataI
 542              		.section	.text.sdRequestDataI,"ax",%progbits
 543              		.align	2
 544              		.p2align 4,,15
 545              		.global	sdRequestDataI
 546              		.thumb
 547              		.thumb_func
 548              		.type	sdRequestDataI, %function
 549              	sdRequestDataI:
 550              	.LFB124:
 551              		.loc 1 239 0
 552              		.cfi_startproc
 553              		@ args = 0, pretend = 0, frame = 0
 554              		@ frame_needed = 0, uses_anonymous_args = 0
 555              	.LVL62:
 556 0000 38B5     		push	{r3, r4, r5, lr}
 557              		.cfi_def_cfa_offset 16
 558              		.cfi_offset 3, -16
 559              		.cfi_offset 4, -12
 560              		.cfi_offset 5, -8
 561              		.cfi_offset 14, -4
 562              		.loc 1 239 0
 563 0002 0446     		mov	r4, r0
 564              		.loc 1 242 0
 565 0004 FFF7FEFF 		bl	chDbgCheckClassI
 566              	.LVL63:
 567              		.loc 1 243 0
 568 0008 6CB1     		cbz	r4, .L43
 569              	.L40:
 570              		.loc 1 245 0
ARM GAS  /tmp/cczMyfWo.s 			page 11


 571 000a 04F13000 		add	r0, r4, #48
 572 000e FFF7FEFF 		bl	chOQGetI
 573              	.LVL64:
 574              		.loc 1 246 0
 575 0012 051E     		subs	r5, r0, #0
 576 0014 01DB     		blt	.L44
 577              		.loc 1 249 0
 578 0016 2846     		mov	r0, r5
 579 0018 38BD     		pop	{r3, r4, r5, pc}
 580              	.LVL65:
 581              	.L44:
 582              		.loc 1 247 0
 583 001a 201D     		adds	r0, r4, #4
 584              	.LVL66:
 585 001c 0821     		movs	r1, #8
 586 001e FFF7FEFF 		bl	chEvtBroadcastFlagsI
 587              	.LVL67:
 588              		.loc 1 249 0
 589 0022 2846     		mov	r0, r5
 590 0024 38BD     		pop	{r3, r4, r5, pc}
 591              	.LVL68:
 592              	.L43:
 593              		.loc 1 243 0 discriminator 1
 594 0026 0248     		ldr	r0, .L45
 595 0028 FFF7FEFF 		bl	chDbgPanic
 596              	.LVL69:
 597 002c EDE7     		b	.L40
 598              	.L46:
 599 002e 00BF     		.align	2
 600              	.L45:
 601 0030 4C000000 		.word	.LC5
 602              		.cfi_endproc
 603              	.LFE124:
 604              		.size	sdRequestDataI, .-sdRequestDataI
 605              		.section	.rodata.str1.4,"aMS",%progbits,1
 606              		.align	2
 607              	.LC0:
 608 0000 22736453 		.ascii	"\"sdStart\"()\000"
 608      74617274 
 608      22282900 
 609              	.LC1:
 610 000c 73645374 		.ascii	"sdStart(), #1\000"
 610      61727428 
 610      292C2023 
 610      3100
 611 001a 0000     		.space	2
 612              	.LC2:
 613 001c 22736453 		.ascii	"\"sdStop\"()\000"
 613      746F7022 
 613      282900
 614 0027 00       		.space	1
 615              	.LC3:
 616 0028 73645374 		.ascii	"sdStop(), #1\000"
 616      6F702829 
 616      2C202331 
 616      00
 617 0035 000000   		.space	3
ARM GAS  /tmp/cczMyfWo.s 			page 12


 618              	.LC4:
 619 0038 22736449 		.ascii	"\"sdIncomingDataI\"()\000"
 619      6E636F6D 
 619      696E6744 
 619      61746149 
 619      22282900 
 620              	.LC5:
 621 004c 22736452 		.ascii	"\"sdRequestDataI\"()\000"
 621      65717565 
 621      73744461 
 621      74614922 
 621      282900
 622              		.section	.rodata.vmt,"a",%progbits
 623              		.align	2
 624              		.set	.LANCHOR0,. + 0
 625              		.type	vmt, %object
 626              		.size	vmt, 32
 627              	vmt:
 628 0000 00000000 		.word	write
 629 0004 00000000 		.word	read
 630 0008 00000000 		.word	put
 631 000c 00000000 		.word	get
 632 0010 00000000 		.word	putt
 633 0014 00000000 		.word	gett
 634 0018 00000000 		.word	writet
 635 001c 00000000 		.word	readt
 636              		.text
 637              	.Letext0:
 638              		.file 2 "/home/z80/programs/sw4stm32/plugins/fr.ac6.mcu.externaltools.arm-none.linux32_1.7.0.20160
 639              		.file 3 "/home/z80/programs/sw4stm32/plugins/fr.ac6.mcu.externaltools.arm-none.linux32_1.7.0.20160
 640              		.file 4 "/home/z80/programs/sw4stm32/plugins/fr.ac6.mcu.externaltools.arm-none.linux32_1.7.0.20160
 641              		.file 5 "../../../os/ports/GCC/ARMCMx/chtypes.h"
 642              		.file 6 "../../../os/kernel/include/chlists.h"
 643              		.file 7 "../../../os/kernel/include/chthreads.h"
 644              		.file 8 "../../../os/ports/GCC/ARMCMx/chcore_v7m.h"
 645              		.file 9 "../../../os/kernel/include/chmtx.h"
 646              		.file 10 "../../../os/kernel/include/chevents.h"
 647              		.file 11 "../../../os/kernel/include/chqueues.h"
 648              		.file 12 "../../../os/hal/platforms/STM32F4xx/stm32f4xx.h"
 649              		.file 13 "../../../os/hal/include/serial.h"
 650              		.file 14 "../../../os/hal/platforms/STM32/USARTv1/serial_lld.h"
 651              		.file 15 "../../../os/kernel/include/chdebug.h"
 652              		.file 16 "../../../os/kernel/include/chschd.h"
 653              		.file 17 "../../../os/ports/common/ARMCMx/CMSIS/include/core_cm4.h"