ARM GAS  /tmp/cc8LyrTl.s 			page 1


   1              		.syntax unified
   2              		.cpu cortex-m4
   3              		.fpu softvfp
   4              		.eabi_attribute 20, 1
   5              		.eabi_attribute 21, 1
   6              		.eabi_attribute 23, 3
   7              		.eabi_attribute 24, 1
   8              		.eabi_attribute 25, 1
   9              		.eabi_attribute 26, 1
  10              		.eabi_attribute 30, 2
  11              		.eabi_attribute 34, 1
  12              		.eabi_attribute 18, 4
  13              		.thumb
  14              		.syntax unified
  15              		.file	"serial_lld.c"
  16              		.text
  17              	.Ltext0:
  18              		.cfi_sections	.debug_frame
  19              		.section	.text.notify1,"ax",%progbits
  20              		.align	2
  21              		.p2align 4,,15
  22              		.thumb
  23              		.thumb_func
  24              		.type	notify1, %function
  25              	notify1:
  26              	.LFB115:
  27              		.file 1 "../../../os/hal/platforms/STM32/USARTv1/serial_lld.c"
  28              		.loc 1 203 0
  29              		.cfi_startproc
  30              		@ args = 0, pretend = 0, frame = 0
  31              		@ frame_needed = 0, uses_anonymous_args = 0
  32              		@ link register save eliminated.
  33              	.LVL0:
  34              		.loc 1 206 0
  35 0000 034A     		ldr	r2, .L2
  36 0002 9389     		ldrh	r3, [r2, #12]
  37 0004 9BB2     		uxth	r3, r3
  38 0006 43F08003 		orr	r3, r3, #128
  39 000a 9381     		strh	r3, [r2, #12]	@ movhi
  40 000c 7047     		bx	lr
  41              	.L3:
  42 000e 00BF     		.align	2
  43              	.L2:
  44 0010 00100140 		.word	1073811456
  45              		.cfi_endproc
  46              	.LFE115:
  47              		.size	notify1, .-notify1
  48              		.section	.text.VectorD4,"ax",%progbits
  49              		.align	2
  50              		.p2align 4,,15
  51              		.global	VectorD4
  52              		.thumb
  53              		.thumb_func
  54              		.type	VectorD4, %function
  55              	VectorD4:
  56              	.LFB116:
  57              		.loc 1 263 0
ARM GAS  /tmp/cc8LyrTl.s 			page 2


  58              		.cfi_startproc
  59              		@ args = 0, pretend = 0, frame = 0
  60              		@ frame_needed = 0, uses_anonymous_args = 0
  61 0000 F8B5     		push	{r3, r4, r5, r6, r7, lr}
  62              		.cfi_def_cfa_offset 24
  63              		.cfi_offset 3, -24
  64              		.cfi_offset 4, -20
  65              		.cfi_offset 5, -16
  66              		.cfi_offset 6, -12
  67              		.cfi_offset 7, -8
  68              		.cfi_offset 14, -4
  69              	.LBB12:
  70              	.LBB13:
  71              		.loc 1 155 0
  72 0002 404E     		ldr	r6, .L51
  73              	.LBE13:
  74              	.LBE12:
  75              		.loc 1 265 0
  76 0004 FFF7FEFF 		bl	dbg_check_enter_isr
  77              	.LVL1:
  78              	.LBB19:
  79              	.LBB17:
  80              		.loc 1 155 0
  81 0008 756F     		ldr	r5, [r6, #116]
  82              	.LVL2:
  83              		.loc 1 156 0
  84 000a AB89     		ldrh	r3, [r5, #12]
  85              		.loc 1 157 0
  86 000c 2C88     		ldrh	r4, [r5]
  87 000e A4B2     		uxth	r4, r4
  88              		.loc 1 160 0
  89 0010 E105     		lsls	r1, r4, #23
  90              		.loc 1 156 0
  91 0012 9FB2     		uxth	r7, r3
  92              	.LVL3:
  93              		.loc 1 160 0
  94 0014 4AD4     		bmi	.L48
  95              	.L5:
  96              		.loc 1 168 0
  97              		.syntax unified
  98              	@ 168 "../../../os/hal/platforms/STM32/USARTv1/serial_lld.c" 1
  99 0016 FFF7FEFF 		bl      _port_lock
 100              	@ 0 "" 2
 101              		.thumb
 102              		.syntax unified
 103 001a FFF7FEFF 		bl	dbg_check_lock_from_isr
 104              	.LVL4:
 105              		.loc 1 169 0
 106 001e A206     		lsls	r2, r4, #26
 107 0020 21D5     		bpl	.L6
 108 0022 08E0     		b	.L12
 109              	.LVL5:
 110              	.L7:
 111              		.loc 1 173 0
 112 0024 A988     		ldrh	r1, [r5, #4]
 113 0026 3748     		ldr	r0, .L51
 114 0028 C9B2     		uxtb	r1, r1
ARM GAS  /tmp/cc8LyrTl.s 			page 3


 115 002a FFF7FEFF 		bl	sdIncomingDataI
 116              	.LVL6:
 117              		.loc 1 174 0
 118 002e 2C88     		ldrh	r4, [r5]
 119 0030 A4B2     		uxth	r4, r4
 120              	.LVL7:
 121              		.loc 1 169 0
 122 0032 A006     		lsls	r0, r4, #26
 123 0034 17D5     		bpl	.L6
 124              	.L12:
 125              		.loc 1 171 0
 126 0036 2307     		lsls	r3, r4, #28
 127 0038 F4D0     		beq	.L7
 128              	.LVL8:
 129              	.LBB14:
 130              	.LBB15:
 131              		.loc 1 139 0
 132 003a 14F0080F 		tst	r4, #8
 133 003e 14BF     		ite	ne
 134 0040 8021     		movne	r1, #128
 135 0042 0021     		moveq	r1, #0
 136              	.LVL9:
 137              		.loc 1 140 0
 138 0044 14F0010F 		tst	r4, #1
 139              		.loc 1 141 0
 140 0048 18BF     		it	ne
 141 004a 41F02001 		orrne	r1, r1, #32
 142              	.LVL10:
 143              		.loc 1 142 0
 144 004e A607     		lsls	r6, r4, #30
 145              		.loc 1 143 0
 146 0050 48BF     		it	mi
 147 0052 41F04001 		orrmi	r1, r1, #64
 148              	.LVL11:
 149              		.loc 1 144 0
 150 0056 6407     		lsls	r4, r4, #29
 151              	.LVL12:
 152              		.loc 1 146 0
 153 0058 2B48     		ldr	r0, .L51+4
 154              		.loc 1 145 0
 155 005a 48BF     		it	mi
 156 005c 41F48071 		orrmi	r1, r1, #256
 157              	.LVL13:
 158              		.loc 1 146 0
 159 0060 FFF7FEFF 		bl	chEvtBroadcastFlagsI
 160              	.LVL14:
 161 0064 DEE7     		b	.L7
 162              	.LVL15:
 163              	.L6:
 164              	.LBE15:
 165              	.LBE14:
 166              		.loc 1 176 0
 167 0066 FFF7FEFF 		bl	dbg_check_unlock_from_isr
 168              	.LVL16:
 169              		.syntax unified
 170              	@ 176 "../../../os/hal/platforms/STM32/USARTv1/serial_lld.c" 1
 171 006a FFF7FEFF 		bl      _port_unlock
ARM GAS  /tmp/cc8LyrTl.s 			page 4


 172              	@ 0 "" 2
 173              		.loc 1 179 0
 174              		.thumb
 175              		.syntax unified
 176 006e 3906     		lsls	r1, r7, #24
 177 0070 01D5     		bpl	.L13
 178 0072 2206     		lsls	r2, r4, #24
 179 0074 2BD4     		bmi	.L49
 180              	.L13:
 181              		.loc 1 193 0
 182 0076 6306     		lsls	r3, r4, #25
 183 0078 12D5     		bpl	.L16
 184              		.loc 1 194 0
 185              		.syntax unified
 186              	@ 194 "../../../os/hal/platforms/STM32/USARTv1/serial_lld.c" 1
 187 007a FFF7FEFF 		bl      _port_lock
 188              	@ 0 "" 2
 189              		.thumb
 190              		.syntax unified
 191 007e FFF7FEFF 		bl	dbg_check_lock_from_isr
 192              	.LVL17:
 193              		.loc 1 195 0
 194 0082 1021     		movs	r1, #16
 195 0084 2048     		ldr	r0, .L51+4
 196 0086 FFF7FEFF 		bl	chEvtBroadcastFlagsI
 197              	.LVL18:
 198              		.loc 1 196 0
 199 008a FFF7FEFF 		bl	dbg_check_unlock_from_isr
 200              	.LVL19:
 201              		.syntax unified
 202              	@ 196 "../../../os/hal/platforms/STM32/USARTv1/serial_lld.c" 1
 203 008e FFF7FEFF 		bl      _port_unlock
 204              	@ 0 "" 2
 205              		.loc 1 197 0
 206              		.thumb
 207              		.syntax unified
 208 0092 27F0C003 		bic	r3, r7, #192
 209 0096 9BB2     		uxth	r3, r3
 210              		.loc 1 198 0
 211 0098 4FF6BF72 		movw	r2, #65471
 212              		.loc 1 197 0
 213 009c AB81     		strh	r3, [r5, #12]	@ movhi
 214              		.loc 1 198 0
 215 009e 2A80     		strh	r2, [r5]	@ movhi
 216              	.L16:
 217              	.LVL20:
 218              	.LBE17:
 219              	.LBE19:
 220              		.loc 1 269 0
 221 00a0 FFF7FEFF 		bl	dbg_check_leave_isr
 222              	.LVL21:
 223              		.loc 1 270 0
 224 00a4 BDE8F840 		pop	{r3, r4, r5, r6, r7, lr}
 225              		.cfi_remember_state
 226              		.cfi_restore 14
 227              		.cfi_restore 7
 228              		.cfi_restore 6
ARM GAS  /tmp/cc8LyrTl.s 			page 5


 229              		.cfi_restore 5
 230              		.cfi_restore 4
 231              		.cfi_restore 3
 232              		.cfi_def_cfa_offset 0
 233              		.loc 1 269 0
 234 00a8 FFF7FEBF 		b	_port_irq_epilogue
 235              	.LVL22:
 236              	.L48:
 237              		.cfi_restore_state
 238              	.LBB20:
 239              	.LBB18:
 240              		.loc 1 161 0
 241              		.syntax unified
 242              	@ 161 "../../../os/hal/platforms/STM32/USARTv1/serial_lld.c" 1
 243 00ac FFF7FEFF 		bl      _port_lock
 244              	@ 0 "" 2
 245              		.thumb
 246              		.syntax unified
 247 00b0 FFF7FEFF 		bl	dbg_check_lock_from_isr
 248              	.LVL23:
 249              		.loc 1 162 0
 250 00b4 301D     		adds	r0, r6, #4
 251 00b6 4FF40071 		mov	r1, #512
 252 00ba FFF7FEFF 		bl	chEvtBroadcastFlagsI
 253              	.LVL24:
 254              		.loc 1 163 0
 255 00be FFF7FEFF 		bl	dbg_check_unlock_from_isr
 256              	.LVL25:
 257              		.syntax unified
 258              	@ 163 "../../../os/hal/platforms/STM32/USARTv1/serial_lld.c" 1
 259 00c2 FFF7FEFF 		bl      _port_unlock
 260              	@ 0 "" 2
 261              		.loc 1 164 0
 262              		.thumb
 263              		.syntax unified
 264 00c6 4FF6FF63 		movw	r3, #65279
 265 00ca 2B80     		strh	r3, [r5]	@ movhi
 266 00cc A3E7     		b	.L5
 267              	.L49:
 268              	.LBB16:
 269              		.loc 1 181 0
 270              		.syntax unified
 271              	@ 181 "../../../os/hal/platforms/STM32/USARTv1/serial_lld.c" 1
 272 00ce FFF7FEFF 		bl      _port_lock
 273              	@ 0 "" 2
 274              		.thumb
 275              		.syntax unified
 276 00d2 FFF7FEFF 		bl	dbg_check_lock_from_isr
 277              	.LVL26:
 278              		.loc 1 182 0
 279 00d6 0D48     		ldr	r0, .L51+8
 280 00d8 FFF7FEFF 		bl	chOQGetI
 281              	.LVL27:
 282              		.loc 1 183 0
 283 00dc 0028     		cmp	r0, #0
 284 00de 06DB     		blt	.L50
 285              		.loc 1 188 0
ARM GAS  /tmp/cc8LyrTl.s 			page 6


 286 00e0 80B2     		uxth	r0, r0
 287              	.LVL28:
 288 00e2 A880     		strh	r0, [r5, #4]	@ movhi
 289              	.L15:
 290              		.loc 1 189 0
 291 00e4 FFF7FEFF 		bl	dbg_check_unlock_from_isr
 292              	.LVL29:
 293              		.syntax unified
 294              	@ 189 "../../../os/hal/platforms/STM32/USARTv1/serial_lld.c" 1
 295 00e8 FFF7FEFF 		bl      _port_unlock
 296              	@ 0 "" 2
 297              		.thumb
 298              		.syntax unified
 299 00ec C3E7     		b	.L13
 300              	.LVL30:
 301              	.L50:
 302              		.loc 1 184 0
 303 00ee 0821     		movs	r1, #8
 304 00f0 0548     		ldr	r0, .L51+4
 305              	.LVL31:
 306 00f2 FFF7FEFF 		bl	chEvtBroadcastFlagsI
 307              	.LVL32:
 308              		.loc 1 185 0
 309 00f6 27F0C003 		bic	r3, r7, #192
 310 00fa 43F04003 		orr	r3, r3, #64
 311 00fe AB81     		strh	r3, [r5, #12]	@ movhi
 312 0100 F0E7     		b	.L15
 313              	.L52:
 314 0102 00BF     		.align	2
 315              	.L51:
 316 0104 00000000 		.word	.LANCHOR0
 317 0108 04000000 		.word	.LANCHOR0+4
 318 010c 30000000 		.word	.LANCHOR0+48
 319              	.LBE16:
 320              	.LBE18:
 321              	.LBE20:
 322              		.cfi_endproc
 323              	.LFE116:
 324              		.size	VectorD4, .-VectorD4
 325              		.section	.text.sd_lld_init,"ax",%progbits
 326              		.align	2
 327              		.p2align 4,,15
 328              		.global	sd_lld_init
 329              		.thumb
 330              		.thumb_func
 331              		.type	sd_lld_init, %function
 332              	sd_lld_init:
 333              	.LFB117:
 334              		.loc 1 377 0
 335              		.cfi_startproc
 336              		@ args = 0, pretend = 0, frame = 0
 337              		@ frame_needed = 0, uses_anonymous_args = 0
 338 0000 10B5     		push	{r4, lr}
 339              		.cfi_def_cfa_offset 8
 340              		.cfi_offset 4, -8
 341              		.cfi_offset 14, -4
 342              		.loc 1 380 0
ARM GAS  /tmp/cc8LyrTl.s 			page 7


 343 0002 044C     		ldr	r4, .L55
 344 0004 044A     		ldr	r2, .L55+4
 345 0006 2046     		mov	r0, r4
 346 0008 0021     		movs	r1, #0
 347 000a FFF7FEFF 		bl	sdObjectInit
 348              	.LVL33:
 349              		.loc 1 381 0
 350 000e 034B     		ldr	r3, .L55+8
 351 0010 6367     		str	r3, [r4, #116]
 352 0012 10BD     		pop	{r4, pc}
 353              	.L56:
 354              		.align	2
 355              	.L55:
 356 0014 00000000 		.word	.LANCHOR0
 357 0018 00000000 		.word	notify1
 358 001c 00100140 		.word	1073811456
 359              		.cfi_endproc
 360              	.LFE117:
 361              		.size	sd_lld_init, .-sd_lld_init
 362              		.section	.text.sd_lld_start,"ax",%progbits
 363              		.align	2
 364              		.p2align 4,,15
 365              		.global	sd_lld_start
 366              		.thumb
 367              		.thumb_func
 368              		.type	sd_lld_start, %function
 369              	sd_lld_start:
 370              	.LFB118:
 371              		.loc 1 420 0
 372              		.cfi_startproc
 373              		@ args = 0, pretend = 0, frame = 0
 374              		@ frame_needed = 0, uses_anonymous_args = 0
 375              	.LVL34:
 376 0000 38B5     		push	{r3, r4, r5, lr}
 377              		.cfi_def_cfa_offset 16
 378              		.cfi_offset 3, -16
 379              		.cfi_offset 4, -12
 380              		.cfi_offset 5, -8
 381              		.cfi_offset 14, -4
 382              		.loc 1 423 0
 383 0002 204C     		ldr	r4, .L65
 384              		.loc 1 425 0
 385 0004 037A     		ldrb	r3, [r0, #8]	@ zero_extendqisi2
 386              		.loc 1 423 0
 387 0006 0029     		cmp	r1, #0
 388 0008 18BF     		it	ne
 389 000a 0C46     		movne	r4, r1
 390              	.LVL35:
 391              		.loc 1 425 0
 392 000c 012B     		cmp	r3, #1
 393              		.loc 1 420 0
 394 000e 0546     		mov	r5, r0
 395              		.loc 1 425 0
 396 0010 23D0     		beq	.L64
 397              	.LVL36:
 398              	.L59:
 399 0012 6B6F     		ldr	r3, [r5, #116]
ARM GAS  /tmp/cc8LyrTl.s 			page 8


 400              	.LVL37:
 401              	.LBB21:
 402              	.LBB22:
 403              		.loc 1 97 0
 404 0014 1C4A     		ldr	r2, .L65+4
 405 0016 9342     		cmp	r3, r2
 406 0018 2CD0     		beq	.L60
 407 001a 02F58062 		add	r2, r2, #1024
 408 001e 9342     		cmp	r3, r2
 409 0020 28D0     		beq	.L60
 410              		.loc 1 103 0
 411 0022 2168     		ldr	r1, [r4]
 412 0024 194A     		ldr	r2, .L65+8
 413 0026 B2FBF1F2 		udiv	r2, r2, r1
 414 002a 92B2     		uxth	r2, r2
 415 002c 1A81     		strh	r2, [r3, #8]	@ movhi
 416              	.L62:
 417              		.loc 1 108 0
 418 002e A288     		ldrh	r2, [r4, #4]
 419              		.loc 1 106 0
 420 0030 E088     		ldrh	r0, [r4, #6]
 421              		.loc 1 107 0
 422 0032 2189     		ldrh	r1, [r4, #8]
 423              		.loc 1 108 0
 424 0034 42F40452 		orr	r2, r2, #8448
 425              		.loc 1 106 0
 426 0038 40F04000 		orr	r0, r0, #64
 427              		.loc 1 108 0
 428 003c 42F02C02 		orr	r2, r2, #44
 429              		.loc 1 107 0
 430 0040 41F00101 		orr	r1, r1, #1
 431              		.loc 1 108 0
 432 0044 92B2     		uxth	r2, r2
 433              		.loc 1 106 0
 434 0046 80B2     		uxth	r0, r0
 435              		.loc 1 107 0
 436 0048 89B2     		uxth	r1, r1
 437              		.loc 1 111 0
 438 004a 0024     		movs	r4, #0
 439              	.LVL38:
 440              		.loc 1 106 0
 441 004c 1882     		strh	r0, [r3, #16]	@ movhi
 442              		.loc 1 107 0
 443 004e 9982     		strh	r1, [r3, #20]	@ movhi
 444              		.loc 1 108 0
 445 0050 9A81     		strh	r2, [r3, #12]	@ movhi
 446              		.loc 1 111 0
 447 0052 1C80     		strh	r4, [r3]	@ movhi
 448              		.loc 1 112 0
 449 0054 1A88     		ldrh	r2, [r3]
 450              		.loc 1 113 0
 451 0056 9B88     		ldrh	r3, [r3, #4]
 452              	.LVL39:
 453 0058 38BD     		pop	{r3, r4, r5, pc}
 454              	.LVL40:
 455              	.L64:
 456              	.LBE22:
ARM GAS  /tmp/cc8LyrTl.s 			page 9


 457              	.LBE21:
 458              		.loc 1 427 0
 459 005a 0D4B     		ldr	r3, .L65+12
 460 005c 9842     		cmp	r0, r3
 461 005e D8D1     		bne	.L59
 462              		.loc 1 428 0
 463 0060 0C4A     		ldr	r2, .L65+16
 464 0062 536C     		ldr	r3, [r2, #68]
 465 0064 43F01003 		orr	r3, r3, #16
 466 0068 5364     		str	r3, [r2, #68]
 467              		.loc 1 429 0
 468 006a C021     		movs	r1, #192
 469 006c 2520     		movs	r0, #37
 470              	.LVL41:
 471 006e FFF7FEFF 		bl	nvicEnableVector
 472              	.LVL42:
 473 0072 CEE7     		b	.L59
 474              	.LVL43:
 475              	.L60:
 476              	.LBB24:
 477              	.LBB23:
 478              		.loc 1 101 0
 479 0074 2168     		ldr	r1, [r4]
 480 0076 084A     		ldr	r2, .L65+20
 481 0078 B2FBF1F2 		udiv	r2, r2, r1
 482 007c 92B2     		uxth	r2, r2
 483 007e 1A81     		strh	r2, [r3, #8]	@ movhi
 484 0080 D5E7     		b	.L62
 485              	.L66:
 486 0082 00BF     		.align	2
 487              	.L65:
 488 0084 00000000 		.word	.LANCHOR1
 489 0088 00100140 		.word	1073811456
 490 008c 80DE8002 		.word	42000000
 491 0090 00000000 		.word	.LANCHOR0
 492 0094 00380240 		.word	1073887232
 493 0098 00BD0105 		.word	84000000
 494              	.LBE23:
 495              	.LBE24:
 496              		.cfi_endproc
 497              	.LFE118:
 498              		.size	sd_lld_start, .-sd_lld_start
 499              		.section	.text.sd_lld_stop,"ax",%progbits
 500              		.align	2
 501              		.p2align 4,,15
 502              		.global	sd_lld_stop
 503              		.thumb
 504              		.thumb_func
 505              		.type	sd_lld_stop, %function
 506              	sd_lld_stop:
 507              	.LFB119:
 508              		.loc 1 481 0
 509              		.cfi_startproc
 510              		@ args = 0, pretend = 0, frame = 0
 511              		@ frame_needed = 0, uses_anonymous_args = 0
 512              		@ link register save eliminated.
 513              	.LVL44:
ARM GAS  /tmp/cc8LyrTl.s 			page 10


 514              		.loc 1 483 0
 515 0000 037A     		ldrb	r3, [r0, #8]	@ zero_extendqisi2
 516 0002 022B     		cmp	r3, #2
 517 0004 00D0     		beq	.L71
 518              	.L67:
 519 0006 7047     		bx	lr
 520              	.L71:
 521              		.loc 1 486 0
 522 0008 0749     		ldr	r1, .L72
 523              		.loc 1 484 0
 524 000a 436F     		ldr	r3, [r0, #116]
 525              	.LVL45:
 526              	.LBB25:
 527              	.LBB26:
 528              		.loc 1 124 0
 529 000c 0022     		movs	r2, #0
 530              	.LBE26:
 531              	.LBE25:
 532              		.loc 1 486 0
 533 000e 8842     		cmp	r0, r1
 534              	.LBB28:
 535              	.LBB27:
 536              		.loc 1 124 0
 537 0010 9A81     		strh	r2, [r3, #12]	@ movhi
 538              		.loc 1 125 0
 539 0012 1A82     		strh	r2, [r3, #16]	@ movhi
 540              		.loc 1 126 0
 541 0014 9A82     		strh	r2, [r3, #20]	@ movhi
 542              	.LVL46:
 543              	.LBE27:
 544              	.LBE28:
 545              		.loc 1 486 0
 546 0016 F6D1     		bne	.L67
 547              		.loc 1 487 0
 548 0018 044A     		ldr	r2, .L72+4
 549 001a 536C     		ldr	r3, [r2, #68]
 550 001c 23F01003 		bic	r3, r3, #16
 551 0020 5364     		str	r3, [r2, #68]
 552              		.loc 1 488 0
 553 0022 2520     		movs	r0, #37
 554              	.LVL47:
 555 0024 FFF7FEBF 		b	nvicDisableVector
 556              	.LVL48:
 557              	.L73:
 558              		.align	2
 559              	.L72:
 560 0028 00000000 		.word	.LANCHOR0
 561 002c 00380240 		.word	1073887232
 562              		.cfi_endproc
 563              	.LFE119:
 564              		.size	sd_lld_stop, .-sd_lld_stop
 565              		.global	SD1
 566              		.section	.rodata.default_config,"a",%progbits
 567              		.align	2
 568              		.set	.LANCHOR1,. + 0
 569              		.type	default_config, %object
 570              		.size	default_config, 12
ARM GAS  /tmp/cc8LyrTl.s 			page 11


 571              	default_config:
 572 0000 00960000 		.word	38400
 573 0004 0000     		.short	0
 574 0006 0040     		.short	16384
 575 0008 0000     		.short	0
 576 000a 0000     		.space	2
 577              		.section	.bss.SD1,"aw",%nobits
 578              		.align	2
 579              		.set	.LANCHOR0,. + 0
 580              		.type	SD1, %object
 581              		.size	SD1, 120
 582              	SD1:
 583 0000 00000000 		.space	120
 583      00000000 
 583      00000000 
 583      00000000 
 583      00000000 
 584              		.text
 585              	.Letext0:
 586              		.file 2 "/home/z80/programs/sw4stm32/plugins/fr.ac6.mcu.externaltools.arm-none.linux32_1.7.0.20160
 587              		.file 3 "/home/z80/programs/sw4stm32/plugins/fr.ac6.mcu.externaltools.arm-none.linux32_1.7.0.20160
 588              		.file 4 "/home/z80/programs/sw4stm32/plugins/fr.ac6.mcu.externaltools.arm-none.linux32_1.7.0.20160
 589              		.file 5 "../../../os/ports/GCC/ARMCMx/chtypes.h"
 590              		.file 6 "../../../os/kernel/include/chlists.h"
 591              		.file 7 "../../../os/kernel/include/chthreads.h"
 592              		.file 8 "../../../os/ports/GCC/ARMCMx/chcore_v7m.h"
 593              		.file 9 "../../../os/kernel/include/chmtx.h"
 594              		.file 10 "../../../os/kernel/include/chevents.h"
 595              		.file 11 "../../../os/kernel/include/chqueues.h"
 596              		.file 12 "../../../os/hal/platforms/STM32F4xx/stm32f4xx.h"
 597              		.file 13 "../../../os/hal/include/serial.h"
 598              		.file 14 "../../../os/hal/platforms/STM32/USARTv1/serial_lld.h"
 599              		.file 15 "../../../os/kernel/include/chdebug.h"
 600              		.file 16 "../../../os/ports/common/ARMCMx/nvic.h"
 601              		.file 17 "../../../os/ports/common/ARMCMx/CMSIS/include/core_cm4.h"