ARM GAS  /tmp/ccd9fb1w.s 			page 1


   1              		.syntax unified
   2              		.cpu cortex-m4
   3              		.fpu softvfp
   4              		.eabi_attribute 20, 1
   5              		.eabi_attribute 21, 1
   6              		.eabi_attribute 23, 3
   7              		.eabi_attribute 24, 1
   8              		.eabi_attribute 25, 1
   9              		.eabi_attribute 26, 1
  10              		.eabi_attribute 30, 2
  11              		.eabi_attribute 34, 1
  12              		.eabi_attribute 18, 4
  13              		.thumb
  14              		.syntax unified
  15              		.file	"stm32_dma.c"
  16              		.text
  17              	.Ltext0:
  18              		.cfi_sections	.debug_frame
  19              		.section	.text.Vector6C,"ax",%progbits
  20              		.align	2
  21              		.p2align 4,,15
  22              		.global	Vector6C
  23              		.thumb
  24              		.thumb_func
  25              		.type	Vector6C, %function
  26              	Vector6C:
  27              	.LFB111:
  28              		.file 1 "../../../os/hal/platforms/STM32F4xx/stm32_dma.c"
  29              		.loc 1 128 0
  30              		.cfi_startproc
  31              		@ args = 0, pretend = 0, frame = 0
  32              		@ frame_needed = 0, uses_anonymous_args = 0
  33 0000 08B5     		push	{r3, lr}
  34              		.cfi_def_cfa_offset 8
  35              		.cfi_offset 3, -8
  36              		.cfi_offset 14, -4
  37              		.loc 1 131 0
  38 0002 FFF7FEFF 		bl	dbg_check_enter_isr
  39              	.LVL0:
  40              		.loc 1 133 0
  41 0006 084B     		ldr	r3, .L8
  42              		.loc 1 135 0
  43 0008 084A     		ldr	r2, .L8+4
  44              		.loc 1 133 0
  45 000a 1968     		ldr	r1, [r3]
  46 000c 01F03D01 		and	r1, r1, #61
  47              	.LVL1:
  48              		.loc 1 134 0
  49 0010 9960     		str	r1, [r3, #8]
  50              		.loc 1 135 0
  51 0012 1368     		ldr	r3, [r2]
  52 0014 0BB1     		cbz	r3, .L2
  53              		.loc 1 136 0
  54 0016 5068     		ldr	r0, [r2, #4]
  55 0018 9847     		blx	r3
  56              	.LVL2:
  57              	.L2:
ARM GAS  /tmp/ccd9fb1w.s 			page 2


  58              		.loc 1 138 0
  59 001a FFF7FEFF 		bl	dbg_check_leave_isr
  60              	.LVL3:
  61              		.loc 1 139 0
  62 001e BDE80840 		pop	{r3, lr}
  63              		.cfi_restore 14
  64              		.cfi_restore 3
  65              		.cfi_def_cfa_offset 0
  66              		.loc 1 138 0
  67 0022 FFF7FEBF 		b	_port_irq_epilogue
  68              	.LVL4:
  69              	.L9:
  70 0026 00BF     		.align	2
  71              	.L8:
  72 0028 00600240 		.word	1073897472
  73 002c 00000000 		.word	.LANCHOR0
  74              		.cfi_endproc
  75              	.LFE111:
  76              		.size	Vector6C, .-Vector6C
  77              		.section	.text.Vector70,"ax",%progbits
  78              		.align	2
  79              		.p2align 4,,15
  80              		.global	Vector70
  81              		.thumb
  82              		.thumb_func
  83              		.type	Vector70, %function
  84              	Vector70:
  85              	.LFB112:
  86              		.loc 1 146 0
  87              		.cfi_startproc
  88              		@ args = 0, pretend = 0, frame = 0
  89              		@ frame_needed = 0, uses_anonymous_args = 0
  90 0000 10B5     		push	{r4, lr}
  91              		.cfi_def_cfa_offset 8
  92              		.cfi_offset 4, -8
  93              		.cfi_offset 14, -4
  94              		.loc 1 149 0
  95 0002 FFF7FEFF 		bl	dbg_check_enter_isr
  96              	.LVL5:
  97              		.loc 1 151 0
  98 0006 094B     		ldr	r3, .L16
  99              		.loc 1 153 0
 100 0008 0948     		ldr	r0, .L16+4
 101              		.loc 1 151 0
 102 000a 1968     		ldr	r1, [r3]
 103              		.loc 1 153 0
 104 000c 8268     		ldr	r2, [r0, #8]
 105              		.loc 1 151 0
 106 000e 8909     		lsrs	r1, r1, #6
 107 0010 01F03D01 		and	r1, r1, #61
 108              	.LVL6:
 109              		.loc 1 152 0
 110 0014 8C01     		lsls	r4, r1, #6
 111 0016 9C60     		str	r4, [r3, #8]
 112              		.loc 1 153 0
 113 0018 0AB1     		cbz	r2, .L11
 114              		.loc 1 154 0
ARM GAS  /tmp/ccd9fb1w.s 			page 3


 115 001a C068     		ldr	r0, [r0, #12]
 116 001c 9047     		blx	r2
 117              	.LVL7:
 118              	.L11:
 119              		.loc 1 156 0
 120 001e FFF7FEFF 		bl	dbg_check_leave_isr
 121              	.LVL8:
 122              		.loc 1 157 0
 123 0022 BDE81040 		pop	{r4, lr}
 124              		.cfi_restore 14
 125              		.cfi_restore 4
 126              		.cfi_def_cfa_offset 0
 127              		.loc 1 156 0
 128 0026 FFF7FEBF 		b	_port_irq_epilogue
 129              	.LVL9:
 130              	.L17:
 131 002a 00BF     		.align	2
 132              	.L16:
 133 002c 00600240 		.word	1073897472
 134 0030 00000000 		.word	.LANCHOR0
 135              		.cfi_endproc
 136              	.LFE112:
 137              		.size	Vector70, .-Vector70
 138              		.section	.text.Vector74,"ax",%progbits
 139              		.align	2
 140              		.p2align 4,,15
 141              		.global	Vector74
 142              		.thumb
 143              		.thumb_func
 144              		.type	Vector74, %function
 145              	Vector74:
 146              	.LFB113:
 147              		.loc 1 164 0
 148              		.cfi_startproc
 149              		@ args = 0, pretend = 0, frame = 0
 150              		@ frame_needed = 0, uses_anonymous_args = 0
 151 0000 10B5     		push	{r4, lr}
 152              		.cfi_def_cfa_offset 8
 153              		.cfi_offset 4, -8
 154              		.cfi_offset 14, -4
 155              		.loc 1 167 0
 156 0002 FFF7FEFF 		bl	dbg_check_enter_isr
 157              	.LVL10:
 158              		.loc 1 169 0
 159 0006 094B     		ldr	r3, .L24
 160              		.loc 1 171 0
 161 0008 0948     		ldr	r0, .L24+4
 162              		.loc 1 169 0
 163 000a 1968     		ldr	r1, [r3]
 164              		.loc 1 171 0
 165 000c 0269     		ldr	r2, [r0, #16]
 166              		.loc 1 169 0
 167 000e 090C     		lsrs	r1, r1, #16
 168 0010 01F03D01 		and	r1, r1, #61
 169              	.LVL11:
 170              		.loc 1 170 0
 171 0014 0C04     		lsls	r4, r1, #16
ARM GAS  /tmp/ccd9fb1w.s 			page 4


 172 0016 9C60     		str	r4, [r3, #8]
 173              		.loc 1 171 0
 174 0018 0AB1     		cbz	r2, .L19
 175              		.loc 1 172 0
 176 001a 4069     		ldr	r0, [r0, #20]
 177 001c 9047     		blx	r2
 178              	.LVL12:
 179              	.L19:
 180              		.loc 1 174 0
 181 001e FFF7FEFF 		bl	dbg_check_leave_isr
 182              	.LVL13:
 183              		.loc 1 175 0
 184 0022 BDE81040 		pop	{r4, lr}
 185              		.cfi_restore 14
 186              		.cfi_restore 4
 187              		.cfi_def_cfa_offset 0
 188              		.loc 1 174 0
 189 0026 FFF7FEBF 		b	_port_irq_epilogue
 190              	.LVL14:
 191              	.L25:
 192 002a 00BF     		.align	2
 193              	.L24:
 194 002c 00600240 		.word	1073897472
 195 0030 00000000 		.word	.LANCHOR0
 196              		.cfi_endproc
 197              	.LFE113:
 198              		.size	Vector74, .-Vector74
 199              		.section	.text.Vector78,"ax",%progbits
 200              		.align	2
 201              		.p2align 4,,15
 202              		.global	Vector78
 203              		.thumb
 204              		.thumb_func
 205              		.type	Vector78, %function
 206              	Vector78:
 207              	.LFB114:
 208              		.loc 1 182 0
 209              		.cfi_startproc
 210              		@ args = 0, pretend = 0, frame = 0
 211              		@ frame_needed = 0, uses_anonymous_args = 0
 212 0000 10B5     		push	{r4, lr}
 213              		.cfi_def_cfa_offset 8
 214              		.cfi_offset 4, -8
 215              		.cfi_offset 14, -4
 216              		.loc 1 185 0
 217 0002 FFF7FEFF 		bl	dbg_check_enter_isr
 218              	.LVL15:
 219              		.loc 1 187 0
 220 0006 094B     		ldr	r3, .L32
 221              		.loc 1 189 0
 222 0008 0948     		ldr	r0, .L32+4
 223              		.loc 1 187 0
 224 000a 1968     		ldr	r1, [r3]
 225              		.loc 1 189 0
 226 000c 8269     		ldr	r2, [r0, #24]
 227              		.loc 1 187 0
 228 000e 890D     		lsrs	r1, r1, #22
ARM GAS  /tmp/ccd9fb1w.s 			page 5


 229 0010 01F03D01 		and	r1, r1, #61
 230              	.LVL16:
 231              		.loc 1 188 0
 232 0014 8C05     		lsls	r4, r1, #22
 233 0016 9C60     		str	r4, [r3, #8]
 234              		.loc 1 189 0
 235 0018 0AB1     		cbz	r2, .L27
 236              		.loc 1 190 0
 237 001a C069     		ldr	r0, [r0, #28]
 238 001c 9047     		blx	r2
 239              	.LVL17:
 240              	.L27:
 241              		.loc 1 192 0
 242 001e FFF7FEFF 		bl	dbg_check_leave_isr
 243              	.LVL18:
 244              		.loc 1 193 0
 245 0022 BDE81040 		pop	{r4, lr}
 246              		.cfi_restore 14
 247              		.cfi_restore 4
 248              		.cfi_def_cfa_offset 0
 249              		.loc 1 192 0
 250 0026 FFF7FEBF 		b	_port_irq_epilogue
 251              	.LVL19:
 252              	.L33:
 253 002a 00BF     		.align	2
 254              	.L32:
 255 002c 00600240 		.word	1073897472
 256 0030 00000000 		.word	.LANCHOR0
 257              		.cfi_endproc
 258              	.LFE114:
 259              		.size	Vector78, .-Vector78
 260              		.section	.text.Vector7C,"ax",%progbits
 261              		.align	2
 262              		.p2align 4,,15
 263              		.global	Vector7C
 264              		.thumb
 265              		.thumb_func
 266              		.type	Vector7C, %function
 267              	Vector7C:
 268              	.LFB115:
 269              		.loc 1 200 0
 270              		.cfi_startproc
 271              		@ args = 0, pretend = 0, frame = 0
 272              		@ frame_needed = 0, uses_anonymous_args = 0
 273 0000 08B5     		push	{r3, lr}
 274              		.cfi_def_cfa_offset 8
 275              		.cfi_offset 3, -8
 276              		.cfi_offset 14, -4
 277              		.loc 1 203 0
 278 0002 FFF7FEFF 		bl	dbg_check_enter_isr
 279              	.LVL20:
 280              		.loc 1 205 0
 281 0006 084B     		ldr	r3, .L40
 282              		.loc 1 207 0
 283 0008 0848     		ldr	r0, .L40+4
 284              		.loc 1 205 0
 285 000a 5968     		ldr	r1, [r3, #4]
ARM GAS  /tmp/ccd9fb1w.s 			page 6


 286              		.loc 1 207 0
 287 000c 026A     		ldr	r2, [r0, #32]
 288              		.loc 1 205 0
 289 000e 01F03D01 		and	r1, r1, #61
 290              	.LVL21:
 291              		.loc 1 206 0
 292 0012 D960     		str	r1, [r3, #12]
 293              		.loc 1 207 0
 294 0014 0AB1     		cbz	r2, .L35
 295              		.loc 1 208 0
 296 0016 406A     		ldr	r0, [r0, #36]
 297 0018 9047     		blx	r2
 298              	.LVL22:
 299              	.L35:
 300              		.loc 1 210 0
 301 001a FFF7FEFF 		bl	dbg_check_leave_isr
 302              	.LVL23:
 303              		.loc 1 211 0
 304 001e BDE80840 		pop	{r3, lr}
 305              		.cfi_restore 14
 306              		.cfi_restore 3
 307              		.cfi_def_cfa_offset 0
 308              		.loc 1 210 0
 309 0022 FFF7FEBF 		b	_port_irq_epilogue
 310              	.LVL24:
 311              	.L41:
 312 0026 00BF     		.align	2
 313              	.L40:
 314 0028 00600240 		.word	1073897472
 315 002c 00000000 		.word	.LANCHOR0
 316              		.cfi_endproc
 317              	.LFE115:
 318              		.size	Vector7C, .-Vector7C
 319              		.section	.text.Vector80,"ax",%progbits
 320              		.align	2
 321              		.p2align 4,,15
 322              		.global	Vector80
 323              		.thumb
 324              		.thumb_func
 325              		.type	Vector80, %function
 326              	Vector80:
 327              	.LFB116:
 328              		.loc 1 218 0
 329              		.cfi_startproc
 330              		@ args = 0, pretend = 0, frame = 0
 331              		@ frame_needed = 0, uses_anonymous_args = 0
 332 0000 10B5     		push	{r4, lr}
 333              		.cfi_def_cfa_offset 8
 334              		.cfi_offset 4, -8
 335              		.cfi_offset 14, -4
 336              		.loc 1 221 0
 337 0002 FFF7FEFF 		bl	dbg_check_enter_isr
 338              	.LVL25:
 339              		.loc 1 223 0
 340 0006 094B     		ldr	r3, .L48
 341              		.loc 1 225 0
 342 0008 0948     		ldr	r0, .L48+4
ARM GAS  /tmp/ccd9fb1w.s 			page 7


 343              		.loc 1 223 0
 344 000a 5968     		ldr	r1, [r3, #4]
 345              		.loc 1 225 0
 346 000c 826A     		ldr	r2, [r0, #40]
 347              		.loc 1 223 0
 348 000e 8909     		lsrs	r1, r1, #6
 349 0010 01F03D01 		and	r1, r1, #61
 350              	.LVL26:
 351              		.loc 1 224 0
 352 0014 8C01     		lsls	r4, r1, #6
 353 0016 DC60     		str	r4, [r3, #12]
 354              		.loc 1 225 0
 355 0018 0AB1     		cbz	r2, .L43
 356              		.loc 1 226 0
 357 001a C06A     		ldr	r0, [r0, #44]
 358 001c 9047     		blx	r2
 359              	.LVL27:
 360              	.L43:
 361              		.loc 1 228 0
 362 001e FFF7FEFF 		bl	dbg_check_leave_isr
 363              	.LVL28:
 364              		.loc 1 229 0
 365 0022 BDE81040 		pop	{r4, lr}
 366              		.cfi_restore 14
 367              		.cfi_restore 4
 368              		.cfi_def_cfa_offset 0
 369              		.loc 1 228 0
 370 0026 FFF7FEBF 		b	_port_irq_epilogue
 371              	.LVL29:
 372              	.L49:
 373 002a 00BF     		.align	2
 374              	.L48:
 375 002c 00600240 		.word	1073897472
 376 0030 00000000 		.word	.LANCHOR0
 377              		.cfi_endproc
 378              	.LFE116:
 379              		.size	Vector80, .-Vector80
 380              		.section	.text.Vector84,"ax",%progbits
 381              		.align	2
 382              		.p2align 4,,15
 383              		.global	Vector84
 384              		.thumb
 385              		.thumb_func
 386              		.type	Vector84, %function
 387              	Vector84:
 388              	.LFB117:
 389              		.loc 1 236 0
 390              		.cfi_startproc
 391              		@ args = 0, pretend = 0, frame = 0
 392              		@ frame_needed = 0, uses_anonymous_args = 0
 393 0000 10B5     		push	{r4, lr}
 394              		.cfi_def_cfa_offset 8
 395              		.cfi_offset 4, -8
 396              		.cfi_offset 14, -4
 397              		.loc 1 239 0
 398 0002 FFF7FEFF 		bl	dbg_check_enter_isr
 399              	.LVL30:
ARM GAS  /tmp/ccd9fb1w.s 			page 8


 400              		.loc 1 241 0
 401 0006 094B     		ldr	r3, .L56
 402              		.loc 1 243 0
 403 0008 0948     		ldr	r0, .L56+4
 404              		.loc 1 241 0
 405 000a 5968     		ldr	r1, [r3, #4]
 406              		.loc 1 243 0
 407 000c 026B     		ldr	r2, [r0, #48]
 408              		.loc 1 241 0
 409 000e 090C     		lsrs	r1, r1, #16
 410 0010 01F03D01 		and	r1, r1, #61
 411              	.LVL31:
 412              		.loc 1 242 0
 413 0014 0C04     		lsls	r4, r1, #16
 414 0016 DC60     		str	r4, [r3, #12]
 415              		.loc 1 243 0
 416 0018 0AB1     		cbz	r2, .L51
 417              		.loc 1 244 0
 418 001a 406B     		ldr	r0, [r0, #52]
 419 001c 9047     		blx	r2
 420              	.LVL32:
 421              	.L51:
 422              		.loc 1 246 0
 423 001e FFF7FEFF 		bl	dbg_check_leave_isr
 424              	.LVL33:
 425              		.loc 1 247 0
 426 0022 BDE81040 		pop	{r4, lr}
 427              		.cfi_restore 14
 428              		.cfi_restore 4
 429              		.cfi_def_cfa_offset 0
 430              		.loc 1 246 0
 431 0026 FFF7FEBF 		b	_port_irq_epilogue
 432              	.LVL34:
 433              	.L57:
 434 002a 00BF     		.align	2
 435              	.L56:
 436 002c 00600240 		.word	1073897472
 437 0030 00000000 		.word	.LANCHOR0
 438              		.cfi_endproc
 439              	.LFE117:
 440              		.size	Vector84, .-Vector84
 441              		.section	.text.VectorFC,"ax",%progbits
 442              		.align	2
 443              		.p2align 4,,15
 444              		.global	VectorFC
 445              		.thumb
 446              		.thumb_func
 447              		.type	VectorFC, %function
 448              	VectorFC:
 449              	.LFB118:
 450              		.loc 1 254 0
 451              		.cfi_startproc
 452              		@ args = 0, pretend = 0, frame = 0
 453              		@ frame_needed = 0, uses_anonymous_args = 0
 454 0000 10B5     		push	{r4, lr}
 455              		.cfi_def_cfa_offset 8
 456              		.cfi_offset 4, -8
ARM GAS  /tmp/ccd9fb1w.s 			page 9


 457              		.cfi_offset 14, -4
 458              		.loc 1 257 0
 459 0002 FFF7FEFF 		bl	dbg_check_enter_isr
 460              	.LVL35:
 461              		.loc 1 259 0
 462 0006 094B     		ldr	r3, .L64
 463              		.loc 1 261 0
 464 0008 0948     		ldr	r0, .L64+4
 465              		.loc 1 259 0
 466 000a 5968     		ldr	r1, [r3, #4]
 467              		.loc 1 261 0
 468 000c 826B     		ldr	r2, [r0, #56]
 469              		.loc 1 259 0
 470 000e 890D     		lsrs	r1, r1, #22
 471 0010 01F03D01 		and	r1, r1, #61
 472              	.LVL36:
 473              		.loc 1 260 0
 474 0014 8C05     		lsls	r4, r1, #22
 475 0016 DC60     		str	r4, [r3, #12]
 476              		.loc 1 261 0
 477 0018 0AB1     		cbz	r2, .L59
 478              		.loc 1 262 0
 479 001a C06B     		ldr	r0, [r0, #60]
 480 001c 9047     		blx	r2
 481              	.LVL37:
 482              	.L59:
 483              		.loc 1 264 0
 484 001e FFF7FEFF 		bl	dbg_check_leave_isr
 485              	.LVL38:
 486              		.loc 1 265 0
 487 0022 BDE81040 		pop	{r4, lr}
 488              		.cfi_restore 14
 489              		.cfi_restore 4
 490              		.cfi_def_cfa_offset 0
 491              		.loc 1 264 0
 492 0026 FFF7FEBF 		b	_port_irq_epilogue
 493              	.LVL39:
 494              	.L65:
 495 002a 00BF     		.align	2
 496              	.L64:
 497 002c 00600240 		.word	1073897472
 498 0030 00000000 		.word	.LANCHOR0
 499              		.cfi_endproc
 500              	.LFE118:
 501              		.size	VectorFC, .-VectorFC
 502              		.section	.text.Vector120,"ax",%progbits
 503              		.align	2
 504              		.p2align 4,,15
 505              		.global	Vector120
 506              		.thumb
 507              		.thumb_func
 508              		.type	Vector120, %function
 509              	Vector120:
 510              	.LFB119:
 511              		.loc 1 272 0
 512              		.cfi_startproc
 513              		@ args = 0, pretend = 0, frame = 0
ARM GAS  /tmp/ccd9fb1w.s 			page 10


 514              		@ frame_needed = 0, uses_anonymous_args = 0
 515 0000 08B5     		push	{r3, lr}
 516              		.cfi_def_cfa_offset 8
 517              		.cfi_offset 3, -8
 518              		.cfi_offset 14, -4
 519              		.loc 1 275 0
 520 0002 FFF7FEFF 		bl	dbg_check_enter_isr
 521              	.LVL40:
 522              		.loc 1 277 0
 523 0006 084B     		ldr	r3, .L72
 524              		.loc 1 279 0
 525 0008 0848     		ldr	r0, .L72+4
 526              		.loc 1 277 0
 527 000a 1968     		ldr	r1, [r3]
 528              		.loc 1 279 0
 529 000c 026C     		ldr	r2, [r0, #64]
 530              		.loc 1 277 0
 531 000e 01F03D01 		and	r1, r1, #61
 532              	.LVL41:
 533              		.loc 1 278 0
 534 0012 9960     		str	r1, [r3, #8]
 535              		.loc 1 279 0
 536 0014 0AB1     		cbz	r2, .L67
 537              		.loc 1 280 0
 538 0016 406C     		ldr	r0, [r0, #68]
 539 0018 9047     		blx	r2
 540              	.LVL42:
 541              	.L67:
 542              		.loc 1 282 0
 543 001a FFF7FEFF 		bl	dbg_check_leave_isr
 544              	.LVL43:
 545              		.loc 1 283 0
 546 001e BDE80840 		pop	{r3, lr}
 547              		.cfi_restore 14
 548              		.cfi_restore 3
 549              		.cfi_def_cfa_offset 0
 550              		.loc 1 282 0
 551 0022 FFF7FEBF 		b	_port_irq_epilogue
 552              	.LVL44:
 553              	.L73:
 554 0026 00BF     		.align	2
 555              	.L72:
 556 0028 00640240 		.word	1073898496
 557 002c 00000000 		.word	.LANCHOR0
 558              		.cfi_endproc
 559              	.LFE119:
 560              		.size	Vector120, .-Vector120
 561              		.section	.text.Vector124,"ax",%progbits
 562              		.align	2
 563              		.p2align 4,,15
 564              		.global	Vector124
 565              		.thumb
 566              		.thumb_func
 567              		.type	Vector124, %function
 568              	Vector124:
 569              	.LFB120:
 570              		.loc 1 290 0
ARM GAS  /tmp/ccd9fb1w.s 			page 11


 571              		.cfi_startproc
 572              		@ args = 0, pretend = 0, frame = 0
 573              		@ frame_needed = 0, uses_anonymous_args = 0
 574 0000 10B5     		push	{r4, lr}
 575              		.cfi_def_cfa_offset 8
 576              		.cfi_offset 4, -8
 577              		.cfi_offset 14, -4
 578              		.loc 1 293 0
 579 0002 FFF7FEFF 		bl	dbg_check_enter_isr
 580              	.LVL45:
 581              		.loc 1 295 0
 582 0006 094B     		ldr	r3, .L80
 583              		.loc 1 297 0
 584 0008 0948     		ldr	r0, .L80+4
 585              		.loc 1 295 0
 586 000a 1968     		ldr	r1, [r3]
 587              		.loc 1 297 0
 588 000c 826C     		ldr	r2, [r0, #72]
 589              		.loc 1 295 0
 590 000e 8909     		lsrs	r1, r1, #6
 591 0010 01F03D01 		and	r1, r1, #61
 592              	.LVL46:
 593              		.loc 1 296 0
 594 0014 8C01     		lsls	r4, r1, #6
 595 0016 9C60     		str	r4, [r3, #8]
 596              		.loc 1 297 0
 597 0018 0AB1     		cbz	r2, .L75
 598              		.loc 1 298 0
 599 001a C06C     		ldr	r0, [r0, #76]
 600 001c 9047     		blx	r2
 601              	.LVL47:
 602              	.L75:
 603              		.loc 1 300 0
 604 001e FFF7FEFF 		bl	dbg_check_leave_isr
 605              	.LVL48:
 606              		.loc 1 301 0
 607 0022 BDE81040 		pop	{r4, lr}
 608              		.cfi_restore 14
 609              		.cfi_restore 4
 610              		.cfi_def_cfa_offset 0
 611              		.loc 1 300 0
 612 0026 FFF7FEBF 		b	_port_irq_epilogue
 613              	.LVL49:
 614              	.L81:
 615 002a 00BF     		.align	2
 616              	.L80:
 617 002c 00640240 		.word	1073898496
 618 0030 00000000 		.word	.LANCHOR0
 619              		.cfi_endproc
 620              	.LFE120:
 621              		.size	Vector124, .-Vector124
 622              		.section	.text.Vector128,"ax",%progbits
 623              		.align	2
 624              		.p2align 4,,15
 625              		.global	Vector128
 626              		.thumb
 627              		.thumb_func
ARM GAS  /tmp/ccd9fb1w.s 			page 12


 628              		.type	Vector128, %function
 629              	Vector128:
 630              	.LFB121:
 631              		.loc 1 308 0
 632              		.cfi_startproc
 633              		@ args = 0, pretend = 0, frame = 0
 634              		@ frame_needed = 0, uses_anonymous_args = 0
 635 0000 10B5     		push	{r4, lr}
 636              		.cfi_def_cfa_offset 8
 637              		.cfi_offset 4, -8
 638              		.cfi_offset 14, -4
 639              		.loc 1 311 0
 640 0002 FFF7FEFF 		bl	dbg_check_enter_isr
 641              	.LVL50:
 642              		.loc 1 313 0
 643 0006 094B     		ldr	r3, .L88
 644              		.loc 1 315 0
 645 0008 0948     		ldr	r0, .L88+4
 646              		.loc 1 313 0
 647 000a 1968     		ldr	r1, [r3]
 648              		.loc 1 315 0
 649 000c 026D     		ldr	r2, [r0, #80]
 650              		.loc 1 313 0
 651 000e 090C     		lsrs	r1, r1, #16
 652 0010 01F03D01 		and	r1, r1, #61
 653              	.LVL51:
 654              		.loc 1 314 0
 655 0014 0C04     		lsls	r4, r1, #16
 656 0016 9C60     		str	r4, [r3, #8]
 657              		.loc 1 315 0
 658 0018 0AB1     		cbz	r2, .L83
 659              		.loc 1 316 0
 660 001a 406D     		ldr	r0, [r0, #84]
 661 001c 9047     		blx	r2
 662              	.LVL52:
 663              	.L83:
 664              		.loc 1 318 0
 665 001e FFF7FEFF 		bl	dbg_check_leave_isr
 666              	.LVL53:
 667              		.loc 1 319 0
 668 0022 BDE81040 		pop	{r4, lr}
 669              		.cfi_restore 14
 670              		.cfi_restore 4
 671              		.cfi_def_cfa_offset 0
 672              		.loc 1 318 0
 673 0026 FFF7FEBF 		b	_port_irq_epilogue
 674              	.LVL54:
 675              	.L89:
 676 002a 00BF     		.align	2
 677              	.L88:
 678 002c 00640240 		.word	1073898496
 679 0030 00000000 		.word	.LANCHOR0
 680              		.cfi_endproc
 681              	.LFE121:
 682              		.size	Vector128, .-Vector128
 683              		.section	.text.Vector12C,"ax",%progbits
 684              		.align	2
ARM GAS  /tmp/ccd9fb1w.s 			page 13


 685              		.p2align 4,,15
 686              		.global	Vector12C
 687              		.thumb
 688              		.thumb_func
 689              		.type	Vector12C, %function
 690              	Vector12C:
 691              	.LFB122:
 692              		.loc 1 326 0
 693              		.cfi_startproc
 694              		@ args = 0, pretend = 0, frame = 0
 695              		@ frame_needed = 0, uses_anonymous_args = 0
 696 0000 10B5     		push	{r4, lr}
 697              		.cfi_def_cfa_offset 8
 698              		.cfi_offset 4, -8
 699              		.cfi_offset 14, -4
 700              		.loc 1 329 0
 701 0002 FFF7FEFF 		bl	dbg_check_enter_isr
 702              	.LVL55:
 703              		.loc 1 331 0
 704 0006 094B     		ldr	r3, .L96
 705              		.loc 1 333 0
 706 0008 0948     		ldr	r0, .L96+4
 707              		.loc 1 331 0
 708 000a 1968     		ldr	r1, [r3]
 709              		.loc 1 333 0
 710 000c 826D     		ldr	r2, [r0, #88]
 711              		.loc 1 331 0
 712 000e 890D     		lsrs	r1, r1, #22
 713 0010 01F03D01 		and	r1, r1, #61
 714              	.LVL56:
 715              		.loc 1 332 0
 716 0014 8C05     		lsls	r4, r1, #22
 717 0016 9C60     		str	r4, [r3, #8]
 718              		.loc 1 333 0
 719 0018 0AB1     		cbz	r2, .L91
 720              		.loc 1 334 0
 721 001a C06D     		ldr	r0, [r0, #92]
 722 001c 9047     		blx	r2
 723              	.LVL57:
 724              	.L91:
 725              		.loc 1 336 0
 726 001e FFF7FEFF 		bl	dbg_check_leave_isr
 727              	.LVL58:
 728              		.loc 1 337 0
 729 0022 BDE81040 		pop	{r4, lr}
 730              		.cfi_restore 14
 731              		.cfi_restore 4
 732              		.cfi_def_cfa_offset 0
 733              		.loc 1 336 0
 734 0026 FFF7FEBF 		b	_port_irq_epilogue
 735              	.LVL59:
 736              	.L97:
 737 002a 00BF     		.align	2
 738              	.L96:
 739 002c 00640240 		.word	1073898496
 740 0030 00000000 		.word	.LANCHOR0
 741              		.cfi_endproc
ARM GAS  /tmp/ccd9fb1w.s 			page 14


 742              	.LFE122:
 743              		.size	Vector12C, .-Vector12C
 744              		.section	.text.Vector130,"ax",%progbits
 745              		.align	2
 746              		.p2align 4,,15
 747              		.global	Vector130
 748              		.thumb
 749              		.thumb_func
 750              		.type	Vector130, %function
 751              	Vector130:
 752              	.LFB123:
 753              		.loc 1 344 0
 754              		.cfi_startproc
 755              		@ args = 0, pretend = 0, frame = 0
 756              		@ frame_needed = 0, uses_anonymous_args = 0
 757 0000 08B5     		push	{r3, lr}
 758              		.cfi_def_cfa_offset 8
 759              		.cfi_offset 3, -8
 760              		.cfi_offset 14, -4
 761              		.loc 1 347 0
 762 0002 FFF7FEFF 		bl	dbg_check_enter_isr
 763              	.LVL60:
 764              		.loc 1 349 0
 765 0006 084B     		ldr	r3, .L104
 766              		.loc 1 351 0
 767 0008 0848     		ldr	r0, .L104+4
 768              		.loc 1 349 0
 769 000a 5968     		ldr	r1, [r3, #4]
 770              		.loc 1 351 0
 771 000c 026E     		ldr	r2, [r0, #96]
 772              		.loc 1 349 0
 773 000e 01F03D01 		and	r1, r1, #61
 774              	.LVL61:
 775              		.loc 1 350 0
 776 0012 D960     		str	r1, [r3, #12]
 777              		.loc 1 351 0
 778 0014 0AB1     		cbz	r2, .L99
 779              		.loc 1 352 0
 780 0016 406E     		ldr	r0, [r0, #100]
 781 0018 9047     		blx	r2
 782              	.LVL62:
 783              	.L99:
 784              		.loc 1 354 0
 785 001a FFF7FEFF 		bl	dbg_check_leave_isr
 786              	.LVL63:
 787              		.loc 1 355 0
 788 001e BDE80840 		pop	{r3, lr}
 789              		.cfi_restore 14
 790              		.cfi_restore 3
 791              		.cfi_def_cfa_offset 0
 792              		.loc 1 354 0
 793 0022 FFF7FEBF 		b	_port_irq_epilogue
 794              	.LVL64:
 795              	.L105:
 796 0026 00BF     		.align	2
 797              	.L104:
 798 0028 00640240 		.word	1073898496
ARM GAS  /tmp/ccd9fb1w.s 			page 15


 799 002c 00000000 		.word	.LANCHOR0
 800              		.cfi_endproc
 801              	.LFE123:
 802              		.size	Vector130, .-Vector130
 803              		.section	.text.Vector150,"ax",%progbits
 804              		.align	2
 805              		.p2align 4,,15
 806              		.global	Vector150
 807              		.thumb
 808              		.thumb_func
 809              		.type	Vector150, %function
 810              	Vector150:
 811              	.LFB124:
 812              		.loc 1 362 0
 813              		.cfi_startproc
 814              		@ args = 0, pretend = 0, frame = 0
 815              		@ frame_needed = 0, uses_anonymous_args = 0
 816 0000 10B5     		push	{r4, lr}
 817              		.cfi_def_cfa_offset 8
 818              		.cfi_offset 4, -8
 819              		.cfi_offset 14, -4
 820              		.loc 1 365 0
 821 0002 FFF7FEFF 		bl	dbg_check_enter_isr
 822              	.LVL65:
 823              		.loc 1 367 0
 824 0006 094B     		ldr	r3, .L112
 825              		.loc 1 369 0
 826 0008 0948     		ldr	r0, .L112+4
 827              		.loc 1 367 0
 828 000a 5968     		ldr	r1, [r3, #4]
 829              		.loc 1 369 0
 830 000c 826E     		ldr	r2, [r0, #104]
 831              		.loc 1 367 0
 832 000e 8909     		lsrs	r1, r1, #6
 833 0010 01F03D01 		and	r1, r1, #61
 834              	.LVL66:
 835              		.loc 1 368 0
 836 0014 8C01     		lsls	r4, r1, #6
 837 0016 DC60     		str	r4, [r3, #12]
 838              		.loc 1 369 0
 839 0018 0AB1     		cbz	r2, .L107
 840              		.loc 1 370 0
 841 001a C06E     		ldr	r0, [r0, #108]
 842 001c 9047     		blx	r2
 843              	.LVL67:
 844              	.L107:
 845              		.loc 1 372 0
 846 001e FFF7FEFF 		bl	dbg_check_leave_isr
 847              	.LVL68:
 848              		.loc 1 373 0
 849 0022 BDE81040 		pop	{r4, lr}
 850              		.cfi_restore 14
 851              		.cfi_restore 4
 852              		.cfi_def_cfa_offset 0
 853              		.loc 1 372 0
 854 0026 FFF7FEBF 		b	_port_irq_epilogue
 855              	.LVL69:
ARM GAS  /tmp/ccd9fb1w.s 			page 16


 856              	.L113:
 857 002a 00BF     		.align	2
 858              	.L112:
 859 002c 00640240 		.word	1073898496
 860 0030 00000000 		.word	.LANCHOR0
 861              		.cfi_endproc
 862              	.LFE124:
 863              		.size	Vector150, .-Vector150
 864              		.section	.text.Vector154,"ax",%progbits
 865              		.align	2
 866              		.p2align 4,,15
 867              		.global	Vector154
 868              		.thumb
 869              		.thumb_func
 870              		.type	Vector154, %function
 871              	Vector154:
 872              	.LFB125:
 873              		.loc 1 380 0
 874              		.cfi_startproc
 875              		@ args = 0, pretend = 0, frame = 0
 876              		@ frame_needed = 0, uses_anonymous_args = 0
 877 0000 10B5     		push	{r4, lr}
 878              		.cfi_def_cfa_offset 8
 879              		.cfi_offset 4, -8
 880              		.cfi_offset 14, -4
 881              		.loc 1 383 0
 882 0002 FFF7FEFF 		bl	dbg_check_enter_isr
 883              	.LVL70:
 884              		.loc 1 385 0
 885 0006 094B     		ldr	r3, .L120
 886              		.loc 1 387 0
 887 0008 0948     		ldr	r0, .L120+4
 888              		.loc 1 385 0
 889 000a 5968     		ldr	r1, [r3, #4]
 890              		.loc 1 387 0
 891 000c 026F     		ldr	r2, [r0, #112]
 892              		.loc 1 385 0
 893 000e 090C     		lsrs	r1, r1, #16
 894 0010 01F03D01 		and	r1, r1, #61
 895              	.LVL71:
 896              		.loc 1 386 0
 897 0014 0C04     		lsls	r4, r1, #16
 898 0016 DC60     		str	r4, [r3, #12]
 899              		.loc 1 387 0
 900 0018 0AB1     		cbz	r2, .L115
 901              		.loc 1 388 0
 902 001a 406F     		ldr	r0, [r0, #116]
 903 001c 9047     		blx	r2
 904              	.LVL72:
 905              	.L115:
 906              		.loc 1 390 0
 907 001e FFF7FEFF 		bl	dbg_check_leave_isr
 908              	.LVL73:
 909              		.loc 1 391 0
 910 0022 BDE81040 		pop	{r4, lr}
 911              		.cfi_restore 14
 912              		.cfi_restore 4
ARM GAS  /tmp/ccd9fb1w.s 			page 17


 913              		.cfi_def_cfa_offset 0
 914              		.loc 1 390 0
 915 0026 FFF7FEBF 		b	_port_irq_epilogue
 916              	.LVL74:
 917              	.L121:
 918 002a 00BF     		.align	2
 919              	.L120:
 920 002c 00640240 		.word	1073898496
 921 0030 00000000 		.word	.LANCHOR0
 922              		.cfi_endproc
 923              	.LFE125:
 924              		.size	Vector154, .-Vector154
 925              		.section	.text.Vector158,"ax",%progbits
 926              		.align	2
 927              		.p2align 4,,15
 928              		.global	Vector158
 929              		.thumb
 930              		.thumb_func
 931              		.type	Vector158, %function
 932              	Vector158:
 933              	.LFB126:
 934              		.loc 1 398 0
 935              		.cfi_startproc
 936              		@ args = 0, pretend = 0, frame = 0
 937              		@ frame_needed = 0, uses_anonymous_args = 0
 938 0000 10B5     		push	{r4, lr}
 939              		.cfi_def_cfa_offset 8
 940              		.cfi_offset 4, -8
 941              		.cfi_offset 14, -4
 942              		.loc 1 401 0
 943 0002 FFF7FEFF 		bl	dbg_check_enter_isr
 944              	.LVL75:
 945              		.loc 1 403 0
 946 0006 094B     		ldr	r3, .L128
 947              		.loc 1 405 0
 948 0008 0948     		ldr	r0, .L128+4
 949              		.loc 1 403 0
 950 000a 5968     		ldr	r1, [r3, #4]
 951              		.loc 1 405 0
 952 000c 826F     		ldr	r2, [r0, #120]
 953              		.loc 1 403 0
 954 000e 890D     		lsrs	r1, r1, #22
 955 0010 01F03D01 		and	r1, r1, #61
 956              	.LVL76:
 957              		.loc 1 404 0
 958 0014 8C05     		lsls	r4, r1, #22
 959 0016 DC60     		str	r4, [r3, #12]
 960              		.loc 1 405 0
 961 0018 0AB1     		cbz	r2, .L123
 962              		.loc 1 406 0
 963 001a C06F     		ldr	r0, [r0, #124]
 964 001c 9047     		blx	r2
 965              	.LVL77:
 966              	.L123:
 967              		.loc 1 408 0
 968 001e FFF7FEFF 		bl	dbg_check_leave_isr
 969              	.LVL78:
ARM GAS  /tmp/ccd9fb1w.s 			page 18


 970              		.loc 1 409 0
 971 0022 BDE81040 		pop	{r4, lr}
 972              		.cfi_restore 14
 973              		.cfi_restore 4
 974              		.cfi_def_cfa_offset 0
 975              		.loc 1 408 0
 976 0026 FFF7FEBF 		b	_port_irq_epilogue
 977              	.LVL79:
 978              	.L129:
 979 002a 00BF     		.align	2
 980              	.L128:
 981 002c 00640240 		.word	1073898496
 982 0030 00000000 		.word	.LANCHOR0
 983              		.cfi_endproc
 984              	.LFE126:
 985              		.size	Vector158, .-Vector158
 986              		.section	.text.dmaInit,"ax",%progbits
 987              		.align	2
 988              		.p2align 4,,15
 989              		.global	dmaInit
 990              		.thumb
 991              		.thumb_func
 992              		.type	dmaInit, %function
 993              	dmaInit:
 994              	.LFB127:
 995              		.loc 1 420 0
 996              		.cfi_startproc
 997              		@ args = 0, pretend = 0, frame = 0
 998              		@ frame_needed = 0, uses_anonymous_args = 0
 999              		@ link register save eliminated.
 1000              		.loc 1 423 0
 1001 0000 0E49     		ldr	r1, .L136
 1002 0002 0F4A     		ldr	r2, .L136+4
 1003 0004 0F48     		ldr	r0, .L136+8
 1004 0006 0023     		movs	r3, #0
 1005              		.loc 1 420 0
 1006 0008 10B4     		push	{r4}
 1007              		.cfi_def_cfa_offset 4
 1008              		.cfi_offset 4, -4
 1009              		.loc 1 423 0
 1010 000a 0B60     		str	r3, [r1]
 1011              	.LVL80:
 1012 000c 0E4C     		ldr	r4, .L136+12
 1013              		.loc 1 425 0
 1014 000e 1946     		mov	r1, r3
 1015 0010 01E0     		b	.L132
 1016              	.LVL81:
 1017              	.L135:
 1018 0012 52F80C0C 		ldr	r0, [r2, #-12]
 1019              	.LVL82:
 1020              	.L132:
 1021              		.loc 1 425 0 is_stmt 0 discriminator 3
 1022 0016 0160     		str	r1, [r0]
 1023              		.loc 1 426 0 is_stmt 1 discriminator 3
 1024 0018 44F83310 		str	r1, [r4, r3, lsl #3]
 1025              		.loc 1 424 0 discriminator 3
 1026 001c 0133     		adds	r3, r3, #1
ARM GAS  /tmp/ccd9fb1w.s 			page 19


 1027              	.LVL83:
 1028 001e 102B     		cmp	r3, #16
 1029 0020 02F10C02 		add	r2, r2, #12
 1030 0024 F5D1     		bne	.L135
 1031              		.loc 1 428 0
 1032 0026 0949     		ldr	r1, .L136+16
 1033              		.loc 1 430 0
 1034 0028 094A     		ldr	r2, .L136+20
 1035              		.loc 1 432 0
 1036 002a 10BC     		pop	{r4}
 1037              		.cfi_restore 4
 1038              		.cfi_def_cfa_offset 0
 1039              		.loc 1 428 0
 1040 002c 4FF0FF33 		mov	r3, #-1
 1041              	.LVL84:
 1042 0030 8B60     		str	r3, [r1, #8]
 1043              		.loc 1 429 0
 1044 0032 CB60     		str	r3, [r1, #12]
 1045              		.loc 1 430 0
 1046 0034 9360     		str	r3, [r2, #8]
 1047              		.loc 1 431 0
 1048 0036 D360     		str	r3, [r2, #12]
 1049              		.loc 1 432 0
 1050 0038 7047     		bx	lr
 1051              	.L137:
 1052 003a 00BF     		.align	2
 1053              	.L136:
 1054 003c 00000000 		.word	.LANCHOR1
 1055 0040 0C000000 		.word	.LANCHOR2+12
 1056 0044 10600240 		.word	1073897488
 1057 0048 00000000 		.word	.LANCHOR0
 1058 004c 00600240 		.word	1073897472
 1059 0050 00640240 		.word	1073898496
 1060              		.cfi_endproc
 1061              	.LFE127:
 1062              		.size	dmaInit, .-dmaInit
 1063              		.section	.text.dmaStreamAllocate,"ax",%progbits
 1064              		.align	2
 1065              		.p2align 4,,15
 1066              		.global	dmaStreamAllocate
 1067              		.thumb
 1068              		.thumb_func
 1069              		.type	dmaStreamAllocate, %function
 1070              	dmaStreamAllocate:
 1071              	.LFB128:
 1072              		.loc 1 461 0
 1073              		.cfi_startproc
 1074              		@ args = 0, pretend = 0, frame = 16
 1075              		@ frame_needed = 0, uses_anonymous_args = 0
 1076              	.LVL85:
 1077 0000 F0B5     		push	{r4, r5, r6, r7, lr}
 1078              		.cfi_def_cfa_offset 20
 1079              		.cfi_offset 4, -20
 1080              		.cfi_offset 5, -16
 1081              		.cfi_offset 6, -12
 1082              		.cfi_offset 7, -8
 1083              		.cfi_offset 14, -4
ARM GAS  /tmp/ccd9fb1w.s 			page 20


 1084              		.loc 1 463 0
 1085 0002 0546     		mov	r5, r0
 1086              		.loc 1 461 0
 1087 0004 85B0     		sub	sp, sp, #20
 1088              		.cfi_def_cfa_offset 40
 1089              		.loc 1 463 0
 1090 0006 0028     		cmp	r0, #0
 1091 0008 3FD0     		beq	.L154
 1092              	.LVL86:
 1093              	.L139:
 1094              		.loc 1 466 0
 1095 000a 244C     		ldr	r4, .L156
 1096 000c 6F7A     		ldrb	r7, [r5, #9]	@ zero_extendqisi2
 1097 000e 2668     		ldr	r6, [r4]
 1098 0010 0120     		movs	r0, #1
 1099 0012 00FA07FE 		lsl	lr, r0, r7
 1100 0016 1EEA060F 		tst	lr, r6
 1101 001a 2BD1     		bne	.L140
 1102              		.loc 1 470 0
 1103 001c 2048     		ldr	r0, .L156+4
 1104              		.loc 1 472 0
 1105 001e 4EEA0606 		orr	r6, lr, r6
 1106              		.loc 1 471 0
 1107 0022 00EBC70E 		add	lr, r0, r7, lsl #3
 1108              		.loc 1 475 0
 1109 0026 16F0FF0F 		tst	r6, #255
 1110              		.loc 1 472 0
 1111 002a 2660     		str	r6, [r4]
 1112              		.loc 1 470 0
 1113 002c 40F83720 		str	r2, [r0, r7, lsl #3]
 1114              		.loc 1 471 0
 1115 0030 CEF80430 		str	r3, [lr, #4]
 1116              		.loc 1 475 0
 1117 0034 04D0     		beq	.L141
 1118              		.loc 1 476 0
 1119 0036 1B48     		ldr	r0, .L156+8
 1120 0038 036B     		ldr	r3, [r0, #48]
 1121 003a 43F40013 		orr	r3, r3, #2097152
 1122 003e 0363     		str	r3, [r0, #48]
 1123              	.L141:
 1124              		.loc 1 477 0
 1125 0040 16F47F4F 		tst	r6, #65280
 1126 0044 18D1     		bne	.L155
 1127              	.L142:
 1128              		.loc 1 481 0
 1129 0046 2B68     		ldr	r3, [r5]
 1130 0048 1868     		ldr	r0, [r3]
 1131 004a 20F01F00 		bic	r0, r0, #31
 1132 004e 1860     		str	r0, [r3]
 1133              	.L143:
 1134              		.loc 1 481 0 is_stmt 0 discriminator 2
 1135 0050 1868     		ldr	r0, [r3]
 1136 0052 10F00104 		ands	r4, r0, #1
 1137 0056 FBD1     		bne	.L143
 1138              		.loc 1 481 0 discriminator 3
 1139 0058 2F7A     		ldrb	r7, [r5, #8]	@ zero_extendqisi2
 1140 005a 6E68     		ldr	r6, [r5, #4]
ARM GAS  /tmp/ccd9fb1w.s 			page 21


 1141 005c 3D20     		movs	r0, #61
 1142 005e B840     		lsls	r0, r0, r7
 1143              		.loc 1 483 0 is_stmt 1 discriminator 3
 1144 0060 2127     		movs	r7, #33
 1145              		.loc 1 481 0 discriminator 3
 1146 0062 3060     		str	r0, [r6]
 1147              		.loc 1 482 0 discriminator 3
 1148 0064 1C60     		str	r4, [r3]
 1149              		.loc 1 483 0 discriminator 3
 1150 0066 5F61     		str	r7, [r3, #20]
 1151              		.loc 1 486 0 discriminator 3
 1152 0068 62B1     		cbz	r2, .L145
 1153              		.loc 1 487 0
 1154 006a A87A     		ldrb	r0, [r5, #10]	@ zero_extendqisi2
 1155 006c 0901     		lsls	r1, r1, #4
 1156 006e FFF7FEFF 		bl	nvicEnableVector
 1157              	.LVL87:
 1158              		.loc 1 489 0
 1159 0072 2046     		mov	r0, r4
 1160              	.L140:
 1161              		.loc 1 490 0
 1162 0074 05B0     		add	sp, sp, #20
 1163              		.cfi_remember_state
 1164              		.cfi_def_cfa_offset 20
 1165              		@ sp needed
 1166 0076 F0BD     		pop	{r4, r5, r6, r7, pc}
 1167              	.LVL88:
 1168              	.L155:
 1169              		.cfi_restore_state
 1170              		.loc 1 478 0
 1171 0078 0A48     		ldr	r0, .L156+8
 1172 007a 036B     		ldr	r3, [r0, #48]
 1173 007c 43F48003 		orr	r3, r3, #4194304
 1174 0080 0363     		str	r3, [r0, #48]
 1175 0082 E0E7     		b	.L142
 1176              	.L145:
 1177              		.loc 1 489 0
 1178 0084 1046     		mov	r0, r2
 1179              		.loc 1 490 0
 1180 0086 05B0     		add	sp, sp, #20
 1181              		.cfi_remember_state
 1182              		.cfi_def_cfa_offset 20
 1183              		@ sp needed
 1184 0088 F0BD     		pop	{r4, r5, r6, r7, pc}
 1185              	.LVL89:
 1186              	.L154:
 1187              		.cfi_restore_state
 1188              		.loc 1 463 0 discriminator 1
 1189 008a 0748     		ldr	r0, .L156+12
 1190              	.LVL90:
 1191 008c 0393     		str	r3, [sp, #12]
 1192 008e 0292     		str	r2, [sp, #8]
 1193 0090 0191     		str	r1, [sp, #4]
 1194 0092 FFF7FEFF 		bl	chDbgPanic
 1195              	.LVL91:
 1196 0096 01A9     		add	r1, sp, #4
 1197              	.LVL92:
ARM GAS  /tmp/ccd9fb1w.s 			page 22


 1198 0098 0EC9     		ldmia	r1, {r1, r2, r3}
 1199              	.LVL93:
 1200 009a B6E7     		b	.L139
 1201              	.L157:
 1202              		.align	2
 1203              	.L156:
 1204 009c 00000000 		.word	.LANCHOR1
 1205 00a0 00000000 		.word	.LANCHOR0
 1206 00a4 00380240 		.word	1073887232
 1207 00a8 00000000 		.word	.LC0
 1208              		.cfi_endproc
 1209              	.LFE128:
 1210              		.size	dmaStreamAllocate, .-dmaStreamAllocate
 1211              		.section	.text.dmaStreamRelease,"ax",%progbits
 1212              		.align	2
 1213              		.p2align 4,,15
 1214              		.global	dmaStreamRelease
 1215              		.thumb
 1216              		.thumb_func
 1217              		.type	dmaStreamRelease, %function
 1218              	dmaStreamRelease:
 1219              	.LFB129:
 1220              		.loc 1 505 0
 1221              		.cfi_startproc
 1222              		@ args = 0, pretend = 0, frame = 0
 1223              		@ frame_needed = 0, uses_anonymous_args = 0
 1224              	.LVL94:
 1225 0000 38B5     		push	{r3, r4, r5, lr}
 1226              		.cfi_def_cfa_offset 16
 1227              		.cfi_offset 3, -16
 1228              		.cfi_offset 4, -12
 1229              		.cfi_offset 5, -8
 1230              		.cfi_offset 14, -4
 1231              		.loc 1 507 0
 1232 0002 0446     		mov	r4, r0
 1233 0004 28B3     		cbz	r0, .L164
 1234              	.LVL95:
 1235              	.L159:
 1236              		.loc 1 510 0
 1237 0006 154D     		ldr	r5, .L166
 1238 0008 617A     		ldrb	r1, [r4, #9]	@ zero_extendqisi2
 1239 000a 2A68     		ldr	r2, [r5]
 1240 000c 0123     		movs	r3, #1
 1241 000e 8B40     		lsls	r3, r3, r1
 1242 0010 1342     		tst	r3, r2
 1243 0012 1AD0     		beq	.L165
 1244              	.L160:
 1245              		.loc 1 514 0
 1246 0014 A07A     		ldrb	r0, [r4, #10]	@ zero_extendqisi2
 1247 0016 FFF7FEFF 		bl	nvicDisableVector
 1248              	.LVL96:
 1249              		.loc 1 517 0
 1250 001a 617A     		ldrb	r1, [r4, #9]	@ zero_extendqisi2
 1251 001c 2A68     		ldr	r2, [r5]
 1252 001e 0123     		movs	r3, #1
 1253 0020 8B40     		lsls	r3, r3, r1
 1254 0022 22EA0303 		bic	r3, r2, r3
ARM GAS  /tmp/ccd9fb1w.s 			page 23


 1255              		.loc 1 520 0
 1256 0026 13F0FF0F 		tst	r3, #255
 1257              		.loc 1 517 0
 1258 002a 2B60     		str	r3, [r5]
 1259              		.loc 1 520 0
 1260 002c 04D1     		bne	.L161
 1261              		.loc 1 521 0
 1262 002e 0C49     		ldr	r1, .L166+4
 1263 0030 0A6B     		ldr	r2, [r1, #48]
 1264 0032 22F40012 		bic	r2, r2, #2097152
 1265 0036 0A63     		str	r2, [r1, #48]
 1266              	.L161:
 1267              		.loc 1 522 0
 1268 0038 13F47F4F 		tst	r3, #65280
 1269 003c 04D1     		bne	.L158
 1270              		.loc 1 523 0
 1271 003e 084A     		ldr	r2, .L166+4
 1272 0040 136B     		ldr	r3, [r2, #48]
 1273 0042 23F48003 		bic	r3, r3, #4194304
 1274 0046 1363     		str	r3, [r2, #48]
 1275              	.L158:
 1276 0048 38BD     		pop	{r3, r4, r5, pc}
 1277              	.LVL97:
 1278              	.L165:
 1279              		.loc 1 510 0 discriminator 1
 1280 004a 0648     		ldr	r0, .L166+8
 1281 004c FFF7FEFF 		bl	chDbgPanic
 1282              	.LVL98:
 1283 0050 E0E7     		b	.L160
 1284              	.LVL99:
 1285              	.L164:
 1286              		.loc 1 507 0 discriminator 1
 1287 0052 0548     		ldr	r0, .L166+12
 1288              	.LVL100:
 1289 0054 FFF7FEFF 		bl	chDbgPanic
 1290              	.LVL101:
 1291 0058 D5E7     		b	.L159
 1292              	.L167:
 1293 005a 00BF     		.align	2
 1294              	.L166:
 1295 005c 00000000 		.word	.LANCHOR1
 1296 0060 00380240 		.word	1073887232
 1297 0064 30000000 		.word	.LC2
 1298 0068 18000000 		.word	.LC1
 1299              		.cfi_endproc
 1300              	.LFE129:
 1301              		.size	dmaStreamRelease, .-dmaStreamRelease
 1302              		.global	_stm32_dma_streams
 1303              		.section	.rodata.str1.4,"aMS",%progbits,1
 1304              		.align	2
 1305              	.LC0:
 1306 0000 22646D61 		.ascii	"\"dmaStreamAllocate\"()\000"
 1306      53747265 
 1306      616D416C 
 1306      6C6F6361 
 1306      74652228 
 1307 0016 0000     		.space	2
ARM GAS  /tmp/ccd9fb1w.s 			page 24


 1308              	.LC1:
 1309 0018 22646D61 		.ascii	"\"dmaStreamRelease\"()\000"
 1309      53747265 
 1309      616D5265 
 1309      6C656173 
 1309      65222829 
 1310 002d 000000   		.space	3
 1311              	.LC2:
 1312 0030 646D6153 		.ascii	"dmaStreamRelease(), #1\000"
 1312      74726561 
 1312      6D52656C 
 1312      65617365 
 1312      28292C20 
 1313              		.section	.bss.dma_isr_redir,"aw",%nobits
 1314              		.align	2
 1315              		.set	.LANCHOR0,. + 0
 1316              		.type	dma_isr_redir, %object
 1317              		.size	dma_isr_redir, 128
 1318              	dma_isr_redir:
 1319 0000 00000000 		.space	128
 1319      00000000 
 1319      00000000 
 1319      00000000 
 1319      00000000 
 1320              		.section	.rodata._stm32_dma_streams,"a",%progbits
 1321              		.align	2
 1322              		.set	.LANCHOR2,. + 0
 1323              		.type	_stm32_dma_streams, %object
 1324              		.size	_stm32_dma_streams, 192
 1325              	_stm32_dma_streams:
 1326 0000 10600240 		.word	1073897488
 1327 0004 08600240 		.word	1073897480
 1328 0008 00       		.byte	0
 1329 0009 00       		.byte	0
 1330 000a 0B       		.byte	11
 1331 000b 00       		.space	1
 1332 000c 28600240 		.word	1073897512
 1333 0010 08600240 		.word	1073897480
 1334 0014 06       		.byte	6
 1335 0015 01       		.byte	1
 1336 0016 0C       		.byte	12
 1337 0017 00       		.space	1
 1338 0018 40600240 		.word	1073897536
 1339 001c 08600240 		.word	1073897480
 1340 0020 10       		.byte	16
 1341 0021 02       		.byte	2
 1342 0022 0D       		.byte	13
 1343 0023 00       		.space	1
 1344 0024 58600240 		.word	1073897560
 1345 0028 08600240 		.word	1073897480
 1346 002c 16       		.byte	22
 1347 002d 03       		.byte	3
 1348 002e 0E       		.byte	14
 1349 002f 00       		.space	1
 1350 0030 70600240 		.word	1073897584
 1351 0034 0C600240 		.word	1073897484
 1352 0038 00       		.byte	0
ARM GAS  /tmp/ccd9fb1w.s 			page 25


 1353 0039 04       		.byte	4
 1354 003a 0F       		.byte	15
 1355 003b 00       		.space	1
 1356 003c 88600240 		.word	1073897608
 1357 0040 0C600240 		.word	1073897484
 1358 0044 06       		.byte	6
 1359 0045 05       		.byte	5
 1360 0046 10       		.byte	16
 1361 0047 00       		.space	1
 1362 0048 A0600240 		.word	1073897632
 1363 004c 0C600240 		.word	1073897484
 1364 0050 10       		.byte	16
 1365 0051 06       		.byte	6
 1366 0052 11       		.byte	17
 1367 0053 00       		.space	1
 1368 0054 B8600240 		.word	1073897656
 1369 0058 0C600240 		.word	1073897484
 1370 005c 16       		.byte	22
 1371 005d 07       		.byte	7
 1372 005e 2F       		.byte	47
 1373 005f 00       		.space	1
 1374 0060 10640240 		.word	1073898512
 1375 0064 08640240 		.word	1073898504
 1376 0068 00       		.byte	0
 1377 0069 08       		.byte	8
 1378 006a 38       		.byte	56
 1379 006b 00       		.space	1
 1380 006c 28640240 		.word	1073898536
 1381 0070 08640240 		.word	1073898504
 1382 0074 06       		.byte	6
 1383 0075 09       		.byte	9
 1384 0076 39       		.byte	57
 1385 0077 00       		.space	1
 1386 0078 40640240 		.word	1073898560
 1387 007c 08640240 		.word	1073898504
 1388 0080 10       		.byte	16
 1389 0081 0A       		.byte	10
 1390 0082 3A       		.byte	58
 1391 0083 00       		.space	1
 1392 0084 58640240 		.word	1073898584
 1393 0088 08640240 		.word	1073898504
 1394 008c 16       		.byte	22
 1395 008d 0B       		.byte	11
 1396 008e 3B       		.byte	59
 1397 008f 00       		.space	1
 1398 0090 70640240 		.word	1073898608
 1399 0094 0C640240 		.word	1073898508
 1400 0098 00       		.byte	0
 1401 0099 0C       		.byte	12
 1402 009a 3C       		.byte	60
 1403 009b 00       		.space	1
 1404 009c 88640240 		.word	1073898632
 1405 00a0 0C640240 		.word	1073898508
 1406 00a4 06       		.byte	6
 1407 00a5 0D       		.byte	13
 1408 00a6 44       		.byte	68
 1409 00a7 00       		.space	1
ARM GAS  /tmp/ccd9fb1w.s 			page 26


 1410 00a8 A0640240 		.word	1073898656
 1411 00ac 0C640240 		.word	1073898508
 1412 00b0 10       		.byte	16
 1413 00b1 0E       		.byte	14
 1414 00b2 45       		.byte	69
 1415 00b3 00       		.space	1
 1416 00b4 B8640240 		.word	1073898680
 1417 00b8 0C640240 		.word	1073898508
 1418 00bc 16       		.byte	22
 1419 00bd 0F       		.byte	15
 1420 00be 46       		.byte	70
 1421 00bf 00       		.space	1
 1422              		.section	.bss.dma_streams_mask,"aw",%nobits
 1423              		.align	2
 1424              		.set	.LANCHOR1,. + 0
 1425              		.type	dma_streams_mask, %object
 1426              		.size	dma_streams_mask, 4
 1427              	dma_streams_mask:
 1428 0000 00000000 		.space	4
 1429              		.text
 1430              	.Letext0:
 1431              		.file 2 "/home/z80/programs/sw4stm32/plugins/fr.ac6.mcu.externaltools.arm-none.linux32_1.7.0.20160
 1432              		.file 3 "/home/z80/programs/sw4stm32/plugins/fr.ac6.mcu.externaltools.arm-none.linux32_1.7.0.20160
 1433              		.file 4 "../../../os/ports/GCC/ARMCMx/chtypes.h"
 1434              		.file 5 "../../../os/hal/platforms/STM32F4xx/stm32f4xx.h"
 1435              		.file 6 "../../../os/hal/platforms/STM32F4xx/stm32_dma.h"
 1436              		.file 7 "../../../os/ports/common/ARMCMx/CMSIS/include/core_cm4.h"
 1437              		.file 8 "../../../os/kernel/include/chdebug.h"
 1438              		.file 9 "../../../os/ports/GCC/ARMCMx/chcore_v7m.h"
 1439              		.file 10 "../../../os/ports/common/ARMCMx/nvic.h"