ARM GAS  /tmp/ccyxuBjM.s 			page 1


   1              		.syntax unified
   2              		.cpu cortex-m4
   3              		.fpu softvfp
   4              		.eabi_attribute 20, 1
   5              		.eabi_attribute 21, 1
   6              		.eabi_attribute 23, 3
   7              		.eabi_attribute 24, 1
   8              		.eabi_attribute 25, 1
   9              		.eabi_attribute 26, 1
  10              		.eabi_attribute 30, 2
  11              		.eabi_attribute 34, 1
  12              		.eabi_attribute 18, 4
  13              		.thumb
  14              		.syntax unified
  15              		.file	"testsem.c"
  16              		.text
  17              	.Ltext0:
  18              		.cfi_sections	.debug_frame
  19              		.section	.text.sem1_execute,"ax",%progbits
  20              		.align	2
  21              		.p2align 4,,15
  22              		.thumb
  23              		.thumb_func
  24              		.type	sem1_execute, %function
  25              	sem1_execute:
  26              	.LFB2:
  27              		.file 1 "../../../test/testsem.c"
  28              		.loc 1 84 0
  29              		.cfi_startproc
  30              		@ args = 0, pretend = 0, frame = 0
  31              		@ frame_needed = 0, uses_anonymous_args = 0
  32 0000 2DE9F043 		push	{r4, r5, r6, r7, r8, r9, lr}
  33              		.cfi_def_cfa_offset 28
  34              		.cfi_offset 4, -28
  35              		.cfi_offset 5, -24
  36              		.cfi_offset 6, -20
  37              		.cfi_offset 7, -16
  38              		.cfi_offset 8, -12
  39              		.cfi_offset 9, -8
  40              		.cfi_offset 14, -4
  41              		.loc 1 86 0
  42 0004 444E     		ldr	r6, .L6
  43 0006 454F     		ldr	r7, .L6+4
  44 0008 B369     		ldr	r3, [r6, #24]
  45 000a D7F80080 		ldr	r8, [r7]
  46 000e 9A68     		ldr	r2, [r3, #8]
  47 0010 DFF82C91 		ldr	r9, .L6+40
  48 0014 424B     		ldr	r3, .L6+8
  49 0016 434D     		ldr	r5, .L6+12
  50              		.loc 1 91 0
  51 0018 434C     		ldr	r4, .L6+16
  52              		.loc 1 84 0
  53 001a 83B0     		sub	sp, sp, #12
  54              		.cfi_def_cfa_offset 40
  55              		.loc 1 86 0
  56 001c 0532     		adds	r2, r2, #5
  57 001e 4FF4A871 		mov	r1, #336
ARM GAS  /tmp/ccyxuBjM.s 			page 2


  58 0022 CDF80090 		str	r9, [sp]
  59 0026 4046     		mov	r0, r8
  60 0028 FFF7FEFF 		bl	chThdCreateStatic
  61              	.LVL0:
  62              		.loc 1 87 0
  63 002c B369     		ldr	r3, [r6, #24]
  64 002e 7968     		ldr	r1, [r7, #4]
  65 0030 9A68     		ldr	r2, [r3, #8]
  66 0032 3E4B     		ldr	r3, .L6+20
  67              		.loc 1 86 0
  68 0034 2860     		str	r0, [r5]
  69              		.loc 1 87 0
  70 0036 0132     		adds	r2, r2, #1
  71 0038 0846     		mov	r0, r1
  72 003a 0093     		str	r3, [sp]
  73 003c 4FF4A871 		mov	r1, #336
  74 0040 374B     		ldr	r3, .L6+8
  75 0042 FFF7FEFF 		bl	chThdCreateStatic
  76              	.LVL1:
  77              		.loc 1 88 0
  78 0046 B369     		ldr	r3, [r6, #24]
  79 0048 B968     		ldr	r1, [r7, #8]
  80 004a 9A68     		ldr	r2, [r3, #8]
  81 004c 384B     		ldr	r3, .L6+24
  82              		.loc 1 87 0
  83 004e 6860     		str	r0, [r5, #4]
  84              		.loc 1 88 0
  85 0050 0332     		adds	r2, r2, #3
  86 0052 0846     		mov	r0, r1
  87 0054 0093     		str	r3, [sp]
  88 0056 4FF4A871 		mov	r1, #336
  89 005a 314B     		ldr	r3, .L6+8
  90 005c FFF7FEFF 		bl	chThdCreateStatic
  91              	.LVL2:
  92              		.loc 1 89 0
  93 0060 B369     		ldr	r3, [r6, #24]
  94 0062 F968     		ldr	r1, [r7, #12]
  95 0064 9A68     		ldr	r2, [r3, #8]
  96 0066 334B     		ldr	r3, .L6+28
  97              		.loc 1 88 0
  98 0068 A860     		str	r0, [r5, #8]
  99              		.loc 1 89 0
 100 006a 0432     		adds	r2, r2, #4
 101 006c 0846     		mov	r0, r1
 102 006e 0093     		str	r3, [sp]
 103 0070 4FF4A871 		mov	r1, #336
 104 0074 2A4B     		ldr	r3, .L6+8
 105 0076 FFF7FEFF 		bl	chThdCreateStatic
 106              	.LVL3:
 107              		.loc 1 90 0
 108 007a B369     		ldr	r3, [r6, #24]
 109 007c 3969     		ldr	r1, [r7, #16]
 110 007e 9A68     		ldr	r2, [r3, #8]
 111 0080 2D4B     		ldr	r3, .L6+32
 112              		.loc 1 89 0
 113 0082 E860     		str	r0, [r5, #12]
 114              		.loc 1 90 0
ARM GAS  /tmp/ccyxuBjM.s 			page 3


 115 0084 0232     		adds	r2, r2, #2
 116 0086 0846     		mov	r0, r1
 117 0088 0093     		str	r3, [sp]
 118 008a 4FF4A871 		mov	r1, #336
 119 008e 244B     		ldr	r3, .L6+8
 120 0090 FFF7FEFF 		bl	chThdCreateStatic
 121              	.LVL4:
 122 0094 2861     		str	r0, [r5, #16]
 123              		.loc 1 91 0
 124 0096 2046     		mov	r0, r4
 125 0098 FFF7FEFF 		bl	chSemSignal
 126              	.LVL5:
 127              		.loc 1 92 0
 128 009c 2046     		mov	r0, r4
 129 009e FFF7FEFF 		bl	chSemSignal
 130              	.LVL6:
 131              		.loc 1 93 0
 132 00a2 2046     		mov	r0, r4
 133 00a4 FFF7FEFF 		bl	chSemSignal
 134              	.LVL7:
 135              		.loc 1 94 0
 136 00a8 2046     		mov	r0, r4
 137 00aa FFF7FEFF 		bl	chSemSignal
 138              	.LVL8:
 139              		.loc 1 95 0
 140 00ae 2046     		mov	r0, r4
 141 00b0 FFF7FEFF 		bl	chSemSignal
 142              	.LVL9:
 143              		.loc 1 96 0
 144 00b4 FFF7FEFF 		bl	test_wait_threads
 145              	.LVL10:
 146              		.loc 1 100 0
 147 00b8 2049     		ldr	r1, .L6+36
 148 00ba 0120     		movs	r0, #1
 149 00bc FFF7FEFF 		bl	_test_assert_sequence
 150              	.LVL11:
 151 00c0 10B1     		cbz	r0, .L5
 152              		.loc 1 109 0
 153 00c2 03B0     		add	sp, sp, #12
 154              		.cfi_remember_state
 155              		.cfi_def_cfa_offset 28
 156              		@ sp needed
 157 00c4 BDE8F083 		pop	{r4, r5, r6, r7, r8, r9, pc}
 158              	.L5:
 159              		.cfi_restore_state
 160              		.loc 1 102 0
 161 00c8 B269     		ldr	r2, [r6, #24]
 162 00ca 154B     		ldr	r3, .L6+8
 163 00cc 9268     		ldr	r2, [r2, #8]
 164 00ce CDF80090 		str	r9, [sp]
 165 00d2 0532     		adds	r2, r2, #5
 166 00d4 4046     		mov	r0, r8
 167 00d6 4FF4A871 		mov	r1, #336
 168 00da FFF7FEFF 		bl	chThdCreateStatic
 169              	.LVL12:
 170 00de 2860     		str	r0, [r5]
 171              		.loc 1 103 0
ARM GAS  /tmp/ccyxuBjM.s 			page 4


 172              		.syntax unified
 173              	@ 103 "../../../test/testsem.c" 1
 174 00e0 FFF7FEFF 		bl      _port_lock
 175              	@ 0 "" 2
 176              		.thumb
 177              		.syntax unified
 178 00e4 FFF7FEFF 		bl	dbg_check_lock
 179              	.LVL13:
 180              		.loc 1 104 0
 181 00e8 2046     		mov	r0, r4
 182 00ea 0221     		movs	r1, #2
 183 00ec FFF7FEFF 		bl	chSemAddCounterI
 184              	.LVL14:
 185              		.loc 1 105 0
 186 00f0 FFF7FEFF 		bl	chSchRescheduleS
 187              	.LVL15:
 188              		.loc 1 106 0
 189 00f4 FFF7FEFF 		bl	dbg_check_unlock
 190              	.LVL16:
 191              		.syntax unified
 192              	@ 106 "../../../test/testsem.c" 1
 193 00f8 FFF7FEFF 		bl      _port_unlock
 194              	@ 0 "" 2
 195              		.loc 1 107 0
 196              		.thumb
 197              		.syntax unified
 198 00fc FFF7FEFF 		bl	test_wait_threads
 199              	.LVL17:
 200              		.loc 1 108 0
 201 0100 A168     		ldr	r1, [r4, #8]
 202 0102 A1F10101 		sub	r1, #1
 203 0106 B1FA81F1 		clz	r1, r1
 204 010a 0220     		movs	r0, #2
 205 010c 4909     		lsrs	r1, r1, #5
 206              		.loc 1 109 0
 207 010e 03B0     		add	sp, sp, #12
 208              		.cfi_def_cfa_offset 28
 209              		@ sp needed
 210 0110 BDE8F043 		pop	{r4, r5, r6, r7, r8, r9, lr}
 211              		.cfi_restore 14
 212              		.cfi_restore 9
 213              		.cfi_restore 8
 214              		.cfi_restore 7
 215              		.cfi_restore 6
 216              		.cfi_restore 5
 217              		.cfi_restore 4
 218              		.cfi_def_cfa_offset 0
 219              		.loc 1 108 0
 220 0114 FFF7FEBF 		b	_test_assert
 221              	.LVL18:
 222              	.L7:
 223              		.align	2
 224              	.L6:
 225 0118 00000000 		.word	rlist
 226 011c 00000000 		.word	wa
 227 0120 00000000 		.word	thread1
 228 0124 00000000 		.word	threads
ARM GAS  /tmp/ccyxuBjM.s 			page 5


 229 0128 00000000 		.word	.LANCHOR0
 230 012c 04000000 		.word	.LC1
 231 0130 08000000 		.word	.LC2
 232 0134 0C000000 		.word	.LC3
 233 0138 10000000 		.word	.LC4
 234 013c 14000000 		.word	.LC5
 235 0140 00000000 		.word	.LC0
 236              		.cfi_endproc
 237              	.LFE2:
 238              		.size	sem1_execute, .-sem1_execute
 239              		.section	.text.thread3,"ax",%progbits
 240              		.align	2
 241              		.p2align 4,,15
 242              		.thumb
 243              		.thumb_func
 244              		.type	thread3, %function
 245              	thread3:
 246              	.LFB7:
 247              		.loc 1 210 0
 248              		.cfi_startproc
 249              		@ args = 0, pretend = 0, frame = 0
 250              		@ frame_needed = 0, uses_anonymous_args = 0
 251              	.LVL19:
 252 0000 10B5     		push	{r4, lr}
 253              		.cfi_def_cfa_offset 8
 254              		.cfi_offset 4, -8
 255              		.cfi_offset 14, -4
 256              		.loc 1 213 0
 257 0002 044C     		ldr	r4, .L10
 258 0004 2046     		mov	r0, r4
 259              	.LVL20:
 260 0006 FFF7FEFF 		bl	chSemWait
 261              	.LVL21:
 262              		.loc 1 214 0
 263 000a 2046     		mov	r0, r4
 264 000c FFF7FEFF 		bl	chSemSignal
 265              	.LVL22:
 266              		.loc 1 216 0
 267 0010 0020     		movs	r0, #0
 268 0012 10BD     		pop	{r4, pc}
 269              	.L11:
 270              		.align	2
 271              	.L10:
 272 0014 00000000 		.word	.LANCHOR0
 273              		.cfi_endproc
 274              	.LFE7:
 275              		.size	thread3, .-thread3
 276              		.section	.text.thread1,"ax",%progbits
 277              		.align	2
 278              		.p2align 4,,15
 279              		.thumb
 280              		.thumb_func
 281              		.type	thread1, %function
 282              	thread1:
 283              	.LFB1:
 284              		.loc 1 77 0
 285              		.cfi_startproc
ARM GAS  /tmp/ccyxuBjM.s 			page 6


 286              		@ args = 0, pretend = 0, frame = 0
 287              		@ frame_needed = 0, uses_anonymous_args = 0
 288              	.LVL23:
 289 0000 10B5     		push	{r4, lr}
 290              		.cfi_def_cfa_offset 8
 291              		.cfi_offset 4, -8
 292              		.cfi_offset 14, -4
 293              		.loc 1 77 0
 294 0002 0446     		mov	r4, r0
 295              		.loc 1 79 0
 296 0004 0348     		ldr	r0, .L14
 297              	.LVL24:
 298 0006 FFF7FEFF 		bl	chSemWait
 299              	.LVL25:
 300              		.loc 1 80 0
 301 000a 2078     		ldrb	r0, [r4]	@ zero_extendqisi2
 302 000c FFF7FEFF 		bl	test_emit_token
 303              	.LVL26:
 304              		.loc 1 82 0
 305 0010 0020     		movs	r0, #0
 306 0012 10BD     		pop	{r4, pc}
 307              	.LVL27:
 308              	.L15:
 309              		.align	2
 310              	.L14:
 311 0014 00000000 		.word	.LANCHOR0
 312              		.cfi_endproc
 313              	.LFE1:
 314              		.size	thread1, .-thread1
 315              		.section	.text.sem3_setup,"ax",%progbits
 316              		.align	2
 317              		.p2align 4,,15
 318              		.thumb
 319              		.thumb_func
 320              		.type	sem3_setup, %function
 321              	sem3_setup:
 322              	.LFB6:
 323              		.loc 1 205 0
 324              		.cfi_startproc
 325              		@ args = 0, pretend = 0, frame = 0
 326              		@ frame_needed = 0, uses_anonymous_args = 0
 327              		@ link register save eliminated.
 328              		.loc 1 207 0
 329 0000 0021     		movs	r1, #0
 330 0002 0148     		ldr	r0, .L17
 331 0004 FFF7FEBF 		b	chSemInit
 332              	.LVL28:
 333              	.L18:
 334              		.align	2
 335              	.L17:
 336 0008 00000000 		.word	.LANCHOR0
 337              		.cfi_endproc
 338              	.LFE6:
 339              		.size	sem3_setup, .-sem3_setup
 340              		.section	.text.sem2_setup,"ax",%progbits
 341              		.align	2
 342              		.p2align 4,,15
ARM GAS  /tmp/ccyxuBjM.s 			page 7


 343              		.thumb
 344              		.thumb_func
 345              		.type	sem2_setup, %function
 346              	sem2_setup:
 347              	.LFB14:
 348              		.cfi_startproc
 349              		@ args = 0, pretend = 0, frame = 0
 350              		@ frame_needed = 0, uses_anonymous_args = 0
 351              		@ link register save eliminated.
 352 0000 FFF7FEBF 		b	sem3_setup
 353              		.cfi_endproc
 354              	.LFE14:
 355              		.size	sem2_setup, .-sem2_setup
 356              		.section	.text.sem1_setup,"ax",%progbits
 357              		.align	2
 358              		.p2align 4,,15
 359              		.thumb
 360              		.thumb_func
 361              		.type	sem1_setup, %function
 362              	sem1_setup:
 363              	.LFB16:
 364              		.cfi_startproc
 365              		@ args = 0, pretend = 0, frame = 0
 366              		@ frame_needed = 0, uses_anonymous_args = 0
 367              		@ link register save eliminated.
 368 0000 FFF7FEBF 		b	sem3_setup
 369              		.cfi_endproc
 370              	.LFE16:
 371              		.size	sem1_setup, .-sem1_setup
 372              		.section	.text.thread2,"ax",%progbits
 373              		.align	2
 374              		.p2align 4,,15
 375              		.thumb
 376              		.thumb_func
 377              		.type	thread2, %function
 378              	thread2:
 379              	.LFB4:
 380              		.loc 1 134 0
 381              		.cfi_startproc
 382              		@ args = 0, pretend = 0, frame = 0
 383              		@ frame_needed = 0, uses_anonymous_args = 0
 384              	.LVL29:
 385              		.loc 1 134 0
 386 0000 08B5     		push	{r3, lr}
 387              		.cfi_def_cfa_offset 8
 388              		.cfi_offset 3, -8
 389              		.cfi_offset 14, -4
 390              		.loc 1 137 0
 391 0002 3220     		movs	r0, #50
 392              	.LVL30:
 393 0004 FFF7FEFF 		bl	chThdSleep
 394              	.LVL31:
 395              		.loc 1 138 0
 396              		.syntax unified
 397              	@ 138 "../../../test/testsem.c" 1
 398 0008 FFF7FEFF 		bl      _port_lock
 399              	@ 0 "" 2
ARM GAS  /tmp/ccyxuBjM.s 			page 8


 400              		.thumb
 401              		.syntax unified
 402 000c FFF7FEFF 		bl	dbg_check_lock
 403              	.LVL32:
 404              		.loc 1 139 0
 405 0010 0548     		ldr	r0, .L23
 406 0012 FFF7FEFF 		bl	chSemSignalI
 407              	.LVL33:
 408              		.loc 1 140 0
 409 0016 FFF7FEFF 		bl	chSchRescheduleS
 410              	.LVL34:
 411              		.loc 1 141 0
 412 001a FFF7FEFF 		bl	dbg_check_unlock
 413              	.LVL35:
 414              		.syntax unified
 415              	@ 141 "../../../test/testsem.c" 1
 416 001e FFF7FEFF 		bl      _port_unlock
 417              	@ 0 "" 2
 418              		.loc 1 143 0
 419              		.thumb
 420              		.syntax unified
 421 0022 0020     		movs	r0, #0
 422 0024 08BD     		pop	{r3, pc}
 423              	.L24:
 424 0026 00BF     		.align	2
 425              	.L23:
 426 0028 00000000 		.word	.LANCHOR0
 427              		.cfi_endproc
 428              	.LFE4:
 429              		.size	thread2, .-thread2
 430              		.section	.text.thread4,"ax",%progbits
 431              		.align	2
 432              		.p2align 4,,15
 433              		.thumb
 434              		.thumb_func
 435              		.type	thread4, %function
 436              	thread4:
 437              	.LFB9:
 438              		.loc 1 246 0
 439              		.cfi_startproc
 440              		@ args = 0, pretend = 0, frame = 0
 441              		@ frame_needed = 0, uses_anonymous_args = 0
 442              	.LVL36:
 443 0000 10B5     		push	{r4, lr}
 444              		.cfi_def_cfa_offset 8
 445              		.cfi_offset 4, -8
 446              		.cfi_offset 14, -4
 447              		.loc 1 246 0
 448 0002 0446     		mov	r4, r0
 449              		.loc 1 248 0
 450              		.syntax unified
 451              	@ 248 "../../../test/testsem.c" 1
 452 0004 FFF7FEFF 		bl      _port_lock
 453              	@ 0 "" 2
 454              		.thumb
 455              		.syntax unified
 456 0008 FFF7FEFF 		bl	dbg_check_lock
ARM GAS  /tmp/ccyxuBjM.s 			page 9


 457              	.LVL37:
 458 000c A368     		ldr	r3, [r4, #8]
 459 000e 002B     		cmp	r3, #0
 460 0010 07DD     		ble	.L28
 461              	.L26:
 462              		.loc 1 248 0 is_stmt 0 discriminator 3
 463 0012 FFF7FEFF 		bl	chSchRescheduleS
 464              	.LVL38:
 465 0016 FFF7FEFF 		bl	dbg_check_unlock
 466              	.LVL39:
 467              		.syntax unified
 468              	@ 248 "../../../test/testsem.c" 1
 469 001a FFF7FEFF 		bl      _port_unlock
 470              	@ 0 "" 2
 471              		.loc 1 250 0 is_stmt 1 discriminator 3
 472              		.thumb
 473              		.syntax unified
 474 001e 0020     		movs	r0, #0
 475 0020 10BD     		pop	{r4, pc}
 476              	.LVL40:
 477              	.L28:
 478              		.loc 1 248 0 discriminator 1
 479 0022 2046     		mov	r0, r4
 480 0024 FFF7FEFF 		bl	chSemSignalI
 481              	.LVL41:
 482 0028 F3E7     		b	.L26
 483              		.cfi_endproc
 484              	.LFE9:
 485              		.size	thread4, .-thread4
 486 002a 00BF     		.section	.text.sem4_execute,"ax",%progbits
 487              		.align	2
 488              		.p2align 4,,15
 489              		.thumb
 490              		.thumb_func
 491              		.type	sem4_execute, %function
 492              	sem4_execute:
 493              	.LFB10:
 494              		.loc 1 252 0
 495              		.cfi_startproc
 496              		@ args = 0, pretend = 0, frame = 16
 497              		@ frame_needed = 0, uses_anonymous_args = 0
 498 0000 00B5     		push	{lr}
 499              		.cfi_def_cfa_offset 4
 500              		.cfi_offset 14, -4
 501 0002 87B0     		sub	sp, sp, #28
 502              		.cfi_def_cfa_offset 32
 503              		.loc 1 256 0
 504 0004 03A8     		add	r0, sp, #12
 505 0006 0021     		movs	r1, #0
 506 0008 FFF7FEFF 		bl	chSemInit
 507              	.LVL42:
 508              		.loc 1 257 0
 509 000c 03A8     		add	r0, sp, #12
 510 000e 0021     		movs	r1, #0
 511 0010 FFF7FEFF 		bl	chSemReset
 512              	.LVL43:
 513              		.loc 1 258 0
ARM GAS  /tmp/ccyxuBjM.s 			page 10


 514 0014 0599     		ldr	r1, [sp, #20]
 515 0016 0029     		cmp	r1, #0
 516 0018 CCBF     		ite	gt
 517 001a 0021     		movgt	r1, #0
 518 001c 0121     		movle	r1, #1
 519 001e 0120     		movs	r0, #1
 520 0020 FFF7FEFF 		bl	_test_assert
 521              	.LVL44:
 522 0024 10B1     		cbz	r0, .L35
 523              	.L29:
 524              		.loc 1 280 0
 525 0026 07B0     		add	sp, sp, #28
 526              		.cfi_remember_state
 527              		.cfi_def_cfa_offset 4
 528              		@ sp needed
 529 0028 5DF804FB 		ldr	pc, [sp], #4
 530              	.L35:
 531              		.cfi_restore_state
 532              		.loc 1 262 0
 533 002c 334B     		ldr	r3, .L38
 534              		.loc 1 261 0
 535 002e 344A     		ldr	r2, .L38+4
 536              		.loc 1 262 0
 537 0030 9B69     		ldr	r3, [r3, #24]
 538              		.loc 1 261 0
 539 0032 1068     		ldr	r0, [r2]
 540 0034 9A68     		ldr	r2, [r3, #8]
 541 0036 334B     		ldr	r3, .L38+8
 542 0038 03A9     		add	r1, sp, #12
 543 003a 0091     		str	r1, [sp]
 544 003c 013A     		subs	r2, r2, #1
 545 003e 4FF4A871 		mov	r1, #336
 546 0042 FFF7FEFF 		bl	chThdCreateStatic
 547              	.LVL45:
 548 0046 304B     		ldr	r3, .L38+12
 549 0048 1860     		str	r0, [r3]
 550              		.loc 1 265 0
 551 004a 03A8     		add	r0, sp, #12
 552 004c FFF7FEFF 		bl	chSemWait
 553              	.LVL46:
 554              		.loc 1 268 0
 555 0050 0599     		ldr	r1, [sp, #20]
 556 0052 0029     		cmp	r1, #0
 557 0054 CCBF     		ite	gt
 558 0056 0021     		movgt	r1, #0
 559 0058 0121     		movle	r1, #1
 560 005a 0220     		movs	r0, #2
 561 005c FFF7FEFF 		bl	_test_assert
 562              	.LVL47:
 563 0060 0028     		cmp	r0, #0
 564 0062 E0D1     		bne	.L29
 565              		.loc 1 272 0
 566              		.syntax unified
 567              	@ 272 "../../../test/testsem.c" 1
 568 0064 FFF7FEFF 		bl      _port_lock
 569              	@ 0 "" 2
 570              		.thumb
ARM GAS  /tmp/ccyxuBjM.s 			page 11


 571              		.syntax unified
 572 0068 FFF7FEFF 		bl	dbg_check_lock
 573              	.LVL48:
 574 006c 059B     		ldr	r3, [sp, #20]
 575 006e 002B     		cmp	r3, #0
 576 0070 3BDD     		ble	.L36
 577              	.L31:
 578              		.loc 1 272 0 is_stmt 0 discriminator 3
 579 0072 FFF7FEFF 		bl	chSchRescheduleS
 580              	.LVL49:
 581 0076 FFF7FEFF 		bl	dbg_check_unlock
 582              	.LVL50:
 583              		.syntax unified
 584              	@ 272 "../../../test/testsem.c" 1
 585 007a FFF7FEFF 		bl      _port_unlock
 586              	@ 0 "" 2
 587              		.loc 1 273 0 is_stmt 1 discriminator 3
 588              		.thumb
 589              		.syntax unified
 590 007e 0599     		ldr	r1, [sp, #20]
 591 0080 0029     		cmp	r1, #0
 592 0082 D4BF     		ite	le
 593 0084 0021     		movle	r1, #0
 594 0086 0121     		movgt	r1, #1
 595 0088 0320     		movs	r0, #3
 596 008a FFF7FEFF 		bl	_test_assert
 597              	.LVL51:
 598 008e 0028     		cmp	r0, #0
 599 0090 C9D1     		bne	.L29
 600              		.loc 1 274 0
 601 0092 0599     		ldr	r1, [sp, #20]
 602 0094 A1F10101 		sub	r1, #1
 603 0098 B1FA81F1 		clz	r1, r1
 604 009c 0420     		movs	r0, #4
 605 009e 4909     		lsrs	r1, r1, #5
 606 00a0 FFF7FEFF 		bl	_test_assert
 607              	.LVL52:
 608 00a4 0028     		cmp	r0, #0
 609 00a6 BED1     		bne	.L29
 610              		.loc 1 277 0
 611              		.syntax unified
 612              	@ 277 "../../../test/testsem.c" 1
 613 00a8 FFF7FEFF 		bl      _port_lock
 614              	@ 0 "" 2
 615              		.thumb
 616              		.syntax unified
 617 00ac FFF7FEFF 		bl	dbg_check_lock
 618              	.LVL53:
 619 00b0 059B     		ldr	r3, [sp, #20]
 620 00b2 002B     		cmp	r3, #0
 621 00b4 1DDD     		ble	.L37
 622              	.L32:
 623              		.loc 1 277 0 is_stmt 0 discriminator 3
 624 00b6 FFF7FEFF 		bl	chSchRescheduleS
 625              	.LVL54:
 626 00ba FFF7FEFF 		bl	dbg_check_unlock
 627              	.LVL55:
ARM GAS  /tmp/ccyxuBjM.s 			page 12


 628              		.syntax unified
 629              	@ 277 "../../../test/testsem.c" 1
 630 00be FFF7FEFF 		bl      _port_unlock
 631              	@ 0 "" 2
 632              		.loc 1 278 0 is_stmt 1 discriminator 3
 633              		.thumb
 634              		.syntax unified
 635 00c2 0599     		ldr	r1, [sp, #20]
 636 00c4 0029     		cmp	r1, #0
 637 00c6 D4BF     		ite	le
 638 00c8 0021     		movle	r1, #0
 639 00ca 0121     		movgt	r1, #1
 640 00cc 0320     		movs	r0, #3
 641 00ce FFF7FEFF 		bl	_test_assert
 642              	.LVL56:
 643 00d2 0028     		cmp	r0, #0
 644 00d4 A7D1     		bne	.L29
 645              		.loc 1 279 0
 646 00d6 0599     		ldr	r1, [sp, #20]
 647 00d8 A1F10101 		sub	r1, #1
 648 00dc B1FA81F1 		clz	r1, r1
 649 00e0 4909     		lsrs	r1, r1, #5
 650 00e2 0520     		movs	r0, #5
 651 00e4 FFF7FEFF 		bl	_test_assert
 652              	.LVL57:
 653 00e8 9DE7     		b	.L29
 654              	.L36:
 655              		.loc 1 272 0 discriminator 1
 656 00ea 03A8     		add	r0, sp, #12
 657 00ec FFF7FEFF 		bl	chSemSignalI
 658              	.LVL58:
 659 00f0 BFE7     		b	.L31
 660              	.L37:
 661              		.loc 1 277 0 discriminator 1
 662 00f2 03A8     		add	r0, sp, #12
 663 00f4 FFF7FEFF 		bl	chSemSignalI
 664              	.LVL59:
 665 00f8 DDE7     		b	.L32
 666              	.L39:
 667 00fa 00BF     		.align	2
 668              	.L38:
 669 00fc 00000000 		.word	rlist
 670 0100 00000000 		.word	wa
 671 0104 00000000 		.word	thread4
 672 0108 00000000 		.word	threads
 673              		.cfi_endproc
 674              	.LFE10:
 675              		.size	sem4_execute, .-sem4_execute
 676              		.section	.text.sem2_execute,"ax",%progbits
 677              		.align	2
 678              		.p2align 4,,15
 679              		.thumb
 680              		.thumb_func
 681              		.type	sem2_execute, %function
 682              	sem2_execute:
 683              	.LFB5:
 684              		.loc 1 145 0
ARM GAS  /tmp/ccyxuBjM.s 			page 13


 685              		.cfi_startproc
 686              		@ args = 0, pretend = 0, frame = 0
 687              		@ frame_needed = 0, uses_anonymous_args = 0
 688 0000 70B5     		push	{r4, r5, r6, lr}
 689              		.cfi_def_cfa_offset 16
 690              		.cfi_offset 4, -16
 691              		.cfi_offset 5, -12
 692              		.cfi_offset 6, -8
 693              		.cfi_offset 14, -4
 694              		.loc 1 153 0
 695 0002 4A4C     		ldr	r4, .L48
 696              		.loc 1 145 0
 697 0004 82B0     		sub	sp, sp, #8
 698              		.cfi_def_cfa_offset 24
 699              		.loc 1 153 0
 700 0006 0021     		movs	r1, #0
 701 0008 2046     		mov	r0, r4
 702 000a FFF7FEFF 		bl	chSemWaitTimeout
 703              	.LVL60:
 704              		.loc 1 154 0
 705 000e A0F1FF31 		sub	r1, r0, #-1
 706 0012 B1FA81F1 		clz	r1, r1
 707 0016 4909     		lsrs	r1, r1, #5
 708 0018 0120     		movs	r0, #1
 709              	.LVL61:
 710 001a FFF7FEFF 		bl	_test_assert
 711              	.LVL62:
 712 001e 08B1     		cbz	r0, .L47
 713              	.L40:
 714              		.loc 1 183 0
 715 0020 02B0     		add	sp, sp, #8
 716              		.cfi_remember_state
 717              		.cfi_def_cfa_offset 16
 718              		@ sp needed
 719 0022 70BD     		pop	{r4, r5, r6, pc}
 720              	.L47:
 721              		.cfi_restore_state
 722              		.loc 1 155 0
 723 0024 2168     		ldr	r1, [r4]
 724 0026 091B     		subs	r1, r1, r4
 725 0028 B1FA81F1 		clz	r1, r1
 726 002c 0220     		movs	r0, #2
 727 002e 4909     		lsrs	r1, r1, #5
 728 0030 FFF7FEFF 		bl	_test_assert
 729              	.LVL63:
 730 0034 0028     		cmp	r0, #0
 731 0036 F3D1     		bne	.L40
 732              		.loc 1 156 0
 733 0038 A168     		ldr	r1, [r4, #8]
 734 003a B1FA81F1 		clz	r1, r1
 735 003e 4909     		lsrs	r1, r1, #5
 736 0040 0320     		movs	r0, #3
 737 0042 FFF7FEFF 		bl	_test_assert
 738              	.LVL64:
 739 0046 0028     		cmp	r0, #0
 740 0048 EAD1     		bne	.L40
 741              	.LBB4:
ARM GAS  /tmp/ccyxuBjM.s 			page 14


 742              	.LBB5:
 743              		.loc 1 161 0
 744 004a 394B     		ldr	r3, .L48+4
 745 004c 394A     		ldr	r2, .L48+8
 746 004e 9B69     		ldr	r3, [r3, #24]
 747 0050 1168     		ldr	r1, [r2]
 748 0052 9A68     		ldr	r2, [r3, #8]
 749 0054 384B     		ldr	r3, .L48+12
 750 0056 0090     		str	r0, [sp]
 751 0058 013A     		subs	r2, r2, #1
 752 005a 0846     		mov	r0, r1
 753 005c 4FF4A871 		mov	r1, #336
 754 0060 FFF7FEFF 		bl	chThdCreateStatic
 755              	.LVL65:
 756 0064 354B     		ldr	r3, .L48+16
 757              		.loc 1 163 0
 758 0066 4FF4FA71 		mov	r1, #500
 759              		.loc 1 161 0
 760 006a 1860     		str	r0, [r3]
 761              		.loc 1 163 0
 762 006c 2046     		mov	r0, r4
 763 006e FFF7FEFF 		bl	chSemWaitTimeout
 764              	.LVL66:
 765 0072 0546     		mov	r5, r0
 766              	.LVL67:
 767              		.loc 1 164 0
 768 0074 FFF7FEFF 		bl	test_wait_threads
 769              	.LVL68:
 770              		.loc 1 165 0
 771 0078 B5FA85F1 		clz	r1, r5
 772 007c 4909     		lsrs	r1, r1, #5
 773 007e 0420     		movs	r0, #4
 774 0080 FFF7FEFF 		bl	_test_assert
 775              	.LVL69:
 776 0084 0028     		cmp	r0, #0
 777 0086 CBD1     		bne	.L40
 778              		.loc 1 166 0
 779 0088 2168     		ldr	r1, [r4]
 780 008a 091B     		subs	r1, r1, r4
 781 008c B1FA81F1 		clz	r1, r1
 782 0090 0520     		movs	r0, #5
 783 0092 4909     		lsrs	r1, r1, #5
 784 0094 FFF7FEFF 		bl	_test_assert
 785              	.LVL70:
 786 0098 0028     		cmp	r0, #0
 787 009a C1D1     		bne	.L40
 788              		.loc 1 167 0
 789 009c A168     		ldr	r1, [r4, #8]
 790 009e B1FA81F1 		clz	r1, r1
 791 00a2 4909     		lsrs	r1, r1, #5
 792 00a4 0620     		movs	r0, #6
 793 00a6 FFF7FEFF 		bl	_test_assert
 794              	.LVL71:
 795 00aa 0028     		cmp	r0, #0
 796 00ac B8D1     		bne	.L40
 797              		.loc 1 172 0
 798 00ae FFF7FEFF 		bl	test_wait_tick
ARM GAS  /tmp/ccyxuBjM.s 			page 15


 799              	.LVL72:
 800              		.loc 1 173 0
 801 00b2 234B     		ldr	r3, .L48+20
 802 00b4 DE68     		ldr	r6, [r3, #12]
 803              	.LVL73:
 804 00b6 4125     		movs	r5, #65
 805              	.LVL74:
 806              	.L44:
 807              		.loc 1 175 0
 808 00b8 2846     		mov	r0, r5
 809 00ba FFF7FEFF 		bl	test_emit_token
 810              	.LVL75:
 811              		.loc 1 176 0
 812 00be 4FF4FA71 		mov	r1, #500
 813 00c2 1A48     		ldr	r0, .L48
 814 00c4 FFF7FEFF 		bl	chSemWaitTimeout
 815              	.LVL76:
 816              		.loc 1 177 0
 817 00c8 A0F1FF31 		sub	r1, r0, #-1
 818 00cc B1FA81F1 		clz	r1, r1
 819 00d0 4909     		lsrs	r1, r1, #5
 820 00d2 0720     		movs	r0, #7
 821              	.LVL77:
 822 00d4 FFF7FEFF 		bl	_test_assert
 823              	.LVL78:
 824 00d8 0028     		cmp	r0, #0
 825 00da A1D1     		bne	.L40
 826              		.loc 1 178 0
 827 00dc 2168     		ldr	r1, [r4]
 828 00de 091B     		subs	r1, r1, r4
 829 00e0 B1FA81F1 		clz	r1, r1
 830 00e4 0820     		movs	r0, #8
 831 00e6 4909     		lsrs	r1, r1, #5
 832 00e8 FFF7FEFF 		bl	_test_assert
 833              	.LVL79:
 834 00ec 0028     		cmp	r0, #0
 835 00ee 97D1     		bne	.L40
 836              		.loc 1 179 0
 837 00f0 A168     		ldr	r1, [r4, #8]
 838 00f2 B1FA81F1 		clz	r1, r1
 839 00f6 4909     		lsrs	r1, r1, #5
 840 00f8 0920     		movs	r0, #9
 841 00fa FFF7FEFF 		bl	_test_assert
 842              	.LVL80:
 843 00fe 0135     		adds	r5, r5, #1
 844 0100 EDB2     		uxtb	r5, r5
 845 0102 0028     		cmp	r0, #0
 846 0104 8CD1     		bne	.L40
 847              		.loc 1 174 0
 848 0106 462D     		cmp	r5, #70
 849 0108 D6D1     		bne	.L44
 850              		.loc 1 181 0
 851 010a 0E49     		ldr	r1, .L48+24
 852 010c 0A20     		movs	r0, #10
 853 010e FFF7FEFF 		bl	_test_assert_sequence
 854              	.LVL81:
 855 0112 0028     		cmp	r0, #0
ARM GAS  /tmp/ccyxuBjM.s 			page 16


 856 0114 84D1     		bne	.L40
 857              		.loc 1 182 0
 858 0116 06F6C912 		addw	r2, r6, #2505
 859 011a 06F6C411 		addw	r1, r6, #2500
 860 011e 0B20     		movs	r0, #11
 861              	.LBE5:
 862              	.LBE4:
 863              		.loc 1 183 0
 864 0120 02B0     		add	sp, sp, #8
 865              		.cfi_def_cfa_offset 16
 866              		@ sp needed
 867 0122 BDE87040 		pop	{r4, r5, r6, lr}
 868              		.cfi_restore 14
 869              		.cfi_restore 6
 870              		.cfi_restore 5
 871              		.cfi_restore 4
 872              		.cfi_def_cfa_offset 0
 873              	.LVL82:
 874              	.LBB7:
 875              	.LBB6:
 876              		.loc 1 182 0
 877 0126 FFF7FEBF 		b	_test_assert_time_window
 878              	.LVL83:
 879              	.L49:
 880 012a 00BF     		.align	2
 881              	.L48:
 882 012c 00000000 		.word	.LANCHOR0
 883 0130 00000000 		.word	rlist
 884 0134 00000000 		.word	wa
 885 0138 00000000 		.word	thread2
 886 013c 00000000 		.word	threads
 887 0140 00000000 		.word	vtlist
 888 0144 14000000 		.word	.LC5
 889              	.LBE6:
 890              	.LBE7:
 891              		.cfi_endproc
 892              	.LFE5:
 893              		.size	sem2_execute, .-sem2_execute
 894              		.section	.text.sem3_execute,"ax",%progbits
 895              		.align	2
 896              		.p2align 4,,15
 897              		.thumb
 898              		.thumb_func
 899              		.type	sem3_execute, %function
 900              	sem3_execute:
 901              	.LFB8:
 902              		.loc 1 218 0
 903              		.cfi_startproc
 904              		@ args = 0, pretend = 0, frame = 0
 905              		@ frame_needed = 0, uses_anonymous_args = 0
 906 0000 10B5     		push	{r4, lr}
 907              		.cfi_def_cfa_offset 8
 908              		.cfi_offset 4, -8
 909              		.cfi_offset 14, -4
 910              		.loc 1 220 0
 911 0002 204B     		ldr	r3, .L56
 912 0004 204A     		ldr	r2, .L56+4
ARM GAS  /tmp/ccyxuBjM.s 			page 17


 913 0006 9B69     		ldr	r3, [r3, #24]
 914 0008 1068     		ldr	r0, [r2]
 915 000a 9A68     		ldr	r2, [r3, #8]
 916 000c 1F4B     		ldr	r3, .L56+8
 917              		.loc 1 221 0
 918 000e 204C     		ldr	r4, .L56+12
 919              		.loc 1 218 0
 920 0010 82B0     		sub	sp, sp, #8
 921              		.cfi_def_cfa_offset 16
 922              		.loc 1 220 0
 923 0012 0021     		movs	r1, #0
 924 0014 0132     		adds	r2, r2, #1
 925 0016 0091     		str	r1, [sp]
 926 0018 4FF4A871 		mov	r1, #336
 927 001c FFF7FEFF 		bl	chThdCreateStatic
 928              	.LVL84:
 929 0020 1C4B     		ldr	r3, .L56+16
 930              		.loc 1 221 0
 931 0022 2146     		mov	r1, r4
 932              		.loc 1 220 0
 933 0024 1860     		str	r0, [r3]
 934              		.loc 1 221 0
 935 0026 2046     		mov	r0, r4
 936 0028 FFF7FEFF 		bl	chSemSignalWait
 937              	.LVL85:
 938              		.loc 1 222 0
 939 002c 2168     		ldr	r1, [r4]
 940 002e 091B     		subs	r1, r1, r4
 941 0030 B1FA81F1 		clz	r1, r1
 942 0034 0120     		movs	r0, #1
 943 0036 4909     		lsrs	r1, r1, #5
 944 0038 FFF7FEFF 		bl	_test_assert
 945              	.LVL86:
 946 003c 08B1     		cbz	r0, .L55
 947              	.L50:
 948              		.loc 1 228 0
 949 003e 02B0     		add	sp, sp, #8
 950              		.cfi_remember_state
 951              		.cfi_def_cfa_offset 8
 952              		@ sp needed
 953 0040 10BD     		pop	{r4, pc}
 954              	.L55:
 955              		.cfi_restore_state
 956              		.loc 1 223 0
 957 0042 A168     		ldr	r1, [r4, #8]
 958 0044 B1FA81F1 		clz	r1, r1
 959 0048 4909     		lsrs	r1, r1, #5
 960 004a 0220     		movs	r0, #2
 961 004c FFF7FEFF 		bl	_test_assert
 962              	.LVL87:
 963 0050 0028     		cmp	r0, #0
 964 0052 F4D1     		bne	.L50
 965              	.LBB10:
 966              	.LBB11:
 967              		.loc 1 225 0
 968 0054 2146     		mov	r1, r4
 969 0056 2046     		mov	r0, r4
ARM GAS  /tmp/ccyxuBjM.s 			page 18


 970 0058 FFF7FEFF 		bl	chSemSignalWait
 971              	.LVL88:
 972              		.loc 1 226 0
 973 005c 2168     		ldr	r1, [r4]
 974 005e 091B     		subs	r1, r1, r4
 975 0060 B1FA81F1 		clz	r1, r1
 976 0064 0320     		movs	r0, #3
 977 0066 4909     		lsrs	r1, r1, #5
 978 0068 FFF7FEFF 		bl	_test_assert
 979              	.LVL89:
 980 006c 0028     		cmp	r0, #0
 981 006e E6D1     		bne	.L50
 982              		.loc 1 227 0
 983 0070 A168     		ldr	r1, [r4, #8]
 984 0072 B1FA81F1 		clz	r1, r1
 985 0076 4909     		lsrs	r1, r1, #5
 986 0078 0420     		movs	r0, #4
 987              	.LBE11:
 988              	.LBE10:
 989              		.loc 1 228 0
 990 007a 02B0     		add	sp, sp, #8
 991              		.cfi_def_cfa_offset 8
 992              		@ sp needed
 993 007c BDE81040 		pop	{r4, lr}
 994              		.cfi_restore 14
 995              		.cfi_restore 4
 996              		.cfi_def_cfa_offset 0
 997              	.LBB13:
 998              	.LBB12:
 999              		.loc 1 227 0
 1000 0080 FFF7FEBF 		b	_test_assert
 1001              	.LVL90:
 1002              	.L57:
 1003              		.align	2
 1004              	.L56:
 1005 0084 00000000 		.word	rlist
 1006 0088 00000000 		.word	wa
 1007 008c 00000000 		.word	thread3
 1008 0090 00000000 		.word	.LANCHOR0
 1009 0094 00000000 		.word	threads
 1010              	.LBE12:
 1011              	.LBE13:
 1012              		.cfi_endproc
 1013              	.LFE8:
 1014              		.size	sem3_execute, .-sem3_execute
 1015              		.global	patternsem
 1016              		.global	testsem4
 1017              		.global	testsem3
 1018              		.global	testsem2
 1019              		.global	testsem1
 1020              		.section	.rodata.testsem1,"a",%progbits
 1021              		.align	2
 1022              		.type	testsem1, %object
 1023              		.size	testsem1, 16
 1024              	testsem1:
 1025 0000 74000000 		.word	.LC9
 1026 0004 00000000 		.word	sem1_setup
ARM GAS  /tmp/ccyxuBjM.s 			page 19


 1027 0008 00000000 		.word	0
 1028 000c 00000000 		.word	sem1_execute
 1029              		.section	.rodata.testsem2,"a",%progbits
 1030              		.align	2
 1031              		.type	testsem2, %object
 1032              		.size	testsem2, 16
 1033              	testsem2:
 1034 0000 60000000 		.word	.LC8
 1035 0004 00000000 		.word	sem2_setup
 1036 0008 00000000 		.word	0
 1037 000c 00000000 		.word	sem2_execute
 1038              		.section	.rodata.testsem3,"a",%progbits
 1039              		.align	2
 1040              		.type	testsem3, %object
 1041              		.size	testsem3, 16
 1042              	testsem3:
 1043 0000 40000000 		.word	.LC7
 1044 0004 00000000 		.word	sem3_setup
 1045 0008 00000000 		.word	0
 1046 000c 00000000 		.word	sem3_execute
 1047              		.section	.rodata.testsem4,"a",%progbits
 1048              		.align	2
 1049              		.type	testsem4, %object
 1050              		.size	testsem4, 16
 1051              	testsem4:
 1052 0000 1C000000 		.word	.LC6
 1053 0004 00000000 		.word	0
 1054 0008 00000000 		.word	0
 1055 000c 00000000 		.word	sem4_execute
 1056              		.section	.data.sem1,"aw",%progbits
 1057              		.align	2
 1058              		.set	.LANCHOR0,. + 0
 1059              		.type	sem1, %object
 1060              		.size	sem1, 12
 1061              	sem1:
 1062 0000 00000000 		.word	sem1
 1063 0004 00000000 		.word	sem1
 1064 0008 00000000 		.word	0
 1065              		.section	.rodata.patternsem,"a",%progbits
 1066              		.align	2
 1067              		.type	patternsem, %object
 1068              		.size	patternsem, 20
 1069              	patternsem:
 1070 0000 00000000 		.word	testsem1
 1071 0004 00000000 		.word	testsem2
 1072 0008 00000000 		.word	testsem3
 1073 000c 00000000 		.word	testsem4
 1074 0010 00000000 		.word	0
 1075              		.section	.rodata.str1.4,"aMS",%progbits,1
 1076              		.align	2
 1077              	.LC0:
 1078 0000 4100     		.ascii	"A\000"
 1079 0002 0000     		.space	2
 1080              	.LC1:
 1081 0004 4200     		.ascii	"B\000"
 1082 0006 0000     		.space	2
 1083              	.LC2:
ARM GAS  /tmp/ccyxuBjM.s 			page 20


 1084 0008 4300     		.ascii	"C\000"
 1085 000a 0000     		.space	2
 1086              	.LC3:
 1087 000c 4400     		.ascii	"D\000"
 1088 000e 0000     		.space	2
 1089              	.LC4:
 1090 0010 4500     		.ascii	"E\000"
 1091 0012 0000     		.space	2
 1092              	.LC5:
 1093 0014 41424344 		.ascii	"ABCDE\000"
 1093      4500
 1094 001a 0000     		.space	2
 1095              	.LC6:
 1096 001c 42696E61 		.ascii	"Binary Semaphores, functionality\000"
 1096      72792053 
 1096      656D6170 
 1096      686F7265 
 1096      732C2066 
 1097 003d 000000   		.space	3
 1098              	.LC7:
 1099 0040 53656D61 		.ascii	"Semaphores, atomic signal-wait\000"
 1099      70686F72 
 1099      65732C20 
 1099      61746F6D 
 1099      69632073 
 1100 005f 00       		.space	1
 1101              	.LC8:
 1102 0060 53656D61 		.ascii	"Semaphores, timeout\000"
 1102      70686F72 
 1102      65732C20 
 1102      74696D65 
 1102      6F757400 
 1103              	.LC9:
 1104 0074 53656D61 		.ascii	"Semaphores, enqueuing\000"
 1104      70686F72 
 1104      65732C20 
 1104      656E7175 
 1104      6575696E 
 1105              		.text
 1106              	.Letext0:
 1107              		.file 2 "/home/z80/programs/sw4stm32/plugins/fr.ac6.mcu.externaltools.arm-none.linux32_1.7.0.20160
 1108              		.file 3 "/home/z80/programs/sw4stm32/plugins/fr.ac6.mcu.externaltools.arm-none.linux32_1.7.0.20160
 1109              		.file 4 "../../../os/ports/GCC/ARMCMx/chtypes.h"
 1110              		.file 5 "../../../os/kernel/include/chlists.h"
 1111              		.file 6 "../../../os/kernel/include/chthreads.h"
 1112              		.file 7 "../../../os/ports/GCC/ARMCMx/chcore_v7m.h"
 1113              		.file 8 "../../../os/kernel/include/chvt.h"
 1114              		.file 9 "../../../os/kernel/include/chschd.h"
 1115              		.file 10 "../../../os/kernel/include/chsem.h"
 1116              		.file 11 "../../../os/kernel/include/chbsem.h"
 1117              		.file 12 "../../../os/kernel/include/chmtx.h"
 1118              		.file 13 "../../../test/test.h"
 1119              		.file 14 "../../../os/kernel/include/chdebug.h"
 1120              		.section	.debug_info,"",%progbits
 1121              	.Ldebug_info0:
 1122 0000 7B0E0000 		.4byte	0xe7b
 1123 0004 0400     		.2byte	0x4
ARM GAS  /tmp/ccyxuBjM.s 			page 21


 1124 0006 00000000 		.4byte	.Ldebug_abbrev0
 1125 000a 04       		.byte	0x4
 1126 000b 01       		.uleb128 0x1
 1127 000c DA030000 		.4byte	.LASF123
 1128 0010 0C       		.byte	0xc
 1129 0011 5B050000 		.4byte	.LASF124
 1130 0015 E7040000 		.4byte	.LASF125
 1131 0019 18000000 		.4byte	.Ldebug_ranges0+0x18
 1132 001d 00000000 		.4byte	0
 1133 0021 00000000 		.4byte	.Ldebug_line0
 1134 0025 02       		.uleb128 0x2
 1135 0026 04       		.byte	0x4
 1136 0027 05       		.byte	0x5
 1137 0028 696E7400 		.ascii	"int\000"
 1138 002c 03       		.uleb128 0x3
 1139 002d 04       		.byte	0x4
 1140 002e 07       		.byte	0x7
 1141 002f 67010000 		.4byte	.LASF0
 1142 0033 03       		.uleb128 0x3
 1143 0034 08       		.byte	0x8
 1144 0035 05       		.byte	0x5
 1145 0036 7A000000 		.4byte	.LASF1
 1146 003a 03       		.uleb128 0x3
 1147 003b 08       		.byte	0x8
 1148 003c 04       		.byte	0x4
 1149 003d 87020000 		.4byte	.LASF2
 1150 0041 03       		.uleb128 0x3
 1151 0042 01       		.byte	0x1
 1152 0043 06       		.byte	0x6
 1153 0044 88000000 		.4byte	.LASF3
 1154 0048 04       		.uleb128 0x4
 1155 0049 31000000 		.4byte	.LASF7
 1156 004d 02       		.byte	0x2
 1157 004e 1D       		.byte	0x1d
 1158 004f 53000000 		.4byte	0x53
 1159 0053 03       		.uleb128 0x3
 1160 0054 01       		.byte	0x1
 1161 0055 08       		.byte	0x8
 1162 0056 61030000 		.4byte	.LASF4
 1163 005a 03       		.uleb128 0x3
 1164 005b 02       		.byte	0x2
 1165 005c 05       		.byte	0x5
 1166 005d 88030000 		.4byte	.LASF5
 1167 0061 03       		.uleb128 0x3
 1168 0062 02       		.byte	0x2
 1169 0063 07       		.byte	0x7
 1170 0064 F5010000 		.4byte	.LASF6
 1171 0068 04       		.uleb128 0x4
 1172 0069 47050000 		.4byte	.LASF8
 1173 006d 02       		.byte	0x2
 1174 006e 3F       		.byte	0x3f
 1175 006f 73000000 		.4byte	0x73
 1176 0073 03       		.uleb128 0x3
 1177 0074 04       		.byte	0x4
 1178 0075 05       		.byte	0x5
 1179 0076 D1000000 		.4byte	.LASF9
 1180 007a 04       		.uleb128 0x4
ARM GAS  /tmp/ccyxuBjM.s 			page 22


 1181 007b 35010000 		.4byte	.LASF10
 1182 007f 02       		.byte	0x2
 1183 0080 41       		.byte	0x41
 1184 0081 85000000 		.4byte	0x85
 1185 0085 03       		.uleb128 0x3
 1186 0086 04       		.byte	0x4
 1187 0087 07       		.byte	0x7
 1188 0088 BE010000 		.4byte	.LASF11
 1189 008c 04       		.uleb128 0x4
 1190 008d 31030000 		.4byte	.LASF12
 1191 0091 02       		.byte	0x2
 1192 0092 5B       		.byte	0x5b
 1193 0093 97000000 		.4byte	0x97
 1194 0097 03       		.uleb128 0x3
 1195 0098 08       		.byte	0x8
 1196 0099 07       		.byte	0x7
 1197 009a 42000000 		.4byte	.LASF13
 1198 009e 04       		.uleb128 0x4
 1199 009f CA050000 		.4byte	.LASF14
 1200 00a3 03       		.byte	0x3
 1201 00a4 14       		.byte	0x14
 1202 00a5 48000000 		.4byte	0x48
 1203 00a9 04       		.uleb128 0x4
 1204 00aa 59030000 		.4byte	.LASF15
 1205 00ae 03       		.byte	0x3
 1206 00af 1F       		.byte	0x1f
 1207 00b0 68000000 		.4byte	0x68
 1208 00b4 04       		.uleb128 0x4
 1209 00b5 B4040000 		.4byte	.LASF16
 1210 00b9 03       		.byte	0x3
 1211 00ba 20       		.byte	0x20
 1212 00bb 7A000000 		.4byte	0x7a
 1213 00bf 04       		.uleb128 0x4
 1214 00c0 28000000 		.4byte	.LASF17
 1215 00c4 03       		.byte	0x3
 1216 00c5 26       		.byte	0x26
 1217 00c6 8C000000 		.4byte	0x8c
 1218 00ca 03       		.uleb128 0x3
 1219 00cb 01       		.byte	0x1
 1220 00cc 02       		.byte	0x2
 1221 00cd 53030000 		.4byte	.LASF18
 1222 00d1 04       		.uleb128 0x4
 1223 00d2 26020000 		.4byte	.LASF19
 1224 00d6 04       		.byte	0x4
 1225 00d7 2C       		.byte	0x2c
 1226 00d8 9E000000 		.4byte	0x9e
 1227 00dc 04       		.uleb128 0x4
 1228 00dd E6000000 		.4byte	.LASF20
 1229 00e1 04       		.byte	0x4
 1230 00e2 2D       		.byte	0x2d
 1231 00e3 9E000000 		.4byte	0x9e
 1232 00e7 04       		.uleb128 0x4
 1233 00e8 4B030000 		.4byte	.LASF21
 1234 00ec 04       		.byte	0x4
 1235 00ed 30       		.byte	0x30
 1236 00ee B4000000 		.4byte	0xb4
 1237 00f2 04       		.uleb128 0x4
ARM GAS  /tmp/ccyxuBjM.s 			page 23


 1238 00f3 18020000 		.4byte	.LASF22
 1239 00f7 04       		.byte	0x4
 1240 00f8 31       		.byte	0x31
 1241 00f9 A9000000 		.4byte	0xa9
 1242 00fd 04       		.uleb128 0x4
 1243 00fe 3A020000 		.4byte	.LASF23
 1244 0102 04       		.byte	0x4
 1245 0103 33       		.byte	0x33
 1246 0104 B4000000 		.4byte	0xb4
 1247 0108 04       		.uleb128 0x4
 1248 0109 32050000 		.4byte	.LASF24
 1249 010d 04       		.byte	0x4
 1250 010e 35       		.byte	0x35
 1251 010f B4000000 		.4byte	0xb4
 1252 0113 04       		.uleb128 0x4
 1253 0114 56010000 		.4byte	.LASF25
 1254 0118 04       		.byte	0x4
 1255 0119 36       		.byte	0x36
 1256 011a A9000000 		.4byte	0xa9
 1257 011e 04       		.uleb128 0x4
 1258 011f BF030000 		.4byte	.LASF26
 1259 0123 05       		.byte	0x5
 1260 0124 2A       		.byte	0x2a
 1261 0125 29010000 		.4byte	0x129
 1262 0129 05       		.uleb128 0x5
 1263 012a BF030000 		.4byte	.LASF26
 1264 012e 48       		.byte	0x48
 1265 012f 06       		.byte	0x6
 1266 0130 5E       		.byte	0x5e
 1267 0131 0E020000 		.4byte	0x20e
 1268 0135 06       		.uleb128 0x6
 1269 0136 B0030000 		.4byte	.LASF27
 1270 013a 06       		.byte	0x6
 1271 013b 5F       		.byte	0x5f
 1272 013c 2F020000 		.4byte	0x22f
 1273 0140 00       		.byte	0
 1274 0141 06       		.uleb128 0x6
 1275 0142 3C030000 		.4byte	.LASF28
 1276 0146 06       		.byte	0x6
 1277 0147 61       		.byte	0x61
 1278 0148 2F020000 		.4byte	0x22f
 1279 014c 04       		.byte	0x4
 1280 014d 06       		.uleb128 0x6
 1281 014e 73000000 		.4byte	.LASF29
 1282 0152 06       		.byte	0x6
 1283 0153 63       		.byte	0x63
 1284 0154 E7000000 		.4byte	0xe7
 1285 0158 08       		.byte	0x8
 1286 0159 06       		.uleb128 0x6
 1287 015a 0E060000 		.4byte	.LASF30
 1288 015e 06       		.byte	0x6
 1289 015f 64       		.byte	0x64
 1290 0160 F4020000 		.4byte	0x2f4
 1291 0164 0C       		.byte	0xc
 1292 0165 06       		.uleb128 0x6
 1293 0166 14010000 		.4byte	.LASF31
 1294 016a 06       		.byte	0x6
ARM GAS  /tmp/ccyxuBjM.s 			page 24


 1295 016b 66       		.byte	0x66
 1296 016c 2F020000 		.4byte	0x22f
 1297 0170 10       		.byte	0x10
 1298 0171 06       		.uleb128 0x6
 1299 0172 B4020000 		.4byte	.LASF32
 1300 0176 06       		.byte	0x6
 1301 0177 67       		.byte	0x67
 1302 0178 2F020000 		.4byte	0x22f
 1303 017c 14       		.byte	0x14
 1304 017d 06       		.uleb128 0x6
 1305 017e D9050000 		.4byte	.LASF33
 1306 0182 06       		.byte	0x6
 1307 0183 6E       		.byte	0x6e
 1308 0184 FE040000 		.4byte	0x4fe
 1309 0188 18       		.byte	0x18
 1310 0189 06       		.uleb128 0x6
 1311 018a 5C010000 		.4byte	.LASF34
 1312 018e 06       		.byte	0x6
 1313 018f 74       		.byte	0x74
 1314 0190 10050000 		.4byte	0x510
 1315 0194 1C       		.byte	0x1c
 1316 0195 06       		.uleb128 0x6
 1317 0196 92030000 		.4byte	.LASF35
 1318 019a 06       		.byte	0x6
 1319 019b 79       		.byte	0x79
 1320 019c DC000000 		.4byte	0xdc
 1321 01a0 20       		.byte	0x20
 1322 01a1 06       		.uleb128 0x6
 1323 01a2 B7030000 		.4byte	.LASF36
 1324 01a6 06       		.byte	0x6
 1325 01a7 7D       		.byte	0x7d
 1326 01a8 D1000000 		.4byte	0xd1
 1327 01ac 21       		.byte	0x21
 1328 01ad 06       		.uleb128 0x6
 1329 01ae 73050000 		.4byte	.LASF37
 1330 01b2 06       		.byte	0x6
 1331 01b3 8F       		.byte	0x8f
 1332 01b4 CB030000 		.4byte	0x3cb
 1333 01b8 24       		.byte	0x24
 1334 01b9 07       		.uleb128 0x7
 1335 01ba 705F7500 		.ascii	"p_u\000"
 1336 01be 06       		.byte	0x6
 1337 01bf B4       		.byte	0xb4
 1338 01c0 C9040000 		.4byte	0x4c9
 1339 01c4 28       		.byte	0x28
 1340 01c5 06       		.uleb128 0x6
 1341 01c6 14060000 		.4byte	.LASF38
 1342 01ca 06       		.byte	0x6
 1343 01cb B9       		.byte	0xb9
 1344 01cc 55020000 		.4byte	0x255
 1345 01d0 2C       		.byte	0x2c
 1346 01d1 06       		.uleb128 0x6
 1347 01d2 81050000 		.4byte	.LASF39
 1348 01d6 06       		.byte	0x6
 1349 01d7 BF       		.byte	0xbf
 1350 01d8 35020000 		.4byte	0x235
 1351 01dc 30       		.byte	0x30
ARM GAS  /tmp/ccyxuBjM.s 			page 25


 1352 01dd 06       		.uleb128 0x6
 1353 01de 00000000 		.4byte	.LASF40
 1354 01e2 06       		.byte	0x6
 1355 01e3 C3       		.byte	0xc3
 1356 01e4 F2000000 		.4byte	0xf2
 1357 01e8 38       		.byte	0x38
 1358 01e9 06       		.uleb128 0x6
 1359 01ea CF030000 		.4byte	.LASF41
 1360 01ee 06       		.byte	0x6
 1361 01ef C9       		.byte	0xc9
 1362 01f0 FD000000 		.4byte	0xfd
 1363 01f4 3C       		.byte	0x3c
 1364 01f5 06       		.uleb128 0x6
 1365 01f6 7E030000 		.4byte	.LASF42
 1366 01fa 06       		.byte	0x6
 1367 01fb D0       		.byte	0xd0
 1368 01fc 16050000 		.4byte	0x516
 1369 0200 40       		.byte	0x40
 1370 0201 06       		.uleb128 0x6
 1371 0202 3C050000 		.4byte	.LASF43
 1372 0206 06       		.byte	0x6
 1373 0207 D4       		.byte	0xd4
 1374 0208 E7000000 		.4byte	0xe7
 1375 020c 44       		.byte	0x44
 1376 020d 00       		.byte	0
 1377 020e 08       		.uleb128 0x8
 1378 020f 08       		.byte	0x8
 1379 0210 05       		.byte	0x5
 1380 0211 61       		.byte	0x61
 1381 0212 2F020000 		.4byte	0x22f
 1382 0216 06       		.uleb128 0x6
 1383 0217 B0030000 		.4byte	.LASF27
 1384 021b 05       		.byte	0x5
 1385 021c 62       		.byte	0x62
 1386 021d 2F020000 		.4byte	0x22f
 1387 0221 00       		.byte	0
 1388 0222 06       		.uleb128 0x6
 1389 0223 3C030000 		.4byte	.LASF28
 1390 0227 05       		.byte	0x5
 1391 0228 64       		.byte	0x64
 1392 0229 2F020000 		.4byte	0x22f
 1393 022d 04       		.byte	0x4
 1394 022e 00       		.byte	0
 1395 022f 09       		.uleb128 0x9
 1396 0230 04       		.byte	0x4
 1397 0231 1E010000 		.4byte	0x11e
 1398 0235 04       		.uleb128 0x4
 1399 0236 DA020000 		.4byte	.LASF44
 1400 023a 05       		.byte	0x5
 1401 023b 66       		.byte	0x66
 1402 023c 0E020000 		.4byte	0x20e
 1403 0240 08       		.uleb128 0x8
 1404 0241 04       		.byte	0x4
 1405 0242 05       		.byte	0x5
 1406 0243 6B       		.byte	0x6b
 1407 0244 55020000 		.4byte	0x255
 1408 0248 06       		.uleb128 0x6
ARM GAS  /tmp/ccyxuBjM.s 			page 26


 1409 0249 B0030000 		.4byte	.LASF27
 1410 024d 05       		.byte	0x5
 1411 024e 6D       		.byte	0x6d
 1412 024f 2F020000 		.4byte	0x22f
 1413 0253 00       		.byte	0
 1414 0254 00       		.byte	0
 1415 0255 04       		.uleb128 0x4
 1416 0256 2E020000 		.4byte	.LASF45
 1417 025a 05       		.byte	0x5
 1418 025b 70       		.byte	0x70
 1419 025c 40020000 		.4byte	0x240
 1420 0260 04       		.uleb128 0x4
 1421 0261 40010000 		.4byte	.LASF46
 1422 0265 07       		.byte	0x7
 1423 0266 E5       		.byte	0xe5
 1424 0267 6B020000 		.4byte	0x26b
 1425 026b 0A       		.uleb128 0xa
 1426 026c 04       		.byte	0x4
 1427 026d 04       		.uleb128 0x4
 1428 026e 4C020000 		.4byte	.LASF47
 1429 0272 07       		.byte	0x7
 1430 0273 EB       		.byte	0xeb
 1431 0274 BF000000 		.4byte	0xbf
 1432 0278 0B       		.uleb128 0xb
 1433 0279 7A050000 		.4byte	.LASF48
 1434 027d 24       		.byte	0x24
 1435 027e 07       		.byte	0x7
 1436 027f 0C01     		.2byte	0x10c
 1437 0281 F4020000 		.4byte	0x2f4
 1438 0285 0C       		.uleb128 0xc
 1439 0286 723400   		.ascii	"r4\000"
 1440 0289 07       		.byte	0x7
 1441 028a 1F01     		.2byte	0x11f
 1442 028c 60020000 		.4byte	0x260
 1443 0290 00       		.byte	0
 1444 0291 0C       		.uleb128 0xc
 1445 0292 723500   		.ascii	"r5\000"
 1446 0295 07       		.byte	0x7
 1447 0296 2001     		.2byte	0x120
 1448 0298 60020000 		.4byte	0x260
 1449 029c 04       		.byte	0x4
 1450 029d 0C       		.uleb128 0xc
 1451 029e 723600   		.ascii	"r6\000"
 1452 02a1 07       		.byte	0x7
 1453 02a2 2101     		.2byte	0x121
 1454 02a4 60020000 		.4byte	0x260
 1455 02a8 08       		.byte	0x8
 1456 02a9 0C       		.uleb128 0xc
 1457 02aa 723700   		.ascii	"r7\000"
 1458 02ad 07       		.byte	0x7
 1459 02ae 2201     		.2byte	0x122
 1460 02b0 60020000 		.4byte	0x260
 1461 02b4 0C       		.byte	0xc
 1462 02b5 0C       		.uleb128 0xc
 1463 02b6 723800   		.ascii	"r8\000"
 1464 02b9 07       		.byte	0x7
 1465 02ba 2301     		.2byte	0x123
ARM GAS  /tmp/ccyxuBjM.s 			page 27


 1466 02bc 60020000 		.4byte	0x260
 1467 02c0 10       		.byte	0x10
 1468 02c1 0C       		.uleb128 0xc
 1469 02c2 723900   		.ascii	"r9\000"
 1470 02c5 07       		.byte	0x7
 1471 02c6 2401     		.2byte	0x124
 1472 02c8 60020000 		.4byte	0x260
 1473 02cc 14       		.byte	0x14
 1474 02cd 0C       		.uleb128 0xc
 1475 02ce 72313000 		.ascii	"r10\000"
 1476 02d2 07       		.byte	0x7
 1477 02d3 2501     		.2byte	0x125
 1478 02d5 60020000 		.4byte	0x260
 1479 02d9 18       		.byte	0x18
 1480 02da 0C       		.uleb128 0xc
 1481 02db 72313100 		.ascii	"r11\000"
 1482 02df 07       		.byte	0x7
 1483 02e0 2601     		.2byte	0x126
 1484 02e2 60020000 		.4byte	0x260
 1485 02e6 1C       		.byte	0x1c
 1486 02e7 0C       		.uleb128 0xc
 1487 02e8 6C7200   		.ascii	"lr\000"
 1488 02eb 07       		.byte	0x7
 1489 02ec 2701     		.2byte	0x127
 1490 02ee 60020000 		.4byte	0x260
 1491 02f2 20       		.byte	0x20
 1492 02f3 00       		.byte	0
 1493 02f4 0B       		.uleb128 0xb
 1494 02f5 ED010000 		.4byte	.LASF49
 1495 02f9 04       		.byte	0x4
 1496 02fa 07       		.byte	0x7
 1497 02fb 3101     		.2byte	0x131
 1498 02fd 0F030000 		.4byte	0x30f
 1499 0301 0C       		.uleb128 0xc
 1500 0302 72313300 		.ascii	"r13\000"
 1501 0306 07       		.byte	0x7
 1502 0307 3201     		.2byte	0x132
 1503 0309 0F030000 		.4byte	0x30f
 1504 030d 00       		.byte	0
 1505 030e 00       		.byte	0
 1506 030f 09       		.uleb128 0x9
 1507 0310 04       		.byte	0x4
 1508 0311 78020000 		.4byte	0x278
 1509 0315 03       		.uleb128 0x3
 1510 0316 04       		.byte	0x4
 1511 0317 07       		.byte	0x7
 1512 0318 7E020000 		.4byte	.LASF50
 1513 031c 04       		.uleb128 0x4
 1514 031d D9010000 		.4byte	.LASF51
 1515 0321 08       		.byte	0x8
 1516 0322 58       		.byte	0x58
 1517 0323 27030000 		.4byte	0x327
 1518 0327 09       		.uleb128 0x9
 1519 0328 04       		.byte	0x4
 1520 0329 2D030000 		.4byte	0x32d
 1521 032d 0D       		.uleb128 0xd
 1522 032e 38030000 		.4byte	0x338
ARM GAS  /tmp/ccyxuBjM.s 			page 28


 1523 0332 0E       		.uleb128 0xe
 1524 0333 6B020000 		.4byte	0x26b
 1525 0337 00       		.byte	0
 1526 0338 04       		.uleb128 0x4
 1527 0339 C5040000 		.4byte	.LASF52
 1528 033d 08       		.byte	0x8
 1529 033e 5D       		.byte	0x5d
 1530 033f 43030000 		.4byte	0x343
 1531 0343 05       		.uleb128 0x5
 1532 0344 C5040000 		.4byte	.LASF52
 1533 0348 14       		.byte	0x14
 1534 0349 08       		.byte	0x8
 1535 034a 64       		.byte	0x64
 1536 034b 8C030000 		.4byte	0x38c
 1537 034f 06       		.uleb128 0x6
 1538 0350 85010000 		.4byte	.LASF53
 1539 0354 08       		.byte	0x8
 1540 0355 65       		.byte	0x65
 1541 0356 8C030000 		.4byte	0x38c
 1542 035a 00       		.byte	0
 1543 035b 06       		.uleb128 0x6
 1544 035c 49010000 		.4byte	.LASF54
 1545 0360 08       		.byte	0x8
 1546 0361 67       		.byte	0x67
 1547 0362 8C030000 		.4byte	0x38c
 1548 0366 04       		.byte	0x4
 1549 0367 06       		.uleb128 0x6
 1550 0368 76020000 		.4byte	.LASF55
 1551 036c 08       		.byte	0x8
 1552 036d 69       		.byte	0x69
 1553 036e 08010000 		.4byte	0x108
 1554 0372 08       		.byte	0x8
 1555 0373 06       		.uleb128 0x6
 1556 0374 13000000 		.4byte	.LASF56
 1557 0378 08       		.byte	0x8
 1558 0379 6A       		.byte	0x6a
 1559 037a 1C030000 		.4byte	0x31c
 1560 037e 0C       		.byte	0xc
 1561 037f 06       		.uleb128 0x6
 1562 0380 8C050000 		.4byte	.LASF57
 1563 0384 08       		.byte	0x8
 1564 0385 6C       		.byte	0x6c
 1565 0386 6B020000 		.4byte	0x26b
 1566 038a 10       		.byte	0x10
 1567 038b 00       		.byte	0
 1568 038c 09       		.uleb128 0x9
 1569 038d 04       		.byte	0x4
 1570 038e 38030000 		.4byte	0x338
 1571 0392 08       		.uleb128 0x8
 1572 0393 10       		.byte	0x10
 1573 0394 08       		.byte	0x8
 1574 0395 76       		.byte	0x76
 1575 0396 CB030000 		.4byte	0x3cb
 1576 039a 06       		.uleb128 0x6
 1577 039b 85010000 		.4byte	.LASF53
 1578 039f 08       		.byte	0x8
 1579 03a0 77       		.byte	0x77
ARM GAS  /tmp/ccyxuBjM.s 			page 29


 1580 03a1 8C030000 		.4byte	0x38c
 1581 03a5 00       		.byte	0
 1582 03a6 06       		.uleb128 0x6
 1583 03a7 49010000 		.4byte	.LASF54
 1584 03ab 08       		.byte	0x8
 1585 03ac 79       		.byte	0x79
 1586 03ad 8C030000 		.4byte	0x38c
 1587 03b1 04       		.byte	0x4
 1588 03b2 06       		.uleb128 0x6
 1589 03b3 76020000 		.4byte	.LASF55
 1590 03b7 08       		.byte	0x8
 1591 03b8 7B       		.byte	0x7b
 1592 03b9 08010000 		.4byte	0x108
 1593 03bd 08       		.byte	0x8
 1594 03be 06       		.uleb128 0x6
 1595 03bf ED050000 		.4byte	.LASF58
 1596 03c3 08       		.byte	0x8
 1597 03c4 7C       		.byte	0x7c
 1598 03c5 CB030000 		.4byte	0x3cb
 1599 03c9 0C       		.byte	0xc
 1600 03ca 00       		.byte	0
 1601 03cb 0F       		.uleb128 0xf
 1602 03cc 08010000 		.4byte	0x108
 1603 03d0 04       		.uleb128 0x4
 1604 03d1 FF050000 		.4byte	.LASF59
 1605 03d5 08       		.byte	0x8
 1606 03d6 7D       		.byte	0x7d
 1607 03d7 92030000 		.4byte	0x392
 1608 03db 08       		.uleb128 0x8
 1609 03dc 1C       		.byte	0x1c
 1610 03dd 09       		.byte	0x9
 1611 03de 5E       		.byte	0x5e
 1612 03df 2C040000 		.4byte	0x42c
 1613 03e3 06       		.uleb128 0x6
 1614 03e4 BD040000 		.4byte	.LASF60
 1615 03e8 09       		.byte	0x9
 1616 03e9 5F       		.byte	0x5f
 1617 03ea 35020000 		.4byte	0x235
 1618 03ee 00       		.byte	0
 1619 03ef 06       		.uleb128 0x6
 1620 03f0 A2030000 		.4byte	.LASF61
 1621 03f4 09       		.byte	0x9
 1622 03f5 60       		.byte	0x60
 1623 03f6 E7000000 		.4byte	0xe7
 1624 03fa 08       		.byte	0x8
 1625 03fb 06       		.uleb128 0x6
 1626 03fc CC020000 		.4byte	.LASF62
 1627 0400 09       		.byte	0x9
 1628 0401 62       		.byte	0x62
 1629 0402 F4020000 		.4byte	0x2f4
 1630 0406 0C       		.byte	0xc
 1631 0407 06       		.uleb128 0x6
 1632 0408 1E020000 		.4byte	.LASF63
 1633 040c 09       		.byte	0x9
 1634 040d 65       		.byte	0x65
 1635 040e 2F020000 		.4byte	0x22f
 1636 0412 10       		.byte	0x10
ARM GAS  /tmp/ccyxuBjM.s 			page 30


 1637 0413 06       		.uleb128 0x6
 1638 0414 0D030000 		.4byte	.LASF64
 1639 0418 09       		.byte	0x9
 1640 0419 66       		.byte	0x66
 1641 041a 2F020000 		.4byte	0x22f
 1642 041e 14       		.byte	0x14
 1643 041f 06       		.uleb128 0x6
 1644 0420 03030000 		.4byte	.LASF65
 1645 0424 09       		.byte	0x9
 1646 0425 69       		.byte	0x69
 1647 0426 2F020000 		.4byte	0x22f
 1648 042a 18       		.byte	0x18
 1649 042b 00       		.byte	0
 1650 042c 04       		.uleb128 0x4
 1651 042d BA050000 		.4byte	.LASF66
 1652 0431 09       		.byte	0x9
 1653 0432 6B       		.byte	0x6b
 1654 0433 DB030000 		.4byte	0x3db
 1655 0437 05       		.uleb128 0x5
 1656 0438 93050000 		.4byte	.LASF67
 1657 043c 0C       		.byte	0xc
 1658 043d 0A       		.byte	0xa
 1659 043e 2C       		.byte	0x2c
 1660 043f 5C040000 		.4byte	0x45c
 1661 0443 06       		.uleb128 0x6
 1662 0444 1C010000 		.4byte	.LASF68
 1663 0448 0A       		.byte	0xa
 1664 0449 2D       		.byte	0x2d
 1665 044a 35020000 		.4byte	0x235
 1666 044e 00       		.byte	0
 1667 044f 06       		.uleb128 0x6
 1668 0450 E2010000 		.4byte	.LASF69
 1669 0454 0A       		.byte	0xa
 1670 0455 2F       		.byte	0x2f
 1671 0456 13010000 		.4byte	0x113
 1672 045a 08       		.byte	0x8
 1673 045b 00       		.byte	0
 1674 045c 04       		.uleb128 0x4
 1675 045d 93050000 		.4byte	.LASF67
 1676 0461 0A       		.byte	0xa
 1677 0462 30       		.byte	0x30
 1678 0463 37040000 		.4byte	0x437
 1679 0467 08       		.uleb128 0x8
 1680 0468 0C       		.byte	0xc
 1681 0469 0B       		.byte	0xb
 1682 046a 44       		.byte	0x44
 1683 046b 7C040000 		.4byte	0x47c
 1684 046f 06       		.uleb128 0x6
 1685 0470 F8050000 		.4byte	.LASF70
 1686 0474 0B       		.byte	0xb
 1687 0475 45       		.byte	0x45
 1688 0476 5C040000 		.4byte	0x45c
 1689 047a 00       		.byte	0
 1690 047b 00       		.byte	0
 1691 047c 04       		.uleb128 0x4
 1692 047d D7040000 		.4byte	.LASF71
 1693 0481 0B       		.byte	0xb
ARM GAS  /tmp/ccyxuBjM.s 			page 31


 1694 0482 46       		.byte	0x46
 1695 0483 67040000 		.4byte	0x467
 1696 0487 05       		.uleb128 0x5
 1697 0488 46020000 		.4byte	.LASF72
 1698 048c 10       		.byte	0x10
 1699 048d 0C       		.byte	0xc
 1700 048e 2C       		.byte	0x2c
 1701 048f B8040000 		.4byte	0x4b8
 1702 0493 06       		.uleb128 0x6
 1703 0494 A4000000 		.4byte	.LASF73
 1704 0498 0C       		.byte	0xc
 1705 0499 2D       		.byte	0x2d
 1706 049a 35020000 		.4byte	0x235
 1707 049e 00       		.byte	0
 1708 049f 06       		.uleb128 0x6
 1709 04a0 06060000 		.4byte	.LASF74
 1710 04a4 0C       		.byte	0xc
 1711 04a5 2F       		.byte	0x2f
 1712 04a6 2F020000 		.4byte	0x22f
 1713 04aa 08       		.byte	0x8
 1714 04ab 06       		.uleb128 0x6
 1715 04ac 2B050000 		.4byte	.LASF75
 1716 04b0 0C       		.byte	0xc
 1717 04b1 31       		.byte	0x31
 1718 04b2 B8040000 		.4byte	0x4b8
 1719 04b6 0C       		.byte	0xc
 1720 04b7 00       		.byte	0
 1721 04b8 09       		.uleb128 0x9
 1722 04b9 04       		.byte	0x4
 1723 04ba 87040000 		.4byte	0x487
 1724 04be 04       		.uleb128 0x4
 1725 04bf 46020000 		.4byte	.LASF72
 1726 04c3 0C       		.byte	0xc
 1727 04c4 33       		.byte	0x33
 1728 04c5 87040000 		.4byte	0x487
 1729 04c9 10       		.uleb128 0x10
 1730 04ca 04       		.byte	0x4
 1731 04cb 06       		.byte	0x6
 1732 04cc 96       		.byte	0x96
 1733 04cd FE040000 		.4byte	0x4fe
 1734 04d1 11       		.uleb128 0x11
 1735 04d2 B3050000 		.4byte	.LASF76
 1736 04d6 06       		.byte	0x6
 1737 04d7 9D       		.byte	0x9d
 1738 04d8 F2000000 		.4byte	0xf2
 1739 04dc 11       		.uleb128 0x11
 1740 04dd 59000000 		.4byte	.LASF77
 1741 04e1 06       		.byte	0x6
 1742 04e2 A4       		.byte	0xa4
 1743 04e3 F2000000 		.4byte	0xf2
 1744 04e7 11       		.uleb128 0x11
 1745 04e8 D2050000 		.4byte	.LASF78
 1746 04ec 06       		.byte	0x6
 1747 04ed AB       		.byte	0xab
 1748 04ee 6B020000 		.4byte	0x26b
 1749 04f2 11       		.uleb128 0x11
 1750 04f3 A9030000 		.4byte	.LASF79
ARM GAS  /tmp/ccyxuBjM.s 			page 32


 1751 04f7 06       		.byte	0x6
 1752 04f8 B2       		.byte	0xb2
 1753 04f9 FD000000 		.4byte	0xfd
 1754 04fd 00       		.byte	0
 1755 04fe 09       		.uleb128 0x9
 1756 04ff 04       		.byte	0x4
 1757 0500 0B050000 		.4byte	0x50b
 1758 0504 03       		.uleb128 0x3
 1759 0505 01       		.byte	0x1
 1760 0506 08       		.byte	0x8
 1761 0507 D2040000 		.4byte	.LASF80
 1762 050b 12       		.uleb128 0x12
 1763 050c 04050000 		.4byte	0x504
 1764 0510 09       		.uleb128 0x9
 1765 0511 04       		.byte	0x4
 1766 0512 6D020000 		.4byte	0x26d
 1767 0516 09       		.uleb128 0x9
 1768 0517 04       		.byte	0x4
 1769 0518 BE040000 		.4byte	0x4be
 1770 051c 05       		.uleb128 0x5
 1771 051d C6030000 		.4byte	.LASF81
 1772 0521 10       		.byte	0x10
 1773 0522 0D       		.byte	0xd
 1774 0523 3B       		.byte	0x3b
 1775 0524 59050000 		.4byte	0x559
 1776 0528 06       		.uleb128 0x6
 1777 0529 E8010000 		.4byte	.LASF82
 1778 052d 0D       		.byte	0xd
 1779 052e 3C       		.byte	0x3c
 1780 052f FE040000 		.4byte	0x4fe
 1781 0533 00       		.byte	0
 1782 0534 06       		.uleb128 0x6
 1783 0535 E7020000 		.4byte	.LASF83
 1784 0539 0D       		.byte	0xd
 1785 053a 3D       		.byte	0x3d
 1786 053b 5A050000 		.4byte	0x55a
 1787 053f 04       		.byte	0x4
 1788 0540 06       		.uleb128 0x6
 1789 0541 D0010000 		.4byte	.LASF84
 1790 0545 0D       		.byte	0xd
 1791 0546 3E       		.byte	0x3e
 1792 0547 5A050000 		.4byte	0x55a
 1793 054b 08       		.byte	0x8
 1794 054c 06       		.uleb128 0x6
 1795 054d 43030000 		.4byte	.LASF85
 1796 0551 0D       		.byte	0xd
 1797 0552 3F       		.byte	0x3f
 1798 0553 5A050000 		.4byte	0x55a
 1799 0557 0C       		.byte	0xc
 1800 0558 00       		.byte	0
 1801 0559 13       		.uleb128 0x13
 1802 055a 09       		.uleb128 0x9
 1803 055b 04       		.byte	0x4
 1804 055c 59050000 		.4byte	0x559
 1805 0560 14       		.uleb128 0x14
 1806 0561 C4000000 		.4byte	.LASF126
 1807 0565 01       		.byte	0x1
ARM GAS  /tmp/ccyxuBjM.s 			page 33


 1808 0566 91       		.byte	0x91
 1809 0567 01       		.byte	0x1
 1810 0568 8C050000 		.4byte	0x58c
 1811 056c 15       		.uleb128 0x15
 1812 056d 6900     		.ascii	"i\000"
 1813 056f 01       		.byte	0x1
 1814 0570 92       		.byte	0x92
 1815 0571 25000000 		.4byte	0x25
 1816 0575 16       		.uleb128 0x16
 1817 0576 DA000000 		.4byte	.LASF86
 1818 057a 01       		.byte	0x1
 1819 057b 93       		.byte	0x93
 1820 057c 08010000 		.4byte	0x108
 1821 0580 15       		.uleb128 0x15
 1822 0581 6D736700 		.ascii	"msg\000"
 1823 0585 01       		.byte	0x1
 1824 0586 94       		.byte	0x94
 1825 0587 F2000000 		.4byte	0xf2
 1826 058b 00       		.byte	0
 1827 058c 17       		.uleb128 0x17
 1828 058d 8D010000 		.4byte	.LASF127
 1829 0591 01       		.byte	0x1
 1830 0592 DA       		.byte	0xda
 1831 0593 01       		.byte	0x1
 1832 0594 18       		.uleb128 0x18
 1833 0595 1B000000 		.4byte	.LASF89
 1834 0599 01       		.byte	0x1
 1835 059a 54       		.byte	0x54
 1836 059b 00000000 		.4byte	.LFB2
 1837 059f 44010000 		.4byte	.LFE2-.LFB2
 1838 05a3 01       		.uleb128 0x1
 1839 05a4 9C       		.byte	0x9c
 1840 05a5 91070000 		.4byte	0x791
 1841 05a9 19       		.uleb128 0x19
 1842 05aa 2C000000 		.4byte	.LVL0
 1843 05ae AB0D0000 		.4byte	0xdab
 1844 05b2 D4050000 		.4byte	0x5d4
 1845 05b6 1A       		.uleb128 0x1a
 1846 05b7 01       		.uleb128 0x1
 1847 05b8 50       		.byte	0x50
 1848 05b9 02       		.uleb128 0x2
 1849 05ba 78       		.byte	0x78
 1850 05bb 00       		.sleb128 0
 1851 05bc 1A       		.uleb128 0x1a
 1852 05bd 01       		.uleb128 0x1
 1853 05be 51       		.byte	0x51
 1854 05bf 03       		.uleb128 0x3
 1855 05c0 0A       		.byte	0xa
 1856 05c1 5001     		.2byte	0x150
 1857 05c3 1A       		.uleb128 0x1a
 1858 05c4 01       		.uleb128 0x1
 1859 05c5 53       		.byte	0x53
 1860 05c6 05       		.uleb128 0x5
 1861 05c7 03       		.byte	0x3
 1862 05c8 00000000 		.4byte	thread1
 1863 05cc 1A       		.uleb128 0x1a
 1864 05cd 02       		.uleb128 0x2
ARM GAS  /tmp/ccyxuBjM.s 			page 34


 1865 05ce 7D       		.byte	0x7d
 1866 05cf 00       		.sleb128 0
 1867 05d0 02       		.uleb128 0x2
 1868 05d1 79       		.byte	0x79
 1869 05d2 00       		.sleb128 0
 1870 05d3 00       		.byte	0
 1871 05d4 19       		.uleb128 0x19
 1872 05d5 46000000 		.4byte	.LVL1
 1873 05d9 AB0D0000 		.4byte	0xdab
 1874 05dd 03060000 		.4byte	0x603
 1875 05e1 1A       		.uleb128 0x1a
 1876 05e2 01       		.uleb128 0x1
 1877 05e3 50       		.byte	0x50
 1878 05e4 03       		.uleb128 0x3
 1879 05e5 77       		.byte	0x77
 1880 05e6 04       		.sleb128 4
 1881 05e7 06       		.byte	0x6
 1882 05e8 1A       		.uleb128 0x1a
 1883 05e9 01       		.uleb128 0x1
 1884 05ea 51       		.byte	0x51
 1885 05eb 03       		.uleb128 0x3
 1886 05ec 0A       		.byte	0xa
 1887 05ed 5001     		.2byte	0x150
 1888 05ef 1A       		.uleb128 0x1a
 1889 05f0 01       		.uleb128 0x1
 1890 05f1 53       		.byte	0x53
 1891 05f2 05       		.uleb128 0x5
 1892 05f3 03       		.byte	0x3
 1893 05f4 00000000 		.4byte	thread1
 1894 05f8 1A       		.uleb128 0x1a
 1895 05f9 02       		.uleb128 0x2
 1896 05fa 7D       		.byte	0x7d
 1897 05fb 00       		.sleb128 0
 1898 05fc 05       		.uleb128 0x5
 1899 05fd 03       		.byte	0x3
 1900 05fe 04000000 		.4byte	.LC1
 1901 0602 00       		.byte	0
 1902 0603 19       		.uleb128 0x19
 1903 0604 60000000 		.4byte	.LVL2
 1904 0608 AB0D0000 		.4byte	0xdab
 1905 060c 32060000 		.4byte	0x632
 1906 0610 1A       		.uleb128 0x1a
 1907 0611 01       		.uleb128 0x1
 1908 0612 50       		.byte	0x50
 1909 0613 03       		.uleb128 0x3
 1910 0614 77       		.byte	0x77
 1911 0615 08       		.sleb128 8
 1912 0616 06       		.byte	0x6
 1913 0617 1A       		.uleb128 0x1a
 1914 0618 01       		.uleb128 0x1
 1915 0619 51       		.byte	0x51
 1916 061a 03       		.uleb128 0x3
 1917 061b 0A       		.byte	0xa
 1918 061c 5001     		.2byte	0x150
 1919 061e 1A       		.uleb128 0x1a
 1920 061f 01       		.uleb128 0x1
 1921 0620 53       		.byte	0x53
ARM GAS  /tmp/ccyxuBjM.s 			page 35


 1922 0621 05       		.uleb128 0x5
 1923 0622 03       		.byte	0x3
 1924 0623 00000000 		.4byte	thread1
 1925 0627 1A       		.uleb128 0x1a
 1926 0628 02       		.uleb128 0x2
 1927 0629 7D       		.byte	0x7d
 1928 062a 00       		.sleb128 0
 1929 062b 05       		.uleb128 0x5
 1930 062c 03       		.byte	0x3
 1931 062d 08000000 		.4byte	.LC2
 1932 0631 00       		.byte	0
 1933 0632 19       		.uleb128 0x19
 1934 0633 7A000000 		.4byte	.LVL3
 1935 0637 AB0D0000 		.4byte	0xdab
 1936 063b 61060000 		.4byte	0x661
 1937 063f 1A       		.uleb128 0x1a
 1938 0640 01       		.uleb128 0x1
 1939 0641 50       		.byte	0x50
 1940 0642 03       		.uleb128 0x3
 1941 0643 77       		.byte	0x77
 1942 0644 0C       		.sleb128 12
 1943 0645 06       		.byte	0x6
 1944 0646 1A       		.uleb128 0x1a
 1945 0647 01       		.uleb128 0x1
 1946 0648 51       		.byte	0x51
 1947 0649 03       		.uleb128 0x3
 1948 064a 0A       		.byte	0xa
 1949 064b 5001     		.2byte	0x150
 1950 064d 1A       		.uleb128 0x1a
 1951 064e 01       		.uleb128 0x1
 1952 064f 53       		.byte	0x53
 1953 0650 05       		.uleb128 0x5
 1954 0651 03       		.byte	0x3
 1955 0652 00000000 		.4byte	thread1
 1956 0656 1A       		.uleb128 0x1a
 1957 0657 02       		.uleb128 0x2
 1958 0658 7D       		.byte	0x7d
 1959 0659 00       		.sleb128 0
 1960 065a 05       		.uleb128 0x5
 1961 065b 03       		.byte	0x3
 1962 065c 0C000000 		.4byte	.LC3
 1963 0660 00       		.byte	0
 1964 0661 19       		.uleb128 0x19
 1965 0662 94000000 		.4byte	.LVL4
 1966 0666 AB0D0000 		.4byte	0xdab
 1967 066a 90060000 		.4byte	0x690
 1968 066e 1A       		.uleb128 0x1a
 1969 066f 01       		.uleb128 0x1
 1970 0670 50       		.byte	0x50
 1971 0671 03       		.uleb128 0x3
 1972 0672 77       		.byte	0x77
 1973 0673 10       		.sleb128 16
 1974 0674 06       		.byte	0x6
 1975 0675 1A       		.uleb128 0x1a
 1976 0676 01       		.uleb128 0x1
 1977 0677 51       		.byte	0x51
 1978 0678 03       		.uleb128 0x3
ARM GAS  /tmp/ccyxuBjM.s 			page 36


 1979 0679 0A       		.byte	0xa
 1980 067a 5001     		.2byte	0x150
 1981 067c 1A       		.uleb128 0x1a
 1982 067d 01       		.uleb128 0x1
 1983 067e 53       		.byte	0x53
 1984 067f 05       		.uleb128 0x5
 1985 0680 03       		.byte	0x3
 1986 0681 00000000 		.4byte	thread1
 1987 0685 1A       		.uleb128 0x1a
 1988 0686 02       		.uleb128 0x2
 1989 0687 7D       		.byte	0x7d
 1990 0688 00       		.sleb128 0
 1991 0689 05       		.uleb128 0x5
 1992 068a 03       		.byte	0x3
 1993 068b 10000000 		.4byte	.LC4
 1994 068f 00       		.byte	0
 1995 0690 19       		.uleb128 0x19
 1996 0691 9C000000 		.4byte	.LVL5
 1997 0695 B70D0000 		.4byte	0xdb7
 1998 0699 A4060000 		.4byte	0x6a4
 1999 069d 1A       		.uleb128 0x1a
 2000 069e 01       		.uleb128 0x1
 2001 069f 50       		.byte	0x50
 2002 06a0 02       		.uleb128 0x2
 2003 06a1 74       		.byte	0x74
 2004 06a2 00       		.sleb128 0
 2005 06a3 00       		.byte	0
 2006 06a4 19       		.uleb128 0x19
 2007 06a5 A2000000 		.4byte	.LVL6
 2008 06a9 B70D0000 		.4byte	0xdb7
 2009 06ad B8060000 		.4byte	0x6b8
 2010 06b1 1A       		.uleb128 0x1a
 2011 06b2 01       		.uleb128 0x1
 2012 06b3 50       		.byte	0x50
 2013 06b4 02       		.uleb128 0x2
 2014 06b5 74       		.byte	0x74
 2015 06b6 00       		.sleb128 0
 2016 06b7 00       		.byte	0
 2017 06b8 19       		.uleb128 0x19
 2018 06b9 A8000000 		.4byte	.LVL7
 2019 06bd B70D0000 		.4byte	0xdb7
 2020 06c1 CC060000 		.4byte	0x6cc
 2021 06c5 1A       		.uleb128 0x1a
 2022 06c6 01       		.uleb128 0x1
 2023 06c7 50       		.byte	0x50
 2024 06c8 02       		.uleb128 0x2
 2025 06c9 74       		.byte	0x74
 2026 06ca 00       		.sleb128 0
 2027 06cb 00       		.byte	0
 2028 06cc 19       		.uleb128 0x19
 2029 06cd AE000000 		.4byte	.LVL8
 2030 06d1 B70D0000 		.4byte	0xdb7
 2031 06d5 E0060000 		.4byte	0x6e0
 2032 06d9 1A       		.uleb128 0x1a
 2033 06da 01       		.uleb128 0x1
 2034 06db 50       		.byte	0x50
 2035 06dc 02       		.uleb128 0x2
ARM GAS  /tmp/ccyxuBjM.s 			page 37


 2036 06dd 74       		.byte	0x74
 2037 06de 00       		.sleb128 0
 2038 06df 00       		.byte	0
 2039 06e0 19       		.uleb128 0x19
 2040 06e1 B4000000 		.4byte	.LVL9
 2041 06e5 B70D0000 		.4byte	0xdb7
 2042 06e9 F4060000 		.4byte	0x6f4
 2043 06ed 1A       		.uleb128 0x1a
 2044 06ee 01       		.uleb128 0x1
 2045 06ef 50       		.byte	0x50
 2046 06f0 02       		.uleb128 0x2
 2047 06f1 74       		.byte	0x74
 2048 06f2 00       		.sleb128 0
 2049 06f3 00       		.byte	0
 2050 06f4 1B       		.uleb128 0x1b
 2051 06f5 B8000000 		.4byte	.LVL10
 2052 06f9 C20D0000 		.4byte	0xdc2
 2053 06fd 19       		.uleb128 0x19
 2054 06fe C0000000 		.4byte	.LVL11
 2055 0702 CD0D0000 		.4byte	0xdcd
 2056 0706 19070000 		.4byte	0x719
 2057 070a 1A       		.uleb128 0x1a
 2058 070b 01       		.uleb128 0x1
 2059 070c 50       		.byte	0x50
 2060 070d 01       		.uleb128 0x1
 2061 070e 31       		.byte	0x31
 2062 070f 1A       		.uleb128 0x1a
 2063 0710 01       		.uleb128 0x1
 2064 0711 51       		.byte	0x51
 2065 0712 05       		.uleb128 0x5
 2066 0713 03       		.byte	0x3
 2067 0714 14000000 		.4byte	.LC5
 2068 0718 00       		.byte	0
 2069 0719 19       		.uleb128 0x19
 2070 071a DE000000 		.4byte	.LVL12
 2071 071e AB0D0000 		.4byte	0xdab
 2072 0722 44070000 		.4byte	0x744
 2073 0726 1A       		.uleb128 0x1a
 2074 0727 01       		.uleb128 0x1
 2075 0728 50       		.byte	0x50
 2076 0729 02       		.uleb128 0x2
 2077 072a 78       		.byte	0x78
 2078 072b 00       		.sleb128 0
 2079 072c 1A       		.uleb128 0x1a
 2080 072d 01       		.uleb128 0x1
 2081 072e 51       		.byte	0x51
 2082 072f 03       		.uleb128 0x3
 2083 0730 0A       		.byte	0xa
 2084 0731 5001     		.2byte	0x150
 2085 0733 1A       		.uleb128 0x1a
 2086 0734 01       		.uleb128 0x1
 2087 0735 53       		.byte	0x53
 2088 0736 05       		.uleb128 0x5
 2089 0737 03       		.byte	0x3
 2090 0738 00000000 		.4byte	thread1
 2091 073c 1A       		.uleb128 0x1a
 2092 073d 02       		.uleb128 0x2
ARM GAS  /tmp/ccyxuBjM.s 			page 38


 2093 073e 7D       		.byte	0x7d
 2094 073f 00       		.sleb128 0
 2095 0740 02       		.uleb128 0x2
 2096 0741 79       		.byte	0x79
 2097 0742 00       		.sleb128 0
 2098 0743 00       		.byte	0
 2099 0744 1B       		.uleb128 0x1b
 2100 0745 E8000000 		.4byte	.LVL13
 2101 0749 D80D0000 		.4byte	0xdd8
 2102 074d 19       		.uleb128 0x19
 2103 074e F0000000 		.4byte	.LVL14
 2104 0752 E30D0000 		.4byte	0xde3
 2105 0756 66070000 		.4byte	0x766
 2106 075a 1A       		.uleb128 0x1a
 2107 075b 01       		.uleb128 0x1
 2108 075c 50       		.byte	0x50
 2109 075d 02       		.uleb128 0x2
 2110 075e 74       		.byte	0x74
 2111 075f 00       		.sleb128 0
 2112 0760 1A       		.uleb128 0x1a
 2113 0761 01       		.uleb128 0x1
 2114 0762 51       		.byte	0x51
 2115 0763 01       		.uleb128 0x1
 2116 0764 32       		.byte	0x32
 2117 0765 00       		.byte	0
 2118 0766 1B       		.uleb128 0x1b
 2119 0767 F4000000 		.4byte	.LVL15
 2120 076b EE0D0000 		.4byte	0xdee
 2121 076f 1B       		.uleb128 0x1b
 2122 0770 F8000000 		.4byte	.LVL16
 2123 0774 F90D0000 		.4byte	0xdf9
 2124 0778 1B       		.uleb128 0x1b
 2125 0779 00010000 		.4byte	.LVL17
 2126 077d C20D0000 		.4byte	0xdc2
 2127 0781 1C       		.uleb128 0x1c
 2128 0782 18010000 		.4byte	.LVL18
 2129 0786 040E0000 		.4byte	0xe04
 2130 078a 1A       		.uleb128 0x1a
 2131 078b 01       		.uleb128 0x1
 2132 078c 50       		.byte	0x50
 2133 078d 01       		.uleb128 0x1
 2134 078e 32       		.byte	0x32
 2135 078f 00       		.byte	0
 2136 0790 00       		.byte	0
 2137 0791 1D       		.uleb128 0x1d
 2138 0792 AC000000 		.4byte	.LASF87
 2139 0796 01       		.byte	0x1
 2140 0797 D2       		.byte	0xd2
 2141 0798 F2000000 		.4byte	0xf2
 2142 079c 00000000 		.4byte	.LFB7
 2143 07a0 18000000 		.4byte	.LFE7-.LFB7
 2144 07a4 01       		.uleb128 0x1
 2145 07a5 9C       		.byte	0x9c
 2146 07a6 DC070000 		.4byte	0x7dc
 2147 07aa 1E       		.uleb128 0x1e
 2148 07ab 7000     		.ascii	"p\000"
 2149 07ad 01       		.byte	0x1
ARM GAS  /tmp/ccyxuBjM.s 			page 39


 2150 07ae D2       		.byte	0xd2
 2151 07af 6B020000 		.4byte	0x26b
 2152 07b3 00000000 		.4byte	.LLST0
 2153 07b7 19       		.uleb128 0x19
 2154 07b8 0A000000 		.4byte	.LVL21
 2155 07bc 0F0E0000 		.4byte	0xe0f
 2156 07c0 CB070000 		.4byte	0x7cb
 2157 07c4 1A       		.uleb128 0x1a
 2158 07c5 01       		.uleb128 0x1
 2159 07c6 50       		.byte	0x50
 2160 07c7 02       		.uleb128 0x2
 2161 07c8 74       		.byte	0x74
 2162 07c9 00       		.sleb128 0
 2163 07ca 00       		.byte	0
 2164 07cb 1F       		.uleb128 0x1f
 2165 07cc 10000000 		.4byte	.LVL22
 2166 07d0 B70D0000 		.4byte	0xdb7
 2167 07d4 1A       		.uleb128 0x1a
 2168 07d5 01       		.uleb128 0x1
 2169 07d6 50       		.byte	0x50
 2170 07d7 02       		.uleb128 0x2
 2171 07d8 74       		.byte	0x74
 2172 07d9 00       		.sleb128 0
 2173 07da 00       		.byte	0
 2174 07db 00       		.byte	0
 2175 07dc 1D       		.uleb128 0x1d
 2176 07dd BC020000 		.4byte	.LASF88
 2177 07e1 01       		.byte	0x1
 2178 07e2 4D       		.byte	0x4d
 2179 07e3 F2000000 		.4byte	0xf2
 2180 07e7 00000000 		.4byte	.LFB1
 2181 07eb 18000000 		.4byte	.LFE1-.LFB1
 2182 07ef 01       		.uleb128 0x1
 2183 07f0 9C       		.byte	0x9c
 2184 07f1 23080000 		.4byte	0x823
 2185 07f5 1E       		.uleb128 0x1e
 2186 07f6 7000     		.ascii	"p\000"
 2187 07f8 01       		.byte	0x1
 2188 07f9 4D       		.byte	0x4d
 2189 07fa 6B020000 		.4byte	0x26b
 2190 07fe 21000000 		.4byte	.LLST1
 2191 0802 19       		.uleb128 0x19
 2192 0803 0A000000 		.4byte	.LVL25
 2193 0807 0F0E0000 		.4byte	0xe0f
 2194 080b 19080000 		.4byte	0x819
 2195 080f 1A       		.uleb128 0x1a
 2196 0810 01       		.uleb128 0x1
 2197 0811 50       		.byte	0x50
 2198 0812 05       		.uleb128 0x5
 2199 0813 03       		.byte	0x3
 2200 0814 00000000 		.4byte	.LANCHOR0
 2201 0818 00       		.byte	0
 2202 0819 1B       		.uleb128 0x1b
 2203 081a 10000000 		.4byte	.LVL26
 2204 081e 1A0E0000 		.4byte	0xe1a
 2205 0822 00       		.byte	0
 2206 0823 18       		.uleb128 0x18
ARM GAS  /tmp/ccyxuBjM.s 			page 40


 2207 0824 9D050000 		.4byte	.LASF90
 2208 0828 01       		.byte	0x1
 2209 0829 CD       		.byte	0xcd
 2210 082a 00000000 		.4byte	.LFB6
 2211 082e 0C000000 		.4byte	.LFE6-.LFB6
 2212 0832 01       		.uleb128 0x1
 2213 0833 9C       		.byte	0x9c
 2214 0834 51080000 		.4byte	0x851
 2215 0838 1C       		.uleb128 0x1c
 2216 0839 08000000 		.4byte	.LVL28
 2217 083d 250E0000 		.4byte	0xe25
 2218 0841 1A       		.uleb128 0x1a
 2219 0842 01       		.uleb128 0x1
 2220 0843 50       		.byte	0x50
 2221 0844 05       		.uleb128 0x5
 2222 0845 03       		.byte	0x3
 2223 0846 00000000 		.4byte	.LANCHOR0
 2224 084a 1A       		.uleb128 0x1a
 2225 084b 01       		.uleb128 0x1
 2226 084c 51       		.byte	0x51
 2227 084d 01       		.uleb128 0x1
 2228 084e 30       		.byte	0x30
 2229 084f 00       		.byte	0
 2230 0850 00       		.byte	0
 2231 0851 1D       		.uleb128 0x1d
 2232 0852 C4020000 		.4byte	.LASF91
 2233 0856 01       		.byte	0x1
 2234 0857 86       		.byte	0x86
 2235 0858 F2000000 		.4byte	0xf2
 2236 085c 00000000 		.4byte	.LFB4
 2237 0860 2C000000 		.4byte	.LFE4-.LFB4
 2238 0864 01       		.uleb128 0x1
 2239 0865 9C       		.byte	0x9c
 2240 0866 BE080000 		.4byte	0x8be
 2241 086a 1E       		.uleb128 0x1e
 2242 086b 7000     		.ascii	"p\000"
 2243 086d 01       		.byte	0x1
 2244 086e 86       		.byte	0x86
 2245 086f 6B020000 		.4byte	0x26b
 2246 0873 4D000000 		.4byte	.LLST2
 2247 0877 19       		.uleb128 0x19
 2248 0878 08000000 		.4byte	.LVL31
 2249 087c 300E0000 		.4byte	0xe30
 2250 0880 8B080000 		.4byte	0x88b
 2251 0884 1A       		.uleb128 0x1a
 2252 0885 01       		.uleb128 0x1
 2253 0886 50       		.byte	0x50
 2254 0887 02       		.uleb128 0x2
 2255 0888 08       		.byte	0x8
 2256 0889 32       		.byte	0x32
 2257 088a 00       		.byte	0
 2258 088b 1B       		.uleb128 0x1b
 2259 088c 10000000 		.4byte	.LVL32
 2260 0890 D80D0000 		.4byte	0xdd8
 2261 0894 19       		.uleb128 0x19
 2262 0895 16000000 		.4byte	.LVL33
 2263 0899 3C0E0000 		.4byte	0xe3c
ARM GAS  /tmp/ccyxuBjM.s 			page 41


 2264 089d AB080000 		.4byte	0x8ab
 2265 08a1 1A       		.uleb128 0x1a
 2266 08a2 01       		.uleb128 0x1
 2267 08a3 50       		.byte	0x50
 2268 08a4 05       		.uleb128 0x5
 2269 08a5 03       		.byte	0x3
 2270 08a6 00000000 		.4byte	.LANCHOR0
 2271 08aa 00       		.byte	0
 2272 08ab 1B       		.uleb128 0x1b
 2273 08ac 1A000000 		.4byte	.LVL34
 2274 08b0 EE0D0000 		.4byte	0xdee
 2275 08b4 1B       		.uleb128 0x1b
 2276 08b5 1E000000 		.4byte	.LVL35
 2277 08b9 F90D0000 		.4byte	0xdf9
 2278 08bd 00       		.byte	0
 2279 08be 1D       		.uleb128 0x1d
 2280 08bf D2020000 		.4byte	.LASF92
 2281 08c3 01       		.byte	0x1
 2282 08c4 F6       		.byte	0xf6
 2283 08c5 F2000000 		.4byte	0xf2
 2284 08c9 00000000 		.4byte	.LFB9
 2285 08cd 2A000000 		.4byte	.LFE9-.LFB9
 2286 08d1 01       		.uleb128 0x1
 2287 08d2 9C       		.byte	0x9c
 2288 08d3 10090000 		.4byte	0x910
 2289 08d7 1E       		.uleb128 0x1e
 2290 08d8 7000     		.ascii	"p\000"
 2291 08da 01       		.byte	0x1
 2292 08db F6       		.byte	0xf6
 2293 08dc 6B020000 		.4byte	0x26b
 2294 08e0 6E000000 		.4byte	.LLST3
 2295 08e4 1B       		.uleb128 0x1b
 2296 08e5 0C000000 		.4byte	.LVL37
 2297 08e9 D80D0000 		.4byte	0xdd8
 2298 08ed 1B       		.uleb128 0x1b
 2299 08ee 16000000 		.4byte	.LVL38
 2300 08f2 EE0D0000 		.4byte	0xdee
 2301 08f6 1B       		.uleb128 0x1b
 2302 08f7 1A000000 		.4byte	.LVL39
 2303 08fb F90D0000 		.4byte	0xdf9
 2304 08ff 1F       		.uleb128 0x1f
 2305 0900 28000000 		.4byte	.LVL41
 2306 0904 3C0E0000 		.4byte	0xe3c
 2307 0908 1A       		.uleb128 0x1a
 2308 0909 01       		.uleb128 0x1
 2309 090a 50       		.byte	0x50
 2310 090b 02       		.uleb128 0x2
 2311 090c 74       		.byte	0x74
 2312 090d 00       		.sleb128 0
 2313 090e 00       		.byte	0
 2314 090f 00       		.byte	0
 2315 0910 18       		.uleb128 0x18
 2316 0911 69020000 		.4byte	.LASF93
 2317 0915 01       		.byte	0x1
 2318 0916 FC       		.byte	0xfc
 2319 0917 00000000 		.4byte	.LFB10
 2320 091b 0C010000 		.4byte	.LFE10-.LFB10
ARM GAS  /tmp/ccyxuBjM.s 			page 42


 2321 091f 01       		.uleb128 0x1
 2322 0920 9C       		.byte	0x9c
 2323 0921 6B0A0000 		.4byte	0xa6b
 2324 0925 20       		.uleb128 0x20
 2325 0926 13020000 		.4byte	.LASF94
 2326 092a 01       		.byte	0x1
 2327 092b FD       		.byte	0xfd
 2328 092c 7C040000 		.4byte	0x47c
 2329 0930 02       		.uleb128 0x2
 2330 0931 91       		.byte	0x91
 2331 0932 6C       		.sleb128 -20
 2332 0933 19       		.uleb128 0x19
 2333 0934 0C000000 		.4byte	.LVL42
 2334 0938 250E0000 		.4byte	0xe25
 2335 093c 4C090000 		.4byte	0x94c
 2336 0940 1A       		.uleb128 0x1a
 2337 0941 01       		.uleb128 0x1
 2338 0942 50       		.byte	0x50
 2339 0943 02       		.uleb128 0x2
 2340 0944 91       		.byte	0x91
 2341 0945 6C       		.sleb128 -20
 2342 0946 1A       		.uleb128 0x1a
 2343 0947 01       		.uleb128 0x1
 2344 0948 51       		.byte	0x51
 2345 0949 01       		.uleb128 0x1
 2346 094a 30       		.byte	0x30
 2347 094b 00       		.byte	0
 2348 094c 19       		.uleb128 0x19
 2349 094d 14000000 		.4byte	.LVL43
 2350 0951 470E0000 		.4byte	0xe47
 2351 0955 65090000 		.4byte	0x965
 2352 0959 1A       		.uleb128 0x1a
 2353 095a 01       		.uleb128 0x1
 2354 095b 50       		.byte	0x50
 2355 095c 02       		.uleb128 0x2
 2356 095d 91       		.byte	0x91
 2357 095e 6C       		.sleb128 -20
 2358 095f 1A       		.uleb128 0x1a
 2359 0960 01       		.uleb128 0x1
 2360 0961 51       		.byte	0x51
 2361 0962 01       		.uleb128 0x1
 2362 0963 30       		.byte	0x30
 2363 0964 00       		.byte	0
 2364 0965 19       		.uleb128 0x19
 2365 0966 24000000 		.4byte	.LVL44
 2366 096a 040E0000 		.4byte	0xe04
 2367 096e 78090000 		.4byte	0x978
 2368 0972 1A       		.uleb128 0x1a
 2369 0973 01       		.uleb128 0x1
 2370 0974 50       		.byte	0x50
 2371 0975 01       		.uleb128 0x1
 2372 0976 31       		.byte	0x31
 2373 0977 00       		.byte	0
 2374 0978 19       		.uleb128 0x19
 2375 0979 46000000 		.4byte	.LVL45
 2376 097d AB0D0000 		.4byte	0xdab
 2377 0981 9D090000 		.4byte	0x99d
ARM GAS  /tmp/ccyxuBjM.s 			page 43


 2378 0985 1A       		.uleb128 0x1a
 2379 0986 01       		.uleb128 0x1
 2380 0987 51       		.byte	0x51
 2381 0988 03       		.uleb128 0x3
 2382 0989 0A       		.byte	0xa
 2383 098a 5001     		.2byte	0x150
 2384 098c 1A       		.uleb128 0x1a
 2385 098d 01       		.uleb128 0x1
 2386 098e 53       		.byte	0x53
 2387 098f 05       		.uleb128 0x5
 2388 0990 03       		.byte	0x3
 2389 0991 00000000 		.4byte	thread4
 2390 0995 1A       		.uleb128 0x1a
 2391 0996 02       		.uleb128 0x2
 2392 0997 7D       		.byte	0x7d
 2393 0998 00       		.sleb128 0
 2394 0999 02       		.uleb128 0x2
 2395 099a 91       		.byte	0x91
 2396 099b 6C       		.sleb128 -20
 2397 099c 00       		.byte	0
 2398 099d 19       		.uleb128 0x19
 2399 099e 50000000 		.4byte	.LVL46
 2400 09a2 0F0E0000 		.4byte	0xe0f
 2401 09a6 B1090000 		.4byte	0x9b1
 2402 09aa 1A       		.uleb128 0x1a
 2403 09ab 01       		.uleb128 0x1
 2404 09ac 50       		.byte	0x50
 2405 09ad 02       		.uleb128 0x2
 2406 09ae 91       		.byte	0x91
 2407 09af 6C       		.sleb128 -20
 2408 09b0 00       		.byte	0
 2409 09b1 19       		.uleb128 0x19
 2410 09b2 60000000 		.4byte	.LVL47
 2411 09b6 040E0000 		.4byte	0xe04
 2412 09ba C4090000 		.4byte	0x9c4
 2413 09be 1A       		.uleb128 0x1a
 2414 09bf 01       		.uleb128 0x1
 2415 09c0 50       		.byte	0x50
 2416 09c1 01       		.uleb128 0x1
 2417 09c2 32       		.byte	0x32
 2418 09c3 00       		.byte	0
 2419 09c4 1B       		.uleb128 0x1b
 2420 09c5 6C000000 		.4byte	.LVL48
 2421 09c9 D80D0000 		.4byte	0xdd8
 2422 09cd 1B       		.uleb128 0x1b
 2423 09ce 76000000 		.4byte	.LVL49
 2424 09d2 EE0D0000 		.4byte	0xdee
 2425 09d6 1B       		.uleb128 0x1b
 2426 09d7 7A000000 		.4byte	.LVL50
 2427 09db F90D0000 		.4byte	0xdf9
 2428 09df 19       		.uleb128 0x19
 2429 09e0 8E000000 		.4byte	.LVL51
 2430 09e4 040E0000 		.4byte	0xe04
 2431 09e8 F2090000 		.4byte	0x9f2
 2432 09ec 1A       		.uleb128 0x1a
 2433 09ed 01       		.uleb128 0x1
 2434 09ee 50       		.byte	0x50
ARM GAS  /tmp/ccyxuBjM.s 			page 44


 2435 09ef 01       		.uleb128 0x1
 2436 09f0 33       		.byte	0x33
 2437 09f1 00       		.byte	0
 2438 09f2 19       		.uleb128 0x19
 2439 09f3 A4000000 		.4byte	.LVL52
 2440 09f7 040E0000 		.4byte	0xe04
 2441 09fb 050A0000 		.4byte	0xa05
 2442 09ff 1A       		.uleb128 0x1a
 2443 0a00 01       		.uleb128 0x1
 2444 0a01 50       		.byte	0x50
 2445 0a02 01       		.uleb128 0x1
 2446 0a03 34       		.byte	0x34
 2447 0a04 00       		.byte	0
 2448 0a05 1B       		.uleb128 0x1b
 2449 0a06 B0000000 		.4byte	.LVL53
 2450 0a0a D80D0000 		.4byte	0xdd8
 2451 0a0e 1B       		.uleb128 0x1b
 2452 0a0f BA000000 		.4byte	.LVL54
 2453 0a13 EE0D0000 		.4byte	0xdee
 2454 0a17 1B       		.uleb128 0x1b
 2455 0a18 BE000000 		.4byte	.LVL55
 2456 0a1c F90D0000 		.4byte	0xdf9
 2457 0a20 19       		.uleb128 0x19
 2458 0a21 D2000000 		.4byte	.LVL56
 2459 0a25 040E0000 		.4byte	0xe04
 2460 0a29 330A0000 		.4byte	0xa33
 2461 0a2d 1A       		.uleb128 0x1a
 2462 0a2e 01       		.uleb128 0x1
 2463 0a2f 50       		.byte	0x50
 2464 0a30 01       		.uleb128 0x1
 2465 0a31 33       		.byte	0x33
 2466 0a32 00       		.byte	0
 2467 0a33 19       		.uleb128 0x19
 2468 0a34 E8000000 		.4byte	.LVL57
 2469 0a38 040E0000 		.4byte	0xe04
 2470 0a3c 460A0000 		.4byte	0xa46
 2471 0a40 1A       		.uleb128 0x1a
 2472 0a41 01       		.uleb128 0x1
 2473 0a42 50       		.byte	0x50
 2474 0a43 01       		.uleb128 0x1
 2475 0a44 35       		.byte	0x35
 2476 0a45 00       		.byte	0
 2477 0a46 19       		.uleb128 0x19
 2478 0a47 F0000000 		.4byte	.LVL58
 2479 0a4b 3C0E0000 		.4byte	0xe3c
 2480 0a4f 5A0A0000 		.4byte	0xa5a
 2481 0a53 1A       		.uleb128 0x1a
 2482 0a54 01       		.uleb128 0x1
 2483 0a55 50       		.byte	0x50
 2484 0a56 02       		.uleb128 0x2
 2485 0a57 91       		.byte	0x91
 2486 0a58 6C       		.sleb128 -20
 2487 0a59 00       		.byte	0
 2488 0a5a 1F       		.uleb128 0x1f
 2489 0a5b F8000000 		.4byte	.LVL59
 2490 0a5f 3C0E0000 		.4byte	0xe3c
 2491 0a63 1A       		.uleb128 0x1a
ARM GAS  /tmp/ccyxuBjM.s 			page 45


 2492 0a64 01       		.uleb128 0x1
 2493 0a65 50       		.byte	0x50
 2494 0a66 02       		.uleb128 0x2
 2495 0a67 91       		.byte	0x91
 2496 0a68 6C       		.sleb128 -20
 2497 0a69 00       		.byte	0
 2498 0a6a 00       		.byte	0
 2499 0a6b 21       		.uleb128 0x21
 2500 0a6c 60050000 		.4byte	0x560
 2501 0a70 00000000 		.4byte	.LFB5
 2502 0a74 48010000 		.4byte	.LFE5-.LFB5
 2503 0a78 01       		.uleb128 0x1
 2504 0a79 9C       		.byte	0x9c
 2505 0a7a 240C0000 		.4byte	0xc24
 2506 0a7e 22       		.uleb128 0x22
 2507 0a7f 6C050000 		.4byte	0x56c
 2508 0a83 22       		.uleb128 0x22
 2509 0a84 75050000 		.4byte	0x575
 2510 0a88 23       		.uleb128 0x23
 2511 0a89 80050000 		.4byte	0x580
 2512 0a8d 8C000000 		.4byte	.LLST4
 2513 0a91 24       		.uleb128 0x24
 2514 0a92 00000000 		.4byte	.Ldebug_ranges0+0
 2515 0a96 D50B0000 		.4byte	0xbd5
 2516 0a9a 23       		.uleb128 0x23
 2517 0a9b 6C050000 		.4byte	0x56c
 2518 0a9f 9F000000 		.4byte	.LLST5
 2519 0aa3 23       		.uleb128 0x23
 2520 0aa4 75050000 		.4byte	0x575
 2521 0aa8 B3000000 		.4byte	.LLST6
 2522 0aac 23       		.uleb128 0x23
 2523 0aad 80050000 		.4byte	0x580
 2524 0ab1 D4000000 		.4byte	.LLST7
 2525 0ab5 19       		.uleb128 0x19
 2526 0ab6 64000000 		.4byte	.LVL65
 2527 0aba AB0D0000 		.4byte	0xdab
 2528 0abe D30A0000 		.4byte	0xad3
 2529 0ac2 1A       		.uleb128 0x1a
 2530 0ac3 01       		.uleb128 0x1
 2531 0ac4 51       		.byte	0x51
 2532 0ac5 03       		.uleb128 0x3
 2533 0ac6 0A       		.byte	0xa
 2534 0ac7 5001     		.2byte	0x150
 2535 0ac9 1A       		.uleb128 0x1a
 2536 0aca 01       		.uleb128 0x1
 2537 0acb 53       		.byte	0x53
 2538 0acc 05       		.uleb128 0x5
 2539 0acd 03       		.byte	0x3
 2540 0ace 00000000 		.4byte	thread2
 2541 0ad2 00       		.byte	0
 2542 0ad3 19       		.uleb128 0x19
 2543 0ad4 72000000 		.4byte	.LVL66
 2544 0ad8 520E0000 		.4byte	0xe52
 2545 0adc EE0A0000 		.4byte	0xaee
 2546 0ae0 1A       		.uleb128 0x1a
 2547 0ae1 01       		.uleb128 0x1
 2548 0ae2 50       		.byte	0x50
ARM GAS  /tmp/ccyxuBjM.s 			page 46


 2549 0ae3 02       		.uleb128 0x2
 2550 0ae4 74       		.byte	0x74
 2551 0ae5 00       		.sleb128 0
 2552 0ae6 1A       		.uleb128 0x1a
 2553 0ae7 01       		.uleb128 0x1
 2554 0ae8 51       		.byte	0x51
 2555 0ae9 03       		.uleb128 0x3
 2556 0aea 0A       		.byte	0xa
 2557 0aeb F401     		.2byte	0x1f4
 2558 0aed 00       		.byte	0
 2559 0aee 1B       		.uleb128 0x1b
 2560 0aef 78000000 		.4byte	.LVL68
 2561 0af3 C20D0000 		.4byte	0xdc2
 2562 0af7 19       		.uleb128 0x19
 2563 0af8 84000000 		.4byte	.LVL69
 2564 0afc 040E0000 		.4byte	0xe04
 2565 0b00 120B0000 		.4byte	0xb12
 2566 0b04 1A       		.uleb128 0x1a
 2567 0b05 01       		.uleb128 0x1
 2568 0b06 50       		.byte	0x50
 2569 0b07 01       		.uleb128 0x1
 2570 0b08 34       		.byte	0x34
 2571 0b09 1A       		.uleb128 0x1a
 2572 0b0a 01       		.uleb128 0x1
 2573 0b0b 51       		.byte	0x51
 2574 0b0c 04       		.uleb128 0x4
 2575 0b0d 75       		.byte	0x75
 2576 0b0e 00       		.sleb128 0
 2577 0b0f 30       		.byte	0x30
 2578 0b10 29       		.byte	0x29
 2579 0b11 00       		.byte	0
 2580 0b12 19       		.uleb128 0x19
 2581 0b13 98000000 		.4byte	.LVL70
 2582 0b17 040E0000 		.4byte	0xe04
 2583 0b1b 250B0000 		.4byte	0xb25
 2584 0b1f 1A       		.uleb128 0x1a
 2585 0b20 01       		.uleb128 0x1
 2586 0b21 50       		.byte	0x50
 2587 0b22 01       		.uleb128 0x1
 2588 0b23 35       		.byte	0x35
 2589 0b24 00       		.byte	0
 2590 0b25 19       		.uleb128 0x19
 2591 0b26 AA000000 		.4byte	.LVL71
 2592 0b2a 040E0000 		.4byte	0xe04
 2593 0b2e 380B0000 		.4byte	0xb38
 2594 0b32 1A       		.uleb128 0x1a
 2595 0b33 01       		.uleb128 0x1
 2596 0b34 50       		.byte	0x50
 2597 0b35 01       		.uleb128 0x1
 2598 0b36 36       		.byte	0x36
 2599 0b37 00       		.byte	0
 2600 0b38 1B       		.uleb128 0x1b
 2601 0b39 B2000000 		.4byte	.LVL72
 2602 0b3d 5D0E0000 		.4byte	0xe5d
 2603 0b41 19       		.uleb128 0x19
 2604 0b42 BE000000 		.4byte	.LVL75
 2605 0b46 1A0E0000 		.4byte	0xe1a
ARM GAS  /tmp/ccyxuBjM.s 			page 47


 2606 0b4a 550B0000 		.4byte	0xb55
 2607 0b4e 1A       		.uleb128 0x1a
 2608 0b4f 01       		.uleb128 0x1
 2609 0b50 50       		.byte	0x50
 2610 0b51 02       		.uleb128 0x2
 2611 0b52 75       		.byte	0x75
 2612 0b53 00       		.sleb128 0
 2613 0b54 00       		.byte	0
 2614 0b55 19       		.uleb128 0x19
 2615 0b56 C8000000 		.4byte	.LVL76
 2616 0b5a 520E0000 		.4byte	0xe52
 2617 0b5e 700B0000 		.4byte	0xb70
 2618 0b62 1A       		.uleb128 0x1a
 2619 0b63 01       		.uleb128 0x1
 2620 0b64 50       		.byte	0x50
 2621 0b65 02       		.uleb128 0x2
 2622 0b66 74       		.byte	0x74
 2623 0b67 00       		.sleb128 0
 2624 0b68 1A       		.uleb128 0x1a
 2625 0b69 01       		.uleb128 0x1
 2626 0b6a 51       		.byte	0x51
 2627 0b6b 03       		.uleb128 0x3
 2628 0b6c 0A       		.byte	0xa
 2629 0b6d F401     		.2byte	0x1f4
 2630 0b6f 00       		.byte	0
 2631 0b70 19       		.uleb128 0x19
 2632 0b71 D8000000 		.4byte	.LVL78
 2633 0b75 040E0000 		.4byte	0xe04
 2634 0b79 830B0000 		.4byte	0xb83
 2635 0b7d 1A       		.uleb128 0x1a
 2636 0b7e 01       		.uleb128 0x1
 2637 0b7f 50       		.byte	0x50
 2638 0b80 01       		.uleb128 0x1
 2639 0b81 37       		.byte	0x37
 2640 0b82 00       		.byte	0
 2641 0b83 19       		.uleb128 0x19
 2642 0b84 EC000000 		.4byte	.LVL79
 2643 0b88 040E0000 		.4byte	0xe04
 2644 0b8c 960B0000 		.4byte	0xb96
 2645 0b90 1A       		.uleb128 0x1a
 2646 0b91 01       		.uleb128 0x1
 2647 0b92 50       		.byte	0x50
 2648 0b93 01       		.uleb128 0x1
 2649 0b94 38       		.byte	0x38
 2650 0b95 00       		.byte	0
 2651 0b96 19       		.uleb128 0x19
 2652 0b97 FE000000 		.4byte	.LVL80
 2653 0b9b 040E0000 		.4byte	0xe04
 2654 0b9f A90B0000 		.4byte	0xba9
 2655 0ba3 1A       		.uleb128 0x1a
 2656 0ba4 01       		.uleb128 0x1
 2657 0ba5 50       		.byte	0x50
 2658 0ba6 01       		.uleb128 0x1
 2659 0ba7 39       		.byte	0x39
 2660 0ba8 00       		.byte	0
 2661 0ba9 19       		.uleb128 0x19
 2662 0baa 12010000 		.4byte	.LVL81
ARM GAS  /tmp/ccyxuBjM.s 			page 48


 2663 0bae CD0D0000 		.4byte	0xdcd
 2664 0bb2 C50B0000 		.4byte	0xbc5
 2665 0bb6 1A       		.uleb128 0x1a
 2666 0bb7 01       		.uleb128 0x1
 2667 0bb8 50       		.byte	0x50
 2668 0bb9 01       		.uleb128 0x1
 2669 0bba 3A       		.byte	0x3a
 2670 0bbb 1A       		.uleb128 0x1a
 2671 0bbc 01       		.uleb128 0x1
 2672 0bbd 51       		.byte	0x51
 2673 0bbe 05       		.uleb128 0x5
 2674 0bbf 03       		.byte	0x3
 2675 0bc0 14000000 		.4byte	.LC5
 2676 0bc4 00       		.byte	0
 2677 0bc5 1C       		.uleb128 0x1c
 2678 0bc6 2A010000 		.4byte	.LVL83
 2679 0bca 680E0000 		.4byte	0xe68
 2680 0bce 1A       		.uleb128 0x1a
 2681 0bcf 01       		.uleb128 0x1
 2682 0bd0 50       		.byte	0x50
 2683 0bd1 01       		.uleb128 0x1
 2684 0bd2 3B       		.byte	0x3b
 2685 0bd3 00       		.byte	0
 2686 0bd4 00       		.byte	0
 2687 0bd5 19       		.uleb128 0x19
 2688 0bd6 0E000000 		.4byte	.LVL60
 2689 0bda 520E0000 		.4byte	0xe52
 2690 0bde EE0B0000 		.4byte	0xbee
 2691 0be2 1A       		.uleb128 0x1a
 2692 0be3 01       		.uleb128 0x1
 2693 0be4 50       		.byte	0x50
 2694 0be5 02       		.uleb128 0x2
 2695 0be6 74       		.byte	0x74
 2696 0be7 00       		.sleb128 0
 2697 0be8 1A       		.uleb128 0x1a
 2698 0be9 01       		.uleb128 0x1
 2699 0bea 51       		.byte	0x51
 2700 0beb 01       		.uleb128 0x1
 2701 0bec 30       		.byte	0x30
 2702 0bed 00       		.byte	0
 2703 0bee 19       		.uleb128 0x19
 2704 0bef 1E000000 		.4byte	.LVL62
 2705 0bf3 040E0000 		.4byte	0xe04
 2706 0bf7 010C0000 		.4byte	0xc01
 2707 0bfb 1A       		.uleb128 0x1a
 2708 0bfc 01       		.uleb128 0x1
 2709 0bfd 50       		.byte	0x50
 2710 0bfe 01       		.uleb128 0x1
 2711 0bff 31       		.byte	0x31
 2712 0c00 00       		.byte	0
 2713 0c01 19       		.uleb128 0x19
 2714 0c02 34000000 		.4byte	.LVL63
 2715 0c06 040E0000 		.4byte	0xe04
 2716 0c0a 140C0000 		.4byte	0xc14
 2717 0c0e 1A       		.uleb128 0x1a
 2718 0c0f 01       		.uleb128 0x1
 2719 0c10 50       		.byte	0x50
ARM GAS  /tmp/ccyxuBjM.s 			page 49


 2720 0c11 01       		.uleb128 0x1
 2721 0c12 32       		.byte	0x32
 2722 0c13 00       		.byte	0
 2723 0c14 1F       		.uleb128 0x1f
 2724 0c15 46000000 		.4byte	.LVL64
 2725 0c19 040E0000 		.4byte	0xe04
 2726 0c1d 1A       		.uleb128 0x1a
 2727 0c1e 01       		.uleb128 0x1
 2728 0c1f 50       		.byte	0x50
 2729 0c20 01       		.uleb128 0x1
 2730 0c21 33       		.byte	0x33
 2731 0c22 00       		.byte	0
 2732 0c23 00       		.byte	0
 2733 0c24 21       		.uleb128 0x21
 2734 0c25 8C050000 		.4byte	0x58c
 2735 0c29 00000000 		.4byte	.LFB8
 2736 0c2d 98000000 		.4byte	.LFE8-.LFB8
 2737 0c31 01       		.uleb128 0x1
 2738 0c32 9C       		.byte	0x9c
 2739 0c33 D80C0000 		.4byte	0xcd8
 2740 0c37 19       		.uleb128 0x19
 2741 0c38 20000000 		.4byte	.LVL84
 2742 0c3c AB0D0000 		.4byte	0xdab
 2743 0c40 5B0C0000 		.4byte	0xc5b
 2744 0c44 1A       		.uleb128 0x1a
 2745 0c45 01       		.uleb128 0x1
 2746 0c46 51       		.byte	0x51
 2747 0c47 03       		.uleb128 0x3
 2748 0c48 0A       		.byte	0xa
 2749 0c49 5001     		.2byte	0x150
 2750 0c4b 1A       		.uleb128 0x1a
 2751 0c4c 01       		.uleb128 0x1
 2752 0c4d 53       		.byte	0x53
 2753 0c4e 05       		.uleb128 0x5
 2754 0c4f 03       		.byte	0x3
 2755 0c50 00000000 		.4byte	thread3
 2756 0c54 1A       		.uleb128 0x1a
 2757 0c55 02       		.uleb128 0x2
 2758 0c56 7D       		.byte	0x7d
 2759 0c57 00       		.sleb128 0
 2760 0c58 01       		.uleb128 0x1
 2761 0c59 30       		.byte	0x30
 2762 0c5a 00       		.byte	0
 2763 0c5b 19       		.uleb128 0x19
 2764 0c5c 2C000000 		.4byte	.LVL85
 2765 0c60 730E0000 		.4byte	0xe73
 2766 0c64 750C0000 		.4byte	0xc75
 2767 0c68 1A       		.uleb128 0x1a
 2768 0c69 01       		.uleb128 0x1
 2769 0c6a 50       		.byte	0x50
 2770 0c6b 02       		.uleb128 0x2
 2771 0c6c 74       		.byte	0x74
 2772 0c6d 00       		.sleb128 0
 2773 0c6e 1A       		.uleb128 0x1a
 2774 0c6f 01       		.uleb128 0x1
 2775 0c70 51       		.byte	0x51
 2776 0c71 02       		.uleb128 0x2
ARM GAS  /tmp/ccyxuBjM.s 			page 50


 2777 0c72 74       		.byte	0x74
 2778 0c73 00       		.sleb128 0
 2779 0c74 00       		.byte	0
 2780 0c75 19       		.uleb128 0x19
 2781 0c76 3C000000 		.4byte	.LVL86
 2782 0c7a 040E0000 		.4byte	0xe04
 2783 0c7e 880C0000 		.4byte	0xc88
 2784 0c82 1A       		.uleb128 0x1a
 2785 0c83 01       		.uleb128 0x1
 2786 0c84 50       		.byte	0x50
 2787 0c85 01       		.uleb128 0x1
 2788 0c86 31       		.byte	0x31
 2789 0c87 00       		.byte	0
 2790 0c88 19       		.uleb128 0x19
 2791 0c89 50000000 		.4byte	.LVL87
 2792 0c8d 040E0000 		.4byte	0xe04
 2793 0c91 9B0C0000 		.4byte	0xc9b
 2794 0c95 1A       		.uleb128 0x1a
 2795 0c96 01       		.uleb128 0x1
 2796 0c97 50       		.byte	0x50
 2797 0c98 01       		.uleb128 0x1
 2798 0c99 32       		.byte	0x32
 2799 0c9a 00       		.byte	0
 2800 0c9b 19       		.uleb128 0x19
 2801 0c9c 5C000000 		.4byte	.LVL88
 2802 0ca0 730E0000 		.4byte	0xe73
 2803 0ca4 B50C0000 		.4byte	0xcb5
 2804 0ca8 1A       		.uleb128 0x1a
 2805 0ca9 01       		.uleb128 0x1
 2806 0caa 50       		.byte	0x50
 2807 0cab 02       		.uleb128 0x2
 2808 0cac 74       		.byte	0x74
 2809 0cad 00       		.sleb128 0
 2810 0cae 1A       		.uleb128 0x1a
 2811 0caf 01       		.uleb128 0x1
 2812 0cb0 51       		.byte	0x51
 2813 0cb1 02       		.uleb128 0x2
 2814 0cb2 74       		.byte	0x74
 2815 0cb3 00       		.sleb128 0
 2816 0cb4 00       		.byte	0
 2817 0cb5 19       		.uleb128 0x19
 2818 0cb6 6C000000 		.4byte	.LVL89
 2819 0cba 040E0000 		.4byte	0xe04
 2820 0cbe C80C0000 		.4byte	0xcc8
 2821 0cc2 1A       		.uleb128 0x1a
 2822 0cc3 01       		.uleb128 0x1
 2823 0cc4 50       		.byte	0x50
 2824 0cc5 01       		.uleb128 0x1
 2825 0cc6 33       		.byte	0x33
 2826 0cc7 00       		.byte	0
 2827 0cc8 1C       		.uleb128 0x1c
 2828 0cc9 84000000 		.4byte	.LVL90
 2829 0ccd 040E0000 		.4byte	0xe04
 2830 0cd1 1A       		.uleb128 0x1a
 2831 0cd2 01       		.uleb128 0x1
 2832 0cd3 50       		.byte	0x50
 2833 0cd4 01       		.uleb128 0x1
ARM GAS  /tmp/ccyxuBjM.s 			page 51


 2834 0cd5 34       		.byte	0x34
 2835 0cd6 00       		.byte	0
 2836 0cd7 00       		.byte	0
 2837 0cd8 20       		.uleb128 0x20
 2838 0cd9 51010000 		.4byte	.LASF95
 2839 0cdd 01       		.byte	0x1
 2840 0cde 3B       		.byte	0x3b
 2841 0cdf 5C040000 		.4byte	0x45c
 2842 0ce3 05       		.uleb128 0x5
 2843 0ce4 03       		.byte	0x3
 2844 0ce5 00000000 		.4byte	sem1
 2845 0ce9 25       		.uleb128 0x25
 2846 0cea 3B000000 		.4byte	.LASF96
 2847 0cee 08       		.byte	0x8
 2848 0cef F5       		.byte	0xf5
 2849 0cf0 D0030000 		.4byte	0x3d0
 2850 0cf4 25       		.uleb128 0x25
 2851 0cf5 C4050000 		.4byte	.LASF97
 2852 0cf9 09       		.byte	0x9
 2853 0cfa 6F       		.byte	0x6f
 2854 0cfb 2C040000 		.4byte	0x42c
 2855 0cff 26       		.uleb128 0x26
 2856 0d00 2F020000 		.4byte	0x22f
 2857 0d04 0F0D0000 		.4byte	0xd0f
 2858 0d08 27       		.uleb128 0x27
 2859 0d09 15030000 		.4byte	0x315
 2860 0d0d 04       		.byte	0x4
 2861 0d0e 00       		.byte	0
 2862 0d0f 25       		.uleb128 0x25
 2863 0d10 9A030000 		.4byte	.LASF98
 2864 0d14 0D       		.byte	0xd
 2865 0d15 A5       		.byte	0xa5
 2866 0d16 FF0C0000 		.4byte	0xcff
 2867 0d1a 26       		.uleb128 0x26
 2868 0d1b 6B020000 		.4byte	0x26b
 2869 0d1f 250D0000 		.4byte	0xd25
 2870 0d23 28       		.uleb128 0x28
 2871 0d24 00       		.byte	0
 2872 0d25 29       		.uleb128 0x29
 2873 0d26 776100   		.ascii	"wa\000"
 2874 0d29 0D       		.byte	0xd
 2875 0d2a A7       		.byte	0xa7
 2876 0d2b 2F0D0000 		.4byte	0xd2f
 2877 0d2f 12       		.uleb128 0x12
 2878 0d30 1A0D0000 		.4byte	0xd1a
 2879 0d34 2A       		.uleb128 0x2a
 2880 0d35 9A010000 		.4byte	.LASF99
 2881 0d39 01       		.byte	0x1
 2882 0d3a 6F       		.byte	0x6f
 2883 0d3b 450D0000 		.4byte	0xd45
 2884 0d3f 05       		.uleb128 0x5
 2885 0d40 03       		.byte	0x3
 2886 0d41 00000000 		.4byte	testsem1
 2887 0d45 12       		.uleb128 0x12
 2888 0d46 1C050000 		.4byte	0x51c
 2889 0d4a 2A       		.uleb128 0x2a
 2890 0d4b A3010000 		.4byte	.LASF100
ARM GAS  /tmp/ccyxuBjM.s 			page 52


 2891 0d4f 01       		.byte	0x1
 2892 0d50 B9       		.byte	0xb9
 2893 0d51 450D0000 		.4byte	0xd45
 2894 0d55 05       		.uleb128 0x5
 2895 0d56 03       		.byte	0x3
 2896 0d57 00000000 		.4byte	testsem2
 2897 0d5b 2A       		.uleb128 0x2a
 2898 0d5c AC010000 		.4byte	.LASF101
 2899 0d60 01       		.byte	0x1
 2900 0d61 E6       		.byte	0xe6
 2901 0d62 450D0000 		.4byte	0xd45
 2902 0d66 05       		.uleb128 0x5
 2903 0d67 03       		.byte	0x3
 2904 0d68 00000000 		.4byte	testsem3
 2905 0d6c 2B       		.uleb128 0x2b
 2906 0d6d B5010000 		.4byte	.LASF102
 2907 0d71 01       		.byte	0x1
 2908 0d72 1A01     		.2byte	0x11a
 2909 0d74 450D0000 		.4byte	0xd45
 2910 0d78 05       		.uleb128 0x5
 2911 0d79 03       		.byte	0x3
 2912 0d7a 00000000 		.4byte	testsem4
 2913 0d7e 26       		.uleb128 0x26
 2914 0d7f 8E0D0000 		.4byte	0xd8e
 2915 0d83 8E0D0000 		.4byte	0xd8e
 2916 0d87 27       		.uleb128 0x27
 2917 0d88 15030000 		.4byte	0x315
 2918 0d8c 04       		.byte	0x4
 2919 0d8d 00       		.byte	0
 2920 0d8e 09       		.uleb128 0x9
 2921 0d8f 04       		.byte	0x4
 2922 0d90 450D0000 		.4byte	0xd45
 2923 0d94 2B       		.uleb128 0x2b
 2924 0d95 26030000 		.4byte	.LASF103
 2925 0d99 01       		.byte	0x1
 2926 0d9a 2501     		.2byte	0x125
 2927 0d9c A60D0000 		.4byte	0xda6
 2928 0da0 05       		.uleb128 0x5
 2929 0da1 03       		.byte	0x3
 2930 0da2 00000000 		.4byte	patternsem
 2931 0da6 12       		.uleb128 0x12
 2932 0da7 7E0D0000 		.4byte	0xd7e
 2933 0dab 2C       		.uleb128 0x2c
 2934 0dac 57020000 		.4byte	.LASF104
 2935 0db0 57020000 		.4byte	.LASF104
 2936 0db4 06       		.byte	0x6
 2937 0db5 7001     		.2byte	0x170
 2938 0db7 2D       		.uleb128 0x2d
 2939 0db8 08010000 		.4byte	.LASF105
 2940 0dbc 08010000 		.4byte	.LASF105
 2941 0dc0 0A       		.byte	0xa
 2942 0dc1 3C       		.byte	0x3c
 2943 0dc2 2D       		.uleb128 0x2d
 2944 0dc3 A2020000 		.4byte	.LASF106
 2945 0dc7 A2020000 		.4byte	.LASF106
 2946 0dcb 0D       		.byte	0xd
 2947 0dcc 5C       		.byte	0x5c
ARM GAS  /tmp/ccyxuBjM.s 			page 53


 2948 0dcd 2D       		.uleb128 0x2d
 2949 0dce ED020000 		.4byte	.LASF107
 2950 0dd2 ED020000 		.4byte	.LASF107
 2951 0dd6 0D       		.byte	0xd
 2952 0dd7 59       		.byte	0x59
 2953 0dd8 2D       		.uleb128 0x2d
 2954 0dd9 93020000 		.4byte	.LASF108
 2955 0ddd 93020000 		.4byte	.LASF108
 2956 0de1 0E       		.byte	0xe
 2957 0de2 E7       		.byte	0xe7
 2958 0de3 2D       		.uleb128 0x2d
 2959 0de4 62000000 		.4byte	.LASF109
 2960 0de8 62000000 		.4byte	.LASF109
 2961 0dec 0A       		.byte	0xa
 2962 0ded 3E       		.byte	0x3e
 2963 0dee 2D       		.uleb128 0x2d
 2964 0def 24010000 		.4byte	.LASF110
 2965 0df3 24010000 		.4byte	.LASF110
 2966 0df7 09       		.byte	0x9
 2967 0df8 9C       		.byte	0x9c
 2968 0df9 2D       		.uleb128 0x2d
 2969 0dfa 15030000 		.4byte	.LASF111
 2970 0dfe 15030000 		.4byte	.LASF111
 2971 0e02 0E       		.byte	0xe
 2972 0e03 E8       		.byte	0xe8
 2973 0e04 2D       		.uleb128 0x2d
 2974 0e05 E0050000 		.4byte	.LASF112
 2975 0e09 E0050000 		.4byte	.LASF112
 2976 0e0d 0D       		.byte	0xd
 2977 0e0e 58       		.byte	0x58
 2978 0e0f 2D       		.uleb128 0x2d
 2979 0e10 51050000 		.4byte	.LASF113
 2980 0e14 51050000 		.4byte	.LASF113
 2981 0e18 0A       		.byte	0xa
 2982 0e19 38       		.byte	0x38
 2983 0e1a 2D       		.uleb128 0x2d
 2984 0e1b B4000000 		.4byte	.LASF114
 2985 0e1f B4000000 		.4byte	.LASF114
 2986 0e23 0D       		.byte	0xd
 2987 0e24 56       		.byte	0x56
 2988 0e25 2D       		.uleb128 0x2d
 2989 0e26 1E060000 		.4byte	.LASF115
 2990 0e2a 1E060000 		.4byte	.LASF115
 2991 0e2e 0A       		.byte	0xa
 2992 0e2f 35       		.byte	0x35
 2993 0e30 2C       		.uleb128 0x2c
 2994 0e31 A8050000 		.4byte	.LASF116
 2995 0e35 A8050000 		.4byte	.LASF116
 2996 0e39 06       		.byte	0x6
 2997 0e3a 7501     		.2byte	0x175
 2998 0e3c 2D       		.uleb128 0x2d
 2999 0e3d 06000000 		.4byte	.LASF117
 3000 0e41 06000000 		.4byte	.LASF117
 3001 0e45 0A       		.byte	0xa
 3002 0e46 3D       		.byte	0x3d
 3003 0e47 2D       		.uleb128 0x2d
 3004 0e48 08020000 		.4byte	.LASF118
ARM GAS  /tmp/ccyxuBjM.s 			page 54


 3005 0e4c 08020000 		.4byte	.LASF118
 3006 0e50 0A       		.byte	0xa
 3007 0e51 36       		.byte	0x36
 3008 0e52 2D       		.uleb128 0x2d
 3009 0e53 74010000 		.4byte	.LASF119
 3010 0e57 74010000 		.4byte	.LASF119
 3011 0e5b 0A       		.byte	0xa
 3012 0e5c 3A       		.byte	0x3a
 3013 0e5d 2D       		.uleb128 0x2d
 3014 0e5e 6F030000 		.4byte	.LASF120
 3015 0e62 6F030000 		.4byte	.LASF120
 3016 0e66 0D       		.byte	0xd
 3017 0e67 5D       		.byte	0x5d
 3018 0e68 2D       		.uleb128 0x2d
 3019 0e69 EF000000 		.4byte	.LASF121
 3020 0e6d EF000000 		.4byte	.LASF121
 3021 0e71 0D       		.byte	0xd
 3022 0e72 5A       		.byte	0x5a
 3023 0e73 2D       		.uleb128 0x2d
 3024 0e74 94000000 		.4byte	.LASF122
 3025 0e78 94000000 		.4byte	.LASF122
 3026 0e7c 0A       		.byte	0xa
 3027 0e7d 40       		.byte	0x40
 3028 0e7e 00       		.byte	0
 3029              		.section	.debug_abbrev,"",%progbits
 3030              	.Ldebug_abbrev0:
 3031 0000 01       		.uleb128 0x1
 3032 0001 11       		.uleb128 0x11
 3033 0002 01       		.byte	0x1
 3034 0003 25       		.uleb128 0x25
 3035 0004 0E       		.uleb128 0xe
 3036 0005 13       		.uleb128 0x13
 3037 0006 0B       		.uleb128 0xb
 3038 0007 03       		.uleb128 0x3
 3039 0008 0E       		.uleb128 0xe
 3040 0009 1B       		.uleb128 0x1b
 3041 000a 0E       		.uleb128 0xe
 3042 000b 55       		.uleb128 0x55
 3043 000c 17       		.uleb128 0x17
 3044 000d 11       		.uleb128 0x11
 3045 000e 01       		.uleb128 0x1
 3046 000f 10       		.uleb128 0x10
 3047 0010 17       		.uleb128 0x17
 3048 0011 00       		.byte	0
 3049 0012 00       		.byte	0
 3050 0013 02       		.uleb128 0x2
 3051 0014 24       		.uleb128 0x24
 3052 0015 00       		.byte	0
 3053 0016 0B       		.uleb128 0xb
 3054 0017 0B       		.uleb128 0xb
 3055 0018 3E       		.uleb128 0x3e
 3056 0019 0B       		.uleb128 0xb
 3057 001a 03       		.uleb128 0x3
 3058 001b 08       		.uleb128 0x8
 3059 001c 00       		.byte	0
 3060 001d 00       		.byte	0
 3061 001e 03       		.uleb128 0x3
ARM GAS  /tmp/ccyxuBjM.s 			page 55


 3062 001f 24       		.uleb128 0x24
 3063 0020 00       		.byte	0
 3064 0021 0B       		.uleb128 0xb
 3065 0022 0B       		.uleb128 0xb
 3066 0023 3E       		.uleb128 0x3e
 3067 0024 0B       		.uleb128 0xb
 3068 0025 03       		.uleb128 0x3
 3069 0026 0E       		.uleb128 0xe
 3070 0027 00       		.byte	0
 3071 0028 00       		.byte	0
 3072 0029 04       		.uleb128 0x4
 3073 002a 16       		.uleb128 0x16
 3074 002b 00       		.byte	0
 3075 002c 03       		.uleb128 0x3
 3076 002d 0E       		.uleb128 0xe
 3077 002e 3A       		.uleb128 0x3a
 3078 002f 0B       		.uleb128 0xb
 3079 0030 3B       		.uleb128 0x3b
 3080 0031 0B       		.uleb128 0xb
 3081 0032 49       		.uleb128 0x49
 3082 0033 13       		.uleb128 0x13
 3083 0034 00       		.byte	0
 3084 0035 00       		.byte	0
 3085 0036 05       		.uleb128 0x5
 3086 0037 13       		.uleb128 0x13
 3087 0038 01       		.byte	0x1
 3088 0039 03       		.uleb128 0x3
 3089 003a 0E       		.uleb128 0xe
 3090 003b 0B       		.uleb128 0xb
 3091 003c 0B       		.uleb128 0xb
 3092 003d 3A       		.uleb128 0x3a
 3093 003e 0B       		.uleb128 0xb
 3094 003f 3B       		.uleb128 0x3b
 3095 0040 0B       		.uleb128 0xb
 3096 0041 01       		.uleb128 0x1
 3097 0042 13       		.uleb128 0x13
 3098 0043 00       		.byte	0
 3099 0044 00       		.byte	0
 3100 0045 06       		.uleb128 0x6
 3101 0046 0D       		.uleb128 0xd
 3102 0047 00       		.byte	0
 3103 0048 03       		.uleb128 0x3
 3104 0049 0E       		.uleb128 0xe
 3105 004a 3A       		.uleb128 0x3a
 3106 004b 0B       		.uleb128 0xb
 3107 004c 3B       		.uleb128 0x3b
 3108 004d 0B       		.uleb128 0xb
 3109 004e 49       		.uleb128 0x49
 3110 004f 13       		.uleb128 0x13
 3111 0050 38       		.uleb128 0x38
 3112 0051 0B       		.uleb128 0xb
 3113 0052 00       		.byte	0
 3114 0053 00       		.byte	0
 3115 0054 07       		.uleb128 0x7
 3116 0055 0D       		.uleb128 0xd
 3117 0056 00       		.byte	0
 3118 0057 03       		.uleb128 0x3
ARM GAS  /tmp/ccyxuBjM.s 			page 56


 3119 0058 08       		.uleb128 0x8
 3120 0059 3A       		.uleb128 0x3a
 3121 005a 0B       		.uleb128 0xb
 3122 005b 3B       		.uleb128 0x3b
 3123 005c 0B       		.uleb128 0xb
 3124 005d 49       		.uleb128 0x49
 3125 005e 13       		.uleb128 0x13
 3126 005f 38       		.uleb128 0x38
 3127 0060 0B       		.uleb128 0xb
 3128 0061 00       		.byte	0
 3129 0062 00       		.byte	0
 3130 0063 08       		.uleb128 0x8
 3131 0064 13       		.uleb128 0x13
 3132 0065 01       		.byte	0x1
 3133 0066 0B       		.uleb128 0xb
 3134 0067 0B       		.uleb128 0xb
 3135 0068 3A       		.uleb128 0x3a
 3136 0069 0B       		.uleb128 0xb
 3137 006a 3B       		.uleb128 0x3b
 3138 006b 0B       		.uleb128 0xb
 3139 006c 01       		.uleb128 0x1
 3140 006d 13       		.uleb128 0x13
 3141 006e 00       		.byte	0
 3142 006f 00       		.byte	0
 3143 0070 09       		.uleb128 0x9
 3144 0071 0F       		.uleb128 0xf
 3145 0072 00       		.byte	0
 3146 0073 0B       		.uleb128 0xb
 3147 0074 0B       		.uleb128 0xb
 3148 0075 49       		.uleb128 0x49
 3149 0076 13       		.uleb128 0x13
 3150 0077 00       		.byte	0
 3151 0078 00       		.byte	0
 3152 0079 0A       		.uleb128 0xa
 3153 007a 0F       		.uleb128 0xf
 3154 007b 00       		.byte	0
 3155 007c 0B       		.uleb128 0xb
 3156 007d 0B       		.uleb128 0xb
 3157 007e 00       		.byte	0
 3158 007f 00       		.byte	0
 3159 0080 0B       		.uleb128 0xb
 3160 0081 13       		.uleb128 0x13
 3161 0082 01       		.byte	0x1
 3162 0083 03       		.uleb128 0x3
 3163 0084 0E       		.uleb128 0xe
 3164 0085 0B       		.uleb128 0xb
 3165 0086 0B       		.uleb128 0xb
 3166 0087 3A       		.uleb128 0x3a
 3167 0088 0B       		.uleb128 0xb
 3168 0089 3B       		.uleb128 0x3b
 3169 008a 05       		.uleb128 0x5
 3170 008b 01       		.uleb128 0x1
 3171 008c 13       		.uleb128 0x13
 3172 008d 00       		.byte	0
 3173 008e 00       		.byte	0
 3174 008f 0C       		.uleb128 0xc
 3175 0090 0D       		.uleb128 0xd
ARM GAS  /tmp/ccyxuBjM.s 			page 57


 3176 0091 00       		.byte	0
 3177 0092 03       		.uleb128 0x3
 3178 0093 08       		.uleb128 0x8
 3179 0094 3A       		.uleb128 0x3a
 3180 0095 0B       		.uleb128 0xb
 3181 0096 3B       		.uleb128 0x3b
 3182 0097 05       		.uleb128 0x5
 3183 0098 49       		.uleb128 0x49
 3184 0099 13       		.uleb128 0x13
 3185 009a 38       		.uleb128 0x38
 3186 009b 0B       		.uleb128 0xb
 3187 009c 00       		.byte	0
 3188 009d 00       		.byte	0
 3189 009e 0D       		.uleb128 0xd
 3190 009f 15       		.uleb128 0x15
 3191 00a0 01       		.byte	0x1
 3192 00a1 27       		.uleb128 0x27
 3193 00a2 19       		.uleb128 0x19
 3194 00a3 01       		.uleb128 0x1
 3195 00a4 13       		.uleb128 0x13
 3196 00a5 00       		.byte	0
 3197 00a6 00       		.byte	0
 3198 00a7 0E       		.uleb128 0xe
 3199 00a8 05       		.uleb128 0x5
 3200 00a9 00       		.byte	0
 3201 00aa 49       		.uleb128 0x49
 3202 00ab 13       		.uleb128 0x13
 3203 00ac 00       		.byte	0
 3204 00ad 00       		.byte	0
 3205 00ae 0F       		.uleb128 0xf
 3206 00af 35       		.uleb128 0x35
 3207 00b0 00       		.byte	0
 3208 00b1 49       		.uleb128 0x49
 3209 00b2 13       		.uleb128 0x13
 3210 00b3 00       		.byte	0
 3211 00b4 00       		.byte	0
 3212 00b5 10       		.uleb128 0x10
 3213 00b6 17       		.uleb128 0x17
 3214 00b7 01       		.byte	0x1
 3215 00b8 0B       		.uleb128 0xb
 3216 00b9 0B       		.uleb128 0xb
 3217 00ba 3A       		.uleb128 0x3a
 3218 00bb 0B       		.uleb128 0xb
 3219 00bc 3B       		.uleb128 0x3b
 3220 00bd 0B       		.uleb128 0xb
 3221 00be 01       		.uleb128 0x1
 3222 00bf 13       		.uleb128 0x13
 3223 00c0 00       		.byte	0
 3224 00c1 00       		.byte	0
 3225 00c2 11       		.uleb128 0x11
 3226 00c3 0D       		.uleb128 0xd
 3227 00c4 00       		.byte	0
 3228 00c5 03       		.uleb128 0x3
 3229 00c6 0E       		.uleb128 0xe
 3230 00c7 3A       		.uleb128 0x3a
 3231 00c8 0B       		.uleb128 0xb
 3232 00c9 3B       		.uleb128 0x3b
ARM GAS  /tmp/ccyxuBjM.s 			page 58


 3233 00ca 0B       		.uleb128 0xb
 3234 00cb 49       		.uleb128 0x49
 3235 00cc 13       		.uleb128 0x13
 3236 00cd 00       		.byte	0
 3237 00ce 00       		.byte	0
 3238 00cf 12       		.uleb128 0x12
 3239 00d0 26       		.uleb128 0x26
 3240 00d1 00       		.byte	0
 3241 00d2 49       		.uleb128 0x49
 3242 00d3 13       		.uleb128 0x13
 3243 00d4 00       		.byte	0
 3244 00d5 00       		.byte	0
 3245 00d6 13       		.uleb128 0x13
 3246 00d7 15       		.uleb128 0x15
 3247 00d8 00       		.byte	0
 3248 00d9 27       		.uleb128 0x27
 3249 00da 19       		.uleb128 0x19
 3250 00db 00       		.byte	0
 3251 00dc 00       		.byte	0
 3252 00dd 14       		.uleb128 0x14
 3253 00de 2E       		.uleb128 0x2e
 3254 00df 01       		.byte	0x1
 3255 00e0 03       		.uleb128 0x3
 3256 00e1 0E       		.uleb128 0xe
 3257 00e2 3A       		.uleb128 0x3a
 3258 00e3 0B       		.uleb128 0xb
 3259 00e4 3B       		.uleb128 0x3b
 3260 00e5 0B       		.uleb128 0xb
 3261 00e6 27       		.uleb128 0x27
 3262 00e7 19       		.uleb128 0x19
 3263 00e8 20       		.uleb128 0x20
 3264 00e9 0B       		.uleb128 0xb
 3265 00ea 01       		.uleb128 0x1
 3266 00eb 13       		.uleb128 0x13
 3267 00ec 00       		.byte	0
 3268 00ed 00       		.byte	0
 3269 00ee 15       		.uleb128 0x15
 3270 00ef 34       		.uleb128 0x34
 3271 00f0 00       		.byte	0
 3272 00f1 03       		.uleb128 0x3
 3273 00f2 08       		.uleb128 0x8
 3274 00f3 3A       		.uleb128 0x3a
 3275 00f4 0B       		.uleb128 0xb
 3276 00f5 3B       		.uleb128 0x3b
 3277 00f6 0B       		.uleb128 0xb
 3278 00f7 49       		.uleb128 0x49
 3279 00f8 13       		.uleb128 0x13
 3280 00f9 00       		.byte	0
 3281 00fa 00       		.byte	0
 3282 00fb 16       		.uleb128 0x16
 3283 00fc 34       		.uleb128 0x34
 3284 00fd 00       		.byte	0
 3285 00fe 03       		.uleb128 0x3
 3286 00ff 0E       		.uleb128 0xe
 3287 0100 3A       		.uleb128 0x3a
 3288 0101 0B       		.uleb128 0xb
 3289 0102 3B       		.uleb128 0x3b
ARM GAS  /tmp/ccyxuBjM.s 			page 59


 3290 0103 0B       		.uleb128 0xb
 3291 0104 49       		.uleb128 0x49
 3292 0105 13       		.uleb128 0x13
 3293 0106 00       		.byte	0
 3294 0107 00       		.byte	0
 3295 0108 17       		.uleb128 0x17
 3296 0109 2E       		.uleb128 0x2e
 3297 010a 00       		.byte	0
 3298 010b 03       		.uleb128 0x3
 3299 010c 0E       		.uleb128 0xe
 3300 010d 3A       		.uleb128 0x3a
 3301 010e 0B       		.uleb128 0xb
 3302 010f 3B       		.uleb128 0x3b
 3303 0110 0B       		.uleb128 0xb
 3304 0111 27       		.uleb128 0x27
 3305 0112 19       		.uleb128 0x19
 3306 0113 20       		.uleb128 0x20
 3307 0114 0B       		.uleb128 0xb
 3308 0115 00       		.byte	0
 3309 0116 00       		.byte	0
 3310 0117 18       		.uleb128 0x18
 3311 0118 2E       		.uleb128 0x2e
 3312 0119 01       		.byte	0x1
 3313 011a 03       		.uleb128 0x3
 3314 011b 0E       		.uleb128 0xe
 3315 011c 3A       		.uleb128 0x3a
 3316 011d 0B       		.uleb128 0xb
 3317 011e 3B       		.uleb128 0x3b
 3318 011f 0B       		.uleb128 0xb
 3319 0120 27       		.uleb128 0x27
 3320 0121 19       		.uleb128 0x19
 3321 0122 11       		.uleb128 0x11
 3322 0123 01       		.uleb128 0x1
 3323 0124 12       		.uleb128 0x12
 3324 0125 06       		.uleb128 0x6
 3325 0126 40       		.uleb128 0x40
 3326 0127 18       		.uleb128 0x18
 3327 0128 9742     		.uleb128 0x2117
 3328 012a 19       		.uleb128 0x19
 3329 012b 01       		.uleb128 0x1
 3330 012c 13       		.uleb128 0x13
 3331 012d 00       		.byte	0
 3332 012e 00       		.byte	0
 3333 012f 19       		.uleb128 0x19
 3334 0130 898201   		.uleb128 0x4109
 3335 0133 01       		.byte	0x1
 3336 0134 11       		.uleb128 0x11
 3337 0135 01       		.uleb128 0x1
 3338 0136 31       		.uleb128 0x31
 3339 0137 13       		.uleb128 0x13
 3340 0138 01       		.uleb128 0x1
 3341 0139 13       		.uleb128 0x13
 3342 013a 00       		.byte	0
 3343 013b 00       		.byte	0
 3344 013c 1A       		.uleb128 0x1a
 3345 013d 8A8201   		.uleb128 0x410a
 3346 0140 00       		.byte	0
ARM GAS  /tmp/ccyxuBjM.s 			page 60


 3347 0141 02       		.uleb128 0x2
 3348 0142 18       		.uleb128 0x18
 3349 0143 9142     		.uleb128 0x2111
 3350 0145 18       		.uleb128 0x18
 3351 0146 00       		.byte	0
 3352 0147 00       		.byte	0
 3353 0148 1B       		.uleb128 0x1b
 3354 0149 898201   		.uleb128 0x4109
 3355 014c 00       		.byte	0
 3356 014d 11       		.uleb128 0x11
 3357 014e 01       		.uleb128 0x1
 3358 014f 31       		.uleb128 0x31
 3359 0150 13       		.uleb128 0x13
 3360 0151 00       		.byte	0
 3361 0152 00       		.byte	0
 3362 0153 1C       		.uleb128 0x1c
 3363 0154 898201   		.uleb128 0x4109
 3364 0157 01       		.byte	0x1
 3365 0158 11       		.uleb128 0x11
 3366 0159 01       		.uleb128 0x1
 3367 015a 9542     		.uleb128 0x2115
 3368 015c 19       		.uleb128 0x19
 3369 015d 31       		.uleb128 0x31
 3370 015e 13       		.uleb128 0x13
 3371 015f 00       		.byte	0
 3372 0160 00       		.byte	0
 3373 0161 1D       		.uleb128 0x1d
 3374 0162 2E       		.uleb128 0x2e
 3375 0163 01       		.byte	0x1
 3376 0164 03       		.uleb128 0x3
 3377 0165 0E       		.uleb128 0xe
 3378 0166 3A       		.uleb128 0x3a
 3379 0167 0B       		.uleb128 0xb
 3380 0168 3B       		.uleb128 0x3b
 3381 0169 0B       		.uleb128 0xb
 3382 016a 27       		.uleb128 0x27
 3383 016b 19       		.uleb128 0x19
 3384 016c 49       		.uleb128 0x49
 3385 016d 13       		.uleb128 0x13
 3386 016e 11       		.uleb128 0x11
 3387 016f 01       		.uleb128 0x1
 3388 0170 12       		.uleb128 0x12
 3389 0171 06       		.uleb128 0x6
 3390 0172 40       		.uleb128 0x40
 3391 0173 18       		.uleb128 0x18
 3392 0174 9742     		.uleb128 0x2117
 3393 0176 19       		.uleb128 0x19
 3394 0177 01       		.uleb128 0x1
 3395 0178 13       		.uleb128 0x13
 3396 0179 00       		.byte	0
 3397 017a 00       		.byte	0
 3398 017b 1E       		.uleb128 0x1e
 3399 017c 05       		.uleb128 0x5
 3400 017d 00       		.byte	0
 3401 017e 03       		.uleb128 0x3
 3402 017f 08       		.uleb128 0x8
 3403 0180 3A       		.uleb128 0x3a
ARM GAS  /tmp/ccyxuBjM.s 			page 61


 3404 0181 0B       		.uleb128 0xb
 3405 0182 3B       		.uleb128 0x3b
 3406 0183 0B       		.uleb128 0xb
 3407 0184 49       		.uleb128 0x49
 3408 0185 13       		.uleb128 0x13
 3409 0186 02       		.uleb128 0x2
 3410 0187 17       		.uleb128 0x17
 3411 0188 00       		.byte	0
 3412 0189 00       		.byte	0
 3413 018a 1F       		.uleb128 0x1f
 3414 018b 898201   		.uleb128 0x4109
 3415 018e 01       		.byte	0x1
 3416 018f 11       		.uleb128 0x11
 3417 0190 01       		.uleb128 0x1
 3418 0191 31       		.uleb128 0x31
 3419 0192 13       		.uleb128 0x13
 3420 0193 00       		.byte	0
 3421 0194 00       		.byte	0
 3422 0195 20       		.uleb128 0x20
 3423 0196 34       		.uleb128 0x34
 3424 0197 00       		.byte	0
 3425 0198 03       		.uleb128 0x3
 3426 0199 0E       		.uleb128 0xe
 3427 019a 3A       		.uleb128 0x3a
 3428 019b 0B       		.uleb128 0xb
 3429 019c 3B       		.uleb128 0x3b
 3430 019d 0B       		.uleb128 0xb
 3431 019e 49       		.uleb128 0x49
 3432 019f 13       		.uleb128 0x13
 3433 01a0 02       		.uleb128 0x2
 3434 01a1 18       		.uleb128 0x18
 3435 01a2 00       		.byte	0
 3436 01a3 00       		.byte	0
 3437 01a4 21       		.uleb128 0x21
 3438 01a5 2E       		.uleb128 0x2e
 3439 01a6 01       		.byte	0x1
 3440 01a7 31       		.uleb128 0x31
 3441 01a8 13       		.uleb128 0x13
 3442 01a9 11       		.uleb128 0x11
 3443 01aa 01       		.uleb128 0x1
 3444 01ab 12       		.uleb128 0x12
 3445 01ac 06       		.uleb128 0x6
 3446 01ad 40       		.uleb128 0x40
 3447 01ae 18       		.uleb128 0x18
 3448 01af 9742     		.uleb128 0x2117
 3449 01b1 19       		.uleb128 0x19
 3450 01b2 01       		.uleb128 0x1
 3451 01b3 13       		.uleb128 0x13
 3452 01b4 00       		.byte	0
 3453 01b5 00       		.byte	0
 3454 01b6 22       		.uleb128 0x22
 3455 01b7 34       		.uleb128 0x34
 3456 01b8 00       		.byte	0
 3457 01b9 31       		.uleb128 0x31
 3458 01ba 13       		.uleb128 0x13
 3459 01bb 00       		.byte	0
 3460 01bc 00       		.byte	0
ARM GAS  /tmp/ccyxuBjM.s 			page 62


 3461 01bd 23       		.uleb128 0x23
 3462 01be 34       		.uleb128 0x34
 3463 01bf 00       		.byte	0
 3464 01c0 31       		.uleb128 0x31
 3465 01c1 13       		.uleb128 0x13
 3466 01c2 02       		.uleb128 0x2
 3467 01c3 17       		.uleb128 0x17
 3468 01c4 00       		.byte	0
 3469 01c5 00       		.byte	0
 3470 01c6 24       		.uleb128 0x24
 3471 01c7 0B       		.uleb128 0xb
 3472 01c8 01       		.byte	0x1
 3473 01c9 55       		.uleb128 0x55
 3474 01ca 17       		.uleb128 0x17
 3475 01cb 01       		.uleb128 0x1
 3476 01cc 13       		.uleb128 0x13
 3477 01cd 00       		.byte	0
 3478 01ce 00       		.byte	0
 3479 01cf 25       		.uleb128 0x25
 3480 01d0 34       		.uleb128 0x34
 3481 01d1 00       		.byte	0
 3482 01d2 03       		.uleb128 0x3
 3483 01d3 0E       		.uleb128 0xe
 3484 01d4 3A       		.uleb128 0x3a
 3485 01d5 0B       		.uleb128 0xb
 3486 01d6 3B       		.uleb128 0x3b
 3487 01d7 0B       		.uleb128 0xb
 3488 01d8 49       		.uleb128 0x49
 3489 01d9 13       		.uleb128 0x13
 3490 01da 3F       		.uleb128 0x3f
 3491 01db 19       		.uleb128 0x19
 3492 01dc 3C       		.uleb128 0x3c
 3493 01dd 19       		.uleb128 0x19
 3494 01de 00       		.byte	0
 3495 01df 00       		.byte	0
 3496 01e0 26       		.uleb128 0x26
 3497 01e1 01       		.uleb128 0x1
 3498 01e2 01       		.byte	0x1
 3499 01e3 49       		.uleb128 0x49
 3500 01e4 13       		.uleb128 0x13
 3501 01e5 01       		.uleb128 0x1
 3502 01e6 13       		.uleb128 0x13
 3503 01e7 00       		.byte	0
 3504 01e8 00       		.byte	0
 3505 01e9 27       		.uleb128 0x27
 3506 01ea 21       		.uleb128 0x21
 3507 01eb 00       		.byte	0
 3508 01ec 49       		.uleb128 0x49
 3509 01ed 13       		.uleb128 0x13
 3510 01ee 2F       		.uleb128 0x2f
 3511 01ef 0B       		.uleb128 0xb
 3512 01f0 00       		.byte	0
 3513 01f1 00       		.byte	0
 3514 01f2 28       		.uleb128 0x28
 3515 01f3 21       		.uleb128 0x21
 3516 01f4 00       		.byte	0
 3517 01f5 00       		.byte	0
ARM GAS  /tmp/ccyxuBjM.s 			page 63


 3518 01f6 00       		.byte	0
 3519 01f7 29       		.uleb128 0x29
 3520 01f8 34       		.uleb128 0x34
 3521 01f9 00       		.byte	0
 3522 01fa 03       		.uleb128 0x3
 3523 01fb 08       		.uleb128 0x8
 3524 01fc 3A       		.uleb128 0x3a
 3525 01fd 0B       		.uleb128 0xb
 3526 01fe 3B       		.uleb128 0x3b
 3527 01ff 0B       		.uleb128 0xb
 3528 0200 49       		.uleb128 0x49
 3529 0201 13       		.uleb128 0x13
 3530 0202 3F       		.uleb128 0x3f
 3531 0203 19       		.uleb128 0x19
 3532 0204 3C       		.uleb128 0x3c
 3533 0205 19       		.uleb128 0x19
 3534 0206 00       		.byte	0
 3535 0207 00       		.byte	0
 3536 0208 2A       		.uleb128 0x2a
 3537 0209 34       		.uleb128 0x34
 3538 020a 00       		.byte	0
 3539 020b 03       		.uleb128 0x3
 3540 020c 0E       		.uleb128 0xe
 3541 020d 3A       		.uleb128 0x3a
 3542 020e 0B       		.uleb128 0xb
 3543 020f 3B       		.uleb128 0x3b
 3544 0210 0B       		.uleb128 0xb
 3545 0211 49       		.uleb128 0x49
 3546 0212 13       		.uleb128 0x13
 3547 0213 3F       		.uleb128 0x3f
 3548 0214 19       		.uleb128 0x19
 3549 0215 02       		.uleb128 0x2
 3550 0216 18       		.uleb128 0x18
 3551 0217 00       		.byte	0
 3552 0218 00       		.byte	0
 3553 0219 2B       		.uleb128 0x2b
 3554 021a 34       		.uleb128 0x34
 3555 021b 00       		.byte	0
 3556 021c 03       		.uleb128 0x3
 3557 021d 0E       		.uleb128 0xe
 3558 021e 3A       		.uleb128 0x3a
 3559 021f 0B       		.uleb128 0xb
 3560 0220 3B       		.uleb128 0x3b
 3561 0221 05       		.uleb128 0x5
 3562 0222 49       		.uleb128 0x49
 3563 0223 13       		.uleb128 0x13
 3564 0224 3F       		.uleb128 0x3f
 3565 0225 19       		.uleb128 0x19
 3566 0226 02       		.uleb128 0x2
 3567 0227 18       		.uleb128 0x18
 3568 0228 00       		.byte	0
 3569 0229 00       		.byte	0
 3570 022a 2C       		.uleb128 0x2c
 3571 022b 2E       		.uleb128 0x2e
 3572 022c 00       		.byte	0
 3573 022d 3F       		.uleb128 0x3f
 3574 022e 19       		.uleb128 0x19
ARM GAS  /tmp/ccyxuBjM.s 			page 64


 3575 022f 3C       		.uleb128 0x3c
 3576 0230 19       		.uleb128 0x19
 3577 0231 6E       		.uleb128 0x6e
 3578 0232 0E       		.uleb128 0xe
 3579 0233 03       		.uleb128 0x3
 3580 0234 0E       		.uleb128 0xe
 3581 0235 3A       		.uleb128 0x3a
 3582 0236 0B       		.uleb128 0xb
 3583 0237 3B       		.uleb128 0x3b
 3584 0238 05       		.uleb128 0x5
 3585 0239 00       		.byte	0
 3586 023a 00       		.byte	0
 3587 023b 2D       		.uleb128 0x2d
 3588 023c 2E       		.uleb128 0x2e
 3589 023d 00       		.byte	0
 3590 023e 3F       		.uleb128 0x3f
 3591 023f 19       		.uleb128 0x19
 3592 0240 3C       		.uleb128 0x3c
 3593 0241 19       		.uleb128 0x19
 3594 0242 6E       		.uleb128 0x6e
 3595 0243 0E       		.uleb128 0xe
 3596 0244 03       		.uleb128 0x3
 3597 0245 0E       		.uleb128 0xe
 3598 0246 3A       		.uleb128 0x3a
 3599 0247 0B       		.uleb128 0xb
 3600 0248 3B       		.uleb128 0x3b
 3601 0249 0B       		.uleb128 0xb
 3602 024a 00       		.byte	0
 3603 024b 00       		.byte	0
 3604 024c 00       		.byte	0
 3605              		.section	.debug_loc,"",%progbits
 3606              	.Ldebug_loc0:
 3607              	.LLST0:
 3608 0000 00000000 		.4byte	.LVL19
 3609 0004 06000000 		.4byte	.LVL20
 3610 0008 0100     		.2byte	0x1
 3611 000a 50       		.byte	0x50
 3612 000b 06000000 		.4byte	.LVL20
 3613 000f 18000000 		.4byte	.LFE7
 3614 0013 0400     		.2byte	0x4
 3615 0015 F3       		.byte	0xf3
 3616 0016 01       		.uleb128 0x1
 3617 0017 50       		.byte	0x50
 3618 0018 9F       		.byte	0x9f
 3619 0019 00000000 		.4byte	0
 3620 001d 00000000 		.4byte	0
 3621              	.LLST1:
 3622 0021 00000000 		.4byte	.LVL23
 3623 0025 06000000 		.4byte	.LVL24
 3624 0029 0100     		.2byte	0x1
 3625 002b 50       		.byte	0x50
 3626 002c 06000000 		.4byte	.LVL24
 3627 0030 14000000 		.4byte	.LVL27
 3628 0034 0100     		.2byte	0x1
 3629 0036 54       		.byte	0x54
 3630 0037 14000000 		.4byte	.LVL27
 3631 003b 18000000 		.4byte	.LFE1
ARM GAS  /tmp/ccyxuBjM.s 			page 65


 3632 003f 0400     		.2byte	0x4
 3633 0041 F3       		.byte	0xf3
 3634 0042 01       		.uleb128 0x1
 3635 0043 50       		.byte	0x50
 3636 0044 9F       		.byte	0x9f
 3637 0045 00000000 		.4byte	0
 3638 0049 00000000 		.4byte	0
 3639              	.LLST2:
 3640 004d 00000000 		.4byte	.LVL29
 3641 0051 04000000 		.4byte	.LVL30
 3642 0055 0100     		.2byte	0x1
 3643 0057 50       		.byte	0x50
 3644 0058 04000000 		.4byte	.LVL30
 3645 005c 2C000000 		.4byte	.LFE4
 3646 0060 0400     		.2byte	0x4
 3647 0062 F3       		.byte	0xf3
 3648 0063 01       		.uleb128 0x1
 3649 0064 50       		.byte	0x50
 3650 0065 9F       		.byte	0x9f
 3651 0066 00000000 		.4byte	0
 3652 006a 00000000 		.4byte	0
 3653              	.LLST3:
 3654 006e 00000000 		.4byte	.LVL36
 3655 0072 0B000000 		.4byte	.LVL37-1
 3656 0076 0100     		.2byte	0x1
 3657 0078 50       		.byte	0x50
 3658 0079 0B000000 		.4byte	.LVL37-1
 3659 007d 2A000000 		.4byte	.LFE9
 3660 0081 0100     		.2byte	0x1
 3661 0083 54       		.byte	0x54
 3662 0084 00000000 		.4byte	0
 3663 0088 00000000 		.4byte	0
 3664              	.LLST4:
 3665 008c 0E000000 		.4byte	.LVL60
 3666 0090 1A000000 		.4byte	.LVL61
 3667 0094 0100     		.2byte	0x1
 3668 0096 50       		.byte	0x50
 3669 0097 00000000 		.4byte	0
 3670 009b 00000000 		.4byte	0
 3671              	.LLST5:
 3672 009f B6000000 		.4byte	.LVL73
 3673 00a3 B8000000 		.4byte	.LVL74
 3674 00a7 0200     		.2byte	0x2
 3675 00a9 30       		.byte	0x30
 3676 00aa 9F       		.byte	0x9f
 3677 00ab 00000000 		.4byte	0
 3678 00af 00000000 		.4byte	0
 3679              	.LLST6:
 3680 00b3 B6000000 		.4byte	.LVL73
 3681 00b7 26010000 		.4byte	.LVL82
 3682 00bb 0400     		.2byte	0x4
 3683 00bd 76       		.byte	0x76
 3684 00be C413     		.sleb128 2500
 3685 00c0 9F       		.byte	0x9f
 3686 00c1 26010000 		.4byte	.LVL82
 3687 00c5 29010000 		.4byte	.LVL83-1
 3688 00c9 0100     		.2byte	0x1
ARM GAS  /tmp/ccyxuBjM.s 			page 66


 3689 00cb 51       		.byte	0x51
 3690 00cc 00000000 		.4byte	0
 3691 00d0 00000000 		.4byte	0
 3692              	.LLST7:
 3693 00d4 74000000 		.4byte	.LVL67
 3694 00d8 77000000 		.4byte	.LVL68-1
 3695 00dc 0100     		.2byte	0x1
 3696 00de 50       		.byte	0x50
 3697 00df 77000000 		.4byte	.LVL68-1
 3698 00e3 B8000000 		.4byte	.LVL74
 3699 00e7 0100     		.2byte	0x1
 3700 00e9 55       		.byte	0x55
 3701 00ea C8000000 		.4byte	.LVL76
 3702 00ee D4000000 		.4byte	.LVL77
 3703 00f2 0100     		.2byte	0x1
 3704 00f4 50       		.byte	0x50
 3705 00f5 00000000 		.4byte	0
 3706 00f9 00000000 		.4byte	0
 3707              		.section	.debug_aranges,"",%progbits
 3708 0000 5C000000 		.4byte	0x5c
 3709 0004 0200     		.2byte	0x2
 3710 0006 00000000 		.4byte	.Ldebug_info0
 3711 000a 04       		.byte	0x4
 3712 000b 00       		.byte	0
 3713 000c 0000     		.2byte	0
 3714 000e 0000     		.2byte	0
 3715 0010 00000000 		.4byte	.LFB2
 3716 0014 44010000 		.4byte	.LFE2-.LFB2
 3717 0018 00000000 		.4byte	.LFB7
 3718 001c 18000000 		.4byte	.LFE7-.LFB7
 3719 0020 00000000 		.4byte	.LFB1
 3720 0024 18000000 		.4byte	.LFE1-.LFB1
 3721 0028 00000000 		.4byte	.LFB6
 3722 002c 0C000000 		.4byte	.LFE6-.LFB6
 3723 0030 00000000 		.4byte	.LFB4
 3724 0034 2C000000 		.4byte	.LFE4-.LFB4
 3725 0038 00000000 		.4byte	.LFB9
 3726 003c 2A000000 		.4byte	.LFE9-.LFB9
 3727 0040 00000000 		.4byte	.LFB10
 3728 0044 0C010000 		.4byte	.LFE10-.LFB10
 3729 0048 00000000 		.4byte	.LFB5
 3730 004c 48010000 		.4byte	.LFE5-.LFB5
 3731 0050 00000000 		.4byte	.LFB8
 3732 0054 98000000 		.4byte	.LFE8-.LFB8
 3733 0058 00000000 		.4byte	0
 3734 005c 00000000 		.4byte	0
 3735              		.section	.debug_ranges,"",%progbits
 3736              	.Ldebug_ranges0:
 3737 0000 4A000000 		.4byte	.LBB5
 3738 0004 20010000 		.4byte	.LBE5
 3739 0008 26010000 		.4byte	.LBB6
 3740 000c 48010000 		.4byte	.LBE6
 3741 0010 00000000 		.4byte	0
 3742 0014 00000000 		.4byte	0
 3743 0018 00000000 		.4byte	.LFB2
 3744 001c 44010000 		.4byte	.LFE2
 3745 0020 00000000 		.4byte	.LFB7
ARM GAS  /tmp/ccyxuBjM.s 			page 67


 3746 0024 18000000 		.4byte	.LFE7
 3747 0028 00000000 		.4byte	.LFB1
 3748 002c 18000000 		.4byte	.LFE1
 3749 0030 00000000 		.4byte	.LFB6
 3750 0034 0C000000 		.4byte	.LFE6
 3751 0038 00000000 		.4byte	.LFB4
 3752 003c 2C000000 		.4byte	.LFE4
 3753 0040 00000000 		.4byte	.LFB9
 3754 0044 2A000000 		.4byte	.LFE9
 3755 0048 00000000 		.4byte	.LFB10
 3756 004c 0C010000 		.4byte	.LFE10
 3757 0050 00000000 		.4byte	.LFB5
 3758 0054 48010000 		.4byte	.LFE5
 3759 0058 00000000 		.4byte	.LFB8
 3760 005c 98000000 		.4byte	.LFE8
 3761 0060 00000000 		.4byte	0
 3762 0064 00000000 		.4byte	0
 3763              		.section	.debug_line,"",%progbits
 3764              	.Ldebug_line0:
 3765 0000 6B030000 		.section	.debug_str,"MS",%progbits,1
 3765      02002702 
 3765      00000201 
 3765      FB0E0D00 
 3765      01010101 
 3766              	.LASF40:
 3767 0000 705F6D73 		.ascii	"p_msg\000"
 3767      6700
 3768              	.LASF117:
 3769 0006 63685365 		.ascii	"chSemSignalI\000"
 3769      6D536967 
 3769      6E616C49 
 3769      00
 3770              	.LASF56:
 3771 0013 76745F66 		.ascii	"vt_func\000"
 3771      756E6300 
 3772              	.LASF89:
 3773 001b 73656D31 		.ascii	"sem1_execute\000"
 3773      5F657865 
 3773      63757465 
 3773      00
 3774              	.LASF17:
 3775 0028 75696E74 		.ascii	"uint64_t\000"
 3775      36345F74 
 3775      00
 3776              	.LASF7:
 3777 0031 5F5F7569 		.ascii	"__uint8_t\000"
 3777      6E74385F 
 3777      7400
 3778              	.LASF96:
 3779 003b 76746C69 		.ascii	"vtlist\000"
 3779      737400
 3780              	.LASF13:
 3781 0042 6C6F6E67 		.ascii	"long long unsigned int\000"
 3781      206C6F6E 
 3781      6720756E 
 3781      7369676E 
 3781      65642069 
ARM GAS  /tmp/ccyxuBjM.s 			page 68


 3782              	.LASF77:
 3783 0059 65786974 		.ascii	"exitcode\000"
 3783      636F6465 
 3783      00
 3784              	.LASF109:
 3785 0062 63685365 		.ascii	"chSemAddCounterI\000"
 3785      6D416464 
 3785      436F756E 
 3785      74657249 
 3785      00
 3786              	.LASF29:
 3787 0073 705F7072 		.ascii	"p_prio\000"
 3787      696F00
 3788              	.LASF1:
 3789 007a 6C6F6E67 		.ascii	"long long int\000"
 3789      206C6F6E 
 3789      6720696E 
 3789      7400
 3790              	.LASF3:
 3791 0088 7369676E 		.ascii	"signed char\000"
 3791      65642063 
 3791      68617200 
 3792              	.LASF122:
 3793 0094 63685365 		.ascii	"chSemSignalWait\000"
 3793      6D536967 
 3793      6E616C57 
 3793      61697400 
 3794              	.LASF73:
 3795 00a4 6D5F7175 		.ascii	"m_queue\000"
 3795      65756500 
 3796              	.LASF87:
 3797 00ac 74687265 		.ascii	"thread3\000"
 3797      61643300 
 3798              	.LASF114:
 3799 00b4 74657374 		.ascii	"test_emit_token\000"
 3799      5F656D69 
 3799      745F746F 
 3799      6B656E00 
 3800              	.LASF126:
 3801 00c4 73656D32 		.ascii	"sem2_execute\000"
 3801      5F657865 
 3801      63757465 
 3801      00
 3802              	.LASF9:
 3803 00d1 6C6F6E67 		.ascii	"long int\000"
 3803      20696E74 
 3803      00
 3804              	.LASF86:
 3805 00da 74617267 		.ascii	"target_time\000"
 3805      65745F74 
 3805      696D6500 
 3806              	.LASF20:
 3807 00e6 74737461 		.ascii	"tstate_t\000"
 3807      74655F74 
 3807      00
 3808              	.LASF121:
 3809 00ef 5F746573 		.ascii	"_test_assert_time_window\000"
ARM GAS  /tmp/ccyxuBjM.s 			page 69


 3809      745F6173 
 3809      73657274 
 3809      5F74696D 
 3809      655F7769 
 3810              	.LASF105:
 3811 0108 63685365 		.ascii	"chSemSignal\000"
 3811      6D536967 
 3811      6E616C00 
 3812              	.LASF31:
 3813 0114 705F6E65 		.ascii	"p_newer\000"
 3813      77657200 
 3814              	.LASF68:
 3815 011c 735F7175 		.ascii	"s_queue\000"
 3815      65756500 
 3816              	.LASF110:
 3817 0124 63685363 		.ascii	"chSchRescheduleS\000"
 3817      68526573 
 3817      63686564 
 3817      756C6553 
 3817      00
 3818              	.LASF10:
 3819 0135 5F5F7569 		.ascii	"__uint32_t\000"
 3819      6E743332 
 3819      5F7400
 3820              	.LASF46:
 3821 0140 72656761 		.ascii	"regarm_t\000"
 3821      726D5F74 
 3821      00
 3822              	.LASF54:
 3823 0149 76745F70 		.ascii	"vt_prev\000"
 3823      72657600 
 3824              	.LASF95:
 3825 0151 73656D31 		.ascii	"sem1\000"
 3825      00
 3826              	.LASF25:
 3827 0156 636E745F 		.ascii	"cnt_t\000"
 3827      7400
 3828              	.LASF34:
 3829 015c 705F7374 		.ascii	"p_stklimit\000"
 3829      6B6C696D 
 3829      697400
 3830              	.LASF0:
 3831 0167 756E7369 		.ascii	"unsigned int\000"
 3831      676E6564 
 3831      20696E74 
 3831      00
 3832              	.LASF119:
 3833 0174 63685365 		.ascii	"chSemWaitTimeout\000"
 3833      6D576169 
 3833      7454696D 
 3833      656F7574 
 3833      00
 3834              	.LASF53:
 3835 0185 76745F6E 		.ascii	"vt_next\000"
 3835      65787400 
 3836              	.LASF127:
 3837 018d 73656D33 		.ascii	"sem3_execute\000"
ARM GAS  /tmp/ccyxuBjM.s 			page 70


 3837      5F657865 
 3837      63757465 
 3837      00
 3838              	.LASF99:
 3839 019a 74657374 		.ascii	"testsem1\000"
 3839      73656D31 
 3839      00
 3840              	.LASF100:
 3841 01a3 74657374 		.ascii	"testsem2\000"
 3841      73656D32 
 3841      00
 3842              	.LASF101:
 3843 01ac 74657374 		.ascii	"testsem3\000"
 3843      73656D33 
 3843      00
 3844              	.LASF102:
 3845 01b5 74657374 		.ascii	"testsem4\000"
 3845      73656D34 
 3845      00
 3846              	.LASF11:
 3847 01be 6C6F6E67 		.ascii	"long unsigned int\000"
 3847      20756E73 
 3847      69676E65 
 3847      6420696E 
 3847      7400
 3848              	.LASF84:
 3849 01d0 74656172 		.ascii	"teardown\000"
 3849      646F776E 
 3849      00
 3850              	.LASF51:
 3851 01d9 76746675 		.ascii	"vtfunc_t\000"
 3851      6E635F74 
 3851      00
 3852              	.LASF69:
 3853 01e2 735F636E 		.ascii	"s_cnt\000"
 3853      7400
 3854              	.LASF82:
 3855 01e8 6E616D65 		.ascii	"name\000"
 3855      00
 3856              	.LASF49:
 3857 01ed 636F6E74 		.ascii	"context\000"
 3857      65787400 
 3858              	.LASF6:
 3859 01f5 73686F72 		.ascii	"short unsigned int\000"
 3859      7420756E 
 3859      7369676E 
 3859      65642069 
 3859      6E7400
 3860              	.LASF118:
 3861 0208 63685365 		.ascii	"chSemReset\000"
 3861      6D526573 
 3861      657400
 3862              	.LASF94:
 3863 0213 6273656D 		.ascii	"bsem\000"
 3863      00
 3864              	.LASF22:
 3865 0218 6D73675F 		.ascii	"msg_t\000"
ARM GAS  /tmp/ccyxuBjM.s 			page 71


 3865      7400
 3866              	.LASF63:
 3867 021e 725F6E65 		.ascii	"r_newer\000"
 3867      77657200 
 3868              	.LASF19:
 3869 0226 746D6F64 		.ascii	"tmode_t\000"
 3869      655F7400 
 3870              	.LASF45:
 3871 022e 54687265 		.ascii	"ThreadsList\000"
 3871      6164734C 
 3871      69737400 
 3872              	.LASF23:
 3873 023a 6576656E 		.ascii	"eventmask_t\000"
 3873      746D6173 
 3873      6B5F7400 
 3874              	.LASF72:
 3875 0246 4D757465 		.ascii	"Mutex\000"
 3875      7800
 3876              	.LASF47:
 3877 024c 73746B61 		.ascii	"stkalign_t\000"
 3877      6C69676E 
 3877      5F7400
 3878              	.LASF104:
 3879 0257 63685468 		.ascii	"chThdCreateStatic\000"
 3879      64437265 
 3879      61746553 
 3879      74617469 
 3879      6300
 3880              	.LASF93:
 3881 0269 73656D34 		.ascii	"sem4_execute\000"
 3881      5F657865 
 3881      63757465 
 3881      00
 3882              	.LASF55:
 3883 0276 76745F74 		.ascii	"vt_time\000"
 3883      696D6500 
 3884              	.LASF50:
 3885 027e 73697A65 		.ascii	"sizetype\000"
 3885      74797065 
 3885      00
 3886              	.LASF2:
 3887 0287 6C6F6E67 		.ascii	"long double\000"
 3887      20646F75 
 3887      626C6500 
 3888              	.LASF108:
 3889 0293 6462675F 		.ascii	"dbg_check_lock\000"
 3889      63686563 
 3889      6B5F6C6F 
 3889      636B00
 3890              	.LASF106:
 3891 02a2 74657374 		.ascii	"test_wait_threads\000"
 3891      5F776169 
 3891      745F7468 
 3891      72656164 
 3891      7300
 3892              	.LASF32:
 3893 02b4 705F6F6C 		.ascii	"p_older\000"
ARM GAS  /tmp/ccyxuBjM.s 			page 72


 3893      64657200 
 3894              	.LASF88:
 3895 02bc 74687265 		.ascii	"thread1\000"
 3895      61643100 
 3896              	.LASF91:
 3897 02c4 74687265 		.ascii	"thread2\000"
 3897      61643200 
 3898              	.LASF62:
 3899 02cc 725F6374 		.ascii	"r_ctx\000"
 3899      7800
 3900              	.LASF92:
 3901 02d2 74687265 		.ascii	"thread4\000"
 3901      61643400 
 3902              	.LASF44:
 3903 02da 54687265 		.ascii	"ThreadsQueue\000"
 3903      61647351 
 3903      75657565 
 3903      00
 3904              	.LASF83:
 3905 02e7 73657475 		.ascii	"setup\000"
 3905      7000
 3906              	.LASF107:
 3907 02ed 5F746573 		.ascii	"_test_assert_sequence\000"
 3907      745F6173 
 3907      73657274 
 3907      5F736571 
 3907      75656E63 
 3908              	.LASF65:
 3909 0303 725F6375 		.ascii	"r_current\000"
 3909      7272656E 
 3909      7400
 3910              	.LASF64:
 3911 030d 725F6F6C 		.ascii	"r_older\000"
 3911      64657200 
 3912              	.LASF111:
 3913 0315 6462675F 		.ascii	"dbg_check_unlock\000"
 3913      63686563 
 3913      6B5F756E 
 3913      6C6F636B 
 3913      00
 3914              	.LASF103:
 3915 0326 70617474 		.ascii	"patternsem\000"
 3915      65726E73 
 3915      656D00
 3916              	.LASF12:
 3917 0331 5F5F7569 		.ascii	"__uint64_t\000"
 3917      6E743634 
 3917      5F7400
 3918              	.LASF28:
 3919 033c 705F7072 		.ascii	"p_prev\000"
 3919      657600
 3920              	.LASF85:
 3921 0343 65786563 		.ascii	"execute\000"
 3921      75746500 
 3922              	.LASF21:
 3923 034b 74707269 		.ascii	"tprio_t\000"
 3923      6F5F7400 
ARM GAS  /tmp/ccyxuBjM.s 			page 73


 3924              	.LASF18:
 3925 0353 5F426F6F 		.ascii	"_Bool\000"
 3925      6C00
 3926              	.LASF15:
 3927 0359 696E7433 		.ascii	"int32_t\000"
 3927      325F7400 
 3928              	.LASF4:
 3929 0361 756E7369 		.ascii	"unsigned char\000"
 3929      676E6564 
 3929      20636861 
 3929      7200
 3930              	.LASF120:
 3931 036f 74657374 		.ascii	"test_wait_tick\000"
 3931      5F776169 
 3931      745F7469 
 3931      636B00
 3932              	.LASF42:
 3933 037e 705F6D74 		.ascii	"p_mtxlist\000"
 3933      786C6973 
 3933      7400
 3934              	.LASF5:
 3935 0388 73686F72 		.ascii	"short int\000"
 3935      7420696E 
 3935      7400
 3936              	.LASF35:
 3937 0392 705F7374 		.ascii	"p_state\000"
 3937      61746500 
 3938              	.LASF98:
 3939 039a 74687265 		.ascii	"threads\000"
 3939      61647300 
 3940              	.LASF61:
 3941 03a2 725F7072 		.ascii	"r_prio\000"
 3941      696F00
 3942              	.LASF79:
 3943 03a9 65776D61 		.ascii	"ewmask\000"
 3943      736B00
 3944              	.LASF27:
 3945 03b0 705F6E65 		.ascii	"p_next\000"
 3945      787400
 3946              	.LASF36:
 3947 03b7 705F666C 		.ascii	"p_flags\000"
 3947      61677300 
 3948              	.LASF26:
 3949 03bf 54687265 		.ascii	"Thread\000"
 3949      616400
 3950              	.LASF81:
 3951 03c6 74657374 		.ascii	"testcase\000"
 3951      63617365 
 3951      00
 3952              	.LASF41:
 3953 03cf 705F6570 		.ascii	"p_epending\000"
 3953      656E6469 
 3953      6E6700
 3954              	.LASF123:
 3955 03da 474E5520 		.ascii	"GNU C11 5.2.1 20151202 (release) [ARM/embedded-5-br"
 3955      43313120 
 3955      352E322E 
ARM GAS  /tmp/ccyxuBjM.s 			page 74


 3955      31203230 
 3955      31353132 
 3956 040d 616E6368 		.ascii	"anch revision 231848] -mcpu=cortex-m4 -mno-thumb-in"
 3956      20726576 
 3956      6973696F 
 3956      6E203233 
 3956      31383438 
 3957 0440 74657277 		.ascii	"terwork -mthumb -ggdb -O2 -fomit-frame-pointer -fal"
 3957      6F726B20 
 3957      2D6D7468 
 3957      756D6220 
 3957      2D676764 
 3958 0473 69676E2D 		.ascii	"ign-functions=16 -ffunction-sections -fdata-section"
 3958      66756E63 
 3958      74696F6E 
 3958      733D3136 
 3958      202D6666 
 3959 04a6 73202D66 		.ascii	"s -fno-common\000"
 3959      6E6F2D63 
 3959      6F6D6D6F 
 3959      6E00
 3960              	.LASF16:
 3961 04b4 75696E74 		.ascii	"uint32_t\000"
 3961      33325F74 
 3961      00
 3962              	.LASF60:
 3963 04bd 725F7175 		.ascii	"r_queue\000"
 3963      65756500 
 3964              	.LASF52:
 3965 04c5 56697274 		.ascii	"VirtualTimer\000"
 3965      75616C54 
 3965      696D6572 
 3965      00
 3966              	.LASF80:
 3967 04d2 63686172 		.ascii	"char\000"
 3967      00
 3968              	.LASF71:
 3969 04d7 42696E61 		.ascii	"BinarySemaphore\000"
 3969      72795365 
 3969      6D617068 
 3969      6F726500 
 3970              	.LASF125:
 3971 04e7 2F686F6D 		.ascii	"/home/z80/projects/stm32f238.git/firmware/testhal/S"
 3971      652F7A38 
 3971      302F7072 
 3971      6F6A6563 
 3971      74732F73 
 3972 051a 544D3332 		.ascii	"TM32F4xx/_serial\000"
 3972      46347878 
 3972      2F5F7365 
 3972      7269616C 
 3972      00
 3973              	.LASF75:
 3974 052b 6D5F6E65 		.ascii	"m_next\000"
 3974      787400
 3975              	.LASF24:
 3976 0532 73797374 		.ascii	"systime_t\000"
ARM GAS  /tmp/ccyxuBjM.s 			page 75


 3976      696D655F 
 3976      7400
 3977              	.LASF43:
 3978 053c 705F7265 		.ascii	"p_realprio\000"
 3978      616C7072 
 3978      696F00
 3979              	.LASF8:
 3980 0547 5F5F696E 		.ascii	"__int32_t\000"
 3980      7433325F 
 3980      7400
 3981              	.LASF113:
 3982 0551 63685365 		.ascii	"chSemWait\000"
 3982      6D576169 
 3982      7400
 3983              	.LASF124:
 3984 055b 2E2E2F2E 		.ascii	"../../../test/testsem.c\000"
 3984      2E2F2E2E 
 3984      2F746573 
 3984      742F7465 
 3984      73747365 
 3985              	.LASF37:
 3986 0573 705F7469 		.ascii	"p_time\000"
 3986      6D6500
 3987              	.LASF48:
 3988 057a 696E7463 		.ascii	"intctx\000"
 3988      747800
 3989              	.LASF39:
 3990 0581 705F6D73 		.ascii	"p_msgqueue\000"
 3990      67717565 
 3990      756500
 3991              	.LASF57:
 3992 058c 76745F70 		.ascii	"vt_par\000"
 3992      617200
 3993              	.LASF67:
 3994 0593 53656D61 		.ascii	"Semaphore\000"
 3994      70686F72 
 3994      6500
 3995              	.LASF90:
 3996 059d 73656D33 		.ascii	"sem3_setup\000"
 3996      5F736574 
 3996      757000
 3997              	.LASF116:
 3998 05a8 63685468 		.ascii	"chThdSleep\000"
 3998      64536C65 
 3998      657000
 3999              	.LASF76:
 4000 05b3 7264796D 		.ascii	"rdymsg\000"
 4000      736700
 4001              	.LASF66:
 4002 05ba 52656164 		.ascii	"ReadyList\000"
 4002      794C6973 
 4002      7400
 4003              	.LASF97:
 4004 05c4 726C6973 		.ascii	"rlist\000"
 4004      7400
 4005              	.LASF14:
 4006 05ca 75696E74 		.ascii	"uint8_t\000"
ARM GAS  /tmp/ccyxuBjM.s 			page 76


 4006      385F7400 
 4007              	.LASF78:
 4008 05d2 77746F62 		.ascii	"wtobjp\000"
 4008      6A7000
 4009              	.LASF33:
 4010 05d9 705F6E61 		.ascii	"p_name\000"
 4010      6D6500
 4011              	.LASF112:
 4012 05e0 5F746573 		.ascii	"_test_assert\000"
 4012      745F6173 
 4012      73657274 
 4012      00
 4013              	.LASF58:
 4014 05ed 76745F73 		.ascii	"vt_systime\000"
 4014      79737469 
 4014      6D6500
 4015              	.LASF70:
 4016 05f8 62735F73 		.ascii	"bs_sem\000"
 4016      656D00
 4017              	.LASF59:
 4018 05ff 56544C69 		.ascii	"VTList\000"
 4018      737400
 4019              	.LASF74:
 4020 0606 6D5F6F77 		.ascii	"m_owner\000"
 4020      6E657200 
 4021              	.LASF30:
 4022 060e 705F6374 		.ascii	"p_ctx\000"
 4022      7800
 4023              	.LASF38:
 4024 0614 705F7761 		.ascii	"p_waiting\000"
 4024      6974696E 
 4024      6700
 4025              	.LASF115:
 4026 061e 63685365 		.ascii	"chSemInit\000"
 4026      6D496E69 
 4026      7400
 4027              		.ident	"GCC: (GNU Tools for ARM Embedded Processors) 5.2.1 20151202 (release) [ARM/embedded-5-bran
ARM GAS  /tmp/ccyxuBjM.s 			page 77


DEFINED SYMBOLS
                            *ABS*:00000000 testsem.c
     /tmp/ccyxuBjM.s:20     .text.sem1_execute:00000000 $t
     /tmp/ccyxuBjM.s:25     .text.sem1_execute:00000000 sem1_execute
     /tmp/ccyxuBjM.s:225    .text.sem1_execute:00000118 $d
     /tmp/ccyxuBjM.s:282    .text.thread1:00000000 thread1
     /tmp/ccyxuBjM.s:240    .text.thread3:00000000 $t
     /tmp/ccyxuBjM.s:245    .text.thread3:00000000 thread3
     /tmp/ccyxuBjM.s:272    .text.thread3:00000014 $d
     /tmp/ccyxuBjM.s:277    .text.thread1:00000000 $t
     /tmp/ccyxuBjM.s:311    .text.thread1:00000014 $d
     /tmp/ccyxuBjM.s:316    .text.sem3_setup:00000000 $t
     /tmp/ccyxuBjM.s:321    .text.sem3_setup:00000000 sem3_setup
     /tmp/ccyxuBjM.s:336    .text.sem3_setup:00000008 $d
     /tmp/ccyxuBjM.s:341    .text.sem2_setup:00000000 $t
     /tmp/ccyxuBjM.s:346    .text.sem2_setup:00000000 sem2_setup
     /tmp/ccyxuBjM.s:357    .text.sem1_setup:00000000 $t
     /tmp/ccyxuBjM.s:362    .text.sem1_setup:00000000 sem1_setup
     /tmp/ccyxuBjM.s:373    .text.thread2:00000000 $t
     /tmp/ccyxuBjM.s:378    .text.thread2:00000000 thread2
     /tmp/ccyxuBjM.s:426    .text.thread2:00000028 $d
     /tmp/ccyxuBjM.s:431    .text.thread4:00000000 $t
     /tmp/ccyxuBjM.s:436    .text.thread4:00000000 thread4
     /tmp/ccyxuBjM.s:487    .text.sem4_execute:00000000 $t
     /tmp/ccyxuBjM.s:492    .text.sem4_execute:00000000 sem4_execute
     /tmp/ccyxuBjM.s:669    .text.sem4_execute:000000fc $d
     /tmp/ccyxuBjM.s:677    .text.sem2_execute:00000000 $t
     /tmp/ccyxuBjM.s:682    .text.sem2_execute:00000000 sem2_execute
     /tmp/ccyxuBjM.s:882    .text.sem2_execute:0000012c $d
     /tmp/ccyxuBjM.s:895    .text.sem3_execute:00000000 $t
     /tmp/ccyxuBjM.s:900    .text.sem3_execute:00000000 sem3_execute
     /tmp/ccyxuBjM.s:1005   .text.sem3_execute:00000084 $d
     /tmp/ccyxuBjM.s:1069   .rodata.patternsem:00000000 patternsem
     /tmp/ccyxuBjM.s:1051   .rodata.testsem4:00000000 testsem4
     /tmp/ccyxuBjM.s:1042   .rodata.testsem3:00000000 testsem3
     /tmp/ccyxuBjM.s:1033   .rodata.testsem2:00000000 testsem2
     /tmp/ccyxuBjM.s:1024   .rodata.testsem1:00000000 testsem1
     /tmp/ccyxuBjM.s:1021   .rodata.testsem1:00000000 $d
     /tmp/ccyxuBjM.s:1030   .rodata.testsem2:00000000 $d
     /tmp/ccyxuBjM.s:1039   .rodata.testsem3:00000000 $d
     /tmp/ccyxuBjM.s:1048   .rodata.testsem4:00000000 $d
     /tmp/ccyxuBjM.s:1057   .data.sem1:00000000 $d
     /tmp/ccyxuBjM.s:1061   .data.sem1:00000000 sem1
     /tmp/ccyxuBjM.s:1066   .rodata.patternsem:00000000 $d
     /tmp/ccyxuBjM.s:1076   .rodata.str1.4:00000000 $d
                     .debug_frame:00000010 $d

UNDEFINED SYMBOLS
chThdCreateStatic
chSemSignal
test_wait_threads
_test_assert_sequence
_port_lock
dbg_check_lock
chSemAddCounterI
chSchRescheduleS
dbg_check_unlock
ARM GAS  /tmp/ccyxuBjM.s 			page 78


_port_unlock
_test_assert
rlist
wa
threads
chSemWait
test_emit_token
chSemInit
chThdSleep
chSemSignalI
chSemReset
chSemWaitTimeout
test_wait_tick
_test_assert_time_window
vtlist
chSemSignalWait
