ARM GAS  /tmp/ccyxuBjM.s 			page 1


   1              		.syntax unified
   2              		.cpu cortex-m4
   3              		.fpu softvfp
   4              		.eabi_attribute 20, 1
   5              		.eabi_attribute 21, 1
   6              		.eabi_attribute 23, 3
   7              		.eabi_attribute 24, 1
   8              		.eabi_attribute 25, 1
   9              		.eabi_attribute 26, 1
  10              		.eabi_attribute 30, 2
  11              		.eabi_attribute 34, 1
  12              		.eabi_attribute 18, 4
  13              		.thumb
  14              		.syntax unified
  15              		.file	"testsem.c"
  16              		.text
  17              	.Ltext0:
  18              		.cfi_sections	.debug_frame
  19              		.section	.text.sem1_execute,"ax",%progbits
  20              		.align	2
  21              		.p2align 4,,15
  22              		.thumb
  23              		.thumb_func
  24              		.type	sem1_execute, %function
  25              	sem1_execute:
  26              	.LFB2:
  27              		.file 1 "../../../test/testsem.c"
  28              		.loc 1 84 0
  29              		.cfi_startproc
  30              		@ args = 0, pretend = 0, frame = 0
  31              		@ frame_needed = 0, uses_anonymous_args = 0
  32 0000 2DE9F043 		push	{r4, r5, r6, r7, r8, r9, lr}
  33              		.cfi_def_cfa_offset 28
  34              		.cfi_offset 4, -28
  35              		.cfi_offset 5, -24
  36              		.cfi_offset 6, -20
  37              		.cfi_offset 7, -16
  38              		.cfi_offset 8, -12
  39              		.cfi_offset 9, -8
  40              		.cfi_offset 14, -4
  41              		.loc 1 86 0
  42 0004 444E     		ldr	r6, .L6
  43 0006 454F     		ldr	r7, .L6+4
  44 0008 B369     		ldr	r3, [r6, #24]
  45 000a D7F80080 		ldr	r8, [r7]
  46 000e 9A68     		ldr	r2, [r3, #8]
  47 0010 DFF82C91 		ldr	r9, .L6+40
  48 0014 424B     		ldr	r3, .L6+8
  49 0016 434D     		ldr	r5, .L6+12
  50              		.loc 1 91 0
  51 0018 434C     		ldr	r4, .L6+16
  52              		.loc 1 84 0
  53 001a 83B0     		sub	sp, sp, #12
  54              		.cfi_def_cfa_offset 40
  55              		.loc 1 86 0
  56 001c 0532     		adds	r2, r2, #5
  57 001e 4FF4A871 		mov	r1, #336
ARM GAS  /tmp/ccyxuBjM.s 			page 2


  58 0022 CDF80090 		str	r9, [sp]
  59 0026 4046     		mov	r0, r8
  60 0028 FFF7FEFF 		bl	chThdCreateStatic
  61              	.LVL0:
  62              		.loc 1 87 0
  63 002c B369     		ldr	r3, [r6, #24]
  64 002e 7968     		ldr	r1, [r7, #4]
  65 0030 9A68     		ldr	r2, [r3, #8]
  66 0032 3E4B     		ldr	r3, .L6+20
  67              		.loc 1 86 0
  68 0034 2860     		str	r0, [r5]
  69              		.loc 1 87 0
  70 0036 0132     		adds	r2, r2, #1
  71 0038 0846     		mov	r0, r1
  72 003a 0093     		str	r3, [sp]
  73 003c 4FF4A871 		mov	r1, #336
  74 0040 374B     		ldr	r3, .L6+8
  75 0042 FFF7FEFF 		bl	chThdCreateStatic
  76              	.LVL1:
  77              		.loc 1 88 0
  78 0046 B369     		ldr	r3, [r6, #24]
  79 0048 B968     		ldr	r1, [r7, #8]
  80 004a 9A68     		ldr	r2, [r3, #8]
  81 004c 384B     		ldr	r3, .L6+24
  82              		.loc 1 87 0
  83 004e 6860     		str	r0, [r5, #4]
  84              		.loc 1 88 0
  85 0050 0332     		adds	r2, r2, #3
  86 0052 0846     		mov	r0, r1
  87 0054 0093     		str	r3, [sp]
  88 0056 4FF4A871 		mov	r1, #336
  89 005a 314B     		ldr	r3, .L6+8
  90 005c FFF7FEFF 		bl	chThdCreateStatic
  91              	.LVL2:
  92              		.loc 1 89 0
  93 0060 B369     		ldr	r3, [r6, #24]
  94 0062 F968     		ldr	r1, [r7, #12]
  95 0064 9A68     		ldr	r2, [r3, #8]
  96 0066 334B     		ldr	r3, .L6+28
  97              		.loc 1 88 0
  98 0068 A860     		str	r0, [r5, #8]
  99              		.loc 1 89 0
 100 006a 0432     		adds	r2, r2, #4
 101 006c 0846     		mov	r0, r1
 102 006e 0093     		str	r3, [sp]
 103 0070 4FF4A871 		mov	r1, #336
 104 0074 2A4B     		ldr	r3, .L6+8
 105 0076 FFF7FEFF 		bl	chThdCreateStatic
 106              	.LVL3:
 107              		.loc 1 90 0
 108 007a B369     		ldr	r3, [r6, #24]
 109 007c 3969     		ldr	r1, [r7, #16]
 110 007e 9A68     		ldr	r2, [r3, #8]
 111 0080 2D4B     		ldr	r3, .L6+32
 112              		.loc 1 89 0
 113 0082 E860     		str	r0, [r5, #12]
 114              		.loc 1 90 0
ARM GAS  /tmp/ccyxuBjM.s 			page 3


 115 0084 0232     		adds	r2, r2, #2
 116 0086 0846     		mov	r0, r1
 117 0088 0093     		str	r3, [sp]
 118 008a 4FF4A871 		mov	r1, #336
 119 008e 244B     		ldr	r3, .L6+8
 120 0090 FFF7FEFF 		bl	chThdCreateStatic
 121              	.LVL4:
 122 0094 2861     		str	r0, [r5, #16]
 123              		.loc 1 91 0
 124 0096 2046     		mov	r0, r4
 125 0098 FFF7FEFF 		bl	chSemSignal
 126              	.LVL5:
 127              		.loc 1 92 0
 128 009c 2046     		mov	r0, r4
 129 009e FFF7FEFF 		bl	chSemSignal
 130              	.LVL6:
 131              		.loc 1 93 0
 132 00a2 2046     		mov	r0, r4
 133 00a4 FFF7FEFF 		bl	chSemSignal
 134              	.LVL7:
 135              		.loc 1 94 0
 136 00a8 2046     		mov	r0, r4
 137 00aa FFF7FEFF 		bl	chSemSignal
 138              	.LVL8:
 139              		.loc 1 95 0
 140 00ae 2046     		mov	r0, r4
 141 00b0 FFF7FEFF 		bl	chSemSignal
 142              	.LVL9:
 143              		.loc 1 96 0
 144 00b4 FFF7FEFF 		bl	test_wait_threads
 145              	.LVL10:
 146              		.loc 1 100 0
 147 00b8 2049     		ldr	r1, .L6+36
 148 00ba 0120     		movs	r0, #1
 149 00bc FFF7FEFF 		bl	_test_assert_sequence
 150              	.LVL11:
 151 00c0 10B1     		cbz	r0, .L5
 152              		.loc 1 109 0
 153 00c2 03B0     		add	sp, sp, #12
 154              		.cfi_remember_state
 155              		.cfi_def_cfa_offset 28
 156              		@ sp needed
 157 00c4 BDE8F083 		pop	{r4, r5, r6, r7, r8, r9, pc}
 158              	.L5:
 159              		.cfi_restore_state
 160              		.loc 1 102 0
 161 00c8 B269     		ldr	r2, [r6, #24]
 162 00ca 154B     		ldr	r3, .L6+8
 163 00cc 9268     		ldr	r2, [r2, #8]
 164 00ce CDF80090 		str	r9, [sp]
 165 00d2 0532     		adds	r2, r2, #5
 166 00d4 4046     		mov	r0, r8
 167 00d6 4FF4A871 		mov	r1, #336
 168 00da FFF7FEFF 		bl	chThdCreateStatic
 169              	.LVL12:
 170 00de 2860     		str	r0, [r5]
 171              		.loc 1 103 0
ARM GAS  /tmp/ccyxuBjM.s 			page 4


 172              		.syntax unified
 173              	@ 103 "../../../test/testsem.c" 1
 174 00e0 FFF7FEFF 		bl      _port_lock
 175              	@ 0 "" 2
 176              		.thumb
 177              		.syntax unified
 178 00e4 FFF7FEFF 		bl	dbg_check_lock
 179              	.LVL13:
 180              		.loc 1 104 0
 181 00e8 2046     		mov	r0, r4
 182 00ea 0221     		movs	r1, #2
 183 00ec FFF7FEFF 		bl	chSemAddCounterI
 184              	.LVL14:
 185              		.loc 1 105 0
 186 00f0 FFF7FEFF 		bl	chSchRescheduleS
 187              	.LVL15:
 188              		.loc 1 106 0
 189 00f4 FFF7FEFF 		bl	dbg_check_unlock
 190              	.LVL16:
 191              		.syntax unified
 192              	@ 106 "../../../test/testsem.c" 1
 193 00f8 FFF7FEFF 		bl      _port_unlock
 194              	@ 0 "" 2
 195              		.loc 1 107 0
 196              		.thumb
 197              		.syntax unified
 198 00fc FFF7FEFF 		bl	test_wait_threads
 199              	.LVL17:
 200              		.loc 1 108 0
 201 0100 A168     		ldr	r1, [r4, #8]
 202 0102 A1F10101 		sub	r1, #1
 203 0106 B1FA81F1 		clz	r1, r1
 204 010a 0220     		movs	r0, #2
 205 010c 4909     		lsrs	r1, r1, #5
 206              		.loc 1 109 0
 207 010e 03B0     		add	sp, sp, #12
 208              		.cfi_def_cfa_offset 28
 209              		@ sp needed
 210 0110 BDE8F043 		pop	{r4, r5, r6, r7, r8, r9, lr}
 211              		.cfi_restore 14
 212              		.cfi_restore 9
 213              		.cfi_restore 8
 214              		.cfi_restore 7
 215              		.cfi_restore 6
 216              		.cfi_restore 5
 217              		.cfi_restore 4
 218              		.cfi_def_cfa_offset 0
 219              		.loc 1 108 0
 220 0114 FFF7FEBF 		b	_test_assert
 221              	.LVL18:
 222              	.L7:
 223              		.align	2
 224              	.L6:
 225 0118 00000000 		.word	rlist
 226 011c 00000000 		.word	wa
 227 0120 00000000 		.word	thread1
 228 0124 00000000 		.word	threads
ARM GAS  /tmp/ccyxuBjM.s 			page 5


 229 0128 00000000 		.word	.LANCHOR0
 230 012c 04000000 		.word	.LC1
 231 0130 08000000 		.word	.LC2
 232 0134 0C000000 		.word	.LC3
 233 0138 10000000 		.word	.LC4
 234 013c 14000000 		.word	.LC5
 235 0140 00000000 		.word	.LC0
 236              		.cfi_endproc
 237              	.LFE2:
 238              		.size	sem1_execute, .-sem1_execute
 239              		.section	.text.thread3,"ax",%progbits
 240              		.align	2
 241              		.p2align 4,,15
 242              		.thumb
 243              		.thumb_func
 244              		.type	thread3, %function
 245              	thread3:
 246              	.LFB7:
 247              		.loc 1 210 0
 248              		.cfi_startproc
 249              		@ args = 0, pretend = 0, frame = 0
 250              		@ frame_needed = 0, uses_anonymous_args = 0
 251              	.LVL19:
 252 0000 10B5     		push	{r4, lr}
 253              		.cfi_def_cfa_offset 8
 254              		.cfi_offset 4, -8
 255              		.cfi_offset 14, -4
 256              		.loc 1 213 0
 257 0002 044C     		ldr	r4, .L10
 258 0004 2046     		mov	r0, r4
 259              	.LVL20:
 260 0006 FFF7FEFF 		bl	chSemWait
 261              	.LVL21:
 262              		.loc 1 214 0
 263 000a 2046     		mov	r0, r4
 264 000c FFF7FEFF 		bl	chSemSignal
 265              	.LVL22:
 266              		.loc 1 216 0
 267 0010 0020     		movs	r0, #0
 268 0012 10BD     		pop	{r4, pc}
 269              	.L11:
 270              		.align	2
 271              	.L10:
 272 0014 00000000 		.word	.LANCHOR0
 273              		.cfi_endproc
 274              	.LFE7:
 275              		.size	thread3, .-thread3
 276              		.section	.text.thread1,"ax",%progbits
 277              		.align	2
 278              		.p2align 4,,15
 279              		.thumb
 280              		.thumb_func
 281              		.type	thread1, %function
 282              	thread1:
 283              	.LFB1:
 284              		.loc 1 77 0
 285              		.cfi_startproc
ARM GAS  /tmp/ccyxuBjM.s 			page 6


 286              		@ args = 0, pretend = 0, frame = 0
 287              		@ frame_needed = 0, uses_anonymous_args = 0
 288              	.LVL23:
 289 0000 10B5     		push	{r4, lr}
 290              		.cfi_def_cfa_offset 8
 291              		.cfi_offset 4, -8
 292              		.cfi_offset 14, -4
 293              		.loc 1 77 0
 294 0002 0446     		mov	r4, r0
 295              		.loc 1 79 0
 296 0004 0348     		ldr	r0, .L14
 297              	.LVL24:
 298 0006 FFF7FEFF 		bl	chSemWait
 299              	.LVL25:
 300              		.loc 1 80 0
 301 000a 2078     		ldrb	r0, [r4]	@ zero_extendqisi2
 302 000c FFF7FEFF 		bl	test_emit_token
 303              	.LVL26:
 304              		.loc 1 82 0
 305 0010 0020     		movs	r0, #0
 306 0012 10BD     		pop	{r4, pc}
 307              	.LVL27:
 308              	.L15:
 309              		.align	2
 310              	.L14:
 311 0014 00000000 		.word	.LANCHOR0
 312              		.cfi_endproc
 313              	.LFE1:
 314              		.size	thread1, .-thread1
 315              		.section	.text.sem3_setup,"ax",%progbits
 316              		.align	2
 317              		.p2align 4,,15
 318              		.thumb
 319              		.thumb_func
 320              		.type	sem3_setup, %function
 321              	sem3_setup:
 322              	.LFB6:
 323              		.loc 1 205 0
 324              		.cfi_startproc
 325              		@ args = 0, pretend = 0, frame = 0
 326              		@ frame_needed = 0, uses_anonymous_args = 0
 327              		@ link register save eliminated.
 328              		.loc 1 207 0
 329 0000 0021     		movs	r1, #0
 330 0002 0148     		ldr	r0, .L17
 331 0004 FFF7FEBF 		b	chSemInit
 332              	.LVL28:
 333              	.L18:
 334              		.align	2
 335              	.L17:
 336 0008 00000000 		.word	.LANCHOR0
 337              		.cfi_endproc
 338              	.LFE6:
 339              		.size	sem3_setup, .-sem3_setup
 340              		.section	.text.sem2_setup,"ax",%progbits
 341              		.align	2
 342              		.p2align 4,,15
ARM GAS  /tmp/ccyxuBjM.s 			page 7


 343              		.thumb
 344              		.thumb_func
 345              		.type	sem2_setup, %function
 346              	sem2_setup:
 347              	.LFB14:
 348              		.cfi_startproc
 349              		@ args = 0, pretend = 0, frame = 0
 350              		@ frame_needed = 0, uses_anonymous_args = 0
 351              		@ link register save eliminated.
 352 0000 FFF7FEBF 		b	sem3_setup
 353              		.cfi_endproc
 354              	.LFE14:
 355              		.size	sem2_setup, .-sem2_setup
 356              		.section	.text.sem1_setup,"ax",%progbits
 357              		.align	2
 358              		.p2align 4,,15
 359              		.thumb
 360              		.thumb_func
 361              		.type	sem1_setup, %function
 362              	sem1_setup:
 363              	.LFB16:
 364              		.cfi_startproc
 365              		@ args = 0, pretend = 0, frame = 0
 366              		@ frame_needed = 0, uses_anonymous_args = 0
 367              		@ link register save eliminated.
 368 0000 FFF7FEBF 		b	sem3_setup
 369              		.cfi_endproc
 370              	.LFE16:
 371              		.size	sem1_setup, .-sem1_setup
 372              		.section	.text.thread2,"ax",%progbits
 373              		.align	2
 374              		.p2align 4,,15
 375              		.thumb
 376              		.thumb_func
 377              		.type	thread2, %function
 378              	thread2:
 379              	.LFB4:
 380              		.loc 1 134 0
 381              		.cfi_startproc
 382              		@ args = 0, pretend = 0, frame = 0
 383              		@ frame_needed = 0, uses_anonymous_args = 0
 384              	.LVL29:
 385              		.loc 1 134 0
 386 0000 08B5     		push	{r3, lr}
 387              		.cfi_def_cfa_offset 8
 388              		.cfi_offset 3, -8
 389              		.cfi_offset 14, -4
 390              		.loc 1 137 0
 391 0002 3220     		movs	r0, #50
 392              	.LVL30:
 393 0004 FFF7FEFF 		bl	chThdSleep
 394              	.LVL31:
 395              		.loc 1 138 0
 396              		.syntax unified
 397              	@ 138 "../../../test/testsem.c" 1
 398 0008 FFF7FEFF 		bl      _port_lock
 399              	@ 0 "" 2
ARM GAS  /tmp/ccyxuBjM.s 			page 8


 400              		.thumb
 401              		.syntax unified
 402 000c FFF7FEFF 		bl	dbg_check_lock
 403              	.LVL32:
 404              		.loc 1 139 0
 405 0010 0548     		ldr	r0, .L23
 406 0012 FFF7FEFF 		bl	chSemSignalI
 407              	.LVL33:
 408              		.loc 1 140 0
 409 0016 FFF7FEFF 		bl	chSchRescheduleS
 410              	.LVL34:
 411              		.loc 1 141 0
 412 001a FFF7FEFF 		bl	dbg_check_unlock
 413              	.LVL35:
 414              		.syntax unified
 415              	@ 141 "../../../test/testsem.c" 1
 416 001e FFF7FEFF 		bl      _port_unlock
 417              	@ 0 "" 2
 418              		.loc 1 143 0
 419              		.thumb
 420              		.syntax unified
 421 0022 0020     		movs	r0, #0
 422 0024 08BD     		pop	{r3, pc}
 423              	.L24:
 424 0026 00BF     		.align	2
 425              	.L23:
 426 0028 00000000 		.word	.LANCHOR0
 427              		.cfi_endproc
 428              	.LFE4:
 429              		.size	thread2, .-thread2
 430              		.section	.text.thread4,"ax",%progbits
 431              		.align	2
 432              		.p2align 4,,15
 433              		.thumb
 434              		.thumb_func
 435              		.type	thread4, %function
 436              	thread4:
 437              	.LFB9:
 438              		.loc 1 246 0
 439              		.cfi_startproc
 440              		@ args = 0, pretend = 0, frame = 0
 441              		@ frame_needed = 0, uses_anonymous_args = 0
 442              	.LVL36:
 443 0000 10B5     		push	{r4, lr}
 444              		.cfi_def_cfa_offset 8
 445              		.cfi_offset 4, -8
 446              		.cfi_offset 14, -4
 447              		.loc 1 246 0
 448 0002 0446     		mov	r4, r0
 449              		.loc 1 248 0
 450              		.syntax unified
 451              	@ 248 "../../../test/testsem.c" 1
 452 0004 FFF7FEFF 		bl      _port_lock
 453              	@ 0 "" 2
 454              		.thumb
 455              		.syntax unified
 456 0008 FFF7FEFF 		bl	dbg_check_lock
ARM GAS  /tmp/ccyxuBjM.s 			page 9


 457              	.LVL37:
 458 000c A368     		ldr	r3, [r4, #8]
 459 000e 002B     		cmp	r3, #0
 460 0010 07DD     		ble	.L28
 461              	.L26:
 462              		.loc 1 248 0 is_stmt 0 discriminator 3
 463 0012 FFF7FEFF 		bl	chSchRescheduleS
 464              	.LVL38:
 465 0016 FFF7FEFF 		bl	dbg_check_unlock
 466              	.LVL39:
 467              		.syntax unified
 468              	@ 248 "../../../test/testsem.c" 1
 469 001a FFF7FEFF 		bl      _port_unlock
 470              	@ 0 "" 2
 471              		.loc 1 250 0 is_stmt 1 discriminator 3
 472              		.thumb
 473              		.syntax unified
 474 001e 0020     		movs	r0, #0
 475 0020 10BD     		pop	{r4, pc}
 476              	.LVL40:
 477              	.L28:
 478              		.loc 1 248 0 discriminator 1
 479 0022 2046     		mov	r0, r4
 480 0024 FFF7FEFF 		bl	chSemSignalI
 481              	.LVL41:
 482 0028 F3E7     		b	.L26
 483              		.cfi_endproc
 484              	.LFE9:
 485              		.size	thread4, .-thread4
 486 002a 00BF     		.section	.text.sem4_execute,"ax",%progbits
 487              		.align	2
 488              		.p2align 4,,15
 489              		.thumb
 490              		.thumb_func
 491              		.type	sem4_execute, %function
 492              	sem4_execute:
 493              	.LFB10:
 494              		.loc 1 252 0
 495              		.cfi_startproc
 496              		@ args = 0, pretend = 0, frame = 16
 497              		@ frame_needed = 0, uses_anonymous_args = 0
 498 0000 00B5     		push	{lr}
 499              		.cfi_def_cfa_offset 4
 500              		.cfi_offset 14, -4
 501 0002 87B0     		sub	sp, sp, #28
 502              		.cfi_def_cfa_offset 32
 503              		.loc 1 256 0
 504 0004 03A8     		add	r0, sp, #12
 505 0006 0021     		movs	r1, #0
 506 0008 FFF7FEFF 		bl	chSemInit
 507              	.LVL42:
 508              		.loc 1 257 0
 509 000c 03A8     		add	r0, sp, #12
 510 000e 0021     		movs	r1, #0
 511 0010 FFF7FEFF 		bl	chSemReset
 512              	.LVL43:
 513              		.loc 1 258 0
ARM GAS  /tmp/ccyxuBjM.s 			page 10


 514 0014 0599     		ldr	r1, [sp, #20]
 515 0016 0029     		cmp	r1, #0
 516 0018 CCBF     		ite	gt
 517 001a 0021     		movgt	r1, #0
 518 001c 0121     		movle	r1, #1
 519 001e 0120     		movs	r0, #1
 520 0020 FFF7FEFF 		bl	_test_assert
 521              	.LVL44:
 522 0024 10B1     		cbz	r0, .L35
 523              	.L29:
 524              		.loc 1 280 0
 525 0026 07B0     		add	sp, sp, #28
 526              		.cfi_remember_state
 527              		.cfi_def_cfa_offset 4
 528              		@ sp needed
 529 0028 5DF804FB 		ldr	pc, [sp], #4
 530              	.L35:
 531              		.cfi_restore_state
 532              		.loc 1 262 0
 533 002c 334B     		ldr	r3, .L38
 534              		.loc 1 261 0
 535 002e 344A     		ldr	r2, .L38+4
 536              		.loc 1 262 0
 537 0030 9B69     		ldr	r3, [r3, #24]
 538              		.loc 1 261 0
 539 0032 1068     		ldr	r0, [r2]
 540 0034 9A68     		ldr	r2, [r3, #8]
 541 0036 334B     		ldr	r3, .L38+8
 542 0038 03A9     		add	r1, sp, #12
 543 003a 0091     		str	r1, [sp]
 544 003c 013A     		subs	r2, r2, #1
 545 003e 4FF4A871 		mov	r1, #336
 546 0042 FFF7FEFF 		bl	chThdCreateStatic
 547              	.LVL45:
 548 0046 304B     		ldr	r3, .L38+12
 549 0048 1860     		str	r0, [r3]
 550              		.loc 1 265 0
 551 004a 03A8     		add	r0, sp, #12
 552 004c FFF7FEFF 		bl	chSemWait
 553              	.LVL46:
 554              		.loc 1 268 0
 555 0050 0599     		ldr	r1, [sp, #20]
 556 0052 0029     		cmp	r1, #0
 557 0054 CCBF     		ite	gt
 558 0056 0021     		movgt	r1, #0
 559 0058 0121     		movle	r1, #1
 560 005a 0220     		movs	r0, #2
 561 005c FFF7FEFF 		bl	_test_assert
 562              	.LVL47:
 563 0060 0028     		cmp	r0, #0
 564 0062 E0D1     		bne	.L29
 565              		.loc 1 272 0
 566              		.syntax unified
 567              	@ 272 "../../../test/testsem.c" 1
 568 0064 FFF7FEFF 		bl      _port_lock
 569              	@ 0 "" 2
 570              		.thumb
ARM GAS  /tmp/ccyxuBjM.s 			page 11


 571              		.syntax unified
 572 0068 FFF7FEFF 		bl	dbg_check_lock
 573              	.LVL48:
 574 006c 059B     		ldr	r3, [sp, #20]
 575 006e 002B     		cmp	r3, #0
 576 0070 3BDD     		ble	.L36
 577              	.L31:
 578              		.loc 1 272 0 is_stmt 0 discriminator 3
 579 0072 FFF7FEFF 		bl	chSchRescheduleS
 580              	.LVL49:
 581 0076 FFF7FEFF 		bl	dbg_check_unlock
 582              	.LVL50:
 583              		.syntax unified
 584              	@ 272 "../../../test/testsem.c" 1
 585 007a FFF7FEFF 		bl      _port_unlock
 586              	@ 0 "" 2
 587              		.loc 1 273 0 is_stmt 1 discriminator 3
 588              		.thumb
 589              		.syntax unified
 590 007e 0599     		ldr	r1, [sp, #20]
 591 0080 0029     		cmp	r1, #0
 592 0082 D4BF     		ite	le
 593 0084 0021     		movle	r1, #0
 594 0086 0121     		movgt	r1, #1
 595 0088 0320     		movs	r0, #3
 596 008a FFF7FEFF 		bl	_test_assert
 597              	.LVL51:
 598 008e 0028     		cmp	r0, #0
 599 0090 C9D1     		bne	.L29
 600              		.loc 1 274 0
 601 0092 0599     		ldr	r1, [sp, #20]
 602 0094 A1F10101 		sub	r1, #1
 603 0098 B1FA81F1 		clz	r1, r1
 604 009c 0420     		movs	r0, #4
 605 009e 4909     		lsrs	r1, r1, #5
 606 00a0 FFF7FEFF 		bl	_test_assert
 607              	.LVL52:
 608 00a4 0028     		cmp	r0, #0
 609 00a6 BED1     		bne	.L29
 610              		.loc 1 277 0
 611              		.syntax unified
 612              	@ 277 "../../../test/testsem.c" 1
 613 00a8 FFF7FEFF 		bl      _port_lock
 614              	@ 0 "" 2
 615              		.thumb
 616              		.syntax unified
 617 00ac FFF7FEFF 		bl	dbg_check_lock
 618              	.LVL53:
 619 00b0 059B     		ldr	r3, [sp, #20]
 620 00b2 002B     		cmp	r3, #0
 621 00b4 1DDD     		ble	.L37
 622              	.L32:
 623              		.loc 1 277 0 is_stmt 0 discriminator 3
 624 00b6 FFF7FEFF 		bl	chSchRescheduleS
 625              	.LVL54:
 626 00ba FFF7FEFF 		bl	dbg_check_unlock
 627              	.LVL55:
ARM GAS  /tmp/ccyxuBjM.s 			page 12


 628              		.syntax unified
 629              	@ 277 "../../../test/testsem.c" 1
 630 00be FFF7FEFF 		bl      _port_unlock
 631              	@ 0 "" 2
 632              		.loc 1 278 0 is_stmt 1 discriminator 3
 633              		.thumb
 634              		.syntax unified
 635 00c2 0599     		ldr	r1, [sp, #20]
 636 00c4 0029     		cmp	r1, #0
 637 00c6 D4BF     		ite	le
 638 00c8 0021     		movle	r1, #0
 639 00ca 0121     		movgt	r1, #1
 640 00cc 0320     		movs	r0, #3
 641 00ce FFF7FEFF 		bl	_test_assert
 642              	.LVL56:
 643 00d2 0028     		cmp	r0, #0
 644 00d4 A7D1     		bne	.L29
 645              		.loc 1 279 0
 646 00d6 0599     		ldr	r1, [sp, #20]
 647 00d8 A1F10101 		sub	r1, #1
 648 00dc B1FA81F1 		clz	r1, r1
 649 00e0 4909     		lsrs	r1, r1, #5
 650 00e2 0520     		movs	r0, #5
 651 00e4 FFF7FEFF 		bl	_test_assert
 652              	.LVL57:
 653 00e8 9DE7     		b	.L29
 654              	.L36:
 655              		.loc 1 272 0 discriminator 1
 656 00ea 03A8     		add	r0, sp, #12
 657 00ec FFF7FEFF 		bl	chSemSignalI
 658              	.LVL58:
 659 00f0 BFE7     		b	.L31
 660              	.L37:
 661              		.loc 1 277 0 discriminator 1
 662 00f2 03A8     		add	r0, sp, #12
 663 00f4 FFF7FEFF 		bl	chSemSignalI
 664              	.LVL59:
 665 00f8 DDE7     		b	.L32
 666              	.L39:
 667 00fa 00BF     		.align	2
 668              	.L38:
 669 00fc 00000000 		.word	rlist
 670 0100 00000000 		.word	wa
 671 0104 00000000 		.word	thread4
 672 0108 00000000 		.word	threads
 673              		.cfi_endproc
 674              	.LFE10:
 675              		.size	sem4_execute, .-sem4_execute
 676              		.section	.text.sem2_execute,"ax",%progbits
 677              		.align	2
 678              		.p2align 4,,15
 679              		.thumb
 680              		.thumb_func
 681              		.type	sem2_execute, %function
 682              	sem2_execute:
 683              	.LFB5:
 684              		.loc 1 145 0
ARM GAS  /tmp/ccyxuBjM.s 			page 13


 685              		.cfi_startproc
 686              		@ args = 0, pretend = 0, frame = 0
 687              		@ frame_needed = 0, uses_anonymous_args = 0
 688 0000 70B5     		push	{r4, r5, r6, lr}
 689              		.cfi_def_cfa_offset 16
 690              		.cfi_offset 4, -16
 691              		.cfi_offset 5, -12
 692              		.cfi_offset 6, -8
 693              		.cfi_offset 14, -4
 694              		.loc 1 153 0
 695 0002 4A4C     		ldr	r4, .L48
 696              		.loc 1 145 0
 697 0004 82B0     		sub	sp, sp, #8
 698              		.cfi_def_cfa_offset 24
 699              		.loc 1 153 0
 700 0006 0021     		movs	r1, #0
 701 0008 2046     		mov	r0, r4
 702 000a FFF7FEFF 		bl	chSemWaitTimeout
 703              	.LVL60:
 704              		.loc 1 154 0
 705 000e A0F1FF31 		sub	r1, r0, #-1
 706 0012 B1FA81F1 		clz	r1, r1
 707 0016 4909     		lsrs	r1, r1, #5
 708 0018 0120     		movs	r0, #1
 709              	.LVL61:
 710 001a FFF7FEFF 		bl	_test_assert
 711              	.LVL62:
 712 001e 08B1     		cbz	r0, .L47
 713              	.L40:
 714              		.loc 1 183 0
 715 0020 02B0     		add	sp, sp, #8
 716              		.cfi_remember_state
 717              		.cfi_def_cfa_offset 16
 718              		@ sp needed
 719 0022 70BD     		pop	{r4, r5, r6, pc}
 720              	.L47:
 721              		.cfi_restore_state
 722              		.loc 1 155 0
 723 0024 2168     		ldr	r1, [r4]
 724 0026 091B     		subs	r1, r1, r4
 725 0028 B1FA81F1 		clz	r1, r1
 726 002c 0220     		movs	r0, #2
 727 002e 4909     		lsrs	r1, r1, #5
 728 0030 FFF7FEFF 		bl	_test_assert
 729              	.LVL63:
 730 0034 0028     		cmp	r0, #0
 731 0036 F3D1     		bne	.L40
 732              		.loc 1 156 0
 733 0038 A168     		ldr	r1, [r4, #8]
 734 003a B1FA81F1 		clz	r1, r1
 735 003e 4909     		lsrs	r1, r1, #5
 736 0040 0320     		movs	r0, #3
 737 0042 FFF7FEFF 		bl	_test_assert
 738              	.LVL64:
 739 0046 0028     		cmp	r0, #0
 740 0048 EAD1     		bne	.L40
 741              	.LBB4:
ARM GAS  /tmp/ccyxuBjM.s 			page 14


 742              	.LBB5:
 743              		.loc 1 161 0
 744 004a 394B     		ldr	r3, .L48+4
 745 004c 394A     		ldr	r2, .L48+8
 746 004e 9B69     		ldr	r3, [r3, #24]
 747 0050 1168     		ldr	r1, [r2]
 748 0052 9A68     		ldr	r2, [r3, #8]
 749 0054 384B     		ldr	r3, .L48+12
 750 0056 0090     		str	r0, [sp]
 751 0058 013A     		subs	r2, r2, #1
 752 005a 0846     		mov	r0, r1
 753 005c 4FF4A871 		mov	r1, #336
 754 0060 FFF7FEFF 		bl	chThdCreateStatic
 755              	.LVL65:
 756 0064 354B     		ldr	r3, .L48+16
 757              		.loc 1 163 0
 758 0066 4FF4FA71 		mov	r1, #500
 759              		.loc 1 161 0
 760 006a 1860     		str	r0, [r3]
 761              		.loc 1 163 0
 762 006c 2046     		mov	r0, r4
 763 006e FFF7FEFF 		bl	chSemWaitTimeout
 764              	.LVL66:
 765 0072 0546     		mov	r5, r0
 766              	.LVL67:
 767              		.loc 1 164 0
 768 0074 FFF7FEFF 		bl	test_wait_threads
 769              	.LVL68:
 770              		.loc 1 165 0
 771 0078 B5FA85F1 		clz	r1, r5
 772 007c 4909     		lsrs	r1, r1, #5
 773 007e 0420     		movs	r0, #4
 774 0080 FFF7FEFF 		bl	_test_assert
 775              	.LVL69:
 776 0084 0028     		cmp	r0, #0
 777 0086 CBD1     		bne	.L40
 778              		.loc 1 166 0
 779 0088 2168     		ldr	r1, [r4]
 780 008a 091B     		subs	r1, r1, r4
 781 008c B1FA81F1 		clz	r1, r1
 782 0090 0520     		movs	r0, #5
 783 0092 4909     		lsrs	r1, r1, #5
 784 0094 FFF7FEFF 		bl	_test_assert
 785              	.LVL70:
 786 0098 0028     		cmp	r0, #0
 787 009a C1D1     		bne	.L40
 788              		.loc 1 167 0
 789 009c A168     		ldr	r1, [r4, #8]
 790 009e B1FA81F1 		clz	r1, r1
 791 00a2 4909     		lsrs	r1, r1, #5
 792 00a4 0620     		movs	r0, #6
 793 00a6 FFF7FEFF 		bl	_test_assert
 794              	.LVL71:
 795 00aa 0028     		cmp	r0, #0
 796 00ac B8D1     		bne	.L40
 797              		.loc 1 172 0
 798 00ae FFF7FEFF 		bl	test_wait_tick
ARM GAS  /tmp/ccyxuBjM.s 			page 15


 799              	.LVL72:
 800              		.loc 1 173 0
 801 00b2 234B     		ldr	r3, .L48+20
 802 00b4 DE68     		ldr	r6, [r3, #12]
 803              	.LVL73:
 804 00b6 4125     		movs	r5, #65
 805              	.LVL74:
 806              	.L44:
 807              		.loc 1 175 0
 808 00b8 2846     		mov	r0, r5
 809 00ba FFF7FEFF 		bl	test_emit_token
 810              	.LVL75:
 811              		.loc 1 176 0
 812 00be 4FF4FA71 		mov	r1, #500
 813 00c2 1A48     		ldr	r0, .L48
 814 00c4 FFF7FEFF 		bl	chSemWaitTimeout
 815              	.LVL76:
 816              		.loc 1 177 0
 817 00c8 A0F1FF31 		sub	r1, r0, #-1
 818 00cc B1FA81F1 		clz	r1, r1
 819 00d0 4909     		lsrs	r1, r1, #5
 820 00d2 0720     		movs	r0, #7
 821              	.LVL77:
 822 00d4 FFF7FEFF 		bl	_test_assert
 823              	.LVL78:
 824 00d8 0028     		cmp	r0, #0
 825 00da A1D1     		bne	.L40
 826              		.loc 1 178 0
 827 00dc 2168     		ldr	r1, [r4]
 828 00de 091B     		subs	r1, r1, r4
 829 00e0 B1FA81F1 		clz	r1, r1
 830 00e4 0820     		movs	r0, #8
 831 00e6 4909     		lsrs	r1, r1, #5
 832 00e8 FFF7FEFF 		bl	_test_assert
 833              	.LVL79:
 834 00ec 0028     		cmp	r0, #0
 835 00ee 97D1     		bne	.L40
 836              		.loc 1 179 0
 837 00f0 A168     		ldr	r1, [r4, #8]
 838 00f2 B1FA81F1 		clz	r1, r1
 839 00f6 4909     		lsrs	r1, r1, #5
 840 00f8 0920     		movs	r0, #9
 841 00fa FFF7FEFF 		bl	_test_assert
 842              	.LVL80:
 843 00fe 0135     		adds	r5, r5, #1
 844 0100 EDB2     		uxtb	r5, r5
 845 0102 0028     		cmp	r0, #0
 846 0104 8CD1     		bne	.L40
 847              		.loc 1 174 0
 848 0106 462D     		cmp	r5, #70
 849 0108 D6D1     		bne	.L44
 850              		.loc 1 181 0
 851 010a 0E49     		ldr	r1, .L48+24
 852 010c 0A20     		movs	r0, #10
 853 010e FFF7FEFF 		bl	_test_assert_sequence
 854              	.LVL81:
 855 0112 0028     		cmp	r0, #0
ARM GAS  /tmp/ccyxuBjM.s 			page 16


 856 0114 84D1     		bne	.L40
 857              		.loc 1 182 0
 858 0116 06F6C912 		addw	r2, r6, #2505
 859 011a 06F6C411 		addw	r1, r6, #2500
 860 011e 0B20     		movs	r0, #11
 861              	.LBE5:
 862              	.LBE4:
 863              		.loc 1 183 0
 864 0120 02B0     		add	sp, sp, #8
 865              		.cfi_def_cfa_offset 16
 866              		@ sp needed
 867 0122 BDE87040 		pop	{r4, r5, r6, lr}
 868              		.cfi_restore 14
 869              		.cfi_restore 6
 870              		.cfi_restore 5
 871              		.cfi_restore 4
 872              		.cfi_def_cfa_offset 0
 873              	.LVL82:
 874              	.LBB7:
 875              	.LBB6:
 876              		.loc 1 182 0
 877 0126 FFF7FEBF 		b	_test_assert_time_window
 878              	.LVL83:
 879              	.L49:
 880 012a 00BF     		.align	2
 881              	.L48:
 882 012c 00000000 		.word	.LANCHOR0
 883 0130 00000000 		.word	rlist
 884 0134 00000000 		.word	wa
 885 0138 00000000 		.word	thread2
 886 013c 00000000 		.word	threads
 887 0140 00000000 		.word	vtlist
 888 0144 14000000 		.word	.LC5
 889              	.LBE6:
 890              	.LBE7:
 891              		.cfi_endproc
 892              	.LFE5:
 893              		.size	sem2_execute, .-sem2_execute
 894              		.section	.text.sem3_execute,"ax",%progbits
 895              		.align	2
 896              		.p2align 4,,15
 897              		.thumb
 898              		.thumb_func
 899              		.type	sem3_execute, %function
 900              	sem3_execute:
 901              	.LFB8:
 902              		.loc 1 218 0
 903              		.cfi_startproc
 904              		@ args = 0, pretend = 0, frame = 0
 905              		@ frame_needed = 0, uses_anonymous_args = 0
 906 0000 10B5     		push	{r4, lr}
 907              		.cfi_def_cfa_offset 8
 908              		.cfi_offset 4, -8
 909              		.cfi_offset 14, -4
 910              		.loc 1 220 0
 911 0002 204B     		ldr	r3, .L56
 912 0004 204A     		ldr	r2, .L56+4
ARM GAS  /tmp/ccyxuBjM.s 			page 17


 913 0006 9B69     		ldr	r3, [r3, #24]
 914 0008 1068     		ldr	r0, [r2]
 915 000a 9A68     		ldr	r2, [r3, #8]
 916 000c 1F4B     		ldr	r3, .L56+8
 917              		.loc 1 221 0
 918 000e 204C     		ldr	r4, .L56+12
 919              		.loc 1 218 0
 920 0010 82B0     		sub	sp, sp, #8
 921              		.cfi_def_cfa_offset 16
 922              		.loc 1 220 0
 923 0012 0021     		movs	r1, #0
 924 0014 0132     		adds	r2, r2, #1
 925 0016 0091     		str	r1, [sp]
 926 0018 4FF4A871 		mov	r1, #336
 927 001c FFF7FEFF 		bl	chThdCreateStatic
 928              	.LVL84:
 929 0020 1C4B     		ldr	r3, .L56+16
 930              		.loc 1 221 0
 931 0022 2146     		mov	r1, r4
 932              		.loc 1 220 0
 933 0024 1860     		str	r0, [r3]
 934              		.loc 1 221 0
 935 0026 2046     		mov	r0, r4
 936 0028 FFF7FEFF 		bl	chSemSignalWait
 937              	.LVL85:
 938              		.loc 1 222 0
 939 002c 2168     		ldr	r1, [r4]
 940 002e 091B     		subs	r1, r1, r4
 941 0030 B1FA81F1 		clz	r1, r1
 942 0034 0120     		movs	r0, #1
 943 0036 4909     		lsrs	r1, r1, #5
 944 0038 FFF7FEFF 		bl	_test_assert
 945              	.LVL86:
 946 003c 08B1     		cbz	r0, .L55
 947              	.L50:
 948              		.loc 1 228 0
 949 003e 02B0     		add	sp, sp, #8
 950              		.cfi_remember_state
 951              		.cfi_def_cfa_offset 8
 952              		@ sp needed
 953 0040 10BD     		pop	{r4, pc}
 954              	.L55:
 955              		.cfi_restore_state
 956              		.loc 1 223 0
 957 0042 A168     		ldr	r1, [r4, #8]
 958 0044 B1FA81F1 		clz	r1, r1
 959 0048 4909     		lsrs	r1, r1, #5
 960 004a 0220     		movs	r0, #2
 961 004c FFF7FEFF 		bl	_test_assert
 962              	.LVL87:
 963 0050 0028     		cmp	r0, #0
 964 0052 F4D1     		bne	.L50
 965              	.LBB10:
 966              	.LBB11:
 967              		.loc 1 225 0
 968 0054 2146     		mov	r1, r4
 969 0056 2046     		mov	r0, r4
ARM GAS  /tmp/ccyxuBjM.s 			page 18


 970 0058 FFF7FEFF 		bl	chSemSignalWait
 971              	.LVL88:
 972              		.loc 1 226 0
 973 005c 2168     		ldr	r1, [r4]
 974 005e 091B     		subs	r1, r1, r4
 975 0060 B1FA81F1 		clz	r1, r1
 976 0064 0320     		movs	r0, #3
 977 0066 4909     		lsrs	r1, r1, #5
 978 0068 FFF7FEFF 		bl	_test_assert
 979              	.LVL89:
 980 006c 0028     		cmp	r0, #0
 981 006e E6D1     		bne	.L50
 982              		.loc 1 227 0
 983 0070 A168     		ldr	r1, [r4, #8]
 984 0072 B1FA81F1 		clz	r1, r1
 985 0076 4909     		lsrs	r1, r1, #5
 986 0078 0420     		movs	r0, #4
 987              	.LBE11:
 988              	.LBE10:
 989              		.loc 1 228 0
 990 007a 02B0     		add	sp, sp, #8
 991              		.cfi_def_cfa_offset 8
 992              		@ sp needed
 993 007c BDE81040 		pop	{r4, lr}
 994              		.cfi_restore 14
 995              		.cfi_restore 4
 996              		.cfi_def_cfa_offset 0
 997              	.LBB13:
 998              	.LBB12:
 999              		.loc 1 227 0
 1000 0080 FFF7FEBF 		b	_test_assert
 1001              	.LVL90:
 1002              	.L57:
 1003              		.align	2
 1004              	.L56:
 1005 0084 00000000 		.word	rlist
 1006 0088 00000000 		.word	wa
 1007 008c 00000000 		.word	thread3
 1008 0090 00000000 		.word	.LANCHOR0
 1009 0094 00000000 		.word	threads
 1010              	.LBE12:
 1011              	.LBE13:
 1012              		.cfi_endproc
 1013              	.LFE8:
 1014              		.size	sem3_execute, .-sem3_execute
 1015              		.global	patternsem
 1016              		.global	testsem4
 1017              		.global	testsem3
 1018              		.global	testsem2
 1019              		.global	testsem1
 1020              		.section	.rodata.testsem1,"a",%progbits
 1021              		.align	2
 1022              		.type	testsem1, %object
 1023              		.size	testsem1, 16
 1024              	testsem1:
 1025 0000 74000000 		.word	.LC9
 1026 0004 00000000 		.word	sem1_setup
ARM GAS  /tmp/ccyxuBjM.s 			page 19


 1027 0008 00000000 		.word	0
 1028 000c 00000000 		.word	sem1_execute
 1029              		.section	.rodata.testsem2,"a",%progbits
 1030              		.align	2
 1031              		.type	testsem2, %object
 1032              		.size	testsem2, 16
 1033              	testsem2:
 1034 0000 60000000 		.word	.LC8
 1035 0004 00000000 		.word	sem2_setup
 1036 0008 00000000 		.word	0
 1037 000c 00000000 		.word	sem2_execute
 1038              		.section	.rodata.testsem3,"a",%progbits
 1039              		.align	2
 1040              		.type	testsem3, %object
 1041              		.size	testsem3, 16
 1042              	testsem3:
 1043 0000 40000000 		.word	.LC7
 1044 0004 00000000 		.word	sem3_setup
 1045 0008 00000000 		.word	0
 1046 000c 00000000 		.word	sem3_execute
 1047              		.section	.rodata.testsem4,"a",%progbits
 1048              		.align	2
 1049              		.type	testsem4, %object
 1050              		.size	testsem4, 16
 1051              	testsem4:
 1052 0000 1C000000 		.word	.LC6
 1053 0004 00000000 		.word	0
 1054 0008 00000000 		.word	0
 1055 000c 00000000 		.word	sem4_execute
 1056              		.section	.data.sem1,"aw",%progbits
 1057              		.align	2
 1058              		.set	.LANCHOR0,. + 0
 1059              		.type	sem1, %object
 1060              		.size	sem1, 12
 1061              	sem1:
 1062 0000 00000000 		.word	sem1
 1063 0004 00000000 		.word	sem1
 1064 0008 00000000 		.word	0
 1065              		.section	.rodata.patternsem,"a",%progbits
 1066              		.align	2
 1067              		.type	patternsem, %object
 1068              		.size	patternsem, 20
 1069              	patternsem:
 1070 0000 00000000 		.word	testsem1
 1071 0004 00000000 		.word	testsem2
 1072 0008 00000000 		.word	testsem3
 1073 000c 00000000 		.word	testsem4
 1074 0010 00000000 		.word	0
 1075              		.section	.rodata.str1.4,"aMS",%progbits,1
 1076              		.align	2
 1077              	.LC0:
 1078 0000 4100     		.ascii	"A\000"
 1079 0002 0000     		.space	2
 1080              	.LC1:
 1081 0004 4200     		.ascii	"B\000"
 1082 0006 0000     		.space	2
 1083              	.LC2:
ARM GAS  /tmp/ccyxuBjM.s 			page 20


 1084 0008 4300     		.ascii	"C\000"
 1085 000a 0000     		.space	2
 1086              	.LC3:
 1087 000c 4400     		.ascii	"D\000"
 1088 000e 0000     		.space	2
 1089              	.LC4:
 1090 0010 4500     		.ascii	"E\000"
 1091 0012 0000     		.space	2
 1092              	.LC5:
 1093 0014 41424344 		.ascii	"ABCDE\000"
 1093      4500
 1094 001a 0000     		.space	2
 1095              	.LC6:
 1096 001c 42696E61 		.ascii	"Binary Semaphores, functionality\000"
 1096      72792053 
 1096      656D6170 
 1096      686F7265 
 1096      732C2066 
 1097 003d 000000   		.space	3
 1098              	.LC7:
 1099 0040 53656D61 		.ascii	"Semaphores, atomic signal-wait\000"
 1099      70686F72 
 1099      65732C20 
 1099      61746F6D 
 1099      69632073 
 1100 005f 00       		.space	1
 1101              	.LC8:
 1102 0060 53656D61 		.ascii	"Semaphores, timeout\000"
 1102      70686F72 
 1102      65732C20 
 1102      74696D65 
 1102      6F757400 
 1103              	.LC9:
 1104 0074 53656D61 		.ascii	"Semaphores, enqueuing\000"
 1104      70686F72 
 1104      65732C20 
 1104      656E7175 
 1104      6575696E 
 1105              		.text
 1106              	.Letext0:
 1107              		.file 2 "/home/z80/programs/sw4stm32/plugins/fr.ac6.mcu.externaltools.arm-none.linux32_1.7.0.20160
 1108              		.file 3 "/home/z80/programs/sw4stm32/plugins/fr.ac6.mcu.externaltools.arm-none.linux32_1.7.0.20160
 1109              		.file 4 "../../../os/ports/GCC/ARMCMx/chtypes.h"
 1110              		.file 5 "../../../os/kernel/include/chlists.h"
 1111              		.file 6 "../../../os/kernel/include/chthreads.h"
 1112              		.file 7 "../../../os/ports/GCC/ARMCMx/chcore_v7m.h"
 1113              		.file 8 "../../../os/kernel/include/chvt.h"
 1114              		.file 9 "../../../os/kernel/include/chschd.h"
 1115              		.file 10 "../../../os/kernel/include/chsem.h"
 1116              		.file 11 "../../../os/kernel/include/chbsem.h"
 1117              		.file 12 "../../../os/kernel/include/chmtx.h"
 1118              		.file 13 "../../../test/test.h"
 1119              		.file 14 "../../../os/kernel/include/chdebug.h"