ARM GAS  /tmp/cc7KQtny.s 			page 1


   1              		.syntax unified
   2              		.cpu cortex-m4
   3              		.fpu softvfp
   4              		.eabi_attribute 20, 1
   5              		.eabi_attribute 21, 1
   6              		.eabi_attribute 23, 3
   7              		.eabi_attribute 24, 1
   8              		.eabi_attribute 25, 1
   9              		.eabi_attribute 26, 1
  10              		.eabi_attribute 30, 2
  11              		.eabi_attribute 34, 1
  12              		.eabi_attribute 18, 4
  13              		.thumb
  14              		.syntax unified
  15              		.file	"testqueues.c"
  16              		.text
  17              	.Ltext0:
  18              		.cfi_sections	.debug_frame
  19              		.section	.text.notify,"ax",%progbits
  20              		.align	2
  21              		.p2align 4,,15
  22              		.thumb
  23              		.thumb_func
  24              		.type	notify, %function
  25              	notify:
  26              	.LFB0:
  27              		.file 1 "../../../test/testqueues.c"
  28              		.loc 1 57 0
  29              		.cfi_startproc
  30              		@ args = 0, pretend = 0, frame = 0
  31              		@ frame_needed = 0, uses_anonymous_args = 0
  32              		@ link register save eliminated.
  33              	.LVL0:
  34 0000 7047     		bx	lr
  35              		.cfi_endproc
  36              	.LFE0:
  37              		.size	notify, .-notify
  38 0002 00BF     		.section	.text.thread1,"ax",%progbits
  39              		.align	2
  40              		.p2align 4,,15
  41              		.thumb
  42              		.thumb_func
  43              		.type	thread1, %function
  44              	thread1:
  45              	.LFB2:
  46              		.loc 1 83 0
  47              		.cfi_startproc
  48              		@ args = 0, pretend = 0, frame = 0
  49              		@ frame_needed = 0, uses_anonymous_args = 0
  50              	.LVL1:
  51              		.loc 1 83 0
  52 0000 08B5     		push	{r3, lr}
  53              		.cfi_def_cfa_offset 8
  54              		.cfi_offset 3, -8
  55              		.cfi_offset 14, -4
  56              		.loc 1 86 0
  57 0002 C821     		movs	r1, #200
ARM GAS  /tmp/cc7KQtny.s 			page 2


  58 0004 0248     		ldr	r0, .L4
  59              	.LVL2:
  60 0006 FFF7FEFF 		bl	chIQGetTimeout
  61              	.LVL3:
  62              		.loc 1 88 0
  63 000a 0020     		movs	r0, #0
  64 000c 08BD     		pop	{r3, pc}
  65              	.L5:
  66 000e 00BF     		.align	2
  67              	.L4:
  68 0010 00000000 		.word	.LANCHOR0
  69              		.cfi_endproc
  70              	.LFE2:
  71              		.size	thread1, .-thread1
  72              		.section	.text.queues1_setup,"ax",%progbits
  73              		.align	2
  74              		.p2align 4,,15
  75              		.thumb
  76              		.thumb_func
  77              		.type	queues1_setup, %function
  78              	queues1_setup:
  79              	.LFB1:
  80              		.loc 1 78 0
  81              		.cfi_startproc
  82              		@ args = 0, pretend = 0, frame = 0
  83              		@ frame_needed = 0, uses_anonymous_args = 0
  84 0000 00B5     		push	{lr}
  85              		.cfi_def_cfa_offset 4
  86              		.cfi_offset 14, -4
  87              		.loc 1 80 0
  88 0002 064A     		ldr	r2, .L8
  89 0004 064B     		ldr	r3, .L8+4
  90 0006 1168     		ldr	r1, [r2]
  91 0008 0648     		ldr	r0, .L8+8
  92              		.loc 1 78 0
  93 000a 83B0     		sub	sp, sp, #12
  94              		.cfi_def_cfa_offset 16
  95              		.loc 1 80 0
  96 000c 0022     		movs	r2, #0
  97 000e 0092     		str	r2, [sp]
  98 0010 0422     		movs	r2, #4
  99 0012 FFF7FEFF 		bl	chIQInit
 100              	.LVL4:
 101              		.loc 1 81 0
 102 0016 03B0     		add	sp, sp, #12
 103              		.cfi_def_cfa_offset 4
 104              		@ sp needed
 105 0018 5DF804FB 		ldr	pc, [sp], #4
 106              	.L9:
 107              		.align	2
 108              	.L8:
 109 001c 00000000 		.word	wa
 110 0020 00000000 		.word	notify
 111 0024 00000000 		.word	.LANCHOR0
 112              		.cfi_endproc
 113              	.LFE1:
 114              		.size	queues1_setup, .-queues1_setup
ARM GAS  /tmp/cc7KQtny.s 			page 3


 115              		.section	.text.thread2,"ax",%progbits
 116              		.align	2
 117              		.p2align 4,,15
 118              		.thumb
 119              		.thumb_func
 120              		.type	thread2, %function
 121              	thread2:
 122              	.LFB5:
 123              		.loc 1 170 0
 124              		.cfi_startproc
 125              		@ args = 0, pretend = 0, frame = 0
 126              		@ frame_needed = 0, uses_anonymous_args = 0
 127              	.LVL5:
 128 0000 08B5     		push	{r3, lr}
 129              		.cfi_def_cfa_offset 8
 130              		.cfi_offset 3, -8
 131              		.cfi_offset 14, -4
 132              		.loc 1 173 0
 133 0002 C822     		movs	r2, #200
 134 0004 0021     		movs	r1, #0
 135 0006 0248     		ldr	r0, .L12
 136              	.LVL6:
 137 0008 FFF7FEFF 		bl	chOQPutTimeout
 138              	.LVL7:
 139              		.loc 1 175 0
 140 000c 0020     		movs	r0, #0
 141 000e 08BD     		pop	{r3, pc}
 142              	.L13:
 143              		.align	2
 144              	.L12:
 145 0010 00000000 		.word	.LANCHOR1
 146              		.cfi_endproc
 147              	.LFE5:
 148              		.size	thread2, .-thread2
 149              		.section	.text.queues2_setup,"ax",%progbits
 150              		.align	2
 151              		.p2align 4,,15
 152              		.thumb
 153              		.thumb_func
 154              		.type	queues2_setup, %function
 155              	queues2_setup:
 156              	.LFB4:
 157              		.loc 1 165 0
 158              		.cfi_startproc
 159              		@ args = 0, pretend = 0, frame = 0
 160              		@ frame_needed = 0, uses_anonymous_args = 0
 161 0000 00B5     		push	{lr}
 162              		.cfi_def_cfa_offset 4
 163              		.cfi_offset 14, -4
 164              		.loc 1 167 0
 165 0002 064A     		ldr	r2, .L16
 166 0004 064B     		ldr	r3, .L16+4
 167 0006 1168     		ldr	r1, [r2]
 168 0008 0648     		ldr	r0, .L16+8
 169              		.loc 1 165 0
 170 000a 83B0     		sub	sp, sp, #12
 171              		.cfi_def_cfa_offset 16
ARM GAS  /tmp/cc7KQtny.s 			page 4


 172              		.loc 1 167 0
 173 000c 0022     		movs	r2, #0
 174 000e 0092     		str	r2, [sp]
 175 0010 0422     		movs	r2, #4
 176 0012 FFF7FEFF 		bl	chOQInit
 177              	.LVL8:
 178              		.loc 1 168 0
 179 0016 03B0     		add	sp, sp, #12
 180              		.cfi_def_cfa_offset 4
 181              		@ sp needed
 182 0018 5DF804FB 		ldr	pc, [sp], #4
 183              	.L17:
 184              		.align	2
 185              	.L16:
 186 001c 00000000 		.word	wa
 187 0020 00000000 		.word	notify
 188 0024 00000000 		.word	.LANCHOR1
 189              		.cfi_endproc
 190              	.LFE4:
 191              		.size	queues2_setup, .-queues2_setup
 192              		.section	.text.queues1_execute,"ax",%progbits
 193              		.align	2
 194              		.p2align 4,,15
 195              		.thumb
 196              		.thumb_func
 197              		.type	queues1_execute, %function
 198              	queues1_execute:
 199              	.LFB3:
 200              		.loc 1 90 0
 201              		.cfi_startproc
 202              		@ args = 0, pretend = 0, frame = 0
 203              		@ frame_needed = 0, uses_anonymous_args = 0
 204 0000 70B5     		push	{r4, r5, r6, lr}
 205              		.cfi_def_cfa_offset 16
 206              		.cfi_offset 4, -16
 207              		.cfi_offset 5, -12
 208              		.cfi_offset 6, -8
 209              		.cfi_offset 14, -4
 210 0002 82B0     		sub	sp, sp, #8
 211              		.cfi_def_cfa_offset 24
 212              		.loc 1 95 0
 213              		.syntax unified
 214              	@ 95 "../../../test/testqueues.c" 1
 215 0004 FFF7FEFF 		bl      _port_lock
 216              	@ 0 "" 2
 217              		.thumb
 218              		.syntax unified
 219 0008 FFF7FEFF 		bl	dbg_check_lock
 220              	.LVL9:
 221 000c A24B     		ldr	r3, .L43
 222 000e 9968     		ldr	r1, [r3, #8]
 223 0010 B1FA81F1 		clz	r1, r1
 224 0014 4909     		lsrs	r1, r1, #5
 225 0016 0120     		movs	r0, #1
 226 0018 FFF7FEFF 		bl	_test_assert
 227              	.LVL10:
 228 001c 0028     		cmp	r0, #0
ARM GAS  /tmp/cc7KQtny.s 			page 5


 229 001e 40F02F81 		bne	.L40
 230 0022 0646     		mov	r6, r0
 231              	.LBB5:
 232              	.LBB6:
 233 0024 FFF7FEFF 		bl	dbg_check_unlock
 234              	.LVL11:
 235              		.syntax unified
 236              	@ 95 "../../../test/testqueues.c" 1
 237 0028 FFF7FEFF 		bl      _port_unlock
 238              	@ 0 "" 2
 239              		.loc 1 98 0
 240              	@ 98 "../../../test/testqueues.c" 1
 241 002c FFF7FEFF 		bl      _port_lock
 242              	@ 0 "" 2
 243              		.thumb
 244              		.syntax unified
 245 0030 FFF7FEFF 		bl	dbg_check_lock
 246              	.LVL12:
 247 0034 4124     		movs	r4, #65
 248              	.LVL13:
 249              	.L21:
 250              		.loc 1 100 0
 251 0036 984D     		ldr	r5, .L43
 252 0038 2146     		mov	r1, r4
 253 003a 0134     		adds	r4, r4, #1
 254 003c 2846     		mov	r0, r5
 255 003e E4B2     		uxtb	r4, r4
 256 0040 FFF7FEFF 		bl	chIQPutI
 257              	.LVL14:
 258              		.loc 1 99 0
 259 0044 452C     		cmp	r4, #69
 260 0046 F6D1     		bne	.L21
 261              		.loc 1 101 0
 262 0048 FFF7FEFF 		bl	dbg_check_unlock
 263              	.LVL15:
 264              		.syntax unified
 265              	@ 101 "../../../test/testqueues.c" 1
 266 004c FFF7FEFF 		bl      _port_unlock
 267              	@ 0 "" 2
 268              		.loc 1 102 0
 269              	@ 102 "../../../test/testqueues.c" 1
 270 0050 FFF7FEFF 		bl      _port_lock
 271              	@ 0 "" 2
 272              		.thumb
 273              		.syntax unified
 274 0054 FFF7FEFF 		bl	dbg_check_lock
 275              	.LVL16:
 276 0058 6A69     		ldr	r2, [r5, #20]
 277 005a AB69     		ldr	r3, [r5, #24]
 278 005c 9A42     		cmp	r2, r3
 279 005e 00F01581 		beq	.L42
 280              	.L22:
 281 0062 3146     		mov	r1, r6
 282 0064 0220     		movs	r0, #2
 283 0066 FFF7FEFF 		bl	_test_assert
 284              	.LVL17:
 285 006a 0446     		mov	r4, r0
ARM GAS  /tmp/cc7KQtny.s 			page 6


 286 006c 0028     		cmp	r0, #0
 287 006e 40F00781 		bne	.L40
 288 0072 FFF7FEFF 		bl	dbg_check_unlock
 289              	.LVL18:
 290              		.syntax unified
 291              	@ 102 "../../../test/testqueues.c" 1
 292 0076 FFF7FEFF 		bl      _port_unlock
 293              	@ 0 "" 2
 294              		.loc 1 103 0
 295              	@ 103 "../../../test/testqueues.c" 1
 296 007a FFF7FEFF 		bl      _port_lock
 297              	@ 0 "" 2
 298              		.thumb
 299              		.syntax unified
 300 007e FFF7FEFF 		bl	dbg_check_lock
 301              	.LVL19:
 302 0082 2146     		mov	r1, r4
 303 0084 8448     		ldr	r0, .L43
 304 0086 FFF7FEFF 		bl	chIQPutI
 305              	.LVL20:
 306 008a 0430     		adds	r0, r0, #4
 307 008c 14BF     		ite	ne
 308 008e 0021     		movne	r1, #0
 309 0090 0121     		moveq	r1, #1
 310 0092 0320     		movs	r0, #3
 311 0094 FFF7FEFF 		bl	_test_assert
 312              	.LVL21:
 313 0098 0028     		cmp	r0, #0
 314 009a 40F0F180 		bne	.L40
 315 009e FFF7FEFF 		bl	dbg_check_unlock
 316              	.LVL22:
 317              		.syntax unified
 318              	@ 103 "../../../test/testqueues.c" 1
 319 00a2 FFF7FEFF 		bl      _port_unlock
 320              	@ 0 "" 2
 321              	.LVL23:
 322              		.thumb
 323              		.syntax unified
 324 00a6 0424     		movs	r4, #4
 325              	.LVL24:
 326              	.L25:
 327              		.loc 1 107 0
 328 00a8 7B4D     		ldr	r5, .L43
 329 00aa 4FF0FF31 		mov	r1, #-1
 330 00ae 2846     		mov	r0, r5
 331 00b0 FFF7FEFF 		bl	chIQGetTimeout
 332              	.LVL25:
 333 00b4 C0B2     		uxtb	r0, r0
 334 00b6 FFF7FEFF 		bl	test_emit_token
 335              	.LVL26:
 336              		.loc 1 106 0
 337 00ba 013C     		subs	r4, r4, #1
 338              	.LVL27:
 339 00bc F4D1     		bne	.L25
 340              		.loc 1 108 0
 341              		.syntax unified
 342              	@ 108 "../../../test/testqueues.c" 1
ARM GAS  /tmp/cc7KQtny.s 			page 7


 343 00be FFF7FEFF 		bl      _port_lock
 344              	@ 0 "" 2
 345              		.thumb
 346              		.syntax unified
 347 00c2 FFF7FEFF 		bl	dbg_check_lock
 348              	.LVL28:
 349 00c6 A968     		ldr	r1, [r5, #8]
 350 00c8 B1FA81F1 		clz	r1, r1
 351 00cc 4909     		lsrs	r1, r1, #5
 352 00ce 0420     		movs	r0, #4
 353 00d0 FFF7FEFF 		bl	_test_assert
 354              	.LVL29:
 355 00d4 0028     		cmp	r0, #0
 356 00d6 40F0D380 		bne	.L40
 357 00da FFF7FEFF 		bl	dbg_check_unlock
 358              	.LVL30:
 359              		.syntax unified
 360              	@ 108 "../../../test/testqueues.c" 1
 361 00de FFF7FEFF 		bl      _port_unlock
 362              	@ 0 "" 2
 363              		.loc 1 109 0
 364              		.thumb
 365              		.syntax unified
 366 00e2 6E49     		ldr	r1, .L43+4
 367 00e4 0520     		movs	r0, #5
 368 00e6 FFF7FEFF 		bl	_test_assert_sequence
 369              	.LVL31:
 370 00ea 0028     		cmp	r0, #0
 371 00ec 40F0CC80 		bne	.L18
 372              		.loc 1 112 0
 373              		.syntax unified
 374              	@ 112 "../../../test/testqueues.c" 1
 375 00f0 FFF7FEFF 		bl      _port_lock
 376              	@ 0 "" 2
 377              		.thumb
 378              		.syntax unified
 379 00f4 FFF7FEFF 		bl	dbg_check_lock
 380              	.LVL32:
 381 00f8 4124     		movs	r4, #65
 382              	.LVL33:
 383              	.L28:
 384              		.loc 1 114 0
 385 00fa 674D     		ldr	r5, .L43
 386 00fc 2146     		mov	r1, r4
 387 00fe 0134     		adds	r4, r4, #1
 388 0100 2846     		mov	r0, r5
 389 0102 E4B2     		uxtb	r4, r4
 390 0104 FFF7FEFF 		bl	chIQPutI
 391              	.LVL34:
 392              		.loc 1 113 0
 393 0108 452C     		cmp	r4, #69
 394 010a F6D1     		bne	.L28
 395              		.loc 1 115 0
 396 010c FFF7FEFF 		bl	dbg_check_unlock
 397              	.LVL35:
 398              		.syntax unified
 399              	@ 115 "../../../test/testqueues.c" 1
ARM GAS  /tmp/cc7KQtny.s 			page 8


 400 0110 FFF7FEFF 		bl      _port_unlock
 401              	@ 0 "" 2
 402              		.loc 1 118 0
 403              		.thumb
 404              		.syntax unified
 405 0114 624E     		ldr	r6, .L43+8
 406 0116 2846     		mov	r0, r5
 407 0118 7168     		ldr	r1, [r6, #4]
 408 011a 0023     		movs	r3, #0
 409 011c 0822     		movs	r2, #8
 410 011e FFF7FEFF 		bl	chIQReadTimeout
 411              	.LVL36:
 412              		.loc 1 119 0
 413 0122 A0F10401 		sub	r1, r0, #4
 414 0126 B1FA81F1 		clz	r1, r1
 415 012a 4909     		lsrs	r1, r1, #5
 416 012c 0620     		movs	r0, #6
 417              	.LVL37:
 418 012e FFF7FEFF 		bl	_test_assert
 419              	.LVL38:
 420 0132 0028     		cmp	r0, #0
 421 0134 40F0A880 		bne	.L18
 422              		.loc 1 120 0
 423              		.syntax unified
 424              	@ 120 "../../../test/testqueues.c" 1
 425 0138 FFF7FEFF 		bl      _port_lock
 426              	@ 0 "" 2
 427              		.thumb
 428              		.syntax unified
 429 013c FFF7FEFF 		bl	dbg_check_lock
 430              	.LVL39:
 431 0140 A968     		ldr	r1, [r5, #8]
 432 0142 B1FA81F1 		clz	r1, r1
 433 0146 4909     		lsrs	r1, r1, #5
 434 0148 0720     		movs	r0, #7
 435 014a FFF7FEFF 		bl	_test_assert
 436              	.LVL40:
 437 014e 0028     		cmp	r0, #0
 438 0150 40F09680 		bne	.L40
 439 0154 FFF7FEFF 		bl	dbg_check_unlock
 440              	.LVL41:
 441              		.syntax unified
 442              	@ 120 "../../../test/testqueues.c" 1
 443 0158 FFF7FEFF 		bl      _port_unlock
 444              	@ 0 "" 2
 445              		.loc 1 123 0
 446              	@ 123 "../../../test/testqueues.c" 1
 447 015c FFF7FEFF 		bl      _port_lock
 448              	@ 0 "" 2
 449              		.thumb
 450              		.syntax unified
 451 0160 FFF7FEFF 		bl	dbg_check_lock
 452              	.LVL42:
 453 0164 4124     		movs	r4, #65
 454              	.LVL43:
 455              	.L31:
 456              		.loc 1 125 0
ARM GAS  /tmp/cc7KQtny.s 			page 9


 457 0166 4C4D     		ldr	r5, .L43
 458 0168 2146     		mov	r1, r4
 459 016a 0134     		adds	r4, r4, #1
 460 016c 2846     		mov	r0, r5
 461 016e E4B2     		uxtb	r4, r4
 462 0170 FFF7FEFF 		bl	chIQPutI
 463              	.LVL44:
 464              		.loc 1 124 0
 465 0174 452C     		cmp	r4, #69
 466 0176 F6D1     		bne	.L31
 467              		.loc 1 126 0
 468 0178 FFF7FEFF 		bl	dbg_check_unlock
 469              	.LVL45:
 470              		.syntax unified
 471              	@ 126 "../../../test/testqueues.c" 1
 472 017c FFF7FEFF 		bl      _port_unlock
 473              	@ 0 "" 2
 474              		.loc 1 129 0
 475              		.thumb
 476              		.syntax unified
 477 0180 7468     		ldr	r4, [r6, #4]
 478 0182 474E     		ldr	r6, .L43+8
 479 0184 2146     		mov	r1, r4
 480 0186 2846     		mov	r0, r5
 481 0188 0023     		movs	r3, #0
 482 018a 0222     		movs	r2, #2
 483 018c FFF7FEFF 		bl	chIQReadTimeout
 484              	.LVL46:
 485              		.loc 1 130 0
 486 0190 A0F10201 		sub	r1, r0, #2
 487 0194 B1FA81F1 		clz	r1, r1
 488 0198 4909     		lsrs	r1, r1, #5
 489 019a 0820     		movs	r0, #8
 490              	.LVL47:
 491 019c FFF7FEFF 		bl	_test_assert
 492              	.LVL48:
 493 01a0 0028     		cmp	r0, #0
 494 01a2 71D1     		bne	.L18
 495              		.loc 1 131 0
 496 01a4 0346     		mov	r3, r0
 497 01a6 2146     		mov	r1, r4
 498 01a8 0222     		movs	r2, #2
 499 01aa 2846     		mov	r0, r5
 500 01ac FFF7FEFF 		bl	chIQReadTimeout
 501              	.LVL49:
 502              		.loc 1 132 0
 503 01b0 A0F10201 		sub	r1, r0, #2
 504 01b4 B1FA81F1 		clz	r1, r1
 505 01b8 4909     		lsrs	r1, r1, #5
 506 01ba 0920     		movs	r0, #9
 507              	.LVL50:
 508 01bc FFF7FEFF 		bl	_test_assert
 509              	.LVL51:
 510 01c0 0028     		cmp	r0, #0
 511 01c2 61D1     		bne	.L18
 512              		.loc 1 133 0
 513              		.syntax unified
ARM GAS  /tmp/cc7KQtny.s 			page 10


 514              	@ 133 "../../../test/testqueues.c" 1
 515 01c4 FFF7FEFF 		bl      _port_lock
 516              	@ 0 "" 2
 517              		.thumb
 518              		.syntax unified
 519 01c8 FFF7FEFF 		bl	dbg_check_lock
 520              	.LVL52:
 521 01cc A968     		ldr	r1, [r5, #8]
 522 01ce B1FA81F1 		clz	r1, r1
 523 01d2 4909     		lsrs	r1, r1, #5
 524 01d4 0A20     		movs	r0, #10
 525 01d6 FFF7FEFF 		bl	_test_assert
 526              	.LVL53:
 527 01da 0446     		mov	r4, r0
 528 01dc 0028     		cmp	r0, #0
 529 01de 4FD1     		bne	.L40
 530 01e0 FFF7FEFF 		bl	dbg_check_unlock
 531              	.LVL54:
 532              		.syntax unified
 533              	@ 133 "../../../test/testqueues.c" 1
 534 01e4 FFF7FEFF 		bl      _port_unlock
 535              	@ 0 "" 2
 536              		.loc 1 136 0
 537              	@ 136 "../../../test/testqueues.c" 1
 538 01e8 FFF7FEFF 		bl      _port_lock
 539              	@ 0 "" 2
 540              		.thumb
 541              		.syntax unified
 542 01ec FFF7FEFF 		bl	dbg_check_lock
 543              	.LVL55:
 544              		.loc 1 137 0
 545 01f0 2146     		mov	r1, r4
 546 01f2 2846     		mov	r0, r5
 547 01f4 FFF7FEFF 		bl	chIQPutI
 548              	.LVL56:
 549              		.loc 1 138 0
 550 01f8 2846     		mov	r0, r5
 551 01fa FFF7FEFF 		bl	chIQResetI
 552              	.LVL57:
 553              		.loc 1 139 0
 554 01fe FFF7FEFF 		bl	dbg_check_unlock
 555              	.LVL58:
 556              		.syntax unified
 557              	@ 139 "../../../test/testqueues.c" 1
 558 0202 FFF7FEFF 		bl      _port_unlock
 559              	@ 0 "" 2
 560              		.loc 1 140 0
 561              	@ 140 "../../../test/testqueues.c" 1
 562 0206 FFF7FEFF 		bl      _port_lock
 563              	@ 0 "" 2
 564              		.thumb
 565              		.syntax unified
 566 020a FFF7FEFF 		bl	dbg_check_lock
 567              	.LVL59:
 568 020e A968     		ldr	r1, [r5, #8]
 569 0210 B1FA81F1 		clz	r1, r1
 570 0214 4909     		lsrs	r1, r1, #5
ARM GAS  /tmp/cc7KQtny.s 			page 11


 571 0216 0B20     		movs	r0, #11
 572 0218 FFF7FEFF 		bl	_test_assert
 573              	.LVL60:
 574 021c 0446     		mov	r4, r0
 575 021e 78BB     		cbnz	r0, .L40
 576 0220 FFF7FEFF 		bl	dbg_check_unlock
 577              	.LVL61:
 578              		.syntax unified
 579              	@ 140 "../../../test/testqueues.c" 1
 580 0224 FFF7FEFF 		bl      _port_unlock
 581              	@ 0 "" 2
 582              		.loc 1 141 0
 583              		.thumb
 584              		.syntax unified
 585 0228 1E4B     		ldr	r3, .L43+12
 586 022a 3068     		ldr	r0, [r6]
 587 022c 9A69     		ldr	r2, [r3, #24]
 588 022e 1E4B     		ldr	r3, .L43+16
 589 0230 9268     		ldr	r2, [r2, #8]
 590 0232 0094     		str	r4, [sp]
 591 0234 0132     		adds	r2, r2, #1
 592 0236 4FF4A871 		mov	r1, #336
 593 023a FFF7FEFF 		bl	chThdCreateStatic
 594              	.LVL62:
 595 023e 1B4B     		ldr	r3, .L43+20
 596 0240 1860     		str	r0, [r3]
 597              		.loc 1 142 0
 598              		.syntax unified
 599              	@ 142 "../../../test/testqueues.c" 1
 600 0242 FFF7FEFF 		bl      _port_lock
 601              	@ 0 "" 2
 602              		.thumb
 603              		.syntax unified
 604 0246 FFF7FEFF 		bl	dbg_check_lock
 605              	.LVL63:
 606 024a A968     		ldr	r1, [r5, #8]
 607 024c B1FA81F1 		clz	r1, r1
 608 0250 4909     		lsrs	r1, r1, #5
 609 0252 0C20     		movs	r0, #12
 610 0254 FFF7FEFF 		bl	_test_assert
 611              	.LVL64:
 612 0258 90B9     		cbnz	r0, .L40
 613 025a FFF7FEFF 		bl	dbg_check_unlock
 614              	.LVL65:
 615              		.syntax unified
 616              	@ 142 "../../../test/testqueues.c" 1
 617 025e FFF7FEFF 		bl      _port_unlock
 618              	@ 0 "" 2
 619              		.loc 1 143 0
 620              		.thumb
 621              		.syntax unified
 622 0262 FFF7FEFF 		bl	test_wait_threads
 623              	.LVL66:
 624              		.loc 1 146 0
 625 0266 2846     		mov	r0, r5
 626 0268 0A21     		movs	r1, #10
 627 026a FFF7FEFF 		bl	chIQGetTimeout
ARM GAS  /tmp/cc7KQtny.s 			page 12


 628              	.LVL67:
 629 026e 431C     		adds	r3, r0, #1
 630 0270 5942     		rsbs	r1, r3, #0
 631 0272 5941     		adcs	r1, r1, r3
 632 0274 0D20     		movs	r0, #13
 633              	.LBE6:
 634              	.LBE5:
 635              		.loc 1 147 0
 636 0276 02B0     		add	sp, sp, #8
 637              		.cfi_remember_state
 638              		.cfi_def_cfa_offset 16
 639              		@ sp needed
 640 0278 BDE87040 		pop	{r4, r5, r6, lr}
 641              		.cfi_restore 14
 642              		.cfi_restore 6
 643              		.cfi_restore 5
 644              		.cfi_restore 4
 645              		.cfi_def_cfa_offset 0
 646              	.LBB9:
 647              	.LBB7:
 648              		.loc 1 146 0
 649 027c FFF7FEBF 		b	_test_assert
 650              	.LVL68:
 651              	.L40:
 652              		.cfi_restore_state
 653              		.loc 1 142 0
 654 0280 FFF7FEFF 		bl	dbg_check_unlock
 655              	.LVL69:
 656              		.syntax unified
 657              	@ 142 "../../../test/testqueues.c" 1
 658 0284 FFF7FEFF 		bl      _port_unlock
 659              	@ 0 "" 2
 660              		.thumb
 661              		.syntax unified
 662              	.L18:
 663              	.LBE7:
 664              	.LBE9:
 665              		.loc 1 147 0
 666 0288 02B0     		add	sp, sp, #8
 667              		.cfi_remember_state
 668              		.cfi_def_cfa_offset 16
 669              		@ sp needed
 670 028a 70BD     		pop	{r4, r5, r6, pc}
 671              	.L42:
 672              		.cfi_restore_state
 673              	.LBB10:
 674              	.LBB8:
 675              		.loc 1 102 0
 676 028c AE68     		ldr	r6, [r5, #8]
 677 028e 0036     		adds	r6, r6, #0
 678 0290 18BF     		it	ne
 679 0292 0126     		movne	r6, #1
 680 0294 E5E6     		b	.L22
 681              	.L44:
 682 0296 00BF     		.align	2
 683              	.L43:
 684 0298 00000000 		.word	.LANCHOR0
ARM GAS  /tmp/cc7KQtny.s 			page 13


 685 029c 00000000 		.word	.LC0
 686 02a0 00000000 		.word	wa
 687 02a4 00000000 		.word	rlist
 688 02a8 00000000 		.word	thread1
 689 02ac 00000000 		.word	threads
 690              	.LBE8:
 691              	.LBE10:
 692              		.cfi_endproc
 693              	.LFE3:
 694              		.size	queues1_execute, .-queues1_execute
 695              		.section	.text.queues2_execute,"ax",%progbits
 696              		.align	2
 697              		.p2align 4,,15
 698              		.thumb
 699              		.thumb_func
 700              		.type	queues2_execute, %function
 701              	queues2_execute:
 702              	.LFB6:
 703              		.loc 1 177 0
 704              		.cfi_startproc
 705              		@ args = 0, pretend = 0, frame = 0
 706              		@ frame_needed = 0, uses_anonymous_args = 0
 707 0000 F0B5     		push	{r4, r5, r6, r7, lr}
 708              		.cfi_def_cfa_offset 20
 709              		.cfi_offset 4, -20
 710              		.cfi_offset 5, -16
 711              		.cfi_offset 6, -12
 712              		.cfi_offset 7, -8
 713              		.cfi_offset 14, -4
 714 0002 83B0     		sub	sp, sp, #12
 715              		.cfi_def_cfa_offset 32
 716              		.loc 1 182 0
 717              		.syntax unified
 718              	@ 182 "../../../test/testqueues.c" 1
 719 0004 FFF7FEFF 		bl      _port_lock
 720              	@ 0 "" 2
 721              		.thumb
 722              		.syntax unified
 723 0008 FFF7FEFF 		bl	dbg_check_lock
 724              	.LVL70:
 725 000c 964B     		ldr	r3, .L68
 726 000e 5969     		ldr	r1, [r3, #20]
 727 0010 9A69     		ldr	r2, [r3, #24]
 728 0012 9142     		cmp	r1, r2
 729 0014 00F01E81 		beq	.L66
 730 0018 0021     		movs	r1, #0
 731              	.L46:
 732              		.loc 1 182 0 is_stmt 0 discriminator 6
 733 001a 0120     		movs	r0, #1
 734 001c FFF7FEFF 		bl	_test_assert
 735              	.LVL71:
 736 0020 0028     		cmp	r0, #0
 737 0022 40F01181 		bne	.L65
 738              	.LBB14:
 739              	.LBB15:
 740              		.loc 1 182 0
 741 0026 FFF7FEFF 		bl	dbg_check_unlock
ARM GAS  /tmp/cc7KQtny.s 			page 14


 742              	.LVL72:
 743              		.syntax unified
 744              	@ 182 "../../../test/testqueues.c" 1
 745 002a FFF7FEFF 		bl      _port_unlock
 746              	@ 0 "" 2
 747              	.LVL73:
 748              		.thumb
 749              		.syntax unified
 750 002e 4124     		movs	r4, #65
 751              	.LVL74:
 752              	.L49:
 753              		.loc 1 186 0 is_stmt 1
 754 0030 8D4D     		ldr	r5, .L68
 755 0032 2146     		mov	r1, r4
 756 0034 0134     		adds	r4, r4, #1
 757 0036 4FF0FF32 		mov	r2, #-1
 758 003a 2846     		mov	r0, r5
 759 003c E4B2     		uxtb	r4, r4
 760 003e FFF7FEFF 		bl	chOQPutTimeout
 761              	.LVL75:
 762              		.loc 1 185 0
 763 0042 452C     		cmp	r4, #69
 764 0044 F4D1     		bne	.L49
 765              		.loc 1 187 0
 766              		.syntax unified
 767              	@ 187 "../../../test/testqueues.c" 1
 768 0046 FFF7FEFF 		bl      _port_lock
 769              	@ 0 "" 2
 770              		.thumb
 771              		.syntax unified
 772 004a FFF7FEFF 		bl	dbg_check_lock
 773              	.LVL76:
 774 004e A968     		ldr	r1, [r5, #8]
 775 0050 B1FA81F1 		clz	r1, r1
 776 0054 4909     		lsrs	r1, r1, #5
 777 0056 0220     		movs	r0, #2
 778 0058 FFF7FEFF 		bl	_test_assert
 779              	.LVL77:
 780 005c 0746     		mov	r7, r0
 781 005e 0028     		cmp	r0, #0
 782 0060 40F0F280 		bne	.L65
 783 0064 FFF7FEFF 		bl	dbg_check_unlock
 784              	.LVL78:
 785              		.syntax unified
 786              	@ 187 "../../../test/testqueues.c" 1
 787 0068 FFF7FEFF 		bl      _port_unlock
 788              	@ 0 "" 2
 789              	.LVL79:
 790              		.thumb
 791              		.syntax unified
 792 006c 0424     		movs	r4, #4
 793              	.LVL80:
 794              	.L51:
 795              	.LBB16:
 796              		.loc 1 193 0
 797              		.syntax unified
 798              	@ 193 "../../../test/testqueues.c" 1
ARM GAS  /tmp/cc7KQtny.s 			page 15


 799 006e FFF7FEFF 		bl      _port_lock
 800              	@ 0 "" 2
 801              		.loc 1 194 0
 802              		.thumb
 803              		.syntax unified
 804 0072 7D4D     		ldr	r5, .L68
 805              		.loc 1 193 0
 806 0074 FFF7FEFF 		bl	dbg_check_lock
 807              	.LVL81:
 808              		.loc 1 194 0
 809 0078 2846     		mov	r0, r5
 810 007a FFF7FEFF 		bl	chOQGetI
 811              	.LVL82:
 812 007e 0646     		mov	r6, r0
 813              	.LVL83:
 814              		.loc 1 195 0
 815 0080 FFF7FEFF 		bl	dbg_check_unlock
 816              	.LVL84:
 817              		.syntax unified
 818              	@ 195 "../../../test/testqueues.c" 1
 819 0084 FFF7FEFF 		bl      _port_unlock
 820              	@ 0 "" 2
 821              		.loc 1 196 0
 822              		.thumb
 823              		.syntax unified
 824 0088 F0B2     		uxtb	r0, r6
 825 008a FFF7FEFF 		bl	test_emit_token
 826              	.LVL85:
 827              	.LBE16:
 828              		.loc 1 190 0
 829 008e 013C     		subs	r4, r4, #1
 830              	.LVL86:
 831 0090 EDD1     		bne	.L51
 832              		.loc 1 198 0
 833              		.syntax unified
 834              	@ 198 "../../../test/testqueues.c" 1
 835 0092 FFF7FEFF 		bl      _port_lock
 836              	@ 0 "" 2
 837              		.thumb
 838              		.syntax unified
 839 0096 FFF7FEFF 		bl	dbg_check_lock
 840              	.LVL87:
 841 009a 6A69     		ldr	r2, [r5, #20]
 842 009c AB69     		ldr	r3, [r5, #24]
 843 009e 9A42     		cmp	r2, r3
 844 00a0 00F0DD80 		beq	.L67
 845              	.L52:
 846 00a4 3946     		mov	r1, r7
 847 00a6 0320     		movs	r0, #3
 848 00a8 FFF7FEFF 		bl	_test_assert
 849              	.LVL88:
 850 00ac 0028     		cmp	r0, #0
 851 00ae 40F0CB80 		bne	.L65
 852 00b2 FFF7FEFF 		bl	dbg_check_unlock
 853              	.LVL89:
 854              		.syntax unified
 855              	@ 198 "../../../test/testqueues.c" 1
ARM GAS  /tmp/cc7KQtny.s 			page 16


 856 00b6 FFF7FEFF 		bl      _port_unlock
 857              	@ 0 "" 2
 858              		.loc 1 199 0
 859              		.thumb
 860              		.syntax unified
 861 00ba 6C49     		ldr	r1, .L68+4
 862 00bc 0420     		movs	r0, #4
 863 00be FFF7FEFF 		bl	_test_assert_sequence
 864              	.LVL90:
 865 00c2 0028     		cmp	r0, #0
 866 00c4 40F0C480 		bne	.L45
 867              		.loc 1 200 0
 868              		.syntax unified
 869              	@ 200 "../../../test/testqueues.c" 1
 870 00c8 FFF7FEFF 		bl      _port_lock
 871              	@ 0 "" 2
 872              		.thumb
 873              		.syntax unified
 874 00cc 664C     		ldr	r4, .L68
 875              	.LVL91:
 876 00ce FFF7FEFF 		bl	dbg_check_lock
 877              	.LVL92:
 878 00d2 2046     		mov	r0, r4
 879 00d4 FFF7FEFF 		bl	chOQGetI
 880              	.LVL93:
 881 00d8 0330     		adds	r0, r0, #3
 882 00da 14BF     		ite	ne
 883 00dc 0021     		movne	r1, #0
 884 00de 0121     		moveq	r1, #1
 885 00e0 0520     		movs	r0, #5
 886 00e2 FFF7FEFF 		bl	_test_assert
 887              	.LVL94:
 888 00e6 0546     		mov	r5, r0
 889 00e8 0028     		cmp	r0, #0
 890 00ea 40F0AD80 		bne	.L65
 891 00ee FFF7FEFF 		bl	dbg_check_unlock
 892              	.LVL95:
 893              		.syntax unified
 894              	@ 200 "../../../test/testqueues.c" 1
 895 00f2 FFF7FEFF 		bl      _port_unlock
 896              	@ 0 "" 2
 897              		.loc 1 203 0
 898              		.thumb
 899              		.syntax unified
 900 00f6 5E4E     		ldr	r6, .L68+8
 901              	.LVL96:
 902 00f8 7768     		ldr	r7, [r6, #4]
 903 00fa 2B46     		mov	r3, r5
 904 00fc 3946     		mov	r1, r7
 905 00fe 2046     		mov	r0, r4
 906 0100 0822     		movs	r2, #8
 907 0102 FFF7FEFF 		bl	chOQWriteTimeout
 908              	.LVL97:
 909              		.loc 1 204 0
 910 0106 A0F10401 		sub	r1, r0, #4
 911 010a B1FA81F1 		clz	r1, r1
 912 010e 4909     		lsrs	r1, r1, #5
ARM GAS  /tmp/cc7KQtny.s 			page 17


 913 0110 0620     		movs	r0, #6
 914              	.LVL98:
 915 0112 FFF7FEFF 		bl	_test_assert
 916              	.LVL99:
 917 0116 0028     		cmp	r0, #0
 918 0118 40F09A80 		bne	.L45
 919              		.loc 1 205 0
 920              		.syntax unified
 921              	@ 205 "../../../test/testqueues.c" 1
 922 011c FFF7FEFF 		bl      _port_lock
 923              	@ 0 "" 2
 924              		.thumb
 925              		.syntax unified
 926 0120 FFF7FEFF 		bl	dbg_check_lock
 927              	.LVL100:
 928 0124 A168     		ldr	r1, [r4, #8]
 929 0126 B1FA81F1 		clz	r1, r1
 930 012a 4909     		lsrs	r1, r1, #5
 931 012c 0720     		movs	r0, #7
 932 012e FFF7FEFF 		bl	_test_assert
 933              	.LVL101:
 934 0132 0546     		mov	r5, r0
 935 0134 0028     		cmp	r0, #0
 936 0136 40F08780 		bne	.L65
 937 013a FFF7FEFF 		bl	dbg_check_unlock
 938              	.LVL102:
 939              		.syntax unified
 940              	@ 205 "../../../test/testqueues.c" 1
 941 013e FFF7FEFF 		bl      _port_unlock
 942              	@ 0 "" 2
 943              		.loc 1 206 0
 944              		.thumb
 945              		.syntax unified
 946 0142 4C4B     		ldr	r3, .L68+12
 947 0144 3068     		ldr	r0, [r6]
 948 0146 9A69     		ldr	r2, [r3, #24]
 949 0148 4B4B     		ldr	r3, .L68+16
 950 014a 9268     		ldr	r2, [r2, #8]
 951 014c 0095     		str	r5, [sp]
 952 014e 0132     		adds	r2, r2, #1
 953 0150 4FF4A871 		mov	r1, #336
 954 0154 FFF7FEFF 		bl	chThdCreateStatic
 955              	.LVL103:
 956 0158 484B     		ldr	r3, .L68+20
 957 015a 1860     		str	r0, [r3]
 958              		.loc 1 207 0
 959              		.syntax unified
 960              	@ 207 "../../../test/testqueues.c" 1
 961 015c FFF7FEFF 		bl      _port_lock
 962              	@ 0 "" 2
 963              		.thumb
 964              		.syntax unified
 965 0160 FFF7FEFF 		bl	dbg_check_lock
 966              	.LVL104:
 967 0164 E168     		ldr	r1, [r4, #12]
 968 0166 2369     		ldr	r3, [r4, #16]
 969 0168 A268     		ldr	r2, [r4, #8]
ARM GAS  /tmp/cc7KQtny.s 			page 18


 970 016a 5B1A     		subs	r3, r3, r1
 971 016c 991A     		subs	r1, r3, r2
 972 016e A1F10401 		sub	r1, #4
 973 0172 B1FA81F1 		clz	r1, r1
 974 0176 4909     		lsrs	r1, r1, #5
 975 0178 0820     		movs	r0, #8
 976 017a FFF7FEFF 		bl	_test_assert
 977              	.LVL105:
 978 017e 0028     		cmp	r0, #0
 979 0180 62D1     		bne	.L65
 980 0182 FFF7FEFF 		bl	dbg_check_unlock
 981              	.LVL106:
 982              		.syntax unified
 983              	@ 207 "../../../test/testqueues.c" 1
 984 0186 FFF7FEFF 		bl      _port_unlock
 985              	@ 0 "" 2
 986              		.loc 1 208 0
 987              		.thumb
 988              		.syntax unified
 989 018a FFF7FEFF 		bl	test_wait_threads
 990              	.LVL107:
 991              		.loc 1 211 0
 992              		.syntax unified
 993              	@ 211 "../../../test/testqueues.c" 1
 994 018e FFF7FEFF 		bl      _port_lock
 995              	@ 0 "" 2
 996              		.thumb
 997              		.syntax unified
 998 0192 FFF7FEFF 		bl	dbg_check_lock
 999              	.LVL108:
 1000              		.loc 1 212 0
 1001 0196 2046     		mov	r0, r4
 1002 0198 FFF7FEFF 		bl	chOQResetI
 1003              	.LVL109:
 1004              		.loc 1 213 0
 1005 019c FFF7FEFF 		bl	dbg_check_unlock
 1006              	.LVL110:
 1007              		.syntax unified
 1008              	@ 213 "../../../test/testqueues.c" 1
 1009 01a0 FFF7FEFF 		bl      _port_unlock
 1010              	@ 0 "" 2
 1011              		.loc 1 214 0
 1012              	@ 214 "../../../test/testqueues.c" 1
 1013 01a4 FFF7FEFF 		bl      _port_lock
 1014              	@ 0 "" 2
 1015              		.thumb
 1016              		.syntax unified
 1017 01a8 FFF7FEFF 		bl	dbg_check_lock
 1018              	.LVL111:
 1019 01ac 04F10801 		add	r1, r4, #8
 1020 01b0 0EC9     		ldmia	r1, {r1, r2, r3}
 1021 01b2 9B1A     		subs	r3, r3, r2
 1022 01b4 591A     		subs	r1, r3, r1
 1023 01b6 B1FA81F1 		clz	r1, r1
 1024 01ba 4909     		lsrs	r1, r1, #5
 1025 01bc 0920     		movs	r0, #9
 1026 01be FFF7FEFF 		bl	_test_assert
ARM GAS  /tmp/cc7KQtny.s 			page 19


 1027              	.LVL112:
 1028 01c2 0546     		mov	r5, r0
 1029 01c4 0028     		cmp	r0, #0
 1030 01c6 3FD1     		bne	.L65
 1031 01c8 FFF7FEFF 		bl	dbg_check_unlock
 1032              	.LVL113:
 1033              		.syntax unified
 1034              	@ 214 "../../../test/testqueues.c" 1
 1035 01cc FFF7FEFF 		bl      _port_unlock
 1036              	@ 0 "" 2
 1037              		.loc 1 217 0
 1038              		.thumb
 1039              		.syntax unified
 1040 01d0 0222     		movs	r2, #2
 1041 01d2 2B46     		mov	r3, r5
 1042 01d4 3946     		mov	r1, r7
 1043 01d6 2046     		mov	r0, r4
 1044 01d8 FFF7FEFF 		bl	chOQWriteTimeout
 1045              	.LVL114:
 1046              		.loc 1 218 0
 1047 01dc A0F10201 		sub	r1, r0, #2
 1048 01e0 B1FA81F1 		clz	r1, r1
 1049 01e4 4909     		lsrs	r1, r1, #5
 1050 01e6 0A20     		movs	r0, #10
 1051              	.LVL115:
 1052 01e8 FFF7FEFF 		bl	_test_assert
 1053              	.LVL116:
 1054 01ec 0346     		mov	r3, r0
 1055 01ee 78BB     		cbnz	r0, .L45
 1056              		.loc 1 219 0
 1057 01f0 3946     		mov	r1, r7
 1058 01f2 0222     		movs	r2, #2
 1059 01f4 2046     		mov	r0, r4
 1060 01f6 FFF7FEFF 		bl	chOQWriteTimeout
 1061              	.LVL117:
 1062              		.loc 1 220 0
 1063 01fa A0F10201 		sub	r1, r0, #2
 1064 01fe B1FA81F1 		clz	r1, r1
 1065 0202 4909     		lsrs	r1, r1, #5
 1066 0204 0B20     		movs	r0, #11
 1067              	.LVL118:
 1068 0206 FFF7FEFF 		bl	_test_assert
 1069              	.LVL119:
 1070 020a 08BB     		cbnz	r0, .L45
 1071              		.loc 1 221 0
 1072              		.syntax unified
 1073              	@ 221 "../../../test/testqueues.c" 1
 1074 020c FFF7FEFF 		bl      _port_lock
 1075              	@ 0 "" 2
 1076              		.thumb
 1077              		.syntax unified
 1078 0210 FFF7FEFF 		bl	dbg_check_lock
 1079              	.LVL120:
 1080 0214 A168     		ldr	r1, [r4, #8]
 1081 0216 B1FA81F1 		clz	r1, r1
 1082 021a 4909     		lsrs	r1, r1, #5
 1083 021c 0C20     		movs	r0, #12
ARM GAS  /tmp/cc7KQtny.s 			page 20


 1084 021e FFF7FEFF 		bl	_test_assert
 1085              	.LVL121:
 1086 0222 88B9     		cbnz	r0, .L65
 1087 0224 FFF7FEFF 		bl	dbg_check_unlock
 1088              	.LVL122:
 1089              		.syntax unified
 1090              	@ 221 "../../../test/testqueues.c" 1
 1091 0228 FFF7FEFF 		bl      _port_unlock
 1092              	@ 0 "" 2
 1093              		.loc 1 224 0
 1094              		.thumb
 1095              		.syntax unified
 1096 022c 0A22     		movs	r2, #10
 1097 022e 0021     		movs	r1, #0
 1098 0230 0D48     		ldr	r0, .L68
 1099 0232 FFF7FEFF 		bl	chOQPutTimeout
 1100              	.LVL123:
 1101 0236 431C     		adds	r3, r0, #1
 1102 0238 5942     		rsbs	r1, r3, #0
 1103 023a 5941     		adcs	r1, r1, r3
 1104 023c 0D20     		movs	r0, #13
 1105              	.LBE15:
 1106              	.LBE14:
 1107              		.loc 1 225 0
 1108 023e 03B0     		add	sp, sp, #12
 1109              		.cfi_remember_state
 1110              		.cfi_def_cfa_offset 20
 1111              		@ sp needed
 1112 0240 BDE8F040 		pop	{r4, r5, r6, r7, lr}
 1113              		.cfi_restore 14
 1114              		.cfi_restore 7
 1115              		.cfi_restore 6
 1116              		.cfi_restore 5
 1117              		.cfi_restore 4
 1118              		.cfi_def_cfa_offset 0
 1119              	.LBB19:
 1120              	.LBB17:
 1121              		.loc 1 224 0
 1122 0244 FFF7FEBF 		b	_test_assert
 1123              	.LVL124:
 1124              	.L65:
 1125              		.cfi_restore_state
 1126              		.loc 1 221 0
 1127 0248 FFF7FEFF 		bl	dbg_check_unlock
 1128              	.LVL125:
 1129              		.syntax unified
 1130              	@ 221 "../../../test/testqueues.c" 1
 1131 024c FFF7FEFF 		bl      _port_unlock
 1132              	@ 0 "" 2
 1133              		.thumb
 1134              		.syntax unified
 1135              	.L45:
 1136              	.LBE17:
 1137              	.LBE19:
 1138              		.loc 1 225 0
 1139 0250 03B0     		add	sp, sp, #12
 1140              		.cfi_remember_state
ARM GAS  /tmp/cc7KQtny.s 			page 21


 1141              		.cfi_def_cfa_offset 20
 1142              		@ sp needed
 1143 0252 F0BD     		pop	{r4, r5, r6, r7, pc}
 1144              	.L66:
 1145              		.cfi_restore_state
 1146              		.loc 1 182 0 discriminator 1
 1147 0254 9968     		ldr	r1, [r3, #8]
 1148 0256 0031     		adds	r1, r1, #0
 1149 0258 18BF     		it	ne
 1150 025a 0121     		movne	r1, #1
 1151 025c DDE6     		b	.L46
 1152              	.LVL126:
 1153              	.L67:
 1154              	.LBB20:
 1155              	.LBB18:
 1156              		.loc 1 198 0
 1157 025e AF68     		ldr	r7, [r5, #8]
 1158 0260 0037     		adds	r7, r7, #0
 1159 0262 18BF     		it	ne
 1160 0264 0127     		movne	r7, #1
 1161 0266 1DE7     		b	.L52
 1162              	.L69:
 1163              		.align	2
 1164              	.L68:
 1165 0268 00000000 		.word	.LANCHOR1
 1166 026c 00000000 		.word	.LC0
 1167 0270 00000000 		.word	wa
 1168 0274 00000000 		.word	rlist
 1169 0278 00000000 		.word	thread2
 1170 027c 00000000 		.word	threads
 1171              	.LBE18:
 1172              	.LBE20:
 1173              		.cfi_endproc
 1174              	.LFE6:
 1175              		.size	queues2_execute, .-queues2_execute
 1176              		.global	patternqueues
 1177              		.global	testqueues2
 1178              		.global	testqueues1
 1179              		.section	.rodata.patternqueues,"a",%progbits
 1180              		.align	2
 1181              		.type	patternqueues, %object
 1182              		.size	patternqueues, 12
 1183              	patternqueues:
 1184 0000 00000000 		.word	testqueues1
 1185 0004 00000000 		.word	testqueues2
 1186 0008 00000000 		.word	0
 1187              		.section	.rodata.testqueues2,"a",%progbits
 1188              		.align	2
 1189              		.type	testqueues2, %object
 1190              		.size	testqueues2, 16
 1191              	testqueues2:
 1192 0000 08000000 		.word	.LC1
 1193 0004 00000000 		.word	queues2_setup
 1194 0008 00000000 		.word	0
 1195 000c 00000000 		.word	queues2_execute
 1196              		.section	.rodata.str1.4,"aMS",%progbits,1
 1197              		.align	2
ARM GAS  /tmp/cc7KQtny.s 			page 22


 1198              	.LC0:
 1199 0000 41424344 		.ascii	"ABCD\000"
 1199      00
 1200 0005 000000   		.space	3
 1201              	.LC1:
 1202 0008 51756575 		.ascii	"Queues, output queues\000"
 1202      65732C20 
 1202      6F757470 
 1202      75742071 
 1202      75657565 
 1203 001e 0000     		.space	2
 1204              	.LC2:
 1205 0020 51756575 		.ascii	"Queues, input queues\000"
 1205      65732C20 
 1205      696E7075 
 1205      74207175 
 1205      65756573 
 1206              		.section	.rodata.testqueues1,"a",%progbits
 1207              		.align	2
 1208              		.type	testqueues1, %object
 1209              		.size	testqueues1, 16
 1210              	testqueues1:
 1211 0000 20000000 		.word	.LC2
 1212 0004 00000000 		.word	queues1_setup
 1213 0008 00000000 		.word	0
 1214 000c 00000000 		.word	queues1_execute
 1215              		.section	.data.oq,"aw",%progbits
 1216              		.align	2
 1217              		.set	.LANCHOR1,. + 0
 1218              		.type	oq, %object
 1219              		.size	oq, 36
 1220              	oq:
 1221 0000 00000000 		.word	oq
 1222 0004 00000000 		.word	oq
 1223 0008 04000000 		.word	4
 1224 000c 50010000 		.word	test+336
 1225 0010 54010000 		.word	test+340
 1226 0014 50010000 		.word	test+336
 1227 0018 50010000 		.word	test+336
 1228 001c 00000000 		.word	notify
 1229 0020 00000000 		.word	0
 1230              		.section	.data.iq,"aw",%progbits
 1231              		.align	2
 1232              		.set	.LANCHOR0,. + 0
 1233              		.type	iq, %object
 1234              		.size	iq, 36
 1235              	iq:
 1236 0000 00000000 		.word	iq
 1237 0004 00000000 		.word	iq
 1238 0008 00000000 		.word	0
 1239 000c 00000000 		.word	test
 1240 0010 04000000 		.word	test+4
 1241 0014 00000000 		.word	test
 1242 0018 00000000 		.word	test
 1243 001c 00000000 		.word	notify
 1244 0020 00000000 		.word	0
 1245              		.text
ARM GAS  /tmp/cc7KQtny.s 			page 23


 1246              	.Letext0:
 1247              		.file 2 "/home/z80/programs/sw4stm32/plugins/fr.ac6.mcu.externaltools.arm-none.linux32_1.7.0.20160
 1248              		.file 3 "/home/z80/programs/sw4stm32/plugins/fr.ac6.mcu.externaltools.arm-none.linux32_1.7.0.20160
 1249              		.file 4 "/home/z80/programs/sw4stm32/plugins/fr.ac6.mcu.externaltools.arm-none.linux32_1.7.0.20160
 1250              		.file 5 "../../../os/ports/GCC/ARMCMx/chtypes.h"
 1251              		.file 6 "../../../os/kernel/include/chlists.h"
 1252              		.file 7 "../../../os/kernel/include/chthreads.h"
 1253              		.file 8 "../../../os/ports/GCC/ARMCMx/chcore_v7m.h"
 1254              		.file 9 "../../../os/kernel/include/chschd.h"
 1255              		.file 10 "../../../os/kernel/include/chmtx.h"
 1256              		.file 11 "../../../os/kernel/include/chqueues.h"
 1257              		.file 12 "../../../test/test.h"
 1258              		.file 13 "../../../os/kernel/include/chdebug.h"