ARM GAS  /tmp/ccar49s8.s 			page 1


   1              		.syntax unified
   2              		.cpu cortex-m4
   3              		.fpu softvfp
   4              		.eabi_attribute 20, 1
   5              		.eabi_attribute 21, 1
   6              		.eabi_attribute 23, 3
   7              		.eabi_attribute 24, 1
   8              		.eabi_attribute 25, 1
   9              		.eabi_attribute 26, 1
  10              		.eabi_attribute 30, 2
  11              		.eabi_attribute 34, 1
  12              		.eabi_attribute 18, 4
  13              		.thumb
  14              		.syntax unified
  15              		.file	"testmtx.c"
  16              		.text
  17              	.Ltext0:
  18              		.cfi_sections	.debug_frame
  19              		.section	.text.mtx1_execute,"ax",%progbits
  20              		.align	2
  21              		.p2align 4,,15
  22              		.thumb
  23              		.thumb_func
  24              		.type	mtx1_execute, %function
  25              	mtx1_execute:
  26              	.LFB2:
  27              		.file 1 "../../../test/testmtx.c"
  28              		.loc 1 97 0
  29              		.cfi_startproc
  30              		@ args = 0, pretend = 0, frame = 0
  31              		@ frame_needed = 0, uses_anonymous_args = 0
  32 0000 F0B5     		push	{r4, r5, r6, r7, lr}
  33              		.cfi_def_cfa_offset 20
  34              		.cfi_offset 4, -20
  35              		.cfi_offset 5, -16
  36              		.cfi_offset 6, -12
  37              		.cfi_offset 7, -8
  38              		.cfi_offset 14, -4
  39              		.loc 1 99 0
  40 0002 2B4F     		ldr	r7, .L6
  41              		.loc 1 101 0
  42 0004 2B4E     		ldr	r6, .L6+4
  43              		.loc 1 99 0
  44 0006 BB69     		ldr	r3, [r7, #24]
  45              		.loc 1 100 0
  46 0008 2B48     		ldr	r0, .L6+8
  47              		.loc 1 99 0
  48 000a 9C68     		ldr	r4, [r3, #8]
  49              	.LVL0:
  50              		.loc 1 101 0
  51 000c 2B4D     		ldr	r5, .L6+12
  52              		.loc 1 97 0
  53 000e 83B0     		sub	sp, sp, #12
  54              		.cfi_def_cfa_offset 32
  55              		.loc 1 100 0
  56 0010 FFF7FEFF 		bl	chMtxLock
  57              	.LVL1:
ARM GAS  /tmp/ccar49s8.s 			page 2


  58              		.loc 1 101 0
  59 0014 2A4B     		ldr	r3, .L6+16
  60 0016 0093     		str	r3, [sp]
  61 0018 621C     		adds	r2, r4, #1
  62 001a 2A4B     		ldr	r3, .L6+20
  63 001c 3068     		ldr	r0, [r6]
  64 001e 4FF4A871 		mov	r1, #336
  65 0022 FFF7FEFF 		bl	chThdCreateStatic
  66              	.LVL2:
  67              		.loc 1 102 0
  68 0026 7168     		ldr	r1, [r6, #4]
  69 0028 274B     		ldr	r3, .L6+24
  70              		.loc 1 101 0
  71 002a 2860     		str	r0, [r5]
  72              		.loc 1 102 0
  73 002c A21C     		adds	r2, r4, #2
  74 002e 0846     		mov	r0, r1
  75 0030 0093     		str	r3, [sp]
  76 0032 4FF4A871 		mov	r1, #336
  77 0036 234B     		ldr	r3, .L6+20
  78 0038 FFF7FEFF 		bl	chThdCreateStatic
  79              	.LVL3:
  80              		.loc 1 103 0
  81 003c B168     		ldr	r1, [r6, #8]
  82 003e 234B     		ldr	r3, .L6+28
  83              		.loc 1 102 0
  84 0040 6860     		str	r0, [r5, #4]
  85              		.loc 1 103 0
  86 0042 E21C     		adds	r2, r4, #3
  87 0044 0846     		mov	r0, r1
  88 0046 0093     		str	r3, [sp]
  89 0048 4FF4A871 		mov	r1, #336
  90 004c 1D4B     		ldr	r3, .L6+20
  91 004e FFF7FEFF 		bl	chThdCreateStatic
  92              	.LVL4:
  93              		.loc 1 104 0
  94 0052 F168     		ldr	r1, [r6, #12]
  95 0054 1E4B     		ldr	r3, .L6+32
  96              		.loc 1 103 0
  97 0056 A860     		str	r0, [r5, #8]
  98              		.loc 1 104 0
  99 0058 221D     		adds	r2, r4, #4
 100 005a 0846     		mov	r0, r1
 101 005c 0093     		str	r3, [sp]
 102 005e 4FF4A871 		mov	r1, #336
 103 0062 184B     		ldr	r3, .L6+20
 104 0064 FFF7FEFF 		bl	chThdCreateStatic
 105              	.LVL5:
 106              		.loc 1 105 0
 107 0068 3169     		ldr	r1, [r6, #16]
 108 006a 1A4B     		ldr	r3, .L6+36
 109              		.loc 1 104 0
 110 006c E860     		str	r0, [r5, #12]
 111              		.loc 1 105 0
 112 006e 621D     		adds	r2, r4, #5
 113 0070 0846     		mov	r0, r1
 114 0072 0093     		str	r3, [sp]
ARM GAS  /tmp/ccar49s8.s 			page 3


 115 0074 4FF4A871 		mov	r1, #336
 116 0078 124B     		ldr	r3, .L6+20
 117 007a FFF7FEFF 		bl	chThdCreateStatic
 118              	.LVL6:
 119 007e 2861     		str	r0, [r5, #16]
 120              		.loc 1 106 0
 121 0080 FFF7FEFF 		bl	chMtxUnlock
 122              	.LVL7:
 123              		.loc 1 107 0
 124 0084 FFF7FEFF 		bl	test_wait_threads
 125              	.LVL8:
 126              		.loc 1 108 0
 127 0088 BB69     		ldr	r3, [r7, #24]
 128 008a 9968     		ldr	r1, [r3, #8]
 129 008c 091B     		subs	r1, r1, r4
 130 008e B1FA81F1 		clz	r1, r1
 131 0092 0120     		movs	r0, #1
 132 0094 4909     		lsrs	r1, r1, #5
 133 0096 FFF7FEFF 		bl	_test_assert
 134              	.LVL9:
 135 009a 08B1     		cbz	r0, .L5
 136              		.loc 1 110 0
 137 009c 03B0     		add	sp, sp, #12
 138              		.cfi_remember_state
 139              		.cfi_def_cfa_offset 20
 140              		@ sp needed
 141 009e F0BD     		pop	{r4, r5, r6, r7, pc}
 142              	.LVL10:
 143              	.L5:
 144              		.cfi_restore_state
 145              		.loc 1 109 0
 146 00a0 0D49     		ldr	r1, .L6+40
 147 00a2 0220     		movs	r0, #2
 148              		.loc 1 110 0
 149 00a4 03B0     		add	sp, sp, #12
 150              		.cfi_def_cfa_offset 20
 151              		@ sp needed
 152 00a6 BDE8F040 		pop	{r4, r5, r6, r7, lr}
 153              		.cfi_restore 14
 154              		.cfi_restore 7
 155              		.cfi_restore 6
 156              		.cfi_restore 5
 157              		.cfi_restore 4
 158              		.cfi_def_cfa_offset 0
 159              	.LVL11:
 160              		.loc 1 109 0
 161 00aa FFF7FEBF 		b	_test_assert_sequence
 162              	.LVL12:
 163              	.L7:
 164 00ae 00BF     		.align	2
 165              	.L6:
 166 00b0 00000000 		.word	rlist
 167 00b4 00000000 		.word	wa
 168 00b8 00000000 		.word	.LANCHOR0
 169 00bc 00000000 		.word	threads
 170 00c0 00000000 		.word	.LC0
 171 00c4 00000000 		.word	thread1
ARM GAS  /tmp/ccar49s8.s 			page 4


 172 00c8 04000000 		.word	.LC1
 173 00cc 08000000 		.word	.LC2
 174 00d0 0C000000 		.word	.LC3
 175 00d4 10000000 		.word	.LC4
 176 00d8 14000000 		.word	.LC5
 177              		.cfi_endproc
 178              	.LFE2:
 179              		.size	mtx1_execute, .-mtx1_execute
 180              		.section	.text.thread1,"ax",%progbits
 181              		.align	2
 182              		.p2align 4,,15
 183              		.thumb
 184              		.thumb_func
 185              		.type	thread1, %function
 186              	thread1:
 187              	.LFB1:
 188              		.loc 1 89 0
 189              		.cfi_startproc
 190              		@ args = 0, pretend = 0, frame = 0
 191              		@ frame_needed = 0, uses_anonymous_args = 0
 192              	.LVL13:
 193 0000 10B5     		push	{r4, lr}
 194              		.cfi_def_cfa_offset 8
 195              		.cfi_offset 4, -8
 196              		.cfi_offset 14, -4
 197              		.loc 1 89 0
 198 0002 0446     		mov	r4, r0
 199              		.loc 1 91 0
 200 0004 0448     		ldr	r0, .L10
 201              	.LVL14:
 202 0006 FFF7FEFF 		bl	chMtxLock
 203              	.LVL15:
 204              		.loc 1 92 0
 205 000a 2078     		ldrb	r0, [r4]	@ zero_extendqisi2
 206 000c FFF7FEFF 		bl	test_emit_token
 207              	.LVL16:
 208              		.loc 1 93 0
 209 0010 FFF7FEFF 		bl	chMtxUnlock
 210              	.LVL17:
 211              		.loc 1 95 0
 212 0014 0020     		movs	r0, #0
 213 0016 10BD     		pop	{r4, pc}
 214              	.LVL18:
 215              	.L11:
 216              		.align	2
 217              	.L10:
 218 0018 00000000 		.word	.LANCHOR0
 219              		.cfi_endproc
 220              	.LFE1:
 221              		.size	thread1, .-thread1
 222              		.section	.text.mtx4_setup,"ax",%progbits
 223              		.align	2
 224              		.p2align 4,,15
 225              		.thumb
 226              		.thumb_func
 227              		.type	mtx4_setup, %function
 228              	mtx4_setup:
ARM GAS  /tmp/ccar49s8.s 			page 5


 229              	.LFB15:
 230              		.loc 1 341 0
 231              		.cfi_startproc
 232              		@ args = 0, pretend = 0, frame = 0
 233              		@ frame_needed = 0, uses_anonymous_args = 0
 234 0000 08B5     		push	{r3, lr}
 235              		.cfi_def_cfa_offset 8
 236              		.cfi_offset 3, -8
 237              		.cfi_offset 14, -4
 238              		.loc 1 343 0
 239 0002 0448     		ldr	r0, .L14
 240 0004 FFF7FEFF 		bl	chMtxInit
 241              	.LVL19:
 242              		.loc 1 344 0
 243 0008 0348     		ldr	r0, .L14+4
 244              		.loc 1 345 0
 245 000a BDE80840 		pop	{r3, lr}
 246              		.cfi_restore 14
 247              		.cfi_restore 3
 248              		.cfi_def_cfa_offset 0
 249              		.loc 1 344 0
 250 000e FFF7FEBF 		b	chMtxInit
 251              	.LVL20:
 252              	.L15:
 253 0012 00BF     		.align	2
 254              	.L14:
 255 0014 00000000 		.word	.LANCHOR0
 256 0018 00000000 		.word	.LANCHOR1
 257              		.cfi_endproc
 258              	.LFE15:
 259              		.size	mtx4_setup, .-mtx4_setup
 260              		.section	.text.mtx3_setup,"ax",%progbits
 261              		.align	2
 262              		.p2align 4,,15
 263              		.thumb
 264              		.thumb_func
 265              		.type	mtx3_setup, %function
 266              	mtx3_setup:
 267              	.LFB26:
 268              		.cfi_startproc
 269              		@ args = 0, pretend = 0, frame = 0
 270              		@ frame_needed = 0, uses_anonymous_args = 0
 271              		@ link register save eliminated.
 272 0000 FFF7FEBF 		b	mtx4_setup
 273              		.cfi_endproc
 274              	.LFE26:
 275              		.size	mtx3_setup, .-mtx3_setup
 276              		.section	.text.mtx5_setup,"ax",%progbits
 277              		.align	2
 278              		.p2align 4,,15
 279              		.thumb
 280              		.thumb_func
 281              		.type	mtx5_setup, %function
 282              	mtx5_setup:
 283              	.LFB19:
 284              		.loc 1 429 0
 285              		.cfi_startproc
ARM GAS  /tmp/ccar49s8.s 			page 6


 286              		@ args = 0, pretend = 0, frame = 0
 287              		@ frame_needed = 0, uses_anonymous_args = 0
 288              		@ link register save eliminated.
 289              		.loc 1 431 0
 290 0000 0148     		ldr	r0, .L18
 291 0002 FFF7FEBF 		b	chMtxInit
 292              	.LVL21:
 293              	.L19:
 294 0006 00BF     		.align	2
 295              	.L18:
 296 0008 00000000 		.word	.LANCHOR0
 297              		.cfi_endproc
 298              	.LFE19:
 299              		.size	mtx5_setup, .-mtx5_setup
 300              		.section	.text.mtx2_setup,"ax",%progbits
 301              		.align	2
 302              		.p2align 4,,15
 303              		.thumb
 304              		.thumb_func
 305              		.type	mtx2_setup, %function
 306              	mtx2_setup:
 307              	.LFB22:
 308              		.cfi_startproc
 309              		@ args = 0, pretend = 0, frame = 0
 310              		@ frame_needed = 0, uses_anonymous_args = 0
 311              		@ link register save eliminated.
 312 0000 FFF7FEBF 		b	mtx5_setup
 313              		.cfi_endproc
 314              	.LFE22:
 315              		.size	mtx2_setup, .-mtx2_setup
 316              		.section	.text.mtx1_setup,"ax",%progbits
 317              		.align	2
 318              		.p2align 4,,15
 319              		.thumb
 320              		.thumb_func
 321              		.type	mtx1_setup, %function
 322              	mtx1_setup:
 323              	.LFB24:
 324              		.cfi_startproc
 325              		@ args = 0, pretend = 0, frame = 0
 326              		@ frame_needed = 0, uses_anonymous_args = 0
 327              		@ link register save eliminated.
 328 0000 FFF7FEBF 		b	mtx5_setup
 329              		.cfi_endproc
 330              	.LFE24:
 331              		.size	mtx1_setup, .-mtx1_setup
 332              		.section	.text.mtx2_execute,"ax",%progbits
 333              		.align	2
 334              		.p2align 4,,15
 335              		.thumb
 336              		.thumb_func
 337              		.type	mtx2_execute, %function
 338              	mtx2_execute:
 339              	.LFB7:
 340              		.loc 1 190 0
 341              		.cfi_startproc
 342              		@ args = 0, pretend = 0, frame = 0
ARM GAS  /tmp/ccar49s8.s 			page 7


 343              		@ frame_needed = 0, uses_anonymous_args = 0
 344              		.loc 1 190 0
 345 0000 2DE9F041 		push	{r4, r5, r6, r7, r8, lr}
 346              		.cfi_def_cfa_offset 24
 347              		.cfi_offset 4, -24
 348              		.cfi_offset 5, -20
 349              		.cfi_offset 6, -16
 350              		.cfi_offset 7, -12
 351              		.cfi_offset 8, -8
 352              		.cfi_offset 14, -4
 353              		.loc 1 195 0
 354 0004 204F     		ldr	r7, .L26
 355 0006 214E     		ldr	r6, .L26+4
 356 0008 214C     		ldr	r4, .L26+8
 357              		.loc 1 190 0
 358 000a 82B0     		sub	sp, sp, #8
 359              		.cfi_def_cfa_offset 32
 360              		.loc 1 193 0
 361 000c FFF7FEFF 		bl	test_wait_tick
 362              	.LVL22:
 363              		.loc 1 195 0
 364 0010 BB69     		ldr	r3, [r7, #24]
 365              		.loc 1 194 0
 366 0012 2049     		ldr	r1, .L26+12
 367              		.loc 1 195 0
 368 0014 9A68     		ldr	r2, [r3, #8]
 369              		.loc 1 194 0
 370 0016 D1F80C80 		ldr	r8, [r1, #12]
 371              	.LVL23:
 372              		.loc 1 195 0
 373 001a 1F4B     		ldr	r3, .L26+16
 374 001c 3068     		ldr	r0, [r6]
 375 001e 0025     		movs	r5, #0
 376 0020 013A     		subs	r2, r2, #1
 377 0022 4FF4A871 		mov	r1, #336
 378 0026 0095     		str	r5, [sp]
 379 0028 FFF7FEFF 		bl	chThdCreateStatic
 380              	.LVL24:
 381              		.loc 1 196 0
 382 002c BA69     		ldr	r2, [r7, #24]
 383 002e 7368     		ldr	r3, [r6, #4]
 384 0030 9268     		ldr	r2, [r2, #8]
 385              		.loc 1 195 0
 386 0032 2060     		str	r0, [r4]
 387              		.loc 1 196 0
 388 0034 023A     		subs	r2, r2, #2
 389 0036 1846     		mov	r0, r3
 390 0038 4FF4A871 		mov	r1, #336
 391 003c 174B     		ldr	r3, .L26+20
 392 003e 0095     		str	r5, [sp]
 393 0040 FFF7FEFF 		bl	chThdCreateStatic
 394              	.LVL25:
 395              		.loc 1 197 0
 396 0044 BA69     		ldr	r2, [r7, #24]
 397 0046 B368     		ldr	r3, [r6, #8]
 398 0048 9268     		ldr	r2, [r2, #8]
 399              		.loc 1 196 0
ARM GAS  /tmp/ccar49s8.s 			page 8


 400 004a 6060     		str	r0, [r4, #4]
 401              		.loc 1 197 0
 402 004c 4FF4A871 		mov	r1, #336
 403 0050 033A     		subs	r2, r2, #3
 404 0052 1846     		mov	r0, r3
 405 0054 0095     		str	r5, [sp]
 406 0056 124B     		ldr	r3, .L26+24
 407 0058 FFF7FEFF 		bl	chThdCreateStatic
 408              	.LVL26:
 409 005c A060     		str	r0, [r4, #8]
 410              		.loc 1 198 0
 411 005e FFF7FEFF 		bl	test_wait_threads
 412              	.LVL27:
 413              		.loc 1 199 0
 414 0062 1049     		ldr	r1, .L26+28
 415 0064 0120     		movs	r0, #1
 416 0066 FFF7FEFF 		bl	_test_assert_sequence
 417              	.LVL28:
 418 006a 10B1     		cbz	r0, .L25
 419              		.loc 1 201 0
 420 006c 02B0     		add	sp, sp, #8
 421              		.cfi_remember_state
 422              		.cfi_def_cfa_offset 24
 423              		@ sp needed
 424 006e BDE8F081 		pop	{r4, r5, r6, r7, r8, pc}
 425              	.LVL29:
 426              	.L25:
 427              		.cfi_restore_state
 428              		.loc 1 200 0
 429 0072 08F16902 		add	r2, r8, #105
 430 0076 08F16401 		add	r1, r8, #100
 431 007a 0220     		movs	r0, #2
 432              		.loc 1 201 0
 433 007c 02B0     		add	sp, sp, #8
 434              		.cfi_def_cfa_offset 24
 435              		@ sp needed
 436 007e BDE8F041 		pop	{r4, r5, r6, r7, r8, lr}
 437              		.cfi_restore 14
 438              		.cfi_restore 8
 439              		.cfi_restore 7
 440              		.cfi_restore 6
 441              		.cfi_restore 5
 442              		.cfi_restore 4
 443              		.cfi_def_cfa_offset 0
 444              	.LVL30:
 445              		.loc 1 200 0
 446 0082 FFF7FEBF 		b	_test_assert_time_window
 447              	.LVL31:
 448              	.L27:
 449 0086 00BF     		.align	2
 450              	.L26:
 451 0088 00000000 		.word	rlist
 452 008c 00000000 		.word	wa
 453 0090 00000000 		.word	threads
 454 0094 00000000 		.word	vtlist
 455 0098 00000000 		.word	thread2H
 456 009c 00000000 		.word	thread2M
ARM GAS  /tmp/ccar49s8.s 			page 9


 457 00a0 00000000 		.word	thread2L
 458 00a4 1C000000 		.word	.LC6
 459              		.cfi_endproc
 460              	.LFE7:
 461              		.size	mtx2_execute, .-mtx2_execute
 462              		.section	.text.mtx3_execute,"ax",%progbits
 463              		.align	2
 464              		.p2align 4,,15
 465              		.thumb
 466              		.thumb_func
 467              		.type	mtx3_execute, %function
 468              	mtx3_execute:
 469              	.LFB14:
 470              		.loc 1 308 0
 471              		.cfi_startproc
 472              		@ args = 0, pretend = 0, frame = 0
 473              		@ frame_needed = 0, uses_anonymous_args = 0
 474 0000 2DE9F041 		push	{r4, r5, r6, r7, r8, lr}
 475              		.cfi_def_cfa_offset 24
 476              		.cfi_offset 4, -24
 477              		.cfi_offset 5, -20
 478              		.cfi_offset 6, -16
 479              		.cfi_offset 7, -12
 480              		.cfi_offset 8, -8
 481              		.cfi_offset 14, -4
 482              		.loc 1 313 0
 483 0004 2C4F     		ldr	r7, .L32
 484 0006 2D4E     		ldr	r6, .L32+4
 485 0008 2D4C     		ldr	r4, .L32+8
 486              		.loc 1 308 0
 487 000a 82B0     		sub	sp, sp, #8
 488              		.cfi_def_cfa_offset 32
 489              		.loc 1 311 0
 490 000c FFF7FEFF 		bl	test_wait_tick
 491              	.LVL32:
 492              		.loc 1 313 0
 493 0010 BB69     		ldr	r3, [r7, #24]
 494              		.loc 1 312 0
 495 0012 2C49     		ldr	r1, .L32+12
 496              		.loc 1 313 0
 497 0014 9A68     		ldr	r2, [r3, #8]
 498              		.loc 1 312 0
 499 0016 D1F80C80 		ldr	r8, [r1, #12]
 500              	.LVL33:
 501              		.loc 1 313 0
 502 001a 2B4B     		ldr	r3, .L32+16
 503 001c 3068     		ldr	r0, [r6]
 504 001e 0025     		movs	r5, #0
 505 0020 053A     		subs	r2, r2, #5
 506 0022 4FF4A871 		mov	r1, #336
 507 0026 0095     		str	r5, [sp]
 508 0028 FFF7FEFF 		bl	chThdCreateStatic
 509              	.LVL34:
 510              		.loc 1 314 0
 511 002c BA69     		ldr	r2, [r7, #24]
 512 002e 7368     		ldr	r3, [r6, #4]
 513 0030 9268     		ldr	r2, [r2, #8]
ARM GAS  /tmp/ccar49s8.s 			page 10


 514              		.loc 1 313 0
 515 0032 2060     		str	r0, [r4]
 516              		.loc 1 314 0
 517 0034 043A     		subs	r2, r2, #4
 518 0036 1846     		mov	r0, r3
 519 0038 4FF4A871 		mov	r1, #336
 520 003c 234B     		ldr	r3, .L32+20
 521 003e 0095     		str	r5, [sp]
 522 0040 FFF7FEFF 		bl	chThdCreateStatic
 523              	.LVL35:
 524              		.loc 1 315 0
 525 0044 BA69     		ldr	r2, [r7, #24]
 526 0046 B368     		ldr	r3, [r6, #8]
 527 0048 9268     		ldr	r2, [r2, #8]
 528              		.loc 1 314 0
 529 004a 6060     		str	r0, [r4, #4]
 530              		.loc 1 315 0
 531 004c 033A     		subs	r2, r2, #3
 532 004e 1846     		mov	r0, r3
 533 0050 4FF4A871 		mov	r1, #336
 534 0054 1E4B     		ldr	r3, .L32+24
 535 0056 0095     		str	r5, [sp]
 536 0058 FFF7FEFF 		bl	chThdCreateStatic
 537              	.LVL36:
 538              		.loc 1 316 0
 539 005c BA69     		ldr	r2, [r7, #24]
 540 005e F368     		ldr	r3, [r6, #12]
 541 0060 9268     		ldr	r2, [r2, #8]
 542              		.loc 1 315 0
 543 0062 A060     		str	r0, [r4, #8]
 544              		.loc 1 316 0
 545 0064 023A     		subs	r2, r2, #2
 546 0066 1846     		mov	r0, r3
 547 0068 4FF4A871 		mov	r1, #336
 548 006c 194B     		ldr	r3, .L32+28
 549 006e 0095     		str	r5, [sp]
 550 0070 FFF7FEFF 		bl	chThdCreateStatic
 551              	.LVL37:
 552              		.loc 1 317 0
 553 0074 BA69     		ldr	r2, [r7, #24]
 554 0076 3369     		ldr	r3, [r6, #16]
 555 0078 9268     		ldr	r2, [r2, #8]
 556              		.loc 1 316 0
 557 007a E060     		str	r0, [r4, #12]
 558              		.loc 1 317 0
 559 007c 4FF4A871 		mov	r1, #336
 560 0080 013A     		subs	r2, r2, #1
 561 0082 1846     		mov	r0, r3
 562 0084 0095     		str	r5, [sp]
 563 0086 144B     		ldr	r3, .L32+32
 564 0088 FFF7FEFF 		bl	chThdCreateStatic
 565              	.LVL38:
 566 008c 2061     		str	r0, [r4, #16]
 567              		.loc 1 318 0
 568 008e FFF7FEFF 		bl	test_wait_threads
 569              	.LVL39:
 570              		.loc 1 319 0
ARM GAS  /tmp/ccar49s8.s 			page 11


 571 0092 1249     		ldr	r1, .L32+36
 572 0094 0120     		movs	r0, #1
 573 0096 FFF7FEFF 		bl	_test_assert_sequence
 574              	.LVL40:
 575 009a 10B1     		cbz	r0, .L31
 576              		.loc 1 321 0
 577 009c 02B0     		add	sp, sp, #8
 578              		.cfi_remember_state
 579              		.cfi_def_cfa_offset 24
 580              		@ sp needed
 581 009e BDE8F081 		pop	{r4, r5, r6, r7, r8, pc}
 582              	.LVL41:
 583              	.L31:
 584              		.cfi_restore_state
 585              		.loc 1 320 0
 586 00a2 08F17302 		add	r2, r8, #115
 587 00a6 08F16E01 		add	r1, r8, #110
 588 00aa 0220     		movs	r0, #2
 589              		.loc 1 321 0
 590 00ac 02B0     		add	sp, sp, #8
 591              		.cfi_def_cfa_offset 24
 592              		@ sp needed
 593 00ae BDE8F041 		pop	{r4, r5, r6, r7, r8, lr}
 594              		.cfi_restore 14
 595              		.cfi_restore 8
 596              		.cfi_restore 7
 597              		.cfi_restore 6
 598              		.cfi_restore 5
 599              		.cfi_restore 4
 600              		.cfi_def_cfa_offset 0
 601              	.LVL42:
 602              		.loc 1 320 0
 603 00b2 FFF7FEBF 		b	_test_assert_time_window
 604              	.LVL43:
 605              	.L33:
 606 00b6 00BF     		.align	2
 607              	.L32:
 608 00b8 00000000 		.word	rlist
 609 00bc 00000000 		.word	wa
 610 00c0 00000000 		.word	threads
 611 00c4 00000000 		.word	vtlist
 612 00c8 00000000 		.word	thread3LL
 613 00cc 00000000 		.word	thread3L
 614 00d0 00000000 		.word	thread3M
 615 00d4 00000000 		.word	thread3H
 616 00d8 00000000 		.word	thread3HH
 617 00dc 14000000 		.word	.LC5
 618              		.cfi_endproc
 619              	.LFE14:
 620              		.size	mtx3_execute, .-mtx3_execute
 621              		.section	.text.thread2L,"ax",%progbits
 622              		.align	2
 623              		.p2align 4,,15
 624              		.thumb
 625              		.thumb_func
 626              		.type	thread2L, %function
 627              	thread2L:
ARM GAS  /tmp/ccar49s8.s 			page 12


 628              	.LFB4:
 629              		.loc 1 157 0
 630              		.cfi_startproc
 631              		@ args = 0, pretend = 0, frame = 0
 632              		@ frame_needed = 0, uses_anonymous_args = 0
 633              	.LVL44:
 634 0000 08B5     		push	{r3, lr}
 635              		.cfi_def_cfa_offset 8
 636              		.cfi_offset 3, -8
 637              		.cfi_offset 14, -4
 638              		.loc 1 160 0
 639 0002 0848     		ldr	r0, .L36
 640              	.LVL45:
 641 0004 FFF7FEFF 		bl	chMtxLock
 642              	.LVL46:
 643              		.loc 1 161 0
 644 0008 2820     		movs	r0, #40
 645 000a FFF7FEFF 		bl	test_cpu_pulse
 646              	.LVL47:
 647              		.loc 1 162 0
 648 000e FFF7FEFF 		bl	chMtxUnlock
 649              	.LVL48:
 650              		.loc 1 163 0
 651 0012 0A20     		movs	r0, #10
 652 0014 FFF7FEFF 		bl	test_cpu_pulse
 653              	.LVL49:
 654              		.loc 1 164 0
 655 0018 4320     		movs	r0, #67
 656 001a FFF7FEFF 		bl	test_emit_token
 657              	.LVL50:
 658              		.loc 1 166 0
 659 001e 0020     		movs	r0, #0
 660 0020 08BD     		pop	{r3, pc}
 661              	.L37:
 662 0022 00BF     		.align	2
 663              	.L36:
 664 0024 00000000 		.word	.LANCHOR0
 665              		.cfi_endproc
 666              	.LFE4:
 667              		.size	thread2L, .-thread2L
 668              		.section	.text.thread3LL,"ax",%progbits
 669              		.align	2
 670              		.p2align 4,,15
 671              		.thumb
 672              		.thumb_func
 673              		.type	thread3LL, %function
 674              	thread3LL:
 675              	.LFB9:
 676              		.loc 1 248 0
 677              		.cfi_startproc
 678              		@ args = 0, pretend = 0, frame = 0
 679              		@ frame_needed = 0, uses_anonymous_args = 0
 680              	.LVL51:
 681 0000 08B5     		push	{r3, lr}
 682              		.cfi_def_cfa_offset 8
 683              		.cfi_offset 3, -8
 684              		.cfi_offset 14, -4
ARM GAS  /tmp/ccar49s8.s 			page 13


 685              		.loc 1 251 0
 686 0002 0648     		ldr	r0, .L40
 687              	.LVL52:
 688 0004 FFF7FEFF 		bl	chMtxLock
 689              	.LVL53:
 690              		.loc 1 252 0
 691 0008 1E20     		movs	r0, #30
 692 000a FFF7FEFF 		bl	test_cpu_pulse
 693              	.LVL54:
 694              		.loc 1 253 0
 695 000e FFF7FEFF 		bl	chMtxUnlock
 696              	.LVL55:
 697              		.loc 1 254 0
 698 0012 4520     		movs	r0, #69
 699 0014 FFF7FEFF 		bl	test_emit_token
 700              	.LVL56:
 701              		.loc 1 256 0
 702 0018 0020     		movs	r0, #0
 703 001a 08BD     		pop	{r3, pc}
 704              	.L41:
 705              		.align	2
 706              	.L40:
 707 001c 00000000 		.word	.LANCHOR0
 708              		.cfi_endproc
 709              	.LFE9:
 710              		.size	thread3LL, .-thread3LL
 711              		.section	.text.thread2M,"ax",%progbits
 712              		.align	2
 713              		.p2align 4,,15
 714              		.thumb
 715              		.thumb_func
 716              		.type	thread2M, %function
 717              	thread2M:
 718              	.LFB5:
 719              		.loc 1 169 0
 720              		.cfi_startproc
 721              		@ args = 0, pretend = 0, frame = 0
 722              		@ frame_needed = 0, uses_anonymous_args = 0
 723              	.LVL57:
 724 0000 08B5     		push	{r3, lr}
 725              		.cfi_def_cfa_offset 8
 726              		.cfi_offset 3, -8
 727              		.cfi_offset 14, -4
 728              		.loc 1 172 0
 729 0002 1420     		movs	r0, #20
 730              	.LVL58:
 731 0004 FFF7FEFF 		bl	chThdSleep
 732              	.LVL59:
 733              		.loc 1 173 0
 734 0008 2820     		movs	r0, #40
 735 000a FFF7FEFF 		bl	test_cpu_pulse
 736              	.LVL60:
 737              		.loc 1 174 0
 738 000e 4220     		movs	r0, #66
 739 0010 FFF7FEFF 		bl	test_emit_token
 740              	.LVL61:
 741              		.loc 1 176 0
ARM GAS  /tmp/ccar49s8.s 			page 14


 742 0014 0020     		movs	r0, #0
 743 0016 08BD     		pop	{r3, pc}
 744              		.cfi_endproc
 745              	.LFE5:
 746              		.size	thread2M, .-thread2M
 747              		.section	.text.thread2H,"ax",%progbits
 748              		.align	2
 749              		.p2align 4,,15
 750              		.thumb
 751              		.thumb_func
 752              		.type	thread2H, %function
 753              	thread2H:
 754              	.LFB6:
 755              		.loc 1 179 0
 756              		.cfi_startproc
 757              		@ args = 0, pretend = 0, frame = 0
 758              		@ frame_needed = 0, uses_anonymous_args = 0
 759              	.LVL62:
 760 0000 08B5     		push	{r3, lr}
 761              		.cfi_def_cfa_offset 8
 762              		.cfi_offset 3, -8
 763              		.cfi_offset 14, -4
 764              		.loc 1 182 0
 765 0002 2820     		movs	r0, #40
 766              	.LVL63:
 767 0004 FFF7FEFF 		bl	chThdSleep
 768              	.LVL64:
 769              		.loc 1 183 0
 770 0008 0648     		ldr	r0, .L46
 771 000a FFF7FEFF 		bl	chMtxLock
 772              	.LVL65:
 773              		.loc 1 184 0
 774 000e 0A20     		movs	r0, #10
 775 0010 FFF7FEFF 		bl	test_cpu_pulse
 776              	.LVL66:
 777              		.loc 1 185 0
 778 0014 FFF7FEFF 		bl	chMtxUnlock
 779              	.LVL67:
 780              		.loc 1 186 0
 781 0018 4120     		movs	r0, #65
 782 001a FFF7FEFF 		bl	test_emit_token
 783              	.LVL68:
 784              		.loc 1 188 0
 785 001e 0020     		movs	r0, #0
 786 0020 08BD     		pop	{r3, pc}
 787              	.L47:
 788 0022 00BF     		.align	2
 789              	.L46:
 790 0024 00000000 		.word	.LANCHOR0
 791              		.cfi_endproc
 792              	.LFE6:
 793              		.size	thread2H, .-thread2H
 794              		.section	.text.thread3HH,"ax",%progbits
 795              		.align	2
 796              		.p2align 4,,15
 797              		.thumb
 798              		.thumb_func
ARM GAS  /tmp/ccar49s8.s 			page 15


 799              		.type	thread3HH, %function
 800              	thread3HH:
 801              	.LFB13:
 802              		.loc 1 297 0
 803              		.cfi_startproc
 804              		@ args = 0, pretend = 0, frame = 0
 805              		@ frame_needed = 0, uses_anonymous_args = 0
 806              	.LVL69:
 807 0000 08B5     		push	{r3, lr}
 808              		.cfi_def_cfa_offset 8
 809              		.cfi_offset 3, -8
 810              		.cfi_offset 14, -4
 811              		.loc 1 300 0
 812 0002 3220     		movs	r0, #50
 813              	.LVL70:
 814 0004 FFF7FEFF 		bl	chThdSleep
 815              	.LVL71:
 816              		.loc 1 301 0
 817 0008 0648     		ldr	r0, .L50
 818 000a FFF7FEFF 		bl	chMtxLock
 819              	.LVL72:
 820              		.loc 1 302 0
 821 000e 0A20     		movs	r0, #10
 822 0010 FFF7FEFF 		bl	test_cpu_pulse
 823              	.LVL73:
 824              		.loc 1 303 0
 825 0014 FFF7FEFF 		bl	chMtxUnlock
 826              	.LVL74:
 827              		.loc 1 304 0
 828 0018 4120     		movs	r0, #65
 829 001a FFF7FEFF 		bl	test_emit_token
 830              	.LVL75:
 831              		.loc 1 306 0
 832 001e 0020     		movs	r0, #0
 833 0020 08BD     		pop	{r3, pc}
 834              	.L51:
 835 0022 00BF     		.align	2
 836              	.L50:
 837 0024 00000000 		.word	.LANCHOR1
 838              		.cfi_endproc
 839              	.LFE13:
 840              		.size	thread3HH, .-thread3HH
 841              		.section	.text.thread3H,"ax",%progbits
 842              		.align	2
 843              		.p2align 4,,15
 844              		.thumb
 845              		.thumb_func
 846              		.type	thread3H, %function
 847              	thread3H:
 848              	.LFB12:
 849              		.loc 1 287 0
 850              		.cfi_startproc
 851              		@ args = 0, pretend = 0, frame = 0
 852              		@ frame_needed = 0, uses_anonymous_args = 0
 853              	.LVL76:
 854 0000 08B5     		push	{r3, lr}
 855              		.cfi_def_cfa_offset 8
ARM GAS  /tmp/ccar49s8.s 			page 16


 856              		.cfi_offset 3, -8
 857              		.cfi_offset 14, -4
 858              		.loc 1 290 0
 859 0002 2820     		movs	r0, #40
 860              	.LVL77:
 861 0004 FFF7FEFF 		bl	chThdSleep
 862              	.LVL78:
 863              		.loc 1 291 0
 864 0008 1420     		movs	r0, #20
 865 000a FFF7FEFF 		bl	test_cpu_pulse
 866              	.LVL79:
 867              		.loc 1 292 0
 868 000e 4220     		movs	r0, #66
 869 0010 FFF7FEFF 		bl	test_emit_token
 870              	.LVL80:
 871              		.loc 1 294 0
 872 0014 0020     		movs	r0, #0
 873 0016 08BD     		pop	{r3, pc}
 874              		.cfi_endproc
 875              	.LFE12:
 876              		.size	thread3H, .-thread3H
 877              		.section	.text.thread3M,"ax",%progbits
 878              		.align	2
 879              		.p2align 4,,15
 880              		.thumb
 881              		.thumb_func
 882              		.type	thread3M, %function
 883              	thread3M:
 884              	.LFB11:
 885              		.loc 1 275 0
 886              		.cfi_startproc
 887              		@ args = 0, pretend = 0, frame = 0
 888              		@ frame_needed = 0, uses_anonymous_args = 0
 889              	.LVL81:
 890 0000 08B5     		push	{r3, lr}
 891              		.cfi_def_cfa_offset 8
 892              		.cfi_offset 3, -8
 893              		.cfi_offset 14, -4
 894              		.loc 1 278 0
 895 0002 1420     		movs	r0, #20
 896              	.LVL82:
 897 0004 FFF7FEFF 		bl	chThdSleep
 898              	.LVL83:
 899              		.loc 1 279 0
 900 0008 0648     		ldr	r0, .L56
 901 000a FFF7FEFF 		bl	chMtxLock
 902              	.LVL84:
 903              		.loc 1 280 0
 904 000e 0A20     		movs	r0, #10
 905 0010 FFF7FEFF 		bl	test_cpu_pulse
 906              	.LVL85:
 907              		.loc 1 281 0
 908 0014 FFF7FEFF 		bl	chMtxUnlock
 909              	.LVL86:
 910              		.loc 1 282 0
 911 0018 4320     		movs	r0, #67
 912 001a FFF7FEFF 		bl	test_emit_token
ARM GAS  /tmp/ccar49s8.s 			page 17


 913              	.LVL87:
 914              		.loc 1 284 0
 915 001e 0020     		movs	r0, #0
 916 0020 08BD     		pop	{r3, pc}
 917              	.L57:
 918 0022 00BF     		.align	2
 919              	.L56:
 920 0024 00000000 		.word	.LANCHOR1
 921              		.cfi_endproc
 922              	.LFE11:
 923              		.size	thread3M, .-thread3M
 924              		.section	.text.thread3L,"ax",%progbits
 925              		.align	2
 926              		.p2align 4,,15
 927              		.thumb
 928              		.thumb_func
 929              		.type	thread3L, %function
 930              	thread3L:
 931              	.LFB10:
 932              		.loc 1 259 0
 933              		.cfi_startproc
 934              		@ args = 0, pretend = 0, frame = 0
 935              		@ frame_needed = 0, uses_anonymous_args = 0
 936              	.LVL88:
 937 0000 08B5     		push	{r3, lr}
 938              		.cfi_def_cfa_offset 8
 939              		.cfi_offset 3, -8
 940              		.cfi_offset 14, -4
 941              		.loc 1 262 0
 942 0002 0A20     		movs	r0, #10
 943              	.LVL89:
 944 0004 FFF7FEFF 		bl	chThdSleep
 945              	.LVL90:
 946              		.loc 1 263 0
 947 0008 0B48     		ldr	r0, .L60
 948 000a FFF7FEFF 		bl	chMtxLock
 949              	.LVL91:
 950              		.loc 1 264 0
 951 000e 1420     		movs	r0, #20
 952 0010 FFF7FEFF 		bl	test_cpu_pulse
 953              	.LVL92:
 954              		.loc 1 265 0
 955 0014 0948     		ldr	r0, .L60+4
 956 0016 FFF7FEFF 		bl	chMtxLock
 957              	.LVL93:
 958              		.loc 1 266 0
 959 001a 0A20     		movs	r0, #10
 960 001c FFF7FEFF 		bl	test_cpu_pulse
 961              	.LVL94:
 962              		.loc 1 267 0
 963 0020 FFF7FEFF 		bl	chMtxUnlock
 964              	.LVL95:
 965              		.loc 1 268 0
 966 0024 0A20     		movs	r0, #10
 967 0026 FFF7FEFF 		bl	test_cpu_pulse
 968              	.LVL96:
 969              		.loc 1 269 0
ARM GAS  /tmp/ccar49s8.s 			page 18


 970 002a FFF7FEFF 		bl	chMtxUnlock
 971              	.LVL97:
 972              		.loc 1 270 0
 973 002e 4420     		movs	r0, #68
 974 0030 FFF7FEFF 		bl	test_emit_token
 975              	.LVL98:
 976              		.loc 1 272 0
 977 0034 0020     		movs	r0, #0
 978 0036 08BD     		pop	{r3, pc}
 979              	.L61:
 980              		.align	2
 981              	.L60:
 982 0038 00000000 		.word	.LANCHOR1
 983 003c 00000000 		.word	.LANCHOR0
 984              		.cfi_endproc
 985              	.LFE10:
 986              		.size	thread3L, .-thread3L
 987              		.section	.text.thread4b,"ax",%progbits
 988              		.align	2
 989              		.p2align 4,,15
 990              		.thumb
 991              		.thumb_func
 992              		.type	thread4b, %function
 993              	thread4b:
 994              	.LFB17:
 995              		.loc 1 356 0
 996              		.cfi_startproc
 997              		@ args = 0, pretend = 0, frame = 0
 998              		@ frame_needed = 0, uses_anonymous_args = 0
 999              	.LVL99:
 1000 0000 08B5     		push	{r3, lr}
 1001              		.cfi_def_cfa_offset 8
 1002              		.cfi_offset 3, -8
 1003              		.cfi_offset 14, -4
 1004              		.loc 1 359 0
 1005 0002 9620     		movs	r0, #150
 1006              	.LVL100:
 1007 0004 FFF7FEFF 		bl	chThdSleep
 1008              	.LVL101:
 1009              		.loc 1 360 0
 1010 0008 0348     		ldr	r0, .L64
 1011 000a FFF7FEFF 		bl	chMtxLock
 1012              	.LVL102:
 1013              		.loc 1 361 0
 1014 000e FFF7FEFF 		bl	chMtxUnlock
 1015              	.LVL103:
 1016              		.loc 1 363 0
 1017 0012 0020     		movs	r0, #0
 1018 0014 08BD     		pop	{r3, pc}
 1019              	.L65:
 1020 0016 00BF     		.align	2
 1021              	.L64:
 1022 0018 00000000 		.word	.LANCHOR0
 1023              		.cfi_endproc
 1024              	.LFE17:
 1025              		.size	thread4b, .-thread4b
 1026              		.section	.text.thread4a,"ax",%progbits
ARM GAS  /tmp/ccar49s8.s 			page 19


 1027              		.align	2
 1028              		.p2align 4,,15
 1029              		.thumb
 1030              		.thumb_func
 1031              		.type	thread4a, %function
 1032              	thread4a:
 1033              	.LFB16:
 1034              		.loc 1 347 0
 1035              		.cfi_startproc
 1036              		@ args = 0, pretend = 0, frame = 0
 1037              		@ frame_needed = 0, uses_anonymous_args = 0
 1038              	.LVL104:
 1039 0000 08B5     		push	{r3, lr}
 1040              		.cfi_def_cfa_offset 8
 1041              		.cfi_offset 3, -8
 1042              		.cfi_offset 14, -4
 1043              		.loc 1 350 0
 1044 0002 3220     		movs	r0, #50
 1045              	.LVL105:
 1046 0004 FFF7FEFF 		bl	chThdSleep
 1047              	.LVL106:
 1048              		.loc 1 351 0
 1049 0008 0348     		ldr	r0, .L68
 1050 000a FFF7FEFF 		bl	chMtxLock
 1051              	.LVL107:
 1052              		.loc 1 352 0
 1053 000e FFF7FEFF 		bl	chMtxUnlock
 1054              	.LVL108:
 1055              		.loc 1 354 0
 1056 0012 0020     		movs	r0, #0
 1057 0014 08BD     		pop	{r3, pc}
 1058              	.L69:
 1059 0016 00BF     		.align	2
 1060              	.L68:
 1061 0018 00000000 		.word	.LANCHOR1
 1062              		.cfi_endproc
 1063              	.LFE16:
 1064              		.size	thread4a, .-thread4a
 1065              		.section	.text.mtx4_execute,"ax",%progbits
 1066              		.align	2
 1067              		.p2align 4,,15
 1068              		.thumb
 1069              		.thumb_func
 1070              		.type	mtx4_execute, %function
 1071              	mtx4_execute:
 1072              	.LFB18:
 1073              		.loc 1 365 0
 1074              		.cfi_startproc
 1075              		@ args = 0, pretend = 0, frame = 8
 1076              		@ frame_needed = 0, uses_anonymous_args = 0
 1077 0000 2DE9F046 		push	{r4, r5, r6, r7, r9, r10, lr}
 1078              		.cfi_def_cfa_offset 28
 1079              		.cfi_offset 4, -28
 1080              		.cfi_offset 5, -24
 1081              		.cfi_offset 6, -20
 1082              		.cfi_offset 7, -16
 1083              		.cfi_offset 9, -12
ARM GAS  /tmp/ccar49s8.s 			page 20


 1084              		.cfi_offset 10, -8
 1085              		.cfi_offset 14, -4
 1086              		.loc 1 368 0
 1087 0004 8A4D     		ldr	r5, .L76
 1088              		.loc 1 371 0
 1089 0006 8B4E     		ldr	r6, .L76+4
 1090              		.loc 1 368 0
 1091 0008 AB69     		ldr	r3, [r5, #24]
 1092              		.loc 1 371 0
 1093 000a 3268     		ldr	r2, [r6]
 1094              		.loc 1 368 0
 1095 000c 9C68     		ldr	r4, [r3, #8]
 1096              	.LVL109:
 1097              		.loc 1 371 0
 1098 000e 8A4B     		ldr	r3, .L76+8
 1099 0010 8A4F     		ldr	r7, .L76+12
 1100              		.loc 1 365 0
 1101 0012 85B0     		sub	sp, sp, #20
 1102              		.cfi_def_cfa_offset 48
 1103              		.loc 1 369 0
 1104 0014 04F10109 		add	r9, r4, #1
 1105              	.LVL110:
 1106              		.loc 1 371 0
 1107 0018 1046     		mov	r0, r2
 1108 001a 0392     		str	r2, [sp, #12]
 1109 001c 0093     		str	r3, [sp]
 1110 001e 4A46     		mov	r2, r9
 1111 0020 874B     		ldr	r3, .L76+16
 1112 0022 4FF4A871 		mov	r1, #336
 1113 0026 FFF7FEFF 		bl	chThdCreateStatic
 1114              	.LVL111:
 1115              		.loc 1 372 0
 1116 002a 7668     		ldr	r6, [r6, #4]
 1117 002c 854B     		ldr	r3, .L76+20
 1118              		.loc 1 371 0
 1119 002e 3860     		str	r0, [r7]
 1120              		.loc 1 370 0
 1121 0030 04F1020A 		add	r10, r4, #2
 1122              	.LVL112:
 1123              		.loc 1 372 0
 1124 0034 4FF4A871 		mov	r1, #336
 1125 0038 5246     		mov	r2, r10
 1126 003a 0093     		str	r3, [sp]
 1127 003c 3046     		mov	r0, r6
 1128 003e 824B     		ldr	r3, .L76+24
 1129 0040 FFF7FEFF 		bl	chThdCreateStatic
 1130              	.LVL113:
 1131 0044 7860     		str	r0, [r7, #4]
 1132              		.loc 1 373 0
 1133 0046 8148     		ldr	r0, .L76+28
 1134 0048 FFF7FEFF 		bl	chMtxLock
 1135              	.LVL114:
 1136              		.loc 1 374 0
 1137 004c AB69     		ldr	r3, [r5, #24]
 1138 004e 9968     		ldr	r1, [r3, #8]
 1139 0050 091B     		subs	r1, r1, r4
 1140 0052 B1FA81F1 		clz	r1, r1
ARM GAS  /tmp/ccar49s8.s 			page 21


 1141 0056 0120     		movs	r0, #1
 1142 0058 4909     		lsrs	r1, r1, #5
 1143 005a FFF7FEFF 		bl	_test_assert
 1144              	.LVL115:
 1145 005e 10B1     		cbz	r0, .L75
 1146              	.L70:
 1147              		.loc 1 410 0
 1148 0060 05B0     		add	sp, sp, #20
 1149              		.cfi_remember_state
 1150              		.cfi_def_cfa_offset 28
 1151              		@ sp needed
 1152 0062 BDE8F086 		pop	{r4, r5, r6, r7, r9, r10, pc}
 1153              	.LVL116:
 1154              	.L75:
 1155              		.cfi_restore_state
 1156              		.loc 1 375 0
 1157 0066 6420     		movs	r0, #100
 1158 0068 FFF7FEFF 		bl	chThdSleep
 1159              	.LVL117:
 1160              		.loc 1 376 0
 1161 006c AB69     		ldr	r3, [r5, #24]
 1162 006e 9968     		ldr	r1, [r3, #8]
 1163 0070 C9EB0101 		rsb	r1, r9, r1
 1164 0074 B1FA81F1 		clz	r1, r1
 1165 0078 0220     		movs	r0, #2
 1166 007a 4909     		lsrs	r1, r1, #5
 1167 007c FFF7FEFF 		bl	_test_assert
 1168              	.LVL118:
 1169 0080 0028     		cmp	r0, #0
 1170 0082 EDD1     		bne	.L70
 1171              		.loc 1 377 0
 1172 0084 7248     		ldr	r0, .L76+32
 1173 0086 FFF7FEFF 		bl	chMtxLock
 1174              	.LVL119:
 1175              		.loc 1 378 0
 1176 008a AB69     		ldr	r3, [r5, #24]
 1177 008c 9968     		ldr	r1, [r3, #8]
 1178 008e C9EB0101 		rsb	r1, r9, r1
 1179 0092 B1FA81F1 		clz	r1, r1
 1180 0096 0320     		movs	r0, #3
 1181 0098 4909     		lsrs	r1, r1, #5
 1182 009a FFF7FEFF 		bl	_test_assert
 1183              	.LVL120:
 1184 009e 0028     		cmp	r0, #0
 1185 00a0 DED1     		bne	.L70
 1186              		.loc 1 379 0
 1187 00a2 6420     		movs	r0, #100
 1188 00a4 FFF7FEFF 		bl	chThdSleep
 1189              	.LVL121:
 1190              		.loc 1 380 0
 1191 00a8 AB69     		ldr	r3, [r5, #24]
 1192 00aa 9968     		ldr	r1, [r3, #8]
 1193 00ac CAEB0101 		rsb	r1, r10, r1
 1194 00b0 B1FA81F1 		clz	r1, r1
 1195 00b4 0420     		movs	r0, #4
 1196 00b6 4909     		lsrs	r1, r1, #5
 1197 00b8 FFF7FEFF 		bl	_test_assert
ARM GAS  /tmp/ccar49s8.s 			page 22


 1198              	.LVL122:
 1199 00bc 0028     		cmp	r0, #0
 1200 00be CFD1     		bne	.L70
 1201              		.loc 1 381 0
 1202 00c0 FFF7FEFF 		bl	chMtxUnlock
 1203              	.LVL123:
 1204              		.loc 1 382 0
 1205 00c4 AB69     		ldr	r3, [r5, #24]
 1206 00c6 9968     		ldr	r1, [r3, #8]
 1207 00c8 C9EB0101 		rsb	r1, r9, r1
 1208 00cc B1FA81F1 		clz	r1, r1
 1209 00d0 0520     		movs	r0, #5
 1210 00d2 4909     		lsrs	r1, r1, #5
 1211 00d4 FFF7FEFF 		bl	_test_assert
 1212              	.LVL124:
 1213 00d8 0028     		cmp	r0, #0
 1214 00da C1D1     		bne	.L70
 1215              		.loc 1 383 0
 1216 00dc 6420     		movs	r0, #100
 1217 00de FFF7FEFF 		bl	chThdSleep
 1218              	.LVL125:
 1219              		.loc 1 384 0
 1220 00e2 AB69     		ldr	r3, [r5, #24]
 1221 00e4 9968     		ldr	r1, [r3, #8]
 1222 00e6 C9EB0101 		rsb	r1, r9, r1
 1223 00ea B1FA81F1 		clz	r1, r1
 1224 00ee 0620     		movs	r0, #6
 1225 00f0 4909     		lsrs	r1, r1, #5
 1226 00f2 FFF7FEFF 		bl	_test_assert
 1227              	.LVL126:
 1228 00f6 0028     		cmp	r0, #0
 1229 00f8 B2D1     		bne	.L70
 1230              		.loc 1 385 0
 1231 00fa FFF7FEFF 		bl	chMtxUnlockAll
 1232              	.LVL127:
 1233              		.loc 1 386 0
 1234 00fe AB69     		ldr	r3, [r5, #24]
 1235 0100 9968     		ldr	r1, [r3, #8]
 1236 0102 091B     		subs	r1, r1, r4
 1237 0104 B1FA81F1 		clz	r1, r1
 1238 0108 0720     		movs	r0, #7
 1239 010a 4909     		lsrs	r1, r1, #5
 1240 010c FFF7FEFF 		bl	_test_assert
 1241              	.LVL128:
 1242 0110 0028     		cmp	r0, #0
 1243 0112 A5D1     		bne	.L70
 1244              		.loc 1 387 0
 1245 0114 FFF7FEFF 		bl	test_wait_threads
 1246              	.LVL129:
 1247              		.loc 1 390 0
 1248 0118 4E4B     		ldr	r3, .L76+36
 1249 011a 0093     		str	r3, [sp]
 1250 011c 4A46     		mov	r2, r9
 1251 011e 484B     		ldr	r3, .L76+16
 1252 0120 0398     		ldr	r0, [sp, #12]
 1253 0122 4FF4A871 		mov	r1, #336
 1254 0126 FFF7FEFF 		bl	chThdCreateStatic
ARM GAS  /tmp/ccar49s8.s 			page 23


 1255              	.LVL130:
 1256              		.loc 1 391 0
 1257 012a 4B4B     		ldr	r3, .L76+40
 1258              		.loc 1 390 0
 1259 012c 3860     		str	r0, [r7]
 1260              		.loc 1 391 0
 1261 012e 4FF4A871 		mov	r1, #336
 1262 0132 0093     		str	r3, [sp]
 1263 0134 5246     		mov	r2, r10
 1264 0136 444B     		ldr	r3, .L76+24
 1265 0138 3046     		mov	r0, r6
 1266 013a FFF7FEFF 		bl	chThdCreateStatic
 1267              	.LVL131:
 1268 013e 7860     		str	r0, [r7, #4]
 1269              		.loc 1 392 0
 1270 0140 4248     		ldr	r0, .L76+28
 1271 0142 FFF7FEFF 		bl	chMtxLock
 1272              	.LVL132:
 1273              		.loc 1 393 0
 1274 0146 AB69     		ldr	r3, [r5, #24]
 1275 0148 9968     		ldr	r1, [r3, #8]
 1276 014a 091B     		subs	r1, r1, r4
 1277 014c B1FA81F1 		clz	r1, r1
 1278 0150 0820     		movs	r0, #8
 1279 0152 4909     		lsrs	r1, r1, #5
 1280 0154 FFF7FEFF 		bl	_test_assert
 1281              	.LVL133:
 1282 0158 0028     		cmp	r0, #0
 1283 015a 81D1     		bne	.L70
 1284              		.loc 1 394 0
 1285 015c 6420     		movs	r0, #100
 1286 015e FFF7FEFF 		bl	chThdSleep
 1287              	.LVL134:
 1288              		.loc 1 395 0
 1289 0162 AB69     		ldr	r3, [r5, #24]
 1290 0164 9968     		ldr	r1, [r3, #8]
 1291 0166 C9EB010C 		rsb	ip, r9, r1
 1292 016a DCF10001 		rsbs	r1, ip, #0
 1293 016e 41EB0C01 		adc	r1, r1, ip
 1294 0172 0920     		movs	r0, #9
 1295 0174 FFF7FEFF 		bl	_test_assert
 1296              	.LVL135:
 1297 0178 0028     		cmp	r0, #0
 1298 017a 7FF471AF 		bne	.L70
 1299              		.loc 1 396 0
 1300 017e 3448     		ldr	r0, .L76+32
 1301 0180 FFF7FEFF 		bl	chMtxLock
 1302              	.LVL136:
 1303              		.loc 1 397 0
 1304 0184 AB69     		ldr	r3, [r5, #24]
 1305 0186 9968     		ldr	r1, [r3, #8]
 1306 0188 C9EB010E 		rsb	lr, r9, r1
 1307 018c DEF10001 		rsbs	r1, lr, #0
 1308 0190 41EB0E01 		adc	r1, r1, lr
 1309 0194 0A20     		movs	r0, #10
 1310 0196 FFF7FEFF 		bl	_test_assert
 1311              	.LVL137:
ARM GAS  /tmp/ccar49s8.s 			page 24


 1312 019a 0028     		cmp	r0, #0
 1313 019c 7FF460AF 		bne	.L70
 1314              		.loc 1 398 0
 1315 01a0 6420     		movs	r0, #100
 1316 01a2 FFF7FEFF 		bl	chThdSleep
 1317              	.LVL138:
 1318              		.loc 1 399 0
 1319 01a6 AB69     		ldr	r3, [r5, #24]
 1320 01a8 9968     		ldr	r1, [r3, #8]
 1321 01aa CAEB0107 		rsb	r7, r10, r1
 1322 01ae 7942     		rsbs	r1, r7, #0
 1323 01b0 7941     		adcs	r1, r1, r7
 1324 01b2 0B20     		movs	r0, #11
 1325 01b4 FFF7FEFF 		bl	_test_assert
 1326              	.LVL139:
 1327 01b8 0028     		cmp	r0, #0
 1328 01ba 7FF451AF 		bne	.L70
 1329              		.loc 1 400 0
 1330              		.syntax unified
 1331              	@ 400 "../../../test/testmtx.c" 1
 1332 01be FFF7FEFF 		bl      _port_lock
 1333              	@ 0 "" 2
 1334              		.thumb
 1335              		.syntax unified
 1336 01c2 FFF7FEFF 		bl	dbg_check_lock
 1337              	.LVL140:
 1338              		.loc 1 401 0
 1339 01c6 FFF7FEFF 		bl	chMtxUnlockS
 1340              	.LVL141:
 1341              		.loc 1 402 0
 1342 01ca FFF7FEFF 		bl	chSchRescheduleS
 1343              	.LVL142:
 1344              		.loc 1 403 0
 1345 01ce FFF7FEFF 		bl	dbg_check_unlock
 1346              	.LVL143:
 1347              		.syntax unified
 1348              	@ 403 "../../../test/testmtx.c" 1
 1349 01d2 FFF7FEFF 		bl      _port_unlock
 1350              	@ 0 "" 2
 1351              		.loc 1 404 0
 1352              		.thumb
 1353              		.syntax unified
 1354 01d6 AB69     		ldr	r3, [r5, #24]
 1355 01d8 9968     		ldr	r1, [r3, #8]
 1356 01da C9EB0106 		rsb	r6, r9, r1
 1357 01de 7142     		rsbs	r1, r6, #0
 1358 01e0 7141     		adcs	r1, r1, r6
 1359 01e2 0C20     		movs	r0, #12
 1360 01e4 FFF7FEFF 		bl	_test_assert
 1361              	.LVL144:
 1362 01e8 0028     		cmp	r0, #0
 1363 01ea 7FF439AF 		bne	.L70
 1364              		.loc 1 405 0
 1365 01ee 6420     		movs	r0, #100
 1366 01f0 FFF7FEFF 		bl	chThdSleep
 1367              	.LVL145:
 1368              		.loc 1 406 0
ARM GAS  /tmp/ccar49s8.s 			page 25


 1369 01f4 AB69     		ldr	r3, [r5, #24]
 1370 01f6 9968     		ldr	r1, [r3, #8]
 1371 01f8 C9EB0102 		rsb	r2, r9, r1
 1372 01fc 5142     		rsbs	r1, r2, #0
 1373 01fe 5141     		adcs	r1, r1, r2
 1374 0200 0D20     		movs	r0, #13
 1375 0202 FFF7FEFF 		bl	_test_assert
 1376              	.LVL146:
 1377 0206 0028     		cmp	r0, #0
 1378 0208 7FF42AAF 		bne	.L70
 1379              		.loc 1 407 0
 1380 020c FFF7FEFF 		bl	chMtxUnlockAll
 1381              	.LVL147:
 1382              		.loc 1 408 0
 1383 0210 AB69     		ldr	r3, [r5, #24]
 1384 0212 9968     		ldr	r1, [r3, #8]
 1385 0214 0B1B     		subs	r3, r1, r4
 1386 0216 5942     		rsbs	r1, r3, #0
 1387 0218 5941     		adcs	r1, r1, r3
 1388 021a 0E20     		movs	r0, #14
 1389 021c FFF7FEFF 		bl	_test_assert
 1390              	.LVL148:
 1391 0220 0028     		cmp	r0, #0
 1392 0222 7FF41DAF 		bne	.L70
 1393              		.loc 1 410 0
 1394 0226 05B0     		add	sp, sp, #20
 1395              		.cfi_def_cfa_offset 28
 1396              		@ sp needed
 1397 0228 BDE8F046 		pop	{r4, r5, r6, r7, r9, r10, lr}
 1398              		.cfi_restore 14
 1399              		.cfi_restore 10
 1400              		.cfi_restore 9
 1401              		.cfi_restore 7
 1402              		.cfi_restore 6
 1403              		.cfi_restore 5
 1404              		.cfi_restore 4
 1405              		.cfi_def_cfa_offset 0
 1406              	.LVL149:
 1407              		.loc 1 409 0
 1408 022c FFF7FEBF 		b	test_wait_threads
 1409              	.LVL150:
 1410              	.L77:
 1411              		.align	2
 1412              	.L76:
 1413 0230 00000000 		.word	rlist
 1414 0234 00000000 		.word	wa
 1415 0238 0C000000 		.word	.LC3
 1416 023c 00000000 		.word	threads
 1417 0240 00000000 		.word	thread4a
 1418 0244 10000000 		.word	.LC4
 1419 0248 00000000 		.word	thread4b
 1420 024c 00000000 		.word	.LANCHOR1
 1421 0250 00000000 		.word	.LANCHOR0
 1422 0254 04000000 		.word	.LC1
 1423 0258 08000000 		.word	.LC2
 1424              		.cfi_endproc
 1425              	.LFE18:
ARM GAS  /tmp/ccar49s8.s 			page 26


 1426              		.size	mtx4_execute, .-mtx4_execute
 1427              		.section	.text.mtx5_execute,"ax",%progbits
 1428              		.align	2
 1429              		.p2align 4,,15
 1430              		.thumb
 1431              		.thumb_func
 1432              		.type	mtx5_execute, %function
 1433              	mtx5_execute:
 1434              	.LFB20:
 1435              		.loc 1 434 0
 1436              		.cfi_startproc
 1437              		@ args = 0, pretend = 0, frame = 0
 1438              		@ frame_needed = 0, uses_anonymous_args = 0
 1439 0000 70B5     		push	{r4, r5, r6, lr}
 1440              		.cfi_def_cfa_offset 16
 1441              		.cfi_offset 4, -16
 1442              		.cfi_offset 5, -12
 1443              		.cfi_offset 6, -8
 1444              		.cfi_offset 14, -4
 1445              		.loc 1 438 0
 1446 0002 2C4D     		ldr	r5, .L84
 1447              		.loc 1 440 0
 1448 0004 2C4C     		ldr	r4, .L84+4
 1449              		.loc 1 438 0
 1450 0006 AB69     		ldr	r3, [r5, #24]
 1451              		.loc 1 440 0
 1452 0008 2046     		mov	r0, r4
 1453              		.loc 1 438 0
 1454 000a 9E68     		ldr	r6, [r3, #8]
 1455              	.LVL151:
 1456              		.loc 1 440 0
 1457 000c FFF7FEFF 		bl	chMtxTryLock
 1458              	.LVL152:
 1459              		.loc 1 441 0
 1460 0010 0146     		mov	r1, r0
 1461 0012 0120     		movs	r0, #1
 1462              	.LVL153:
 1463 0014 FFF7FEFF 		bl	_test_assert
 1464              	.LVL154:
 1465 0018 00B1     		cbz	r0, .L83
 1466              	.L78:
 1467 001a 70BD     		pop	{r4, r5, r6, pc}
 1468              	.LVL155:
 1469              	.L83:
 1470              		.loc 1 443 0
 1471 001c 2046     		mov	r0, r4
 1472 001e FFF7FEFF 		bl	chMtxTryLock
 1473              	.LVL156:
 1474              		.loc 1 444 0
 1475 0022 80F00101 		eor	r1, r0, #1
 1476 0026 C9B2     		uxtb	r1, r1
 1477 0028 0220     		movs	r0, #2
 1478              	.LVL157:
 1479 002a FFF7FEFF 		bl	_test_assert
 1480              	.LVL158:
 1481 002e 0028     		cmp	r0, #0
 1482 0030 F3D1     		bne	.L78
ARM GAS  /tmp/ccar49s8.s 			page 27


 1483              		.loc 1 446 0
 1484              		.syntax unified
 1485              	@ 446 "../../../test/testmtx.c" 1
 1486 0032 FFF7FEFF 		bl      _port_lock
 1487              	@ 0 "" 2
 1488              		.thumb
 1489              		.syntax unified
 1490 0036 FFF7FEFF 		bl	dbg_check_lock
 1491              	.LVL159:
 1492              		.loc 1 447 0
 1493 003a FFF7FEFF 		bl	chMtxUnlockS
 1494              	.LVL160:
 1495              		.loc 1 448 0
 1496 003e FFF7FEFF 		bl	dbg_check_unlock
 1497              	.LVL161:
 1498              		.syntax unified
 1499              	@ 448 "../../../test/testmtx.c" 1
 1500 0042 FFF7FEFF 		bl      _port_unlock
 1501              	@ 0 "" 2
 1502              		.loc 1 450 0
 1503              		.thumb
 1504              		.syntax unified
 1505 0046 2168     		ldr	r1, [r4]
 1506 0048 091B     		subs	r1, r1, r4
 1507 004a B1FA81F1 		clz	r1, r1
 1508 004e 0320     		movs	r0, #3
 1509 0050 4909     		lsrs	r1, r1, #5
 1510 0052 FFF7FEFF 		bl	_test_assert
 1511              	.LVL162:
 1512 0056 0028     		cmp	r0, #0
 1513 0058 DFD1     		bne	.L78
 1514              		.loc 1 451 0
 1515 005a A168     		ldr	r1, [r4, #8]
 1516 005c B1FA81F1 		clz	r1, r1
 1517 0060 4909     		lsrs	r1, r1, #5
 1518 0062 0420     		movs	r0, #4
 1519 0064 FFF7FEFF 		bl	_test_assert
 1520              	.LVL163:
 1521 0068 0028     		cmp	r0, #0
 1522 006a D6D1     		bne	.L78
 1523              		.loc 1 452 0
 1524 006c AB69     		ldr	r3, [r5, #24]
 1525 006e 9968     		ldr	r1, [r3, #8]
 1526 0070 891B     		subs	r1, r1, r6
 1527 0072 B1FA81F1 		clz	r1, r1
 1528 0076 0520     		movs	r0, #5
 1529 0078 4909     		lsrs	r1, r1, #5
 1530 007a FFF7FEFF 		bl	_test_assert
 1531              	.LVL164:
 1532 007e 0028     		cmp	r0, #0
 1533 0080 CBD1     		bne	.L78
 1534              		.loc 1 454 0
 1535 0082 2046     		mov	r0, r4
 1536 0084 FFF7FEFF 		bl	chMtxLock
 1537              	.LVL165:
 1538              		.loc 1 455 0
 1539 0088 FFF7FEFF 		bl	chMtxUnlockAll
ARM GAS  /tmp/ccar49s8.s 			page 28


 1540              	.LVL166:
 1541              		.loc 1 456 0
 1542 008c 2168     		ldr	r1, [r4]
 1543 008e 091B     		subs	r1, r1, r4
 1544 0090 B1FA81F1 		clz	r1, r1
 1545 0094 0620     		movs	r0, #6
 1546 0096 4909     		lsrs	r1, r1, #5
 1547 0098 FFF7FEFF 		bl	_test_assert
 1548              	.LVL167:
 1549 009c 0028     		cmp	r0, #0
 1550 009e BCD1     		bne	.L78
 1551              		.loc 1 457 0
 1552 00a0 A168     		ldr	r1, [r4, #8]
 1553 00a2 B1FA81F1 		clz	r1, r1
 1554 00a6 4909     		lsrs	r1, r1, #5
 1555 00a8 0720     		movs	r0, #7
 1556              		.loc 1 458 0
 1557 00aa BDE87040 		pop	{r4, r5, r6, lr}
 1558              		.cfi_restore 14
 1559              		.cfi_restore 6
 1560              		.cfi_restore 5
 1561              		.cfi_restore 4
 1562              		.cfi_def_cfa_offset 0
 1563              	.LVL168:
 1564              		.loc 1 457 0
 1565 00ae FFF7FEBF 		b	_test_assert
 1566              	.LVL169:
 1567              	.L85:
 1568 00b2 00BF     		.align	2
 1569              	.L84:
 1570 00b4 00000000 		.word	rlist
 1571 00b8 00000000 		.word	.LANCHOR0
 1572              		.cfi_endproc
 1573              	.LFE20:
 1574              		.size	mtx5_execute, .-mtx5_execute
 1575              		.global	patternmtx
 1576              		.global	testmtx5
 1577              		.global	testmtx4
 1578              		.global	testmtx3
 1579              		.global	testmtx2
 1580              		.global	testmtx1
 1581              		.section	.rodata.testmtx5,"a",%progbits
 1582              		.align	2
 1583              		.type	testmtx5, %object
 1584              		.size	testmtx5, 16
 1585              	testmtx5:
 1586 0000 20000000 		.word	.LC7
 1587 0004 00000000 		.word	mtx5_setup
 1588 0008 00000000 		.word	0
 1589 000c 00000000 		.word	mtx5_execute
 1590              		.section	.data.m1,"aw",%progbits
 1591              		.align	2
 1592              		.set	.LANCHOR0,. + 0
 1593              		.type	m1, %object
 1594              		.size	m1, 16
 1595              	m1:
 1596 0000 00000000 		.word	m1
ARM GAS  /tmp/ccar49s8.s 			page 29


 1597 0004 00000000 		.word	m1
 1598 0008 00000000 		.word	0
 1599 000c 00000000 		.word	0
 1600              		.section	.data.m2,"aw",%progbits
 1601              		.align	2
 1602              		.set	.LANCHOR1,. + 0
 1603              		.type	m2, %object
 1604              		.size	m2, 16
 1605              	m2:
 1606 0000 00000000 		.word	m2
 1607 0004 00000000 		.word	m2
 1608 0008 00000000 		.word	0
 1609 000c 00000000 		.word	0
 1610              		.section	.rodata.str1.4,"aMS",%progbits,1
 1611              		.align	2
 1612              	.LC0:
 1613 0000 4500     		.ascii	"E\000"
 1614 0002 0000     		.space	2
 1615              	.LC1:
 1616 0004 4400     		.ascii	"D\000"
 1617 0006 0000     		.space	2
 1618              	.LC2:
 1619 0008 4300     		.ascii	"C\000"
 1620 000a 0000     		.space	2
 1621              	.LC3:
 1622 000c 4200     		.ascii	"B\000"
 1623 000e 0000     		.space	2
 1624              	.LC4:
 1625 0010 4100     		.ascii	"A\000"
 1626 0012 0000     		.space	2
 1627              	.LC5:
 1628 0014 41424344 		.ascii	"ABCDE\000"
 1628      4500
 1629 001a 0000     		.space	2
 1630              	.LC6:
 1631 001c 41424300 		.ascii	"ABC\000"
 1632              	.LC7:
 1633 0020 4D757465 		.ascii	"Mutexes, status\000"
 1633      7865732C 
 1633      20737461 
 1633      74757300 
 1634              	.LC8:
 1635 0030 4D757465 		.ascii	"Mutexes, priority return\000"
 1635      7865732C 
 1635      20707269 
 1635      6F726974 
 1635      79207265 
 1636 0049 000000   		.space	3
 1637              	.LC9:
 1638 004c 4D757465 		.ascii	"Mutexes, priority inheritance, complex case\000"
 1638      7865732C 
 1638      20707269 
 1638      6F726974 
 1638      7920696E 
 1639              	.LC10:
 1640 0078 4D757465 		.ascii	"Mutexes, priority inheritance, simple case\000"
 1640      7865732C 
ARM GAS  /tmp/ccar49s8.s 			page 30


 1640      20707269 
 1640      6F726974 
 1640      7920696E 
 1641 00a3 00       		.space	1
 1642              	.LC11:
 1643 00a4 4D757465 		.ascii	"Mutexes, priority enqueuing test\000"
 1643      7865732C 
 1643      20707269 
 1643      6F726974 
 1643      7920656E 
 1644              		.section	.rodata.patternmtx,"a",%progbits
 1645              		.align	2
 1646              		.type	patternmtx, %object
 1647              		.size	patternmtx, 24
 1648              	patternmtx:
 1649 0000 00000000 		.word	testmtx1
 1650 0004 00000000 		.word	testmtx2
 1651 0008 00000000 		.word	testmtx3
 1652 000c 00000000 		.word	testmtx4
 1653 0010 00000000 		.word	testmtx5
 1654 0014 00000000 		.word	0
 1655              		.section	.rodata.testmtx1,"a",%progbits
 1656              		.align	2
 1657              		.type	testmtx1, %object
 1658              		.size	testmtx1, 16
 1659              	testmtx1:
 1660 0000 A4000000 		.word	.LC11
 1661 0004 00000000 		.word	mtx1_setup
 1662 0008 00000000 		.word	0
 1663 000c 00000000 		.word	mtx1_execute
 1664              		.section	.rodata.testmtx2,"a",%progbits
 1665              		.align	2
 1666              		.type	testmtx2, %object
 1667              		.size	testmtx2, 16
 1668              	testmtx2:
 1669 0000 78000000 		.word	.LC10
 1670 0004 00000000 		.word	mtx2_setup
 1671 0008 00000000 		.word	0
 1672 000c 00000000 		.word	mtx2_execute
 1673              		.section	.rodata.testmtx3,"a",%progbits
 1674              		.align	2
 1675              		.type	testmtx3, %object
 1676              		.size	testmtx3, 16
 1677              	testmtx3:
 1678 0000 4C000000 		.word	.LC9
 1679 0004 00000000 		.word	mtx3_setup
 1680 0008 00000000 		.word	0
 1681 000c 00000000 		.word	mtx3_execute
 1682              		.section	.rodata.testmtx4,"a",%progbits
 1683              		.align	2
 1684              		.type	testmtx4, %object
 1685              		.size	testmtx4, 16
 1686              	testmtx4:
 1687 0000 30000000 		.word	.LC8
 1688 0004 00000000 		.word	mtx4_setup
 1689 0008 00000000 		.word	0
 1690 000c 00000000 		.word	mtx4_execute
ARM GAS  /tmp/ccar49s8.s 			page 31


 1691              		.text
 1692              	.Letext0:
 1693              		.file 2 "/home/z80/programs/sw4stm32/plugins/fr.ac6.mcu.externaltools.arm-none.linux32_1.7.0.20160
 1694              		.file 3 "/home/z80/programs/sw4stm32/plugins/fr.ac6.mcu.externaltools.arm-none.linux32_1.7.0.20160
 1695              		.file 4 "../../../os/ports/GCC/ARMCMx/chtypes.h"
 1696              		.file 5 "../../../os/kernel/include/chlists.h"
 1697              		.file 6 "../../../os/kernel/include/chthreads.h"
 1698              		.file 7 "../../../os/ports/GCC/ARMCMx/chcore_v7m.h"
 1699              		.file 8 "../../../os/kernel/include/chvt.h"
 1700              		.file 9 "../../../os/kernel/include/chschd.h"
 1701              		.file 10 "../../../os/kernel/include/chmtx.h"
 1702              		.file 11 "../../../test/test.h"
 1703              		.file 12 "../../../os/kernel/include/chdebug.h"