ARM GAS  /tmp/ccrts7Dr.s 			page 1


   1              		.syntax unified
   2              		.cpu cortex-m4
   3              		.fpu softvfp
   4              		.eabi_attribute 20, 1
   5              		.eabi_attribute 21, 1
   6              		.eabi_attribute 23, 3
   7              		.eabi_attribute 24, 1
   8              		.eabi_attribute 25, 1
   9              		.eabi_attribute 26, 1
  10              		.eabi_attribute 30, 2
  11              		.eabi_attribute 34, 1
  12              		.eabi_attribute 18, 4
  13              		.thumb
  14              		.syntax unified
  15              		.file	"testpools.c"
  16              		.text
  17              	.Ltext0:
  18              		.cfi_sections	.debug_frame
  19              		.section	.text.null_provider,"ax",%progbits
  20              		.align	2
  21              		.p2align 4,,15
  22              		.thumb
  23              		.thumb_func
  24              		.type	null_provider, %function
  25              	null_provider:
  26              	.LFB0:
  27              		.file 1 "../../../test/testpools.c"
  28              		.loc 1 60 0
  29              		.cfi_startproc
  30              		@ args = 0, pretend = 0, frame = 0
  31              		@ frame_needed = 0, uses_anonymous_args = 0
  32              		@ link register save eliminated.
  33              	.LVL0:
  34              		.loc 1 64 0
  35 0000 0020     		movs	r0, #0
  36              	.LVL1:
  37 0002 7047     		bx	lr
  38              		.cfi_endproc
  39              	.LFE0:
  40              		.size	null_provider, .-null_provider
  41              		.section	.text.pools1_setup,"ax",%progbits
  42              		.align	2
  43              		.p2align 4,,15
  44              		.thumb
  45              		.thumb_func
  46              		.type	pools1_setup, %function
  47              	pools1_setup:
  48              	.LFB1:
  49              		.loc 1 66 0
  50              		.cfi_startproc
  51              		@ args = 0, pretend = 0, frame = 0
  52              		@ frame_needed = 0, uses_anonymous_args = 0
  53              		@ link register save eliminated.
  54              		.loc 1 68 0
  55 0000 0022     		movs	r2, #0
  56 0002 4FF4A871 		mov	r1, #336
  57 0006 0148     		ldr	r0, .L3
ARM GAS  /tmp/ccrts7Dr.s 			page 2


  58 0008 FFF7FEBF 		b	chPoolInit
  59              	.LVL2:
  60              	.L4:
  61              		.align	2
  62              	.L3:
  63 000c 00000000 		.word	.LANCHOR0
  64              		.cfi_endproc
  65              	.LFE1:
  66              		.size	pools1_setup, .-pools1_setup
  67              		.section	.text.pools1_execute,"ax",%progbits
  68              		.align	2
  69              		.p2align 4,,15
  70              		.thumb
  71              		.thumb_func
  72              		.type	pools1_execute, %function
  73              	pools1_execute:
  74              	.LFB2:
  75              		.loc 1 71 0
  76              		.cfi_startproc
  77              		@ args = 0, pretend = 0, frame = 0
  78              		@ frame_needed = 0, uses_anonymous_args = 0
  79 0000 38B5     		push	{r3, r4, r5, lr}
  80              		.cfi_def_cfa_offset 16
  81              		.cfi_offset 3, -16
  82              		.cfi_offset 4, -12
  83              		.cfi_offset 5, -8
  84              		.cfi_offset 14, -4
  85              		.loc 1 75 0
  86 0002 2B4B     		ldr	r3, .L19
  87 0004 2B48     		ldr	r0, .L19+4
  88 0006 1D68     		ldr	r5, [r3]
  89 0008 0522     		movs	r2, #5
  90 000a 2946     		mov	r1, r5
  91 000c FFF7FEFF 		bl	chPoolLoadArray
  92              	.LVL3:
  93 0010 0524     		movs	r4, #5
  94              	.LVL4:
  95              	.L8:
  96              		.loc 1 79 0
  97 0012 2848     		ldr	r0, .L19+4
  98 0014 FFF7FEFF 		bl	chPoolAlloc
  99              	.LVL5:
 100 0018 011C     		adds	r1, r0, #0
 101 001a 18BF     		it	ne
 102 001c 0121     		movne	r1, #1
 103 001e 0120     		movs	r0, #1
 104 0020 FFF7FEFF 		bl	_test_assert
 105              	.LVL6:
 106 0024 90BB     		cbnz	r0, .L5
 107              		.loc 1 78 0 discriminator 2
 108 0026 013C     		subs	r4, r4, #1
 109              	.LVL7:
 110 0028 F3D1     		bne	.L8
 111              		.loc 1 82 0
 112 002a 2248     		ldr	r0, .L19+4
 113 002c FFF7FEFF 		bl	chPoolAlloc
 114              	.LVL8:
ARM GAS  /tmp/ccrts7Dr.s 			page 3


 115 0030 B0FA80F1 		clz	r1, r0
 116 0034 4909     		lsrs	r1, r1, #5
 117 0036 0220     		movs	r0, #2
 118 0038 FFF7FEFF 		bl	_test_assert
 119              	.LVL9:
 120 003c 30BB     		cbnz	r0, .L5
 121 003e 1C4C     		ldr	r4, .L19
 122              	.LVL10:
 123              	.LBB4:
 124              	.LBB5:
 125              		.loc 1 86 0
 126 0040 1C48     		ldr	r0, .L19+4
 127              	.LBE5:
 128              	.LBE4:
 129              		.loc 1 82 0
 130 0042 2946     		mov	r1, r5
 131 0044 04F11005 		add	r5, r4, #16
 132              	.LBB8:
 133              	.LBB6:
 134              		.loc 1 86 0
 135 0048 FFF7FEFF 		bl	chPoolFree
 136              	.LVL11:
 137              		.loc 1 85 0
 138 004c A542     		cmp	r5, r4
 139 004e 06D0     		beq	.L10
 140              	.L17:
 141 0050 54F8041F 		ldr	r1, [r4, #4]!
 142              		.loc 1 86 0
 143 0054 1748     		ldr	r0, .L19+4
 144 0056 FFF7FEFF 		bl	chPoolFree
 145              	.LVL12:
 146              		.loc 1 85 0
 147 005a A542     		cmp	r5, r4
 148 005c F8D1     		bne	.L17
 149              	.L10:
 150 005e 0524     		movs	r4, #5
 151              	.L12:
 152              	.LVL13:
 153              		.loc 1 90 0
 154 0060 1448     		ldr	r0, .L19+4
 155 0062 FFF7FEFF 		bl	chPoolAlloc
 156              	.LVL14:
 157 0066 011C     		adds	r1, r0, #0
 158 0068 18BF     		it	ne
 159 006a 0121     		movne	r1, #1
 160 006c 0320     		movs	r0, #3
 161 006e FFF7FEFF 		bl	_test_assert
 162              	.LVL15:
 163 0072 58B9     		cbnz	r0, .L5
 164              		.loc 1 89 0
 165 0074 013C     		subs	r4, r4, #1
 166              	.LVL16:
 167 0076 F3D1     		bne	.L12
 168              		.loc 1 93 0
 169 0078 0E48     		ldr	r0, .L19+4
 170 007a FFF7FEFF 		bl	chPoolAlloc
 171              	.LVL17:
ARM GAS  /tmp/ccrts7Dr.s 			page 4


 172 007e B0FA80F1 		clz	r1, r0
 173 0082 4909     		lsrs	r1, r1, #5
 174 0084 0420     		movs	r0, #4
 175 0086 FFF7FEFF 		bl	_test_assert
 176              	.LVL18:
 177 008a 00B1     		cbz	r0, .L18
 178              	.LVL19:
 179              	.L5:
 180 008c 38BD     		pop	{r3, r4, r5, pc}
 181              	.LVL20:
 182              	.L18:
 183              		.loc 1 96 0
 184 008e 1021     		movs	r1, #16
 185 0090 094A     		ldr	r2, .L19+8
 186 0092 0848     		ldr	r0, .L19+4
 187 0094 FFF7FEFF 		bl	chPoolInit
 188              	.LVL21:
 189              		.loc 1 97 0
 190 0098 0648     		ldr	r0, .L19+4
 191 009a FFF7FEFF 		bl	chPoolAlloc
 192              	.LVL22:
 193 009e B0FA80F1 		clz	r1, r0
 194 00a2 4909     		lsrs	r1, r1, #5
 195 00a4 0520     		movs	r0, #5
 196              	.LBE6:
 197              	.LBE8:
 198              		.loc 1 98 0
 199 00a6 BDE83840 		pop	{r3, r4, r5, lr}
 200              		.cfi_restore 14
 201              		.cfi_restore 5
 202              		.cfi_restore 4
 203              		.cfi_restore 3
 204              		.cfi_def_cfa_offset 0
 205              	.LVL23:
 206              	.LBB9:
 207              	.LBB7:
 208              		.loc 1 97 0
 209 00aa FFF7FEBF 		b	_test_assert
 210              	.LVL24:
 211              	.L20:
 212 00ae 00BF     		.align	2
 213              	.L19:
 214 00b0 00000000 		.word	wa
 215 00b4 00000000 		.word	.LANCHOR0
 216 00b8 00000000 		.word	null_provider
 217              	.LBE7:
 218              	.LBE9:
 219              		.cfi_endproc
 220              	.LFE2:
 221              		.size	pools1_execute, .-pools1_execute
 222              		.global	patternpools
 223              		.global	testpools1
 224              		.section	.rodata.str1.4,"aMS",%progbits,1
 225              		.align	2
 226              	.LC0:
 227 0000 4D656D6F 		.ascii	"Memory Pools, queue/dequeue\000"
 227      72792050 
ARM GAS  /tmp/ccrts7Dr.s 			page 5


 227      6F6F6C73 
 227      2C207175 
 227      6575652F 
 228              		.section	.rodata.patternpools,"a",%progbits
 229              		.align	2
 230              		.type	patternpools, %object
 231              		.size	patternpools, 8
 232              	patternpools:
 233 0000 00000000 		.word	testpools1
 234 0004 00000000 		.word	0
 235              		.section	.data.mp1,"aw",%progbits
 236              		.align	2
 237              		.set	.LANCHOR0,. + 0
 238              		.type	mp1, %object
 239              		.size	mp1, 12
 240              	mp1:
 241 0000 00000000 		.word	0
 242 0004 50010000 		.word	336
 243 0008 00000000 		.word	0
 244              		.section	.rodata.testpools1,"a",%progbits
 245              		.align	2
 246              		.type	testpools1, %object
 247              		.size	testpools1, 16
 248              	testpools1:
 249 0000 00000000 		.word	.LC0
 250 0004 00000000 		.word	pools1_setup
 251 0008 00000000 		.word	0
 252 000c 00000000 		.word	pools1_execute
 253              		.text
 254              	.Letext0:
 255              		.file 2 "/home/z80/programs/sw4stm32/plugins/fr.ac6.mcu.externaltools.arm-none.linux32_1.7.0.20160
 256              		.file 3 "../../../os/kernel/include/chmemcore.h"
 257              		.file 4 "../../../os/kernel/include/chmempools.h"
 258              		.file 5 "../../../test/test.h"