ARM GAS  /tmp/ccEIYxcn.s 			page 1


   1              		.syntax unified
   2              		.cpu cortex-m4
   3              		.fpu softvfp
   4              		.eabi_attribute 20, 1
   5              		.eabi_attribute 21, 1
   6              		.eabi_attribute 23, 3
   7              		.eabi_attribute 24, 1
   8              		.eabi_attribute 25, 1
   9              		.eabi_attribute 26, 1
  10              		.eabi_attribute 30, 2
  11              		.eabi_attribute 34, 1
  12              		.eabi_attribute 18, 4
  13              		.thumb
  14              		.syntax unified
  15              		.file	"test.c"
  16              		.text
  17              	.Ltext0:
  18              		.cfi_sections	.debug_frame
  19              		.section	.text.tmr,"ax",%progbits
  20              		.align	2
  21              		.p2align 4,,15
  22              		.thumb
  23              		.thumb_func
  24              		.type	tmr, %function
  25              	tmr:
  26              	.LFB125:
  27              		.file 1 "../../../test/test.c"
  28              		.loc 1 261 0
  29              		.cfi_startproc
  30              		@ args = 0, pretend = 0, frame = 0
  31              		@ frame_needed = 0, uses_anonymous_args = 0
  32              		@ link register save eliminated.
  33              	.LVL0:
  34              		.loc 1 264 0
  35 0000 014B     		ldr	r3, .L2
  36 0002 0122     		movs	r2, #1
  37 0004 1A70     		strb	r2, [r3]
  38 0006 7047     		bx	lr
  39              	.L3:
  40              		.align	2
  41              	.L2:
  42 0008 00000000 		.word	.LANCHOR0
  43              		.cfi_endproc
  44              	.LFE125:
  45              		.size	tmr, .-tmr
  46              		.section	.text.print_line,"ax",%progbits
  47              		.align	2
  48              		.p2align 4,,15
  49              		.thumb
  50              		.thumb_func
  51              		.type	print_line, %function
  52              	print_line:
  53              	.LFB128:
  54              		.loc 1 300 0
  55              		.cfi_startproc
  56              		@ args = 0, pretend = 0, frame = 0
  57              		@ frame_needed = 0, uses_anonymous_args = 0
ARM GAS  /tmp/ccEIYxcn.s 			page 2


  58              	.LVL1:
  59 0000 70B5     		push	{r4, r5, r6, lr}
  60              		.cfi_def_cfa_offset 16
  61              		.cfi_offset 4, -16
  62              		.cfi_offset 5, -12
  63              		.cfi_offset 6, -8
  64              		.cfi_offset 14, -4
  65 0002 094E     		ldr	r6, .L9
  66              		.loc 1 300 0
  67 0004 4C24     		movs	r4, #76
  68              	.LVL2:
  69              	.L5:
  70              		.loc 1 304 0 discriminator 3
  71 0006 3068     		ldr	r0, [r6]
  72 0008 074D     		ldr	r5, .L9
  73 000a 0368     		ldr	r3, [r0]
  74 000c 2D21     		movs	r1, #45
  75 000e 9B68     		ldr	r3, [r3, #8]
  76 0010 9847     		blx	r3
  77              	.LVL3:
  78              		.loc 1 303 0 discriminator 3
  79 0012 013C     		subs	r4, r4, #1
  80              	.LVL4:
  81 0014 F7D1     		bne	.L5
  82              		.loc 1 305 0
  83 0016 2868     		ldr	r0, [r5]
  84 0018 0449     		ldr	r1, .L9+4
  85 001a 0368     		ldr	r3, [r0]
  86 001c 0222     		movs	r2, #2
  87 001e 1B68     		ldr	r3, [r3]
  88              		.loc 1 306 0
  89 0020 BDE87040 		pop	{r4, r5, r6, lr}
  90              		.cfi_restore 14
  91              		.cfi_restore 6
  92              		.cfi_restore 5
  93              		.cfi_restore 4
  94              		.cfi_def_cfa_offset 0
  95              	.LVL5:
  96              		.loc 1 305 0
  97 0024 1847     		bx	r3
  98              	.LVL6:
  99              	.L10:
 100 0026 00BF     		.align	2
 101              	.L9:
 102 0028 00000000 		.word	.LANCHOR1
 103 002c 00000000 		.word	.LC0
 104              		.cfi_endproc
 105              	.LFE128:
 106              		.size	print_line, .-print_line
 107              		.section	.text.test_printn,"ax",%progbits
 108              		.align	2
 109              		.p2align 4,,15
 110              		.global	test_printn
 111              		.thumb
 112              		.thumb_func
 113              		.type	test_printn, %function
 114              	test_printn:
ARM GAS  /tmp/ccEIYxcn.s 			page 3


 115              	.LFB111:
 116              		.loc 1 91 0
 117              		.cfi_startproc
 118              		@ args = 0, pretend = 0, frame = 16
 119              		@ frame_needed = 0, uses_anonymous_args = 0
 120              	.LVL7:
 121              		.loc 1 94 0
 122 0000 10B3     		cbz	r0, .L19
 123              		.loc 1 91 0
 124 0002 70B5     		push	{r4, r5, r6, lr}
 125              		.cfi_def_cfa_offset 16
 126              		.cfi_offset 4, -16
 127              		.cfi_offset 5, -12
 128              		.cfi_offset 6, -8
 129              		.cfi_offset 14, -4
 130              		.loc 1 99 0
 131 0004 134A     		ldr	r2, .L21
 132              		.loc 1 91 0
 133 0006 84B0     		sub	sp, sp, #16
 134              		.cfi_def_cfa_offset 32
 135 0008 6D46     		mov	r5, sp
 136 000a 6C46     		mov	r4, sp
 137              	.L13:
 138              	.LVL8:
 139              		.loc 1 99 0
 140 000c A2FB0013 		umull	r1, r3, r2, r0
 141 0010 DB08     		lsrs	r3, r3, #3
 142 0012 03EB8301 		add	r1, r3, r3, lsl #2
 143 0016 A0EB4100 		sub	r0, r0, r1, lsl #1
 144              	.LVL9:
 145 001a 00F13001 		add	r1, r0, #48
 146 001e C9B2     		uxtb	r1, r1
 147 0020 04F8011B 		strb	r1, [r4], #1
 148              	.LVL10:
 149              		.loc 1 98 0
 150 0024 1846     		mov	r0, r3
 151 0026 002B     		cmp	r3, #0
 152 0028 F0D1     		bne	.L13
 153              		.loc 1 100 0
 154 002a AC42     		cmp	r4, r5
 155 002c 0AD9     		bls	.L11
 156 002e 0A4E     		ldr	r6, .L21+4
 157 0030 013C     		subs	r4, r4, #1
 158              	.LVL11:
 159 0032 01E0     		b	.L15
 160              	.LVL12:
 161              	.L20:
 162 0034 14F8011D 		ldrb	r1, [r4, #-1]!	@ zero_extendqisi2
 163              	.LVL13:
 164              	.L15:
 165              		.loc 1 101 0
 166 0038 3068     		ldr	r0, [r6]
 167              	.LVL14:
 168 003a 0368     		ldr	r3, [r0]
 169 003c 9B68     		ldr	r3, [r3, #8]
 170 003e 9847     		blx	r3
 171              	.LVL15:
ARM GAS  /tmp/ccEIYxcn.s 			page 4


 172              		.loc 1 100 0
 173 0040 AC42     		cmp	r4, r5
 174 0042 F7D1     		bne	.L20
 175              	.LVL16:
 176              	.L11:
 177              		.loc 1 103 0
 178 0044 04B0     		add	sp, sp, #16
 179              		.cfi_def_cfa_offset 16
 180              		@ sp needed
 181 0046 70BD     		pop	{r4, r5, r6, pc}
 182              	.LVL17:
 183              	.L19:
 184              		.cfi_def_cfa_offset 0
 185              		.cfi_restore 4
 186              		.cfi_restore 5
 187              		.cfi_restore 6
 188              		.cfi_restore 14
 189              	.LBB52:
 190              	.LBB53:
 191              		.loc 1 95 0
 192 0048 034B     		ldr	r3, .L21+4
 193 004a 1868     		ldr	r0, [r3]
 194              	.LVL18:
 195 004c 0368     		ldr	r3, [r0]
 196 004e 3021     		movs	r1, #48
 197 0050 9B68     		ldr	r3, [r3, #8]
 198 0052 1847     		bx	r3
 199              	.LVL19:
 200              	.L22:
 201              		.align	2
 202              	.L21:
 203 0054 CDCCCCCC 		.word	-858993459
 204 0058 00000000 		.word	.LANCHOR1
 205              	.LBE53:
 206              	.LBE52:
 207              		.cfi_endproc
 208              	.LFE111:
 209              		.size	test_printn, .-test_printn
 210              		.section	.text.test_print,"ax",%progbits
 211              		.align	2
 212              		.p2align 4,,15
 213              		.global	test_print
 214              		.thumb
 215              		.thumb_func
 216              		.type	test_print, %function
 217              	test_print:
 218              	.LFB112:
 219              		.loc 1 110 0
 220              		.cfi_startproc
 221              		@ args = 0, pretend = 0, frame = 0
 222              		@ frame_needed = 0, uses_anonymous_args = 0
 223              	.LVL20:
 224              		.loc 1 112 0
 225 0000 0178     		ldrb	r1, [r0]	@ zero_extendqisi2
 226 0002 59B1     		cbz	r1, .L29
 227              		.loc 1 110 0
 228 0004 38B5     		push	{r3, r4, r5, lr}
ARM GAS  /tmp/ccEIYxcn.s 			page 5


 229              		.cfi_def_cfa_offset 16
 230              		.cfi_offset 3, -16
 231              		.cfi_offset 4, -12
 232              		.cfi_offset 5, -8
 233              		.cfi_offset 14, -4
 234 0006 064D     		ldr	r5, .L30
 235 0008 0446     		mov	r4, r0
 236              	.LVL21:
 237              	.L25:
 238              		.loc 1 113 0
 239 000a 2868     		ldr	r0, [r5]
 240 000c 0368     		ldr	r3, [r0]
 241 000e 9B68     		ldr	r3, [r3, #8]
 242 0010 9847     		blx	r3
 243              	.LVL22:
 244              		.loc 1 112 0
 245 0012 14F8011F 		ldrb	r1, [r4, #1]!	@ zero_extendqisi2
 246              	.LVL23:
 247 0016 0029     		cmp	r1, #0
 248 0018 F7D1     		bne	.L25
 249 001a 38BD     		pop	{r3, r4, r5, pc}
 250              	.LVL24:
 251              	.L29:
 252              		.cfi_def_cfa_offset 0
 253              		.cfi_restore 3
 254              		.cfi_restore 4
 255              		.cfi_restore 5
 256              		.cfi_restore 14
 257 001c 7047     		bx	lr
 258              	.L31:
 259 001e 00BF     		.align	2
 260              	.L30:
 261 0020 00000000 		.word	.LANCHOR1
 262              		.cfi_endproc
 263              	.LFE112:
 264              		.size	test_print, .-test_print
 265              		.section	.text.test_println,"ax",%progbits
 266              		.align	2
 267              		.p2align 4,,15
 268              		.global	test_println
 269              		.thumb
 270              		.thumb_func
 271              		.type	test_println, %function
 272              	test_println:
 273              	.LFB113:
 274              		.loc 1 121 0
 275              		.cfi_startproc
 276              		@ args = 0, pretend = 0, frame = 0
 277              		@ frame_needed = 0, uses_anonymous_args = 0
 278              	.LVL25:
 279 0000 70B5     		push	{r4, r5, r6, lr}
 280              		.cfi_def_cfa_offset 16
 281              		.cfi_offset 4, -16
 282              		.cfi_offset 5, -12
 283              		.cfi_offset 6, -8
 284              		.cfi_offset 14, -4
 285              	.LBB54:
ARM GAS  /tmp/ccEIYxcn.s 			page 6


 286              	.LBB55:
 287              		.loc 1 112 0
 288 0002 0178     		ldrb	r1, [r0]	@ zero_extendqisi2
 289 0004 89B1     		cbz	r1, .L38
 290 0006 0A4D     		ldr	r5, .L39
 291 0008 0446     		mov	r4, r0
 292              	.LVL26:
 293              	.L34:
 294              		.loc 1 113 0
 295 000a 2868     		ldr	r0, [r5]
 296 000c 0368     		ldr	r3, [r0]
 297 000e 9B68     		ldr	r3, [r3, #8]
 298 0010 9847     		blx	r3
 299              	.LVL27:
 300              		.loc 1 112 0
 301 0012 14F8011F 		ldrb	r1, [r4, #1]!	@ zero_extendqisi2
 302              	.LVL28:
 303 0016 0029     		cmp	r1, #0
 304 0018 F7D1     		bne	.L34
 305              	.LVL29:
 306              	.L35:
 307              	.LBE55:
 308              	.LBE54:
 309              		.loc 1 124 0
 310 001a 2868     		ldr	r0, [r5]
 311 001c 0549     		ldr	r1, .L39+4
 312 001e 0368     		ldr	r3, [r0]
 313 0020 0222     		movs	r2, #2
 314 0022 1B68     		ldr	r3, [r3]
 315              		.loc 1 125 0
 316 0024 BDE87040 		pop	{r4, r5, r6, lr}
 317              		.cfi_remember_state
 318              		.cfi_restore 14
 319              		.cfi_restore 6
 320              		.cfi_restore 5
 321              		.cfi_restore 4
 322              		.cfi_def_cfa_offset 0
 323              		.loc 1 124 0
 324 0028 1847     		bx	r3
 325              	.LVL30:
 326              	.L38:
 327              		.cfi_restore_state
 328 002a 014D     		ldr	r5, .L39
 329 002c F5E7     		b	.L35
 330              	.L40:
 331 002e 00BF     		.align	2
 332              	.L39:
 333 0030 00000000 		.word	.LANCHOR1
 334 0034 00000000 		.word	.LC0
 335              		.cfi_endproc
 336              	.LFE113:
 337              		.size	test_println, .-test_println
 338              		.section	.text.test_emit_token,"ax",%progbits
 339              		.align	2
 340              		.p2align 4,,15
 341              		.global	test_emit_token
 342              		.thumb
ARM GAS  /tmp/ccEIYxcn.s 			page 7


 343              		.thumb_func
 344              		.type	test_emit_token, %function
 345              	test_emit_token:
 346              	.LFB116:
 347              		.loc 1 147 0
 348              		.cfi_startproc
 349              		@ args = 0, pretend = 0, frame = 0
 350              		@ frame_needed = 0, uses_anonymous_args = 0
 351              	.LVL31:
 352 0000 10B5     		push	{r4, lr}
 353              		.cfi_def_cfa_offset 8
 354              		.cfi_offset 4, -8
 355              		.cfi_offset 14, -4
 356              		.loc 1 147 0
 357 0002 0446     		mov	r4, r0
 358              		.loc 1 149 0
 359              		.syntax unified
 360              	@ 149 "../../../test/test.c" 1
 361 0004 FFF7FEFF 		bl      _port_lock
 362              	@ 0 "" 2
 363              		.thumb
 364              		.syntax unified
 365 0008 FFF7FEFF 		bl	dbg_check_lock
 366              	.LVL32:
 367              		.loc 1 150 0
 368 000c 044A     		ldr	r2, .L43
 369 000e 1368     		ldr	r3, [r2]
 370 0010 1C70     		strb	r4, [r3]
 371 0012 0133     		adds	r3, r3, #1
 372 0014 1360     		str	r3, [r2]
 373              		.loc 1 151 0
 374 0016 FFF7FEFF 		bl	dbg_check_unlock
 375              	.LVL33:
 376              		.syntax unified
 377              	@ 151 "../../../test/test.c" 1
 378 001a FFF7FEFF 		bl      _port_unlock
 379              	@ 0 "" 2
 380              		.thumb
 381              		.syntax unified
 382 001e 10BD     		pop	{r4, pc}
 383              	.L44:
 384              		.align	2
 385              	.L43:
 386 0020 00000000 		.word	.LANCHOR2
 387              		.cfi_endproc
 388              	.LFE116:
 389              		.size	test_emit_token, .-test_emit_token
 390              		.section	.text._test_fail,"ax",%progbits
 391              		.align	2
 392              		.p2align 4,,15
 393              		.global	_test_fail
 394              		.thumb
 395              		.thumb_func
 396              		.type	_test_fail, %function
 397              	_test_fail:
 398              	.LFB117:
 399              		.loc 1 157 0
ARM GAS  /tmp/ccEIYxcn.s 			page 8


 400              		.cfi_startproc
 401              		@ args = 0, pretend = 0, frame = 0
 402              		@ frame_needed = 0, uses_anonymous_args = 0
 403              		@ link register save eliminated.
 404              	.LVL34:
 405              		.loc 1 161 0
 406 0000 0349     		ldr	r1, .L46
 407              		.loc 1 159 0
 408 0002 044A     		ldr	r2, .L46+4
 409              		.loc 1 160 0
 410 0004 044B     		ldr	r3, .L46+8
 411              		.loc 1 161 0
 412 0006 0860     		str	r0, [r1]
 413              		.loc 1 159 0
 414 0008 0120     		movs	r0, #1
 415              	.LVL35:
 416 000a 1070     		strb	r0, [r2]
 417              		.loc 1 160 0
 418 000c 1870     		strb	r0, [r3]
 419              		.loc 1 163 0
 420 000e 7047     		bx	lr
 421              	.L47:
 422              		.align	2
 423              	.L46:
 424 0010 00000000 		.word	.LANCHOR5
 425 0014 00000000 		.word	.LANCHOR3
 426 0018 00000000 		.word	.LANCHOR4
 427              		.cfi_endproc
 428              	.LFE117:
 429              		.size	_test_fail, .-_test_fail
 430              		.section	.text._test_assert,"ax",%progbits
 431              		.align	2
 432              		.p2align 4,,15
 433              		.global	_test_assert
 434              		.thumb
 435              		.thumb_func
 436              		.type	_test_assert, %function
 437              	_test_assert:
 438              	.LFB118:
 439              		.loc 1 165 0
 440              		.cfi_startproc
 441              		@ args = 0, pretend = 0, frame = 0
 442              		@ frame_needed = 0, uses_anonymous_args = 0
 443              		@ link register save eliminated.
 444              	.LVL36:
 445              		.loc 1 167 0
 446 0000 51B9     		cbnz	r1, .L50
 447              	.LVL37:
 448              		.loc 1 165 0
 449 0002 10B4     		push	{r4}
 450              		.cfi_def_cfa_offset 4
 451              		.cfi_offset 4, -4
 452              	.LBB56:
 453              	.LBB57:
 454              		.loc 1 160 0
 455 0004 0649     		ldr	r1, .L53
 456              	.LVL38:
ARM GAS  /tmp/ccEIYxcn.s 			page 9


 457              		.loc 1 159 0
 458 0006 074C     		ldr	r4, .L53+4
 459              		.loc 1 161 0
 460 0008 074A     		ldr	r2, .L53+8
 461              		.loc 1 159 0
 462 000a 0123     		movs	r3, #1
 463 000c 2370     		strb	r3, [r4]
 464              		.loc 1 161 0
 465 000e 1060     		str	r0, [r2]
 466              	.LVL39:
 467              		.loc 1 160 0
 468 0010 0B70     		strb	r3, [r1]
 469              	.LBE57:
 470              	.LBE56:
 471              		.loc 1 170 0
 472 0012 1846     		mov	r0, r3
 473              	.LVL40:
 474 0014 10BC     		pop	{r4}
 475              		.cfi_restore 4
 476              		.cfi_def_cfa_offset 0
 477 0016 7047     		bx	lr
 478              	.LVL41:
 479              	.L50:
 480              		.loc 1 169 0
 481 0018 0023     		movs	r3, #0
 482              		.loc 1 170 0
 483 001a 1846     		mov	r0, r3
 484              	.LVL42:
 485 001c 7047     		bx	lr
 486              	.L54:
 487 001e 00BF     		.align	2
 488              	.L53:
 489 0020 00000000 		.word	.LANCHOR4
 490 0024 00000000 		.word	.LANCHOR3
 491 0028 00000000 		.word	.LANCHOR5
 492              		.cfi_endproc
 493              	.LFE118:
 494              		.size	_test_assert, .-_test_assert
 495              		.section	.text._test_assert_sequence,"ax",%progbits
 496              		.align	2
 497              		.p2align 4,,15
 498              		.global	_test_assert_sequence
 499              		.thumb
 500              		.thumb_func
 501              		.type	_test_assert_sequence, %function
 502              	_test_assert_sequence:
 503              	.LFB119:
 504              		.loc 1 172 0
 505              		.cfi_startproc
 506              		@ args = 0, pretend = 0, frame = 0
 507              		@ frame_needed = 0, uses_anonymous_args = 0
 508              		@ link register save eliminated.
 509              	.LVL43:
 510 0000 F0B4     		push	{r4, r5, r6, r7}
 511              		.cfi_def_cfa_offset 16
 512              		.cfi_offset 4, -16
 513              		.cfi_offset 5, -12
ARM GAS  /tmp/ccEIYxcn.s 			page 10


 514              		.cfi_offset 6, -8
 515              		.cfi_offset 7, -4
 516 0002 0E4E     		ldr	r6, .L62
 517              		.loc 1 173 0
 518 0004 0E4F     		ldr	r7, .L62+4
 519 0006 3568     		ldr	r5, [r6]
 520 0008 3B46     		mov	r3, r7
 521              		.loc 1 174 0
 522 000a 05E0     		b	.L56
 523              	.LVL44:
 524              	.L58:
 525              		.loc 1 175 0
 526 000c 13F8014B 		ldrb	r4, [r3], #1	@ zero_extendqisi2
 527              	.LVL45:
 528 0010 11F8012B 		ldrb	r2, [r1], #1	@ zero_extendqisi2
 529              	.LVL46:
 530 0014 9442     		cmp	r4, r2
 531 0016 07D1     		bne	.L59
 532              	.LVL47:
 533              	.L56:
 534              		.loc 1 174 0
 535 0018 AB42     		cmp	r3, r5
 536 001a F7D3     		bcc	.L58
 537              		.loc 1 178 0
 538 001c 0B78     		ldrb	r3, [r1]	@ zero_extendqisi2
 539              	.LVL48:
 540 001e 1BB9     		cbnz	r3, .L59
 541              	.LBB58:
 542              	.LBB59:
 543              		.loc 1 132 0
 544 0020 3760     		str	r7, [r6]
 545              	.LBE59:
 546              	.LBE58:
 547              		.loc 1 182 0
 548 0022 1846     		mov	r0, r3
 549              	.LVL49:
 550 0024 F0BC     		pop	{r4, r5, r6, r7}
 551              		.cfi_remember_state
 552              		.cfi_restore 4
 553              		.cfi_restore 5
 554              		.cfi_restore 6
 555              		.cfi_restore 7
 556              		.cfi_def_cfa_offset 0
 557 0026 7047     		bx	lr
 558              	.LVL50:
 559              	.L59:
 560              		.cfi_restore_state
 561              	.LBB60:
 562              	.LBB61:
 563              		.loc 1 159 0
 564 0028 064C     		ldr	r4, .L62+8
 565              		.loc 1 160 0
 566 002a 0749     		ldr	r1, .L62+12
 567              		.loc 1 161 0
 568 002c 074A     		ldr	r2, .L62+16
 569              		.loc 1 159 0
 570 002e 0123     		movs	r3, #1
ARM GAS  /tmp/ccEIYxcn.s 			page 11


 571 0030 2370     		strb	r3, [r4]
 572              		.loc 1 161 0
 573 0032 1060     		str	r0, [r2]
 574              	.LVL51:
 575              		.loc 1 160 0
 576 0034 0B70     		strb	r3, [r1]
 577              	.LBE61:
 578              	.LBE60:
 579              		.loc 1 182 0
 580 0036 1846     		mov	r0, r3
 581              	.LVL52:
 582 0038 F0BC     		pop	{r4, r5, r6, r7}
 583              		.cfi_restore 7
 584              		.cfi_restore 6
 585              		.cfi_restore 5
 586              		.cfi_restore 4
 587              		.cfi_def_cfa_offset 0
 588 003a 7047     		bx	lr
 589              	.L63:
 590              		.align	2
 591              	.L62:
 592 003c 00000000 		.word	.LANCHOR2
 593 0040 00000000 		.word	.LANCHOR6
 594 0044 00000000 		.word	.LANCHOR3
 595 0048 00000000 		.word	.LANCHOR4
 596 004c 00000000 		.word	.LANCHOR5
 597              		.cfi_endproc
 598              	.LFE119:
 599              		.size	_test_assert_sequence, .-_test_assert_sequence
 600              		.section	.text._test_assert_time_window,"ax",%progbits
 601              		.align	2
 602              		.p2align 4,,15
 603              		.global	_test_assert_time_window
 604              		.thumb
 605              		.thumb_func
 606              		.type	_test_assert_time_window, %function
 607              	_test_assert_time_window:
 608              	.LFB120:
 609              		.loc 1 184 0
 610              		.cfi_startproc
 611              		@ args = 0, pretend = 0, frame = 0
 612              		@ frame_needed = 0, uses_anonymous_args = 0
 613              		@ link register save eliminated.
 614              	.LVL53:
 615              		.loc 1 186 0
 616 0000 094B     		ldr	r3, .L69
 617 0002 DB68     		ldr	r3, [r3, #12]
 618              	.LBB62:
 619              	.LBB63:
 620              		.loc 1 167 0
 621 0004 521A     		subs	r2, r2, r1
 622              	.LVL54:
 623 0006 5B1A     		subs	r3, r3, r1
 624              	.LVL55:
 625 0008 9342     		cmp	r3, r2
 626 000a 0AD3     		bcc	.L66
 627              	.LVL56:
ARM GAS  /tmp/ccEIYxcn.s 			page 12


 628              	.LBE63:
 629              	.LBE62:
 630              		.loc 1 184 0
 631 000c 10B4     		push	{r4}
 632              		.cfi_def_cfa_offset 4
 633              		.cfi_offset 4, -4
 634              	.LBB68:
 635              	.LBB66:
 636              	.LBB64:
 637              	.LBB65:
 638              		.loc 1 160 0
 639 000e 0749     		ldr	r1, .L69+4
 640              	.LVL57:
 641              		.loc 1 159 0
 642 0010 074C     		ldr	r4, .L69+8
 643              		.loc 1 161 0
 644 0012 084A     		ldr	r2, .L69+12
 645              		.loc 1 159 0
 646 0014 0123     		movs	r3, #1
 647 0016 2370     		strb	r3, [r4]
 648              		.loc 1 161 0
 649 0018 1060     		str	r0, [r2]
 650              	.LVL58:
 651              		.loc 1 160 0
 652 001a 0B70     		strb	r3, [r1]
 653              	.LBE65:
 654              	.LBE64:
 655              	.LBE66:
 656              	.LBE68:
 657              		.loc 1 187 0
 658 001c 1846     		mov	r0, r3
 659              	.LVL59:
 660 001e 10BC     		pop	{r4}
 661              		.cfi_restore 4
 662              		.cfi_def_cfa_offset 0
 663 0020 7047     		bx	lr
 664              	.LVL60:
 665              	.L66:
 666              	.LBB69:
 667              	.LBB67:
 668              		.loc 1 169 0
 669 0022 0023     		movs	r3, #0
 670              	.LVL61:
 671              	.LBE67:
 672              	.LBE69:
 673              		.loc 1 187 0
 674 0024 1846     		mov	r0, r3
 675              	.LVL62:
 676 0026 7047     		bx	lr
 677              	.L70:
 678              		.align	2
 679              	.L69:
 680 0028 00000000 		.word	vtlist
 681 002c 00000000 		.word	.LANCHOR4
 682 0030 00000000 		.word	.LANCHOR3
 683 0034 00000000 		.word	.LANCHOR5
 684              		.cfi_endproc
ARM GAS  /tmp/ccEIYxcn.s 			page 13


 685              	.LFE120:
 686              		.size	_test_assert_time_window, .-_test_assert_time_window
 687              		.section	.text.test_terminate_threads,"ax",%progbits
 688              		.align	2
 689              		.p2align 4,,15
 690              		.global	test_terminate_threads
 691              		.thumb
 692              		.thumb_func
 693              		.type	test_terminate_threads, %function
 694              	test_terminate_threads:
 695              	.LFB121:
 696              		.loc 1 196 0
 697              		.cfi_startproc
 698              		@ args = 0, pretend = 0, frame = 0
 699              		@ frame_needed = 0, uses_anonymous_args = 0
 700              	.LVL63:
 701 0000 38B5     		push	{r3, r4, r5, lr}
 702              		.cfi_def_cfa_offset 16
 703              		.cfi_offset 3, -16
 704              		.cfi_offset 4, -12
 705              		.cfi_offset 5, -8
 706              		.cfi_offset 14, -4
 707 0002 064C     		ldr	r4, .L79
 708 0004 04F11405 		add	r5, r4, #20
 709              	.LVL64:
 710              	.L73:
 711              		.loc 1 200 0
 712 0008 54F8043B 		ldr	r3, [r4], #4
 713              		.loc 1 201 0
 714 000c 1846     		mov	r0, r3
 715              		.loc 1 200 0
 716 000e 0BB1     		cbz	r3, .L72
 717              		.loc 1 201 0
 718 0010 FFF7FEFF 		bl	chThdTerminate
 719              	.LVL65:
 720              	.L72:
 721              		.loc 1 199 0 discriminator 2
 722 0014 AC42     		cmp	r4, r5
 723 0016 F7D1     		bne	.L73
 724              		.loc 1 202 0
 725 0018 38BD     		pop	{r3, r4, r5, pc}
 726              	.L80:
 727 001a 00BF     		.align	2
 728              	.L79:
 729 001c 00000000 		.word	.LANCHOR7
 730              		.cfi_endproc
 731              	.LFE121:
 732              		.size	test_terminate_threads, .-test_terminate_threads
 733              		.section	.text.test_wait_threads,"ax",%progbits
 734              		.align	2
 735              		.p2align 4,,15
 736              		.global	test_wait_threads
 737              		.thumb
 738              		.thumb_func
 739              		.type	test_wait_threads, %function
 740              	test_wait_threads:
 741              	.LFB122:
ARM GAS  /tmp/ccEIYxcn.s 			page 14


 742              		.loc 1 207 0
 743              		.cfi_startproc
 744              		@ args = 0, pretend = 0, frame = 0
 745              		@ frame_needed = 0, uses_anonymous_args = 0
 746              	.LVL66:
 747 0000 70B5     		push	{r4, r5, r6, lr}
 748              		.cfi_def_cfa_offset 16
 749              		.cfi_offset 4, -16
 750              		.cfi_offset 5, -12
 751              		.cfi_offset 6, -8
 752              		.cfi_offset 14, -4
 753 0002 074C     		ldr	r4, .L89
 754              		.loc 1 213 0
 755 0004 0026     		movs	r6, #0
 756 0006 04F11405 		add	r5, r4, #20
 757              	.LVL67:
 758              	.L83:
 759              		.loc 1 211 0
 760 000a 54F8040B 		ldr	r0, [r4], #4
 761 000e 18B1     		cbz	r0, .L82
 762              		.loc 1 212 0
 763 0010 FFF7FEFF 		bl	chThdWait
 764              	.LVL68:
 765              		.loc 1 213 0
 766 0014 44F8046C 		str	r6, [r4, #-4]
 767              	.L82:
 768              		.loc 1 210 0 discriminator 2
 769 0018 AC42     		cmp	r4, r5
 770 001a F6D1     		bne	.L83
 771              		.loc 1 215 0
 772 001c 70BD     		pop	{r4, r5, r6, pc}
 773              	.L90:
 774 001e 00BF     		.align	2
 775              	.L89:
 776 0020 00000000 		.word	.LANCHOR7
 777              		.cfi_endproc
 778              	.LFE122:
 779              		.size	test_wait_threads, .-test_wait_threads
 780              		.section	.text.test_cpu_pulse,"ax",%progbits
 781              		.align	2
 782              		.p2align 4,,15
 783              		.global	test_cpu_pulse
 784              		.thumb
 785              		.thumb_func
 786              		.type	test_cpu_pulse, %function
 787              	test_cpu_pulse:
 788              	.LFB123:
 789              		.loc 1 224 0
 790              		.cfi_startproc
 791              		@ args = 0, pretend = 0, frame = 0
 792              		@ frame_needed = 0, uses_anonymous_args = 0
 793              		@ link register save eliminated.
 794              	.LVL69:
 795              		.loc 1 227 0
 796 0000 0D4B     		ldr	r3, .L98
 797              		.loc 1 228 0
 798 0002 0E49     		ldr	r1, .L98+4
ARM GAS  /tmp/ccEIYxcn.s 			page 15


 799              		.loc 1 224 0
 800 0004 10B4     		push	{r4}
 801              		.cfi_def_cfa_offset 4
 802              		.cfi_offset 4, -4
 803              		.loc 1 227 0
 804 0006 9C69     		ldr	r4, [r3, #24]
 805              		.loc 1 228 0
 806 0008 4FF47A73 		mov	r3, #1000
 807 000c 03FB00F0 		mul	r0, r3, r0
 808              	.LVL70:
 809              		.loc 1 227 0
 810 0010 626A     		ldr	r2, [r4, #36]
 811              	.LVL71:
 812              		.loc 1 228 0
 813 0012 0138     		subs	r0, r0, #1
 814 0014 531C     		adds	r3, r2, #1
 815 0016 A1FB0001 		umull	r0, r1, r1, r0
 816 001a 03EB9111 		add	r1, r3, r1, lsr #6
 817              	.LVL72:
 818              	.L95:
 819              		.loc 1 235 0
 820 001e 8A42     		cmp	r2, r1
 821              		.loc 1 230 0
 822 0020 636A     		ldr	r3, [r4, #36]
 823              	.LVL73:
 824              		.loc 1 235 0
 825 0022 03D2     		bcs	.L92
 826              		.loc 1 235 0 is_stmt 0 discriminator 1
 827 0024 9A42     		cmp	r2, r3
 828 0026 03D9     		bls	.L97
 829              		.loc 1 237 0 is_stmt 1
 830 0028 10BC     		pop	{r4}
 831              		.cfi_remember_state
 832              		.cfi_restore 4
 833              		.cfi_def_cfa_offset 0
 834 002a 7047     		bx	lr
 835              	.L92:
 836              		.cfi_restore_state
 837              		.loc 1 236 0
 838 002c 9A42     		cmp	r2, r3
 839 002e F6D9     		bls	.L95
 840              	.L97:
 841              		.loc 1 236 0 is_stmt 0 discriminator 2
 842 0030 9942     		cmp	r1, r3
 843 0032 F4D8     		bhi	.L95
 844              		.loc 1 237 0 is_stmt 1
 845 0034 10BC     		pop	{r4}
 846              		.cfi_restore 4
 847              		.cfi_def_cfa_offset 0
 848 0036 7047     		bx	lr
 849              	.L99:
 850              		.align	2
 851              	.L98:
 852 0038 00000000 		.word	rlist
 853 003c D34D6210 		.word	274877907
 854              		.cfi_endproc
 855              	.LFE123:
ARM GAS  /tmp/ccEIYxcn.s 			page 16


 856              		.size	test_cpu_pulse, .-test_cpu_pulse
 857              		.section	.text.test_wait_tick,"ax",%progbits
 858              		.align	2
 859              		.p2align 4,,15
 860              		.global	test_wait_tick
 861              		.thumb
 862              		.thumb_func
 863              		.type	test_wait_tick, %function
 864              	test_wait_tick:
 865              	.LFB124:
 866              		.loc 1 245 0
 867              		.cfi_startproc
 868              		@ args = 0, pretend = 0, frame = 0
 869              		@ frame_needed = 0, uses_anonymous_args = 0
 870 0000 08B5     		push	{r3, lr}
 871              		.cfi_def_cfa_offset 8
 872              		.cfi_offset 3, -8
 873              		.cfi_offset 14, -4
 874              		.loc 1 247 0
 875 0002 0120     		movs	r0, #1
 876 0004 FFF7FEFF 		bl	chThdSleep
 877              	.LVL74:
 878              		.loc 1 248 0
 879 0008 014B     		ldr	r3, .L102
 880 000a D868     		ldr	r0, [r3, #12]
 881              		.loc 1 249 0
 882 000c 08BD     		pop	{r3, pc}
 883              	.L103:
 884 000e 00BF     		.align	2
 885              	.L102:
 886 0010 00000000 		.word	vtlist
 887              		.cfi_endproc
 888              	.LFE124:
 889              		.size	test_wait_tick, .-test_wait_tick
 890              		.section	.text.test_start_timer,"ax",%progbits
 891              		.align	2
 892              		.p2align 4,,15
 893              		.global	test_start_timer
 894              		.thumb
 895              		.thumb_func
 896              		.type	test_start_timer, %function
 897              	test_start_timer:
 898              	.LFB126:
 899              		.loc 1 272 0
 900              		.cfi_startproc
 901              		@ args = 0, pretend = 0, frame = 0
 902              		@ frame_needed = 0, uses_anonymous_args = 0
 903              	.LVL75:
 904 0000 38B5     		push	{r3, r4, r5, lr}
 905              		.cfi_def_cfa_offset 16
 906              		.cfi_offset 3, -16
 907              		.cfi_offset 4, -12
 908              		.cfi_offset 5, -8
 909              		.cfi_offset 14, -4
 910              		.loc 1 275 0
 911 0002 0E4B     		ldr	r3, .L106
 912 0004 0024     		movs	r4, #0
ARM GAS  /tmp/ccEIYxcn.s 			page 17


 913              		.loc 1 272 0
 914 0006 0546     		mov	r5, r0
 915              	.LVL76:
 916              		.loc 1 275 0
 917 0008 1C70     		strb	r4, [r3]
 918              		.loc 1 276 0
 919              		.syntax unified
 920              	@ 276 "../../../test/test.c" 1
 921 000a FFF7FEFF 		bl      _port_lock
 922              	@ 0 "" 2
 923              		.thumb
 924              		.syntax unified
 925 000e FFF7FEFF 		bl	dbg_check_lock
 926              	.LVL77:
 927 0012 4FF47A73 		mov	r3, #1000
 928 0016 03FB05F1 		mul	r1, r3, r5
 929 001a 094B     		ldr	r3, .L106+4
 930 001c 094A     		ldr	r2, .L106+8
 931 001e 0A48     		ldr	r0, .L106+12
 932 0020 0139     		subs	r1, r1, #1
 933 0022 A3FB0131 		umull	r3, r1, r3, r1
 934 0026 8909     		lsrs	r1, r1, #6
 935 0028 2346     		mov	r3, r4
 936 002a 0131     		adds	r1, r1, #1
 937 002c FFF7FEFF 		bl	chVTSetI
 938              	.LVL78:
 939 0030 FFF7FEFF 		bl	dbg_check_unlock
 940              	.LVL79:
 941              		.syntax unified
 942              	@ 276 "../../../test/test.c" 1
 943 0034 FFF7FEFF 		bl      _port_unlock
 944              	@ 0 "" 2
 945              		.thumb
 946              		.syntax unified
 947 0038 38BD     		pop	{r3, r4, r5, pc}
 948              	.LVL80:
 949              	.L107:
 950 003a 00BF     		.align	2
 951              	.L106:
 952 003c 00000000 		.word	.LANCHOR0
 953 0040 D34D6210 		.word	274877907
 954 0044 00000000 		.word	tmr
 955 0048 00000000 		.word	.LANCHOR8
 956              		.cfi_endproc
 957              	.LFE126:
 958              		.size	test_start_timer, .-test_start_timer
 959              		.section	.text.TestThread,"ax",%progbits
 960              		.align	2
 961              		.p2align 4,,15
 962              		.global	TestThread
 963              		.thumb
 964              		.thumb_func
 965              		.type	TestThread, %function
 966              	TestThread:
 967              	.LFB129:
 968              		.loc 1 314 0
 969              		.cfi_startproc
ARM GAS  /tmp/ccEIYxcn.s 			page 18


 970              		@ args = 0, pretend = 0, frame = 16
 971              		@ frame_needed = 0, uses_anonymous_args = 0
 972              	.LVL81:
 973 0000 2DE9F04F 		push	{r4, r5, r6, r7, r8, r9, r10, fp, lr}
 974              		.cfi_def_cfa_offset 36
 975              		.cfi_offset 4, -36
 976              		.cfi_offset 5, -32
 977              		.cfi_offset 6, -28
 978              		.cfi_offset 7, -24
 979              		.cfi_offset 8, -20
 980              		.cfi_offset 9, -16
 981              		.cfi_offset 10, -12
 982              		.cfi_offset 11, -8
 983              		.cfi_offset 14, -4
 984              		.loc 1 317 0
 985 0004 9D4C     		ldr	r4, .L196
 986              		.loc 1 320 0
 987 0006 9E4D     		ldr	r5, .L196+4
 988              		.loc 1 317 0
 989 0008 2060     		str	r0, [r4]
 990              		.loc 1 314 0
 991 000a 85B0     		sub	sp, sp, #20
 992              		.cfi_def_cfa_offset 56
 993              		.loc 1 318 0
 994 000c 9D48     		ldr	r0, .L196+8
 995              	.LVL82:
 996 000e FFF7FEFF 		bl	test_println
 997              	.LVL83:
 998              		.loc 1 319 0
 999 0012 9D48     		ldr	r0, .L196+12
 1000 0014 FFF7FEFF 		bl	test_println
 1001              	.LVL84:
 1002              		.loc 1 320 0
 1003 0018 9C48     		ldr	r0, .L196+16
 1004 001a FFF7FEFF 		bl	test_println
 1005              	.LVL85:
 1006 001e 2A21     		movs	r1, #42
 1007              	.LVL86:
 1008              	.L109:
 1009              	.LBB106:
 1010              	.LBB107:
 1011              		.loc 1 113 0
 1012 0020 2068     		ldr	r0, [r4]
 1013 0022 0368     		ldr	r3, [r0]
 1014 0024 9B68     		ldr	r3, [r3, #8]
 1015 0026 9847     		blx	r3
 1016              	.LVL87:
 1017              		.loc 1 112 0
 1018 0028 15F8011F 		ldrb	r1, [r5, #1]!	@ zero_extendqisi2
 1019              	.LVL88:
 1020 002c 0029     		cmp	r1, #0
 1021 002e F7D1     		bne	.L109
 1022              	.LVL89:
 1023              	.LBE107:
 1024              	.LBE106:
 1025              		.loc 1 322 0
 1026 0030 9748     		ldr	r0, .L196+20
ARM GAS  /tmp/ccEIYxcn.s 			page 19


 1027 0032 984D     		ldr	r5, .L196+24
 1028 0034 FFF7FEFF 		bl	test_println
 1029              	.LVL90:
 1030 0038 2A21     		movs	r1, #42
 1031              	.LVL91:
 1032              	.L111:
 1033              	.LBB108:
 1034              	.LBB109:
 1035              		.loc 1 113 0
 1036 003a 2068     		ldr	r0, [r4]
 1037 003c 0368     		ldr	r3, [r0]
 1038 003e 9B68     		ldr	r3, [r3, #8]
 1039 0040 9847     		blx	r3
 1040              	.LVL92:
 1041              		.loc 1 112 0
 1042 0042 15F8011F 		ldrb	r1, [r5, #1]!	@ zero_extendqisi2
 1043              	.LVL93:
 1044 0046 0029     		cmp	r1, #0
 1045 0048 F7D1     		bne	.L111
 1046              	.LVL94:
 1047              	.LBE109:
 1048              	.LBE108:
 1049              		.loc 1 324 0
 1050 004a 9348     		ldr	r0, .L196+28
 1051 004c 934D     		ldr	r5, .L196+32
 1052 004e FFF7FEFF 		bl	test_println
 1053              	.LVL95:
 1054 0052 2A21     		movs	r1, #42
 1055              	.LVL96:
 1056              	.L113:
 1057              	.LBB110:
 1058              	.LBB111:
 1059              		.loc 1 113 0
 1060 0054 2068     		ldr	r0, [r4]
 1061 0056 0368     		ldr	r3, [r0]
 1062 0058 9B68     		ldr	r3, [r3, #8]
 1063 005a 9847     		blx	r3
 1064              	.LVL97:
 1065              		.loc 1 112 0
 1066 005c 15F8011F 		ldrb	r1, [r5, #1]!	@ zero_extendqisi2
 1067              	.LVL98:
 1068 0060 0029     		cmp	r1, #0
 1069 0062 F7D1     		bne	.L113
 1070              	.LVL99:
 1071              	.LBE111:
 1072              	.LBE110:
 1073              		.loc 1 327 0
 1074 0064 8E48     		ldr	r0, .L196+36
 1075 0066 8F4D     		ldr	r5, .L196+40
 1076 0068 FFF7FEFF 		bl	test_println
 1077              	.LVL100:
 1078 006c 2A21     		movs	r1, #42
 1079              	.LVL101:
 1080              	.L115:
 1081              	.LBB112:
 1082              	.LBB113:
 1083              		.loc 1 113 0
ARM GAS  /tmp/ccEIYxcn.s 			page 20


 1084 006e 2068     		ldr	r0, [r4]
 1085 0070 0368     		ldr	r3, [r0]
 1086 0072 9B68     		ldr	r3, [r3, #8]
 1087 0074 9847     		blx	r3
 1088              	.LVL102:
 1089              		.loc 1 112 0
 1090 0076 15F8011F 		ldrb	r1, [r5, #1]!	@ zero_extendqisi2
 1091              	.LVL103:
 1092 007a 0029     		cmp	r1, #0
 1093 007c F7D1     		bne	.L115
 1094              	.LVL104:
 1095              	.LBE113:
 1096              	.LBE112:
 1097              		.loc 1 330 0
 1098 007e 8A48     		ldr	r0, .L196+44
 1099 0080 8A4D     		ldr	r5, .L196+48
 1100 0082 FFF7FEFF 		bl	test_println
 1101              	.LVL105:
 1102 0086 2A21     		movs	r1, #42
 1103              	.LVL106:
 1104              	.L117:
 1105              	.LBB114:
 1106              	.LBB115:
 1107              		.loc 1 113 0
 1108 0088 2068     		ldr	r0, [r4]
 1109 008a 0368     		ldr	r3, [r0]
 1110 008c 9B68     		ldr	r3, [r3, #8]
 1111 008e 9847     		blx	r3
 1112              	.LVL107:
 1113              		.loc 1 112 0
 1114 0090 15F8011F 		ldrb	r1, [r5, #1]!	@ zero_extendqisi2
 1115              	.LVL108:
 1116 0094 0029     		cmp	r1, #0
 1117 0096 F7D1     		bne	.L117
 1118              	.LVL109:
 1119              	.LBE115:
 1120              	.LBE114:
 1121              		.loc 1 333 0
 1122 0098 8548     		ldr	r0, .L196+52
 1123 009a 864D     		ldr	r5, .L196+56
 1124 009c FFF7FEFF 		bl	test_println
 1125              	.LVL110:
 1126 00a0 2A21     		movs	r1, #42
 1127              	.LVL111:
 1128              	.L119:
 1129              	.LBB116:
 1130              	.LBB117:
 1131              		.loc 1 113 0
 1132 00a2 2068     		ldr	r0, [r4]
 1133 00a4 0368     		ldr	r3, [r0]
 1134 00a6 9B68     		ldr	r3, [r3, #8]
 1135 00a8 9847     		blx	r3
 1136              	.LVL112:
 1137              		.loc 1 112 0
 1138 00aa 15F8011F 		ldrb	r1, [r5, #1]!	@ zero_extendqisi2
 1139              	.LVL113:
 1140 00ae 0029     		cmp	r1, #0
ARM GAS  /tmp/ccEIYxcn.s 			page 21


 1141 00b0 F7D1     		bne	.L119
 1142              	.LVL114:
 1143              	.LBE117:
 1144              	.LBE116:
 1145              		.loc 1 337 0
 1146 00b2 8148     		ldr	r0, .L196+60
 1147 00b4 814D     		ldr	r5, .L196+64
 1148 00b6 FFF7FEFF 		bl	test_println
 1149              	.LVL115:
 1150 00ba 2A21     		movs	r1, #42
 1151              	.LVL116:
 1152              	.L121:
 1153              	.LBB118:
 1154              	.LBB119:
 1155              		.loc 1 113 0
 1156 00bc 2068     		ldr	r0, [r4]
 1157 00be 0368     		ldr	r3, [r0]
 1158 00c0 9B68     		ldr	r3, [r3, #8]
 1159 00c2 9847     		blx	r3
 1160              	.LVL117:
 1161              		.loc 1 112 0
 1162 00c4 15F8011F 		ldrb	r1, [r5, #1]!	@ zero_extendqisi2
 1163              	.LVL118:
 1164 00c8 0029     		cmp	r1, #0
 1165 00ca F7D1     		bne	.L121
 1166              	.LVL119:
 1167              	.LBE119:
 1168              	.LBE118:
 1169              		.loc 1 341 0
 1170 00cc 7C48     		ldr	r0, .L196+68
 1171 00ce 7D4D     		ldr	r5, .L196+72
 1172 00d0 FFF7FEFF 		bl	test_println
 1173              	.LVL120:
 1174 00d4 2A21     		movs	r1, #42
 1175              	.LVL121:
 1176              	.L123:
 1177              	.LBB120:
 1178              	.LBB121:
 1179              		.loc 1 113 0
 1180 00d6 2068     		ldr	r0, [r4]
 1181 00d8 0368     		ldr	r3, [r0]
 1182 00da 9B68     		ldr	r3, [r3, #8]
 1183 00dc 9847     		blx	r3
 1184              	.LVL122:
 1185              		.loc 1 112 0
 1186 00de 15F8011F 		ldrb	r1, [r5, #1]!	@ zero_extendqisi2
 1187              	.LVL123:
 1188 00e2 0029     		cmp	r1, #0
 1189 00e4 F7D1     		bne	.L123
 1190 00e6 784B     		ldr	r3, .L196+76
 1191              	.LBE121:
 1192              	.LBE120:
 1193              		.loc 1 345 0
 1194 00e8 7848     		ldr	r0, .L196+80
 1195 00ea 0293     		str	r3, [sp, #8]
 1196              		.loc 1 349 0
 1197 00ec 784B     		ldr	r3, .L196+84
ARM GAS  /tmp/ccEIYxcn.s 			page 22


 1198 00ee 0191     		str	r1, [sp, #4]
 1199              	.LVL124:
 1200 00f0 0393     		str	r3, [sp, #12]
 1201              		.loc 1 345 0
 1202 00f2 FFF7FEFF 		bl	test_println
 1203              	.LVL125:
 1204              		.loc 1 347 0
 1205 00f6 6348     		ldr	r0, .L196+8
 1206              	.LBB122:
 1207              	.LBB123:
 1208              		.loc 1 113 0
 1209 00f8 DFF880B1 		ldr	fp, .L196
 1210              	.LBE123:
 1211              	.LBE122:
 1212              		.loc 1 349 0
 1213 00fc 754F     		ldr	r7, .L196+88
 1214              		.loc 1 347 0
 1215 00fe FFF7FEFF 		bl	test_println
 1216              	.LVL126:
 1217              		.loc 1 349 0
 1218 0102 754B     		ldr	r3, .L196+92
 1219 0104 0199     		ldr	r1, [sp, #4]
 1220 0106 1970     		strb	r1, [r3]
 1221              	.LVL127:
 1222              	.L147:
 1223 0108 019B     		ldr	r3, [sp, #4]
 1224 010a 0133     		adds	r3, r3, #1
 1225 010c 0193     		str	r3, [sp, #4]
 1226              	.LVL128:
 1227 010e 043F     		subs	r7, r7, #4
 1228              	.LBB125:
 1229              	.LBB126:
 1230              		.loc 1 138 0
 1231 0110 4FF00008 		mov	r8, #0
 1232              	.LVL129:
 1233              	.L143:
 1234              	.LBE126:
 1235              	.LBE125:
 1236              		.loc 1 353 0
 1237 0114 57F8043F 		ldr	r3, [r7, #4]!
 1238 0118 002B     		cmp	r3, #0
 1239 011a 00F08680 		beq	.L193
 1240              	.L141:
 1241              		.loc 1 354 0
 1242 011e 6F4D     		ldr	r5, .L196+96
 1243 0120 FFF7FEFF 		bl	print_line
 1244              	.LVL130:
 1245 0124 2D21     		movs	r1, #45
 1246              	.LVL131:
 1247              	.L125:
 1248              	.LBB128:
 1249              	.LBB124:
 1250              		.loc 1 113 0
 1251 0126 2068     		ldr	r0, [r4]
 1252 0128 0368     		ldr	r3, [r0]
 1253 012a 9B68     		ldr	r3, [r3, #8]
 1254 012c 9847     		blx	r3
ARM GAS  /tmp/ccEIYxcn.s 			page 23


 1255              	.LVL132:
 1256              		.loc 1 112 0
 1257 012e 15F8011F 		ldrb	r1, [r5, #1]!	@ zero_extendqisi2
 1258              	.LVL133:
 1259 0132 0029     		cmp	r1, #0
 1260 0134 F7D1     		bne	.L125
 1261              	.LVL134:
 1262              	.LBE124:
 1263              	.LBE128:
 1264              		.loc 1 356 0
 1265 0136 0198     		ldr	r0, [sp, #4]
 1266              		.loc 1 358 0
 1267 0138 694D     		ldr	r5, .L196+100
 1268              		.loc 1 356 0
 1269 013a FFF7FEFF 		bl	test_printn
 1270              	.LVL135:
 1271              	.LBB129:
 1272              	.LBB130:
 1273              		.loc 1 113 0
 1274 013e DBF80000 		ldr	r0, [fp]
 1275              	.LVL136:
 1276 0142 0368     		ldr	r3, [r0]
 1277 0144 2E21     		movs	r1, #46
 1278 0146 9B68     		ldr	r3, [r3, #8]
 1279              	.LBE130:
 1280              	.LBE129:
 1281              		.loc 1 358 0
 1282 0148 08F10108 		add	r8, r8, #1
 1283              	.LVL137:
 1284              	.LBB132:
 1285              	.LBB131:
 1286              		.loc 1 113 0
 1287 014c 9847     		blx	r3
 1288              	.LVL138:
 1289              	.LBE131:
 1290              	.LBE132:
 1291              		.loc 1 358 0
 1292 014e 4046     		mov	r0, r8
 1293 0150 FFF7FEFF 		bl	test_printn
 1294              	.LVL139:
 1295 0154 2021     		movs	r1, #32
 1296              	.LVL140:
 1297              	.L127:
 1298              	.LBB133:
 1299              	.LBB134:
 1300              		.loc 1 113 0
 1301 0156 2068     		ldr	r0, [r4]
 1302 0158 0368     		ldr	r3, [r0]
 1303 015a 9B68     		ldr	r3, [r3, #8]
 1304 015c 9847     		blx	r3
 1305              	.LVL141:
 1306              		.loc 1 112 0
 1307 015e 15F8011F 		ldrb	r1, [r5, #1]!	@ zero_extendqisi2
 1308              	.LVL142:
 1309 0162 0029     		cmp	r1, #0
 1310 0164 F7D1     		bne	.L127
 1311              	.LVL143:
ARM GAS  /tmp/ccEIYxcn.s 			page 24


 1312              	.LBE134:
 1313              	.LBE133:
 1314              		.loc 1 360 0
 1315 0166 3B68     		ldr	r3, [r7]
 1316 0168 1D68     		ldr	r5, [r3]
 1317              	.LVL144:
 1318              	.LBB135:
 1319              	.LBB136:
 1320              		.loc 1 112 0
 1321 016a 2978     		ldrb	r1, [r5]	@ zero_extendqisi2
 1322 016c 39B1     		cbz	r1, .L132
 1323              	.LVL145:
 1324              	.L131:
 1325              		.loc 1 113 0
 1326 016e 2068     		ldr	r0, [r4]
 1327 0170 0368     		ldr	r3, [r0]
 1328 0172 9B68     		ldr	r3, [r3, #8]
 1329 0174 9847     		blx	r3
 1330              	.LVL146:
 1331              		.loc 1 112 0
 1332 0176 15F8011F 		ldrb	r1, [r5, #1]!	@ zero_extendqisi2
 1333              	.LVL147:
 1334 017a 0029     		cmp	r1, #0
 1335 017c F7D1     		bne	.L131
 1336              	.LVL148:
 1337              	.L132:
 1338              	.LBE136:
 1339              	.LBE135:
 1340              		.loc 1 361 0
 1341 017e 5948     		ldr	r0, .L196+104
 1342              	.LBB137:
 1343              	.LBB138:
 1344              		.loc 1 287 0
 1345 0180 DFF88491 		ldr	r9, .L196+140
 1346              	.LBB139:
 1347              	.LBB140:
 1348              		.loc 1 132 0
 1349 0184 584E     		ldr	r6, .L196+108
 1350 0186 594D     		ldr	r5, .L196+112
 1351              	.LBE140:
 1352              	.LBE139:
 1353              	.LBE138:
 1354              	.LBE137:
 1355              		.loc 1 361 0
 1356 0188 FFF7FEFF 		bl	test_println
 1357              	.LVL149:
 1358              		.loc 1 363 0
 1359 018c C820     		movs	r0, #200
 1360 018e FFF7FEFF 		bl	chThdSleep
 1361              	.LVL150:
 1362              	.LBB145:
 1363              	.LBB143:
 1364              		.loc 1 289 0
 1365 0192 574A     		ldr	r2, .L196+116
 1366              	.LBE143:
 1367              	.LBE145:
 1368              		.loc 1 365 0
ARM GAS  /tmp/ccEIYxcn.s 			page 25


 1369 0194 D7F800A0 		ldr	r10, [r7]
 1370              	.LVL151:
 1371              	.LBB146:
 1372              	.LBB144:
 1373              	.LBB142:
 1374              	.LBB141:
 1375              		.loc 1 132 0
 1376 0198 3560     		str	r5, [r6]
 1377              	.LBE141:
 1378              	.LBE142:
 1379              		.loc 1 287 0
 1380 019a 0023     		movs	r3, #0
 1381              		.loc 1 289 0
 1382 019c 1360     		str	r3, [r2]
 1383 019e 5360     		str	r3, [r2, #4]
 1384 01a0 9360     		str	r3, [r2, #8]
 1385 01a2 D360     		str	r3, [r2, #12]
 1386 01a4 1361     		str	r3, [r2, #16]
 1387              		.loc 1 291 0
 1388 01a6 DAF80420 		ldr	r2, [r10, #4]
 1389              		.loc 1 287 0
 1390 01aa 89F80030 		strb	r3, [r9]
 1391              	.LVL152:
 1392              		.loc 1 291 0
 1393 01ae 02B1     		cbz	r2, .L130
 1394              		.loc 1 292 0
 1395 01b0 9047     		blx	r2
 1396              	.LVL153:
 1397              	.L130:
 1398              		.loc 1 293 0
 1399 01b2 DAF80C30 		ldr	r3, [r10, #12]
 1400 01b6 9847     		blx	r3
 1401              	.LVL154:
 1402              		.loc 1 294 0
 1403 01b8 DAF80830 		ldr	r3, [r10, #8]
 1404 01bc 03B1     		cbz	r3, .L133
 1405              		.loc 1 295 0
 1406 01be 9847     		blx	r3
 1407              	.LVL155:
 1408              	.L133:
 1409              		.loc 1 297 0
 1410 01c0 FFF7FEFF 		bl	test_wait_threads
 1411              	.LVL156:
 1412              	.LBE144:
 1413              	.LBE146:
 1414              		.loc 1 366 0
 1415 01c4 99F80030 		ldrb	r3, [r9]	@ zero_extendqisi2
 1416 01c8 002B     		cmp	r3, #0
 1417 01ca 38D0     		beq	.L194
 1418 01cc DFF83C91 		ldr	r9, .L196+144
 1419 01d0 2D21     		movs	r1, #45
 1420              	.L134:
 1421              	.LVL157:
 1422              	.LBB147:
 1423              	.LBB148:
 1424              		.loc 1 113 0
 1425 01d2 2068     		ldr	r0, [r4]
ARM GAS  /tmp/ccEIYxcn.s 			page 26


 1426 01d4 0368     		ldr	r3, [r0]
 1427 01d6 9B68     		ldr	r3, [r3, #8]
 1428 01d8 9847     		blx	r3
 1429              	.LVL158:
 1430              		.loc 1 112 0
 1431 01da 19F8011F 		ldrb	r1, [r9, #1]!	@ zero_extendqisi2
 1432              	.LVL159:
 1433 01de 0029     		cmp	r1, #0
 1434 01e0 F7D1     		bne	.L134
 1435              	.LVL160:
 1436              	.LBE148:
 1437              	.LBE147:
 1438              		.loc 1 368 0
 1439 01e2 444B     		ldr	r3, .L196+120
 1440 01e4 DFF82891 		ldr	r9, .L196+148
 1441 01e8 1868     		ldr	r0, [r3]
 1442 01ea FFF7FEFF 		bl	test_printn
 1443              	.LVL161:
 1444 01ee 2021     		movs	r1, #32
 1445              	.LVL162:
 1446              	.L136:
 1447              	.LBB149:
 1448              	.LBB150:
 1449              		.loc 1 113 0
 1450 01f0 2068     		ldr	r0, [r4]
 1451 01f2 0368     		ldr	r3, [r0]
 1452 01f4 9B68     		ldr	r3, [r3, #8]
 1453 01f6 9847     		blx	r3
 1454              	.LVL163:
 1455              		.loc 1 112 0
 1456 01f8 19F8011F 		ldrb	r1, [r9, #1]!	@ zero_extendqisi2
 1457              	.LVL164:
 1458 01fc 0029     		cmp	r1, #0
 1459 01fe F7D1     		bne	.L136
 1460              	.LVL165:
 1461              	.LBE150:
 1462              	.LBE149:
 1463              	.LBB151:
 1464              	.LBB127:
 1465              		.loc 1 138 0
 1466 0200 3368     		ldr	r3, [r6]
 1467 0202 AB42     		cmp	r3, r5
 1468 0204 09D9     		bls	.L140
 1469 0206 394D     		ldr	r5, .L196+112
 1470              	.LVL166:
 1471              	.L139:
 1472              		.loc 1 139 0
 1473 0208 2068     		ldr	r0, [r4]
 1474 020a 15F8011B 		ldrb	r1, [r5], #1	@ zero_extendqisi2
 1475              	.LVL167:
 1476 020e 0368     		ldr	r3, [r0]
 1477 0210 9B68     		ldr	r3, [r3, #8]
 1478 0212 9847     		blx	r3
 1479              	.LVL168:
 1480              		.loc 1 138 0
 1481 0214 3368     		ldr	r3, [r6]
 1482 0216 9D42     		cmp	r5, r3
ARM GAS  /tmp/ccEIYxcn.s 			page 27


 1483 0218 F6D3     		bcc	.L139
 1484              	.LVL169:
 1485              	.L140:
 1486              	.LBE127:
 1487              	.LBE151:
 1488              		.loc 1 371 0
 1489 021a 3748     		ldr	r0, .L196+124
 1490 021c FFF7FEFF 		bl	test_println
 1491              	.LVL170:
 1492              		.loc 1 353 0
 1493 0220 57F8043F 		ldr	r3, [r7, #4]!
 1494 0224 002B     		cmp	r3, #0
 1495 0226 7FF47AAF 		bne	.L141
 1496              	.LVL171:
 1497              	.L193:
 1498              		.loc 1 351 0
 1499 022a 039B     		ldr	r3, [sp, #12]
 1500 022c 5BB1     		cbz	r3, .L142
 1501 022e 1F46     		mov	r7, r3
 1502 0230 029B     		ldr	r3, [sp, #8]
 1503 0232 1A46     		mov	r2, r3
 1504 0234 52F8043F 		ldr	r3, [r2, #4]!
 1505 0238 0393     		str	r3, [sp, #12]
 1506 023a 0292     		str	r2, [sp, #8]
 1507 023c 64E7     		b	.L147
 1508              	.LVL172:
 1509              	.L194:
 1510              		.loc 1 374 0
 1511 023e 2F48     		ldr	r0, .L196+128
 1512 0240 FFF7FEFF 		bl	test_println
 1513              	.LVL173:
 1514 0244 66E7     		b	.L143
 1515              	.LVL174:
 1516              	.L142:
 1517              		.loc 1 379 0
 1518 0246 FFF7FEFF 		bl	print_line
 1519              	.LVL175:
 1520              		.loc 1 380 0
 1521 024a 2D4D     		ldr	r5, .L196+132
 1522 024c 0D48     		ldr	r0, .L196+8
 1523 024e FFF7FEFF 		bl	test_println
 1524              	.LVL176:
 1525 0252 4621     		movs	r1, #70
 1526              	.LVL177:
 1527              	.L144:
 1528              	.LBB152:
 1529              	.LBB153:
 1530              		.loc 1 113 0
 1531 0254 2068     		ldr	r0, [r4]
 1532 0256 0368     		ldr	r3, [r0]
 1533 0258 9B68     		ldr	r3, [r3, #8]
 1534 025a 9847     		blx	r3
 1535              	.LVL178:
 1536              		.loc 1 112 0
 1537 025c 15F8011F 		ldrb	r1, [r5, #1]!	@ zero_extendqisi2
 1538              	.LVL179:
 1539 0260 0029     		cmp	r1, #0
ARM GAS  /tmp/ccEIYxcn.s 			page 28


 1540 0262 F7D1     		bne	.L144
 1541              	.LVL180:
 1542              	.LBE153:
 1543              	.LBE152:
 1544              		.loc 1 382 0
 1545 0264 1C4B     		ldr	r3, .L196+92
 1546 0266 1B78     		ldrb	r3, [r3]	@ zero_extendqisi2
 1547 0268 002B     		cmp	r3, #0
 1548 026a 53D1     		bne	.L195
 1549              		.loc 1 385 0
 1550 026c 2548     		ldr	r0, .L196+136
 1551 026e FFF7FEFF 		bl	test_println
 1552              	.LVL181:
 1553              		.loc 1 387 0
 1554 0272 194B     		ldr	r3, .L196+92
 1555 0274 1878     		ldrb	r0, [r3]	@ zero_extendqisi2
 1556              		.loc 1 388 0
 1557 0276 05B0     		add	sp, sp, #20
 1558              		.cfi_remember_state
 1559              		.cfi_def_cfa_offset 36
 1560              		@ sp needed
 1561 0278 BDE8F08F 		pop	{r4, r5, r6, r7, r8, r9, r10, fp, pc}
 1562              	.LVL182:
 1563              	.L197:
 1564              		.align	2
 1565              	.L196:
 1566 027c 00000000 		.word	.LANCHOR1
 1567 0280 04000000 		.word	.LC1
 1568 0284 E4000000 		.word	.LC14
 1569 0288 E8000000 		.word	.LC15
 1570 028c 04010000 		.word	.LC16
 1571 0290 34010000 		.word	.LC22
 1572 0294 18000000 		.word	.LC2
 1573 0298 3C010000 		.word	.LC23
 1574 029c 2C000000 		.word	.LC3
 1575 02a0 54010000 		.word	.LC24
 1576 02a4 40000000 		.word	.LC4
 1577 02a8 9C010000 		.word	.LC25
 1578 02ac 54000000 		.word	.LC5
 1579 02b0 A8010000 		.word	.LC26
 1580 02b4 68000000 		.word	.LC6
 1581 02b8 B4010000 		.word	.LC27
 1582 02bc 7C000000 		.word	.LC7
 1583 02c0 CC010000 		.word	.LC28
 1584 02c4 90000000 		.word	.LC8
 1585 02c8 04000000 		.word	.LANCHOR9+4
 1586 02cc 00020000 		.word	.LC29
 1587 02d0 00000000 		.word	patternsem
 1588 02d4 00000000 		.word	patternthd
 1589 02d8 00000000 		.word	.LANCHOR4
 1590 02dc A4000000 		.word	.LC9
 1591 02e0 B4000000 		.word	.LC10
 1592 02e4 08010000 		.word	.LC17
 1593 02e8 00000000 		.word	.LANCHOR2
 1594 02ec 00000000 		.word	.LANCHOR6
 1595 02f0 00000000 		.word	.LANCHOR7
 1596 02f4 00000000 		.word	.LANCHOR5
ARM GAS  /tmp/ccEIYxcn.s 			page 29


 1597 02f8 0C010000 		.word	.LC18
 1598 02fc 10010000 		.word	.LC19
 1599 0300 D4000000 		.word	.LC13
 1600 0304 2C010000 		.word	.LC21
 1601 0308 00000000 		.word	.LANCHOR3
 1602 030c B8000000 		.word	.LC11
 1603 0310 D0000000 		.word	.LC12
 1604              	.LVL183:
 1605              	.L195:
 1606              		.cfi_restore_state
 1607              		.loc 1 383 0
 1608 0314 0348     		ldr	r0, .L198
 1609 0316 FFF7FEFF 		bl	test_println
 1610              	.LVL184:
 1611              		.loc 1 387 0
 1612 031a 034B     		ldr	r3, .L198+4
 1613 031c 1878     		ldrb	r0, [r3]	@ zero_extendqisi2
 1614              		.loc 1 388 0
 1615 031e 05B0     		add	sp, sp, #20
 1616              		.cfi_def_cfa_offset 36
 1617              		@ sp needed
 1618 0320 BDE8F08F 		pop	{r4, r5, r6, r7, r8, r9, r10, fp, pc}
 1619              	.LVL185:
 1620              	.L199:
 1621              		.align	2
 1622              	.L198:
 1623 0324 24010000 		.word	.LC20
 1624 0328 00000000 		.word	.LANCHOR4
 1625              		.cfi_endproc
 1626              	.LFE129:
 1627              		.size	TestThread, .-TestThread
 1628              		.global	test_timer_done
 1629              		.global	wa
 1630              		.global	threads
 1631              		.global	test
 1632              		.section	.bss.test,"aw",%nobits
 1633              		.align	3
 1634              		.type	test, %object
 1635              		.size	test, 1680
 1636              	test:
 1637 0000 00000000 		.space	1680
 1637      00000000 
 1637      00000000 
 1637      00000000 
 1637      00000000 
 1638              		.section	.bss.failpoint,"aw",%nobits
 1639              		.align	2
 1640              		.set	.LANCHOR5,. + 0
 1641              		.type	failpoint, %object
 1642              		.size	failpoint, 4
 1643              	failpoint:
 1644 0000 00000000 		.space	4
 1645              		.section	.bss.local_fail,"aw",%nobits
 1646              		.set	.LANCHOR3,. + 0
 1647              		.type	local_fail, %object
 1648              		.size	local_fail, 1
 1649              	local_fail:
ARM GAS  /tmp/ccEIYxcn.s 			page 30


 1650 0000 00       		.space	1
 1651              		.section	.bss.test_timer_done,"aw",%nobits
 1652              		.set	.LANCHOR0,. + 0
 1653              		.type	test_timer_done, %object
 1654              		.size	test_timer_done, 1
 1655              	test_timer_done:
 1656 0000 00       		.space	1
 1657              		.section	.rodata.wa,"a",%progbits
 1658              		.align	2
 1659              		.type	wa, %object
 1660              		.size	wa, 20
 1661              	wa:
 1662 0000 00000000 		.word	test
 1663 0004 50010000 		.word	test+336
 1664 0008 A0020000 		.word	test+672
 1665 000c F0030000 		.word	test+1008
 1666 0010 40050000 		.word	test+1344
 1667              		.section	.bss.tokp,"aw",%nobits
 1668              		.align	2
 1669              		.set	.LANCHOR2,. + 0
 1670              		.type	tokp, %object
 1671              		.size	tokp, 4
 1672              	tokp:
 1673 0000 00000000 		.space	4
 1674              		.section	.bss.global_fail,"aw",%nobits
 1675              		.set	.LANCHOR4,. + 0
 1676              		.type	global_fail, %object
 1677              		.size	global_fail, 1
 1678              	global_fail:
 1679 0000 00       		.space	1
 1680              		.section	.rodata.str1.4,"aMS",%progbits,1
 1681              		.align	2
 1682              	.LC0:
 1683 0000 0D0A00   		.ascii	"\015\012\000"
 1684 0003 00       		.space	1
 1685              	.LC1:
 1686 0004 2A2A2A20 		.ascii	"*** Kernel:       \000"
 1686      4B65726E 
 1686      656C3A20 
 1686      20202020 
 1686      202000
 1687 0017 00       		.space	1
 1688              	.LC2:
 1689 0018 2A2A2A20 		.ascii	"*** Compiled:     \000"
 1689      436F6D70 
 1689      696C6564 
 1689      3A202020 
 1689      202000
 1690 002b 00       		.space	1
 1691              	.LC3:
 1692 002c 2A2A2A20 		.ascii	"*** Compiler:     \000"
 1692      436F6D70 
 1692      696C6572 
 1692      3A202020 
 1692      202000
 1693 003f 00       		.space	1
 1694              	.LC4:
ARM GAS  /tmp/ccEIYxcn.s 			page 31


 1695 0040 2A2A2A20 		.ascii	"*** Architecture: \000"
 1695      41726368 
 1695      69746563 
 1695      74757265 
 1695      3A2000
 1696 0053 00       		.space	1
 1697              	.LC5:
 1698 0054 2A2A2A20 		.ascii	"*** Core Variant: \000"
 1698      436F7265 
 1698      20566172 
 1698      69616E74 
 1698      3A2000
 1699 0067 00       		.space	1
 1700              	.LC6:
 1701 0068 2A2A2A20 		.ascii	"*** Port Info:    \000"
 1701      506F7274 
 1701      20496E66 
 1701      6F3A2020 
 1701      202000
 1702 007b 00       		.space	1
 1703              	.LC7:
 1704 007c 2A2A2A20 		.ascii	"*** Platform:     \000"
 1704      506C6174 
 1704      666F726D 
 1704      3A202020 
 1704      202000
 1705 008f 00       		.space	1
 1706              	.LC8:
 1707 0090 2A2A2A20 		.ascii	"*** Test Board:   \000"
 1707      54657374 
 1707      20426F61 
 1707      72643A20 
 1707      202000
 1708 00a3 00       		.space	1
 1709              	.LC9:
 1710 00a4 2D2D2D20 		.ascii	"--- Test Case \000"
 1710      54657374 
 1710      20436173 
 1710      652000
 1711 00b3 00       		.space	1
 1712              	.LC10:
 1713 00b4 202800   		.ascii	" (\000"
 1714 00b7 00       		.space	1
 1715              	.LC11:
 1716 00b8 2D2D2D20 		.ascii	"--- Result: FAILURE (#\000"
 1716      52657375 
 1716      6C743A20 
 1716      4641494C 
 1716      55524520 
 1717 00cf 00       		.space	1
 1718              	.LC12:
 1719 00d0 205B00   		.ascii	" [\000"
 1720 00d3 00       		.space	1
 1721              	.LC13:
 1722 00d4 46696E61 		.ascii	"Final result: \000"
 1722      6C207265 
 1722      73756C74 
ARM GAS  /tmp/ccEIYxcn.s 			page 32


 1722      3A2000
 1723 00e3 00       		.space	1
 1724              	.LC14:
 1725 00e4 00       		.ascii	"\000"
 1726 00e5 000000   		.space	3
 1727              	.LC15:
 1728 00e8 2A2A2A20 		.ascii	"*** ChibiOS/RT test suite\000"
 1728      43686962 
 1728      694F532F 
 1728      52542074 
 1728      65737420 
 1729 0102 0000     		.space	2
 1730              	.LC16:
 1731 0104 2A2A2A00 		.ascii	"***\000"
 1732              	.LC17:
 1733 0108 2900     		.ascii	")\000"
 1734 010a 0000     		.space	2
 1735              	.LC18:
 1736 010c 5D2900   		.ascii	"])\000"
 1737 010f 00       		.space	1
 1738              	.LC19:
 1739 0110 2D2D2D20 		.ascii	"--- Result: SUCCESS\000"
 1739      52657375 
 1739      6C743A20 
 1739      53554343 
 1739      45535300 
 1740              	.LC20:
 1741 0124 4641494C 		.ascii	"FAILURE\000"
 1741      55524500 
 1742              	.LC21:
 1743 012c 53554343 		.ascii	"SUCCESS\000"
 1743      45535300 
 1744              	.LC22:
 1745 0134 322E362E 		.ascii	"2.6.4\000"
 1745      3400
 1746 013a 0000     		.space	2
 1747              	.LC23:
 1748 013c 41707220 		.ascii	"Apr 12 2016 - 08:07:50\000"
 1748      31322032 
 1748      30313620 
 1748      2D203038 
 1748      3A30373A 
 1749 0153 00       		.space	1
 1750              	.LC24:
 1751 0154 47434320 		.ascii	"GCC 5.2.1 20151202 (release) [ARM/embedded-5-branch"
 1751      352E322E 
 1751      31203230 
 1751      31353132 
 1751      30322028 
 1752 0187 20726576 		.ascii	" revision 231848]\000"
 1752      6973696F 
 1752      6E203233 
 1752      31383438 
 1752      5D00
 1753 0199 000000   		.space	3
 1754              	.LC25:
 1755 019c 41524D76 		.ascii	"ARMv7-ME\000"
ARM GAS  /tmp/ccEIYxcn.s 			page 33


 1755      372D4D45 
 1755      00
 1756 01a5 000000   		.space	3
 1757              	.LC26:
 1758 01a8 436F7274 		.ascii	"Cortex-M4\000"
 1758      65782D4D 
 1758      3400
 1759 01b2 0000     		.space	2
 1760              	.LC27:
 1761 01b4 41647661 		.ascii	"Advanced kernel mode\000"
 1761      6E636564 
 1761      206B6572 
 1761      6E656C20 
 1761      6D6F6465 
 1762 01c9 000000   		.space	3
 1763              	.LC28:
 1764 01cc 53544D33 		.ascii	"STM32F407/F417 High Performance with DSP and FPU\000"
 1764      32463430 
 1764      372F4634 
 1764      31372048 
 1764      69676820 
 1765 01fd 000000   		.space	3
 1766              	.LC29:
 1767 0200 48616E64 		.ascii	"Hand made STM32F4x board\000"
 1767      206D6164 
 1767      65205354 
 1767      4D333246 
 1767      34782062 
 1768              		.section	.bss.vt,"aw",%nobits
 1769              		.align	2
 1770              		.set	.LANCHOR8,. + 0
 1771              		.type	vt, %object
 1772              		.size	vt, 20
 1773              	vt:
 1774 0000 00000000 		.space	20
 1774      00000000 
 1774      00000000 
 1774      00000000 
 1774      00000000 
 1775              		.section	.bss.threads,"aw",%nobits
 1776              		.align	2
 1777              		.set	.LANCHOR7,. + 0
 1778              		.type	threads, %object
 1779              		.size	threads, 20
 1780              	threads:
 1781 0000 00000000 		.space	20
 1781      00000000 
 1781      00000000 
 1781      00000000 
 1781      00000000 
 1782              		.section	.rodata.patterns,"a",%progbits
 1783              		.align	2
 1784              		.set	.LANCHOR9,. + 0
 1785              		.type	patterns, %object
 1786              		.size	patterns, 48
 1787              	patterns:
 1788 0000 00000000 		.word	patternthd
ARM GAS  /tmp/ccEIYxcn.s 			page 34


 1789 0004 00000000 		.word	patternsem
 1790 0008 00000000 		.word	patternmtx
 1791 000c 00000000 		.word	patternmsg
 1792 0010 00000000 		.word	patternmbox
 1793 0014 00000000 		.word	patternevt
 1794 0018 00000000 		.word	patternheap
 1795 001c 00000000 		.word	patternpools
 1796 0020 00000000 		.word	patterndyn
 1797 0024 00000000 		.word	patternqueues
 1798 0028 00000000 		.word	patternbmk
 1799 002c 00000000 		.word	0
 1800              		.section	.bss.chp,"aw",%nobits
 1801              		.align	2
 1802              		.set	.LANCHOR1,. + 0
 1803              		.type	chp, %object
 1804              		.size	chp, 4
 1805              	chp:
 1806 0000 00000000 		.space	4
 1807              		.section	.bss.tokens_buffer,"aw",%nobits
 1808              		.align	2
 1809              		.set	.LANCHOR6,. + 0
 1810              		.type	tokens_buffer, %object
 1811              		.size	tokens_buffer, 16
 1812              	tokens_buffer:
 1813 0000 00000000 		.space	16
 1813      00000000 
 1813      00000000 
 1813      00000000 
 1814              		.text
 1815              	.Letext0:
 1816              		.file 2 "/home/z80/programs/sw4stm32/plugins/fr.ac6.mcu.externaltools.arm-none.linux32_1.7.0.20160
 1817              		.file 3 "/home/z80/programs/sw4stm32/plugins/fr.ac6.mcu.externaltools.arm-none.linux32_1.7.0.20160
 1818              		.file 4 "/home/z80/programs/sw4stm32/plugins/fr.ac6.mcu.externaltools.arm-none.linux32_1.7.0.20160
 1819              		.file 5 "../../../os/ports/GCC/ARMCMx/chtypes.h"
 1820              		.file 6 "../../../os/kernel/include/chlists.h"
 1821              		.file 7 "../../../os/kernel/include/chthreads.h"
 1822              		.file 8 "../../../os/ports/GCC/ARMCMx/chcore_v7m.h"
 1823              		.file 9 "../../../os/kernel/include/chvt.h"
 1824              		.file 10 "../../../os/kernel/include/chschd.h"
 1825              		.file 11 "../../../os/kernel/include/chmtx.h"
 1826              		.file 12 "../../../os/kernel/include/chstreams.h"
 1827              		.file 13 "../../../test/test.h"
 1828              		.file 14 "../../../os/ports/common/ARMCMx/CMSIS/include/core_cm4.h"
 1829              		.file 15 "../../../test/testthd.h"
 1830              		.file 16 "../../../test/testsem.h"
 1831              		.file 17 "../../../test/testmtx.h"
 1832              		.file 18 "../../../test/testmsg.h"
 1833              		.file 19 "../../../test/testmbox.h"
 1834              		.file 20 "../../../test/testevt.h"
 1835              		.file 21 "../../../test/testheap.h"
 1836              		.file 22 "../../../test/testpools.h"
 1837              		.file 23 "../../../test/testdyn.h"
 1838              		.file 24 "../../../test/testqueues.h"
 1839              		.file 25 "../../../test/testbmk.h"
 1840              		.file 26 "../../../os/kernel/include/chdebug.h"